
E:/GitHub/HiFive01-RevB/FS_workspace/002_LED_Blink_All/src/debug/sifive-welcome.elf:     file format elf32-littleriscv
E:/GitHub/HiFive01-RevB/FS_workspace/002_LED_Blink_All/src/debug/sifive-welcome.elf
architecture: riscv:rv32, flags 0x00000112:
EXEC_P, HAS_SYMS, D_PAGED
start address 0x20010000

Program Header:
    LOAD off    0x00001000 vaddr 0x20010000 paddr 0x20010000 align 2**12
         filesz 0x00000ebc memsz 0x00000ebc flags rwx
    LOAD off    0x00007000 vaddr 0x80000000 paddr 0x20015938 align 2**12
         filesz 0x00000a98 memsz 0x00000a98 flags rw-
     TLS off    0x00000000 vaddr 0x00000000 paddr 0x00000000 align 2**2
         filesz 0x00000000 memsz 0x00000000 flags ---
    LOAD off    0x00000a98 vaddr 0x80000a98 paddr 0x80000a98 align 2**12
         filesz 0x00000000 memsz 0x00000c98 flags rw-
    LOAD off    0x00000114 vaddr 0x00000000 paddr 0x00000000 align 2**12
         filesz 0x00000000 memsz 0x00000000 flags ---
    LOAD off    0x00001f00 vaddr 0x20010f00 paddr 0x20010f00 align 2**12
         filesz 0x00004a32 memsz 0x00004a32 flags r-x
    LOAD off    0x00000114 vaddr 0x00000000 paddr 0x00000000 align 2**12
         filesz 0x00000000 memsz 0x00000000 flags ---

Sections:
Idx Name              Size      VMA       LMA       File off  Algn  Flags
  0 .init             000002dc  20010000  20010000  00001000  2**4  CONTENTS, ALLOC, LOAD, READONLY, CODE
  1 .init_array       00000008  200102e0  200102e0  000012e0  2**3  CONTENTS, ALLOC, LOAD, DATA
  2 .ctors            00000056  200102e8  200102e8  000012e8  2**1  CONTENTS, ALLOC, LOAD, READONLY, CODE
  3 .rodata           00000b7c  20010340  20010340  00001340  2**2  CONTENTS, ALLOC, LOAD, READONLY, DATA
  4 .text             00004a32  20010f00  20010f00  00001f00  2**7  CONTENTS, ALLOC, LOAD, READONLY, CODE
  5 .data             00000a98  80000000  20015938  00007000  2**3  CONTENTS, ALLOC, LOAD, DATA
  6 .bss              00000098  80000a98  80000a98  00007a98  2**3  ALLOC
  7 .stack            00000400  80000b30  80000b30  00007a98  2**4  ALLOC
  8 .heap             00000800  80000f30  80000f30  00007a98  2**3  ALLOC
  9 .debug_info       0001ebb8  00000000  00000000  00007a98  2**0  CONTENTS, READONLY, DEBUGGING, OCTETS
 10 .debug_abbrev     0000252f  00000000  00000000  00026650  2**0  CONTENTS, READONLY, DEBUGGING, OCTETS
 11 .debug_aranges    000009f8  00000000  00000000  00028b80  2**3  CONTENTS, READONLY, DEBUGGING, OCTETS
 12 .debug_ranges     00000888  00000000  00000000  00029578  2**3  CONTENTS, READONLY, DEBUGGING, OCTETS
 13 .debug_line       00009b7d  00000000  00000000  00029e00  2**0  CONTENTS, READONLY, DEBUGGING, OCTETS
 14 .debug_str        00004527  00000000  00000000  0003397d  2**0  CONTENTS, READONLY, DEBUGGING, OCTETS
 15 .comment          00000030  00000000  00000000  00037ea4  2**0  CONTENTS, READONLY
 16 .riscv.attributes 0000002f  00000000  00000000  00037ed4  2**0  CONTENTS, READONLY
 17 .debug_frame      000029b8  00000000  00000000  00037f04  2**2  CONTENTS, READONLY, DEBUGGING, OCTETS
SYMBOL TABLE:
20010000 l    d  .init	00000000 .init
200102e0 l    d  .init_array	00000000 .init_array
200102e8 l    d  .ctors	00000000 .ctors
20010340 l    d  .rodata	00000000 .rodata
20010f00 l    d  .text	00000000 .text
80000000 l    d  .data	00000000 .data
80000a98 l    d  .bss	00000000 .bss
80000b30 l    d  .stack	00000000 .stack
80000f30 l    d  .heap	00000000 .heap
00000000 l    d  .debug_info	00000000 .debug_info
00000000 l    d  .debug_abbrev	00000000 .debug_abbrev
00000000 l    d  .debug_aranges	00000000 .debug_aranges
00000000 l    d  .debug_ranges	00000000 .debug_ranges
00000000 l    d  .debug_line	00000000 .debug_line
00000000 l    d  .debug_str	00000000 .debug_str
00000000 l    d  .comment	00000000 .comment
00000000 l    d  .riscv.attributes	00000000 .riscv.attributes
00000000 l    d  .debug_frame	00000000 .debug_frame
00000000 l    df *ABS*	00000000 scrub.o
200100c0 l     F .init	00000000 __metal_memory_scrub
2001012e l       .init	00000000 skip_scrub
00000000 l    df *ABS*	00000000 synchronize_harts.c
00000000 l    df *ABS*	00000000 crt0.o
20010240 l       .init	00000000 _skip_init
20010e84 l       .rodata	00000000 argv
20010e88 l       .rodata	00000000 envp
20010e8c l       .rodata	00000000 name
00000000 l    df *ABS*	00000000 sifive_fe310-g000_pll.c
20013d08 l     F .text	0000001a __metal_driver_sifive_fe310_g000_pll_pllsel0
20013d22 l     F .text	0000001a __metal_driver_sifive_fe310_g000_pll_pllref
20013d3c l     F .text	00000016 __metal_driver_sifive_fe310_g000_pll_divider_base
20013d52 l     F .text	00000014 __metal_driver_sifive_fe310_g000_pll_divider_offset
20013d66 l     F .text	00000012 __metal_driver_sifive_fe310_g000_pll_config_base
20013d78 l     F .text	00000010 __metal_driver_sifive_fe310_g000_pll_config_offset
20013d88 l     F .text	00000016 __metal_driver_sifive_fe310_g000_pll_init_rate
20013d9e l     F .text	00000012 __metal_driver_sifive_fe310_g000_prci_base
20013db0 l     F .text	00000016 __metal_driver_sifive_fe310_g000_prci_vtable
20010548 l     O .rodata	00000880 pll_configs
20013dc6 l     F .text	0000004e get_pll_config_freq
20014028 l     F .text	000000aa find_closest_config
200140d2 l     F .text	000001b0 configure_pll
00000000 l    df *ABS*	00000000 sifive-welcome.c
00000000 l    df *ABS*	00000000 riscv_clint0.c
200110f6 l     F .text	0000002a __metal_driver_sifive_clint0_control_base
20011120 l     F .text	00000028 __metal_driver_sifive_clint0_num_interrupts
20011148 l     F .text	0000003c __metal_driver_sifive_clint0_interrupt_parents
20011184 l     F .text	00000030 __metal_driver_sifive_clint0_interrupt_lines
200112e4 l     F .text	00000036 _get_cpu_intc
00000000 l    df *ABS*	00000000 riscv_cpu.c
20011820 l     F .text	00000028 __metal_driver_cpu_hartid
20011848 l     F .text	0000002e __metal_driver_cpu_timebase
20011876 l     F .text	0000002e __metal_driver_cpu_interrupt_controller
200118a4 l     F .text	00000028 __metal_driver_cpu_buserror
00000000 l    df *ABS*	00000000 riscv_plic0.c
20013268 l     F .text	0000002a __metal_driver_sifive_plic0_control_base
20013292 l     F .text	0000002a __metal_driver_sifive_plic0_num_interrupts
200132bc l     F .text	00000028 __metal_driver_sifive_plic0_max_priority
200132e4 l     F .text	00000028 __metal_driver_sifive_plic0_interrupt_parents
2001330c l     F .text	00000022 __metal_driver_sifive_plic0_interrupt_lines
2001332e l     F .text	0000001e __metal_driver_sifive_plic0_context_ids
00000000 l    df *ABS*	00000000 sifive_gpio-leds.c
2001445c l     F .text	0000004a __metal_driver_sifive_gpio_led_gpio
200144a6 l     F .text	00000044 __metal_driver_sifive_gpio_led_pin
200144ea l     F .text	0000005c __metal_driver_sifive_gpio_led_label
00000000 l    df *ABS*	00000000 sifive_gpio0.c
2001467c l     F .text	00000026 __metal_driver_sifive_gpio0_base
200146a2 l     F .text	0000002a __metal_driver_sifive_gpio0_interrupt_parent
200146cc l     F .text	0000035e __metal_driver_sifive_gpio0_interrupt_lines
00000000 l    df *ABS*	00000000 sifive_fe310-g000_hfrosc.c
20013b18 l     F .text	0000001a __metal_driver_sifive_fe310_g000_hfrosc_ref
20013b32 l     F .text	00000016 __metal_driver_sifive_fe310_g000_hfrosc_config_base
20013b48 l     F .text	00000014 __metal_driver_sifive_fe310_g000_hfrosc_config_offset
20013b5c l     F .text	00000016 __metal_driver_sifive_fe310_g000_prci_vtable
00000000 l    df *ABS*	00000000 sifive_fe310-g000_hfxosc.c
20013c18 l     F .text	0000001a __metal_driver_sifive_fe310_g000_hfxosc_ref
20013c32 l     F .text	00000016 __metal_driver_sifive_fe310_g000_hfxosc_config_base
20013c48 l     F .text	00000014 __metal_driver_sifive_fe310_g000_hfxosc_config_offset
20013c5c l     F .text	00000016 __metal_driver_sifive_fe310_g000_prci_vtable
00000000 l    df *ABS*	00000000 sifive_fe310-g000_prci.c
200143e4 l     F .text	00000012 __metal_driver_sifive_fe310_g000_prci_base
00000000 l    df *ABS*	00000000 fixed-clock.c
20015400 l     F .text	00000070 __metal_driver_fixed_clock_rate
00000000 l    df *ABS*	00000000 impure.c
80000a0c l     O .data	00000060 impure_data
00000000 l    df *ABS*	00000000 led.c
00000000 l    df *ABS*	00000000 clock.c
00000000 l    df *ABS*	00000000 cpu.c
00000000 l    df *ABS*	00000000 gpio.c
00000000 l    df *ABS*	00000000 shutdown.c
00000000 l    df *ABS*	00000000 vector.o
20015380 l       .text	00000000 IRQ_0
20015384 l       .text	00000000 IRQ_1
20015388 l       .text	00000000 IRQ_2
2001538c l       .text	00000000 IRQ_3
20015390 l       .text	00000000 IRQ_4
20015394 l       .text	00000000 IRQ_5
20015398 l       .text	00000000 IRQ_6
2001539c l       .text	00000000 IRQ_7
200153a0 l       .text	00000000 IRQ_8
200153a4 l       .text	00000000 IRQ_9
200153a8 l       .text	00000000 IRQ_10
200153ac l       .text	00000000 IRQ_11
200153b0 l       .text	00000000 IRQ_12
200153b4 l       .text	00000000 IRQ_13
200153b8 l       .text	00000000 IRQ_14
200153bc l       .text	00000000 IRQ_15
200153c0 l       .text	00000000 IRQ_LC0
200153c4 l       .text	00000000 IRQ_LC1
200153c8 l       .text	00000000 IRQ_LC2
200153cc l       .text	00000000 IRQ_LC3
200153d0 l       .text	00000000 IRQ_LC4
200153d4 l       .text	00000000 IRQ_LC5
200153d8 l       .text	00000000 IRQ_LC6
200153dc l       .text	00000000 IRQ_LC7
200153e0 l       .text	00000000 IRQ_LC8
200153e4 l       .text	00000000 IRQ_LC9
200153e8 l       .text	00000000 IRQ_LC10
200153ec l       .text	00000000 IRQ_LC11
200153f0 l       .text	00000000 IRQ_LC12
200153f4 l       .text	00000000 IRQ_LC13
200153f8 l       .text	00000000 IRQ_LC14
200153fc l       .text	00000000 IRQ_LC15
00000000 l    df *ABS*	00000000 atexit.c
00000000 l    df *ABS*	00000000 exit.c
00000000 l    df *ABS*	00000000 fini.c
00000000 l    df *ABS*	00000000 init.c
00000000 l    df *ABS*	00000000 strcat.c
00000000 l    df *ABS*	00000000 strcpy.c
00000000 l    df *ABS*	00000000 __atexit.c
80000aa4 l     O .bss	0000008c _global_atexit0
00000000 l    df *ABS*	00000000 __call_atexit.c
00000000 l    df *ABS*	00000000 init.c
80000a9c l     O .bss	00000004 init_done.1
80000aa0 l     O .bss	00000004 fini_done.0
00000000 l    df *ABS*	00000000 sys_exit.c
00000000 l    df *ABS*	00000000 inline.c
00000000 l    df *ABS*	00000000 
200102e8 l       .init_array	00000000 metal_constructors_end
200102e8 l       .init_array	00000000 __fini_array_end
200102e8 l       .init_array	00000000 metal_destructors_end
200102e8 l       .init_array	00000000 metal_destructors_start
200102e8 l       .init_array	00000000 __fini_array_start
200102e0 l       .init_array	00000000 __init_array_end
200102e0 l       .init_array	00000000 __preinit_array_end
200102e0 l       .init_array	00000000 __init_array_start
200102e0 l       .init_array	00000000 metal_constructors_start
200102e0 l       .init_array	00000000 __preinit_array_start
20014546 g     F .text	00000036 __metal_driver_led_exist
200156b0 g     F .text	00000012 strcpy
2001214e  w    F .text	00000096 metal_lc4_interrupt_vector_handler
2001511c g     F .text	00000026 metal_clock_get_rate_hz
200114c0 g     F .text	00000058 __metal_driver_riscv_clint0_set_vector_mode
200120b8  w    F .text	00000096 metal_lc3_interrupt_vector_handler
20012960 g     F .text	00000058 __metal_valid_interrupt_id
200152e0 g     F .text	00000040 metal_gpio_toggle_pin
200102e4 g     O .init_array	00000004 _use_hfxosc_ptr
20012dd8 g     F .text	0000001c __metal_driver_riscv_cpu_controller_get_vector_mode
80001270 g       .data	00000000 __global_pointer$
2001103c g     F .text	00000024 metal_led_off
20013388 g     F .text	00000046 __metal_plic0_complete_interrupt
20012ba4 g     F .text	000001e0 __metal_driver_riscv_cpu_controller_interrupt_register
200102e0 g     O .init_array	00000004 _metal_sifive_fe310_g000_pll_init_ptr
20010df4 g     O .rodata	00000014 __metal_driver_vtable_sifive_led
80000a98 g       .data	00000000 __tls_base
200151b0 g     F .text	0000002e metal_cpu_get
20011018 g     F .text	00000024 metal_led_on
20014cb4 g     F .text	0000004a __metal_driver_sifive_gpio0_disable_io
20010358 g     O .rodata	00000064 __metal_driver_vtable_riscv_clint0
80000b30 g       .bss	00000000 metal_segment_bss_target_end
200111b4 g     F .text	0000009a __metal_clint0_mtime_get
200131dc g     F .text	0000002e __metal_driver_cpu_get_instruction_length
00000001 g       *ABS*	00000000 __metal_chicken_bit
20014a6a g     F .text	00000046 __metal_driver_sifive_gpio0_disable_input
08000000 g       .rodata	00000000 metal_segment_itim_target_start
20015238 g     F .text	00000040 metal_gpio_enable_output
20010142 g     F .init	0000000e __metal_synchronize_harts
80000a98 g       .data	00000000 metal_segment_bss_target_start
2001124e g     F .text	00000096 __metal_driver_riscv_clint0_mtimecmp_set
20014f04 g     F .text	00000188 __metal_driver_sifive_gpio0_clear_int
20013eb8 g     F .text	00000170 __metal_driver_sifive_fe310_g000_pll_get_rate_hz
00000400 g       *ABS*	00000000 __stack_size
200145c4 g     F .text	0000003e __metal_driver_led_on
2001243c  w    F .text	00000096 metal_lc9_interrupt_vector_handler
200100cc  w    F .init	00000000 __metal_before_start
200158f6  w    F .text	00000014 metal_init_run
200104e4 g     O .rodata	00000064 __metal_driver_vtable_riscv_plic0
200104a0 g     O .rodata	00000044 __metal_driver_vtable_cpu
00000000 g       *ABS*	00000000 __metal_eccscrub_bit
20012e64 g     F .text	00000070 __metal_driver_cpu_mcycle_get
20010dc8 g     O .rodata	0000000c __metal_driver_vtable_sifive_fe310_g000_pll
80000a7c g     O .data	00000008 __metal_dt_cpu_0
200123a6  w    F .text	00000096 metal_lc8_interrupt_vector_handler
20014282 g     F .text	00000162 __metal_driver_sifive_fe310_g000_pll_set_rate_hz
20013a7c g     F .text	00000074 __metal_driver_riscv_plic0_affinity_set_threshold
20012694  w    F .text	00000096 metal_lc13_interrupt_vector_handler
20015278 g     F .text	00000068 metal_gpio_set_pin
20011a3a g     F .text	00000018 __metal_default_exception_handler
200117ec g     F .text	00000034 __metal_driver_riscv_clint0_set_interrupt
20012df4 g     F .text	00000054 __metal_driver_riscv_cpu_controller_set_vector_mode
200118cc g     F .text	00000030 __metal_driver_cpu_get
2001043c g     O .rodata	00000064 __metal_driver_vtable_riscv_cpu_intc
2001192e g     F .text	00000018 __metal_interrupt_global_disable
20013af0 g     F .text	00000028 __metal_driver_riscv_plic0_affinity_get_threshold
20010ff4 g     F .text	00000024 metal_led_enable
20012310  w    F .text	00000096 metal_lc7_interrupt_vector_handler
200124d2  w    F .text	00000096 metal_lc10_interrupt_vector_handler
2001389e g     F .text	0000004e __metal_driver_riscv_plic0_disable
20012a74 g     F .text	0000004e __metal_exception_register
20011060 g     F .text	00000096 metal_led_get_rgb
20015806 g     F .text	00000078 metal_init
20012ff6 g     F .text	0000001a __metal_driver_cpu_timer_controller_interrupt
20014b4c g     F .text	00000040 __metal_driver_sifive_gpio0_enable_output
80000000 g       .rodata	00000000 metal_segment_lim_target_end
20011b2a g     F .text	00000068 __metal_default_sw_handler
80000018 g     O .data	0000000c __metal_dt_clock_2
20014c12 g     F .text	00000040 __metal_driver_sifive_gpio0_output_toggle
20010eb0 g     O .rodata	00000008 __metal_driver_vtable_fixed_clock
20010eb8 g     O .rodata	00000004 _global_impure_ptr
20011b92  w    F .text	00000092 metal_timer_interrupt_vector_handler
20015518 g     F .text	0000005e __libc_init_array
20014602 g     F .text	0000003e __metal_driver_led_off
80000a90 g     O .data	00000004 __metal_dt_led_2
20014b8c g     F .text	00000040 __metal_driver_sifive_gpio0_output_set
20012568  w    F .text	00000096 metal_lc11_interrupt_vector_handler
20013ce6 g     F .text	00000022 __metal_driver_sifive_fe310_g000_hfxosc_set_rate_hz
20012d84 g     F .text	0000002a __metal_driver_riscv_cpu_controller_interrupt_enable
20014b06 g     F .text	00000046 __metal_driver_sifive_gpio0_disable_output
200150da g     F .text	00000042 _metal_clock_call_all_callbacks
200102ba g     F .init	00000002 _init
20011990 g     F .text	0000001a __metal_interrupt_timer_disable
20014cfe g     F .text	00000206 __metal_driver_sifive_gpio0_config_int
200130b4 g     F .text	00000062 __metal_driver_cpu_clear_sw_ipi
20010e48 g     O .rodata	0000003c __metal_driver_vtable_sifive_gpio0
20014c52 g     F .text	00000062 __metal_driver_sifive_gpio0_enable_io
200154e2 g     F .text	00000036 __libc_fini_array
80000a00 g     O .data	0000000c __metal_dt_clock_4
2001587e g     F .text	00000078 metal_fini
2001508c g     F .text	00000020 __metal_driver_gpio_interrupt_controller
2001303e g     F .text	00000014 __metal_driver_cpu_get_sw_interrupt_id
20013248 g     F .text	00000020 __metal_driver_cpu_get_buserror
80000000 g       .data	00000000 metal_segment_data_target_start
200119e2 g     F .text	0000002c __metal_interrupt_local_enable
200117b8 g     F .text	00000034 __metal_driver_riscv_clint0_clear_interrupt
20013586 g     F .text	00000018 __metal_plic0_default_handler
00000000 g       *ABS*	00000000 __tbss_size
8000000c g     O .data	0000000c __metal_dt_clock_0
20015576 g     F .text	0000001c strcat
00000800 g       *ABS*	00000000 __heap_size
200138ec g     F .text	00000030 __metal_driver_riscv_plic0_set_threshold
20011c24 g     F .text	00000016 __metal_default_beu_handler
200119c6 g     F .text	0000001c __metal_interrupt_external_disable
20012e48 g     F .text	0000001c __metal_driver_riscv_cpu_controller_command_request
20012ac2 g     F .text	000000e2 __metal_driver_riscv_cpu_controller_interrupt_init
20013196 g     F .text	00000046 __metal_driver_cpu_exception_register
20011946 g     F .text	00000018 __metal_interrupt_software_enable
20011f8c  w    F .text	00000096 metal_lc1_interrupt_vector_handler
80000a98 g     O .bss	00000004 _global_atexit
2001344e g     F .text	00000062 __metal_driver_riscv_plic0_set_priority
20012856 g     F .text	00000058 __metal_controller_interrupt_vector_mode
2001573e g     F .text	000000c8 __call_exitprocs
80000f30 g       .stack	00000000 _sp
20010150 g     F .init	00000000 _start
20013b72 g     F .text	00000084 __metal_driver_sifive_fe310_g000_hfrosc_get_rate_hz
20013176 g     F .text	00000020 __metal_driver_cpu_controller_interrupt
2001320a g     F .text	0000001e __metal_driver_cpu_get_exception_pc
200119aa g     F .text	0000001c __metal_interrupt_external_enable
200156c2 g     F .text	0000007c __register_exitproc
20013642 g     F .text	00000150 __metal_driver_riscv_plic0_init
20013850 g     F .text	0000004e __metal_driver_riscv_plic0_enable
20014ada g     F .text	0000002c __metal_driver_sifive_gpio0_output
2001227a  w    F .text	00000096 metal_lc6_interrupt_vector_handler
200118fc g     F .text	0000001a __metal_myhart_id
200150ac g     F .text	0000002e __metal_driver_gpio_get_interrupt_id
20011a98  w    F .text	00000092 metal_software_interrupt_vector_handler
20012dae g     F .text	0000002a __metal_driver_riscv_cpu_controller_interrupt_disable
200113a2 g     F .text	000000da __metal_driver_riscv_clint0_register
200151f8 g     F .text	00000040 metal_gpio_disable_input
80000a74 g     O .data	00000008 __metal_dt_clint_2000000
20015142 g     F .text	00000048 metal_clock_set_rate_hz
20014a2a g     F .text	00000040 __metal_driver_sifive_gpio0_enable_input
200102bc  w    F .init	00000000 secondary_main
20011a6a  w    F .text	0000002e metal_interrupt_vector_handler
20013414 g     F .text	0000003a __metal_plic0_get_threshold
200143f6 g     F .text	0000002e __metal_driver_sifive_fe310_g000_prci_get_reg
200129b8 g     F .text	000000bc __metal_local_interrupt_enable
2001167c g     F .text	0000013c __metal_driver_riscv_clint0_command_request
200121e4  w    F .text	00000096 metal_lc5_interrupt_vector_handler
20010f00 g     F .text	000000ac main
80000a98 g       .data	00000000 metal_segment_data_target_end
20010e98 g     O .rodata	00000008 __metal_driver_vtable_sifive_fe310_g000_hfrosc
20013052 g     F .text	00000062 __metal_driver_cpu_set_sw_ipi
20013116 g     F .text	00000060 __metal_driver_cpu_get_msip
20015320 g     F .text	0000000e metal_shutdown
08000000 g       .rodata	00000000 metal_segment_itim_target_end
20013228 g     F .text	00000020 __metal_driver_cpu_set_exception_pc
20014640 g     F .text	0000003c __metal_driver_led_toggle
2001334c g     F .text	0000003c __metal_plic0_claim_interrupt
80000000  w    O .data	0000000c __metal_led_table
200125fe  w    F .text	00000096 metal_lc12_interrupt_vector_handler
2001008a g     F .init	00000000 metal_mem_scrub
80000a8c g     O .data	00000004 __metal_dt_led_1
200114a4 g     F .text	0000001c __metal_driver_riscv_clint0_get_vector_mode
2001457c g     F .text	00000048 __metal_driver_led_enable
80000a94 g     O .data	00000004 __metal_dt_prci_10008000
20012ed4 g     F .text	00000046 __metal_driver_cpu_timebase_get
200139e0 g     F .text	0000009c __metal_driver_riscv_plic0_affinity_disable
20010000 g       .init	00000000 _enter
200151de g     F .text	0000001a metal_cpu_get_current_hartid
20015592 g     F .text	0000011e strcmp
20013c72 g     F .text	00000074 __metal_driver_sifive_fe310_g000_hfxosc_get_rate_hz
20015380 g       .text	00000000 __metal_vector_table
20010ec0 g       *ABS*	00000000 metal_segment_itim_source_start
80000a70  w    O .data	00000004 __metal_cpu_table
20010fac g     F .text	00000048 delay
80000040 g     O .data	000003d0 __metal_dt_cpu_0_interrupt_controller
200102ba g     F .init	00000002 _fini
80000000 g       .rodata	00000000 metal_segment_lim_target_start
200134b0 g     F .text	00000034 __metal_driver_riscv_plic0_get_priority
20010314 g     F .ctors	0000002a use_hfxosc
20011916 g     F .text	00000018 __metal_interrupt_global_enable
200154b0 g     F .text	0000000a atexit
20011976 g     F .text	0000001a __metal_interrupt_timer_enable
200115ca g     F .text	000000b2 __metal_driver_riscv_clint0_disable
20012f80 g     F .text	00000076 __metal_driver_cpu_mtimecmp_set
2001391c g     F .text	00000028 __metal_driver_riscv_plic0_get_threshold
20013e14 g     F .text	000000a4 __metal_driver_sifive_fe310_g000_pll_init
80000024 g     O .data	0000000c __metal_dt_clock_5
20014424 g     F .text	00000038 __metal_driver_sifive_fe310_g000_prci_set_reg
20015470 g     F .text	0000001e __metal_driver_fixed_clock_get_rate_hz
20011518 g     F .text	000000b2 __metal_driver_riscv_clint0_enable
20015938 g       *ABS*	00000000 metal_segment_data_source_start
20010134 g       .init	00000000 early_trap_vector
200128ae g     F .text	000000b2 __metal_controller_interrupt_vector
800009f4 g     O .data	0000000c __metal_dt_clock_1
80000410 g     O .data	000005d8 __metal_dt_interrupt_controller_c000000
20014bcc g     F .text	00000046 __metal_driver_sifive_gpio0_output_clear
20011c3a g     F .text	00000066 __metal_default_timer_handler
2001359e g     F .text	000000a4 __metal_plic0_handler
20012022  w    F .text	00000096 metal_lc2_interrupt_vector_handler
200127c0  w    F .text	00000096 metal_lc15_interrupt_vector_handler
2001518a g     F .text	00000026 metal_cpu_interrupt_controller
200154ba g     F .text	00000028 exit
2001548e g     F .text	00000022 __metal_driver_fixed_clock_set_rate_hz
20010ec0 g       *ABS*	00000000 metal_segment_lim_source_start
80000a84 g     O .data	00000004 __metal_dt_gpio_10012000
20011a52 g     F .text	00000018 __metal_default_interrupt_handler
2001590a  w    F .text	00000014 metal_fini_run
20014ab0 g     F .text	0000002a __metal_driver_sifive_gpio0_input
20011d00 g     F .text	0000017c __metal_exception_handler
20011ef6  w    F .text	00000096 metal_lc0_interrupt_vector_handler
2001591e g     F .text	00000014 _exit
20012f1a g     F .text	00000066 __metal_driver_cpu_mtime_get
2001147c g     F .text	00000028 __metal_driver_riscv_clint0_vector_register
2001272a  w    F .text	00000096 metal_lc14_interrupt_vector_handler
20010ea0 g     O .rodata	00000008 __metal_driver_vtable_sifive_fe310_g000_hfxosc
2001131a g     F .text	00000088 __metal_driver_riscv_clint0_init
200102e8 g     F .ctors	0000002c metal_sifive_fe310_g000_pll_init
20013010 g     F .text	00000014 __metal_driver_cpu_get_timer_interrupt_id
200134e4 g     F .text	000000a2 __metal_plic0_enable
20010088  w      .init	00000000 __register_frame_info
20013bf6 g     F .text	00000022 __metal_driver_sifive_fe310_g000_hfrosc_set_rate_hz
20013024 g     F .text	0000001a __metal_driver_cpu_sw_controller_interrupt
20011a0e g     F .text	0000002c __metal_interrupt_local_disable
2001195e g     F .text	00000018 __metal_interrupt_software_disable
800009e8 g     O .data	0000000c __metal_dt_clock_3
80000030 g     O .data	0000000c __metal_dt_clock_6
200133ce g     F .text	00000046 __metal_plic0_set_threshold
80000a88 g     O .data	00000004 __metal_dt_led_0
20013944 g     F .text	0000009c __metal_driver_riscv_plic0_affinity_enable
20010ea8 g     O .rodata	00000008 __metal_driver_vtable_sifive_fe310_g000_prci
00000000 g       *ABS*	00000000 __metal_boot_hart
20013792 g     F .text	000000be __metal_driver_riscv_plic0_register



Disassembly of section .init:

20010000 <_enter>:
_enter():
E:/GitHub/HiFive01-RevB/FS_workspace/002_LED_Blink_All/freedom-metal/src/entry.S:24
     * it's not valid to obtain the address of any symbol without GP
     * configured.  The C environment might go ahead and do this again, but
     * that's safe as it's a fixed register. */
.option push
.option norelax
    la gp, __global_pointer$
20010000:	5fff1197          	auipc	gp,0x5fff1
20010004:	27018193          	addi	gp,gp,624 # 80001270 <__global_pointer$>
E:/GitHub/HiFive01-RevB/FS_workspace/002_LED_Blink_All/freedom-metal/src/entry.S:28
.option pop

    /* trap over the chicken bit register clearing, aloe & fe310 dont have it */
    la t0, 1f
20010008:	00000297          	auipc	t0,0x0
2001000c:	01828293          	addi	t0,t0,24 # 20010020 <_enter+0x20>
E:/GitHub/HiFive01-RevB/FS_workspace/002_LED_Blink_All/freedom-metal/src/entry.S:29
    csrw mtvec, t0
20010010:	30529073          	csrw	mtvec,t0
E:/GitHub/HiFive01-RevB/FS_workspace/002_LED_Blink_All/freedom-metal/src/entry.S:31
    /* chicken bit is enable if core are sifive series. */
    la t0, __metal_chicken_bit
20010014:	00100293          	li	t0,1
E:/GitHub/HiFive01-RevB/FS_workspace/002_LED_Blink_All/freedom-metal/src/entry.S:32
    beqz t0, 1f
20010018:	00028463          	beqz	t0,20010020 <_enter+0x20>
E:/GitHub/HiFive01-RevB/FS_workspace/002_LED_Blink_All/freedom-metal/src/entry.S:34
    /* If set, always clear the feature disable register for all cores series */
    csrwi 0x7C1, 0
2001001c:	7c105073          	csrwi	0x7c1,0
E:/GitHub/HiFive01-RevB/FS_workspace/002_LED_Blink_All/freedom-metal/src/entry.S:39
.align 4
1:
    /* Set up a simple trap vector to catch anything that goes wrong early in
     * the boot process. */
    la t0, early_trap_vector
20010020:	00000297          	auipc	t0,0x0
20010024:	11428293          	addi	t0,t0,276 # 20010134 <early_trap_vector>
E:/GitHub/HiFive01-RevB/FS_workspace/002_LED_Blink_All/freedom-metal/src/entry.S:40
    csrw mtvec, t0
20010028:	30529073          	csrw	mtvec,t0
E:/GitHub/HiFive01-RevB/FS_workspace/002_LED_Blink_All/freedom-metal/src/entry.S:48
     * C, so here we set up a C environment. First we set up a stack pointer,
     * which is left as a weak reference in order to allow initialization
     * routines that do not need a stack to be set up to transparently be
     * called. */
    .weak __metal_stack_pointer
    la sp, __metal_stack_pointer
2001002c:	00000113          	li	sp,0
E:/GitHub/HiFive01-RevB/FS_workspace/002_LED_Blink_All/freedom-metal/src/entry.S:55
   /* The METAL is designed for a bare-metal environment and therefore is expected
    * to define its own stack pointer. We also align the stack pointer here
    * because the only RISC-V ABI that's currently defined, mandates 16-byte
    * stack alignment. */

    bne sp, zero, 1f
20010030:	00011463          	bnez	sp,20010038 <_enter+0x38>
E:/GitHub/HiFive01-RevB/FS_workspace/002_LED_Blink_All/freedom-metal/src/entry.S:56
    la sp, _sp
20010034:	cc018113          	addi	sp,gp,-832 # 80000f30 <_sp>
E:/GitHub/HiFive01-RevB/FS_workspace/002_LED_Blink_All/freedom-metal/src/entry.S:59
1:
    /* Increment by hartid number of stack sizes */
    csrr a0, mhartid
20010038:	f1402573          	csrr	a0,mhartid
E:/GitHub/HiFive01-RevB/FS_workspace/002_LED_Blink_All/freedom-metal/src/entry.S:60
    li t0, 0
2001003c:	4281                	li	t0,0
E:/GitHub/HiFive01-RevB/FS_workspace/002_LED_Blink_All/freedom-metal/src/entry.S:61
    la t1, __stack_size
2001003e:	40000313          	li	t1,1024
E:/GitHub/HiFive01-RevB/FS_workspace/002_LED_Blink_All/freedom-metal/src/entry.S:63
1:
    andi sp, sp, -16
20010042:	ff017113          	andi	sp,sp,-16
E:/GitHub/HiFive01-RevB/FS_workspace/002_LED_Blink_All/freedom-metal/src/entry.S:64
    beq t0, a0, 1f
20010046:	00a28563          	beq	t0,a0,20010050 <_enter+0x50>
E:/GitHub/HiFive01-RevB/FS_workspace/002_LED_Blink_All/freedom-metal/src/entry.S:65
    add sp, sp, t1
2001004a:	911a                	add	sp,sp,t1
E:/GitHub/HiFive01-RevB/FS_workspace/002_LED_Blink_All/freedom-metal/src/entry.S:66
    addi t0, t0, 1
2001004c:	0285                	addi	t0,t0,1
E:/GitHub/HiFive01-RevB/FS_workspace/002_LED_Blink_All/freedom-metal/src/entry.S:67
    j 1b
2001004e:	bfd5                	j	20010042 <_enter+0x42>
E:/GitHub/HiFive01-RevB/FS_workspace/002_LED_Blink_All/freedom-metal/src/entry.S:76
     * just skip over the call entirely.   Note that __metal_initialize isn't
     * actually a full C function, as it doesn't end up with the .bss or .data
     * segments having been initialized.  This is done to avoid putting a
     * burden on systems that can be initialized without having a C environment
     * set up. */
    la ra, __metal_before_start
20010050:	00000097          	auipc	ra,0x0
20010054:	07c08093          	addi	ra,ra,124 # 200100cc <__metal_before_start>
E:/GitHub/HiFive01-RevB/FS_workspace/002_LED_Blink_All/freedom-metal/src/entry.S:77
    beqz ra, 1f
20010058:	00008363          	beqz	ra,2001005e <_enter+0x5e>
E:/GitHub/HiFive01-RevB/FS_workspace/002_LED_Blink_All/freedom-metal/src/entry.S:78
    jalr ra
2001005c:	9082                	jalr	ra
E:/GitHub/HiFive01-RevB/FS_workspace/002_LED_Blink_All/freedom-metal/src/entry.S:84
1:

    /* At this point we can enter the C runtime's startup file.  The arguments
     * to this function are designed to match those provided to the SEE, just
     * so we don't have to write another ABI. */
    csrr a0, mhartid
2001005e:	f1402573          	csrr	a0,mhartid
E:/GitHub/HiFive01-RevB/FS_workspace/002_LED_Blink_All/freedom-metal/src/entry.S:85
    li a1, 0
20010062:	4581                	li	a1,0
E:/GitHub/HiFive01-RevB/FS_workspace/002_LED_Blink_All/freedom-metal/src/entry.S:86
    li a2, 0
20010064:	4601                	li	a2,0
E:/GitHub/HiFive01-RevB/FS_workspace/002_LED_Blink_All/freedom-metal/src/entry.S:87
    call _start
20010066:	20ed                	jal	20010150 <_start>
E:/GitHub/HiFive01-RevB/FS_workspace/002_LED_Blink_All/freedom-metal/src/entry.S:92

    /* If we've made it back here then there's probably something wrong.  We
     * allow the METAL to register a handler here. */
    .weak __metal_after_main
    la ra, __metal_after_main
20010068:	00000093          	li	ra,0
E:/GitHub/HiFive01-RevB/FS_workspace/002_LED_Blink_All/freedom-metal/src/entry.S:93
    beqz ra, 1f
2001006c:	00008363          	beqz	ra,20010072 <_enter+0x72>
E:/GitHub/HiFive01-RevB/FS_workspace/002_LED_Blink_All/freedom-metal/src/entry.S:94
    jalr ra
20010070:	9082                	jalr	ra
E:/GitHub/HiFive01-RevB/FS_workspace/002_LED_Blink_All/freedom-metal/src/entry.S:99
1:

    /* If that handler returns then there's not a whole lot we can do.  Just
     * try to make some noise. */
     la t0, 1f
20010072:	00000297          	auipc	t0,0x0
20010076:	00c28293          	addi	t0,t0,12 # 2001007e <_enter+0x7e>
E:/GitHub/HiFive01-RevB/FS_workspace/002_LED_Blink_All/freedom-metal/src/entry.S:100
     csrw mtvec, t0
2001007a:	30529073          	csrw	mtvec,t0
E:/GitHub/HiFive01-RevB/FS_workspace/002_LED_Blink_All/freedom-metal/src/entry.S:102
1:
     lw t1, 0(x0)
2001007e:	00002303          	lw	t1,0(zero) # 0 <__metal_boot_hart>
E:/GitHub/HiFive01-RevB/FS_workspace/002_LED_Blink_All/freedom-metal/src/entry.S:103
     j 1b
20010082:	bff5                	j	2001007e <_enter+0x7e>
20010084:	0000                	unimp
	...

20010088 <__register_frame_info>:
__register_frame_info():
E:/GitHub/HiFive01-RevB/FS_workspace/002_LED_Blink_All/freedom-metal/src/entry.S:117
.weak __register_frame_info
.global __register_frame_info
.section .text.metal.init.__register_frame_info
__register_frame_info:
    .cfi_startproc
    ret
20010088:	8082                	ret

2001008a <metal_mem_scrub>:
metal_mem_scrub():
E:/GitHub/HiFive01-RevB/FS_workspace/002_LED_Blink_All/freedom-metal/src/scrub.S:24
.type metal_mem_scrub, @function
metal_mem_scrub:

    /* Disable machine interrupts,
    restore previous mstatus value at exit */
    li      a3, 8
2001008a:	46a1                	li	a3,8
E:/GitHub/HiFive01-RevB/FS_workspace/002_LED_Blink_All/freedom-metal/src/scrub.S:25
    csrrc   t1, mstatus, a3
2001008c:	3006b373          	csrrc	t1,mstatus,a3
E:/GitHub/HiFive01-RevB/FS_workspace/002_LED_Blink_All/freedom-metal/src/scrub.S:28

#if __riscv_xlen == 32
    addi    t0, x0, 4
20010090:	4291                	li	t0,4
E:/GitHub/HiFive01-RevB/FS_workspace/002_LED_Blink_All/freedom-metal/src/scrub.S:30
1:
    blt     a1, t0, 2f
20010092:	0055c563          	blt	a1,t0,2001009c <metal_mem_scrub+0x12>
E:/GitHub/HiFive01-RevB/FS_workspace/002_LED_Blink_All/freedom-metal/src/scrub.S:31
    andi    a2, a0, 3
20010096:	00357613          	andi	a2,a0,3
E:/GitHub/HiFive01-RevB/FS_workspace/002_LED_Blink_All/freedom-metal/src/scrub.S:32
    beqz    a2, 3f
2001009a:	ca11                	beqz	a2,200100ae <metal_mem_scrub+0x24>
E:/GitHub/HiFive01-RevB/FS_workspace/002_LED_Blink_All/freedom-metal/src/scrub.S:34
2:
    sb      x0, 0(a0)
2001009c:	00050023          	sb	zero,0(a0)
E:/GitHub/HiFive01-RevB/FS_workspace/002_LED_Blink_All/freedom-metal/src/scrub.S:35
    addi    a0, a0, 1
200100a0:	0505                	addi	a0,a0,1
E:/GitHub/HiFive01-RevB/FS_workspace/002_LED_Blink_All/freedom-metal/src/scrub.S:36
    addi    a1, a1, -1
200100a2:	15fd                	addi	a1,a1,-1
E:/GitHub/HiFive01-RevB/FS_workspace/002_LED_Blink_All/freedom-metal/src/scrub.S:37
    bgtz    a1, 1b
200100a4:	feb047e3          	bgtz	a1,20010092 <metal_mem_scrub+0x8>
E:/GitHub/HiFive01-RevB/FS_workspace/002_LED_Blink_All/freedom-metal/src/scrub.S:38
    csrw    mstatus, t1
200100a8:	30031073          	csrw	mstatus,t1
E:/GitHub/HiFive01-RevB/FS_workspace/002_LED_Blink_All/freedom-metal/src/scrub.S:39
    ret
200100ac:	8082                	ret
E:/GitHub/HiFive01-RevB/FS_workspace/002_LED_Blink_All/freedom-metal/src/scrub.S:41
3:
    sw      x0, 0(a0)
200100ae:	00052023          	sw	zero,0(a0)
E:/GitHub/HiFive01-RevB/FS_workspace/002_LED_Blink_All/freedom-metal/src/scrub.S:42
    addi    a0, a0, 4
200100b2:	0511                	addi	a0,a0,4
E:/GitHub/HiFive01-RevB/FS_workspace/002_LED_Blink_All/freedom-metal/src/scrub.S:43
    addi    a1, a1, -4
200100b4:	15f1                	addi	a1,a1,-4
E:/GitHub/HiFive01-RevB/FS_workspace/002_LED_Blink_All/freedom-metal/src/scrub.S:44
    bgtz    a1, 1b
200100b6:	fcb04ee3          	bgtz	a1,20010092 <metal_mem_scrub+0x8>
E:/GitHub/HiFive01-RevB/FS_workspace/002_LED_Blink_All/freedom-metal/src/scrub.S:45
    csrw    mstatus, t1
200100ba:	30031073          	csrw	mstatus,t1
E:/GitHub/HiFive01-RevB/FS_workspace/002_LED_Blink_All/freedom-metal/src/scrub.S:46
    ret
200100be:	8082                	ret

200100c0 <__metal_memory_scrub>:
__metal_memory_scrub():
E:/GitHub/HiFive01-RevB/FS_workspace/002_LED_Blink_All/freedom-metal/src/scrub.S:74
.type __metal_memory_scrub, @function
__metal_memory_scrub:
/* Zero out specified memory regions */
1:
#if __riscv_xlen == 32
    sw      x0, 0(t1)
200100c0:	00032023          	sw	zero,0(t1)
E:/GitHub/HiFive01-RevB/FS_workspace/002_LED_Blink_All/freedom-metal/src/scrub.S:75
    addi    t1, t1, 4
200100c4:	0311                	addi	t1,t1,4
E:/GitHub/HiFive01-RevB/FS_workspace/002_LED_Blink_All/freedom-metal/src/scrub.S:76
    blt     t1, t2, 1b
200100c6:	fe734de3          	blt	t1,t2,200100c0 <__metal_memory_scrub>
E:/GitHub/HiFive01-RevB/FS_workspace/002_LED_Blink_All/freedom-metal/src/scrub.S:82
#else
    sd      x0, 0(t1)
    addi    t1, t1, 8
    blt     t1, t2, 1b
#endif
    ret
200100ca:	8082                	ret

200100cc <__metal_before_start>:
__metal_before_start():
E:/GitHub/HiFive01-RevB/FS_workspace/002_LED_Blink_All/freedom-metal/src/scrub.S:94
.weak __metal_before_start
.global __metal_before_start
.type __metal_before_start, @function
__metal_before_start:
    /* Save caller ra */
    mv      s0, ra
200100cc:	8406                	mv	s0,ra
E:/GitHub/HiFive01-RevB/FS_workspace/002_LED_Blink_All/freedom-metal/src/scrub.S:96

    la      t0, __metal_eccscrub_bit
200100ce:	dfff0297          	auipc	t0,0xdfff0
200100d2:	f3228293          	addi	t0,t0,-206 # 0 <__metal_boot_hart>
E:/GitHub/HiFive01-RevB/FS_workspace/002_LED_Blink_All/freedom-metal/src/scrub.S:97
    beqz    t0, skip_scrub
200100d6:	04028c63          	beqz	t0,2001012e <skip_scrub>
E:/GitHub/HiFive01-RevB/FS_workspace/002_LED_Blink_All/freedom-metal/src/scrub.S:99

    la      t0, __metal_boot_hart
200100da:	dfff0297          	auipc	t0,0xdfff0
200100de:	f2628293          	addi	t0,t0,-218 # 0 <__metal_boot_hart>
E:/GitHub/HiFive01-RevB/FS_workspace/002_LED_Blink_All/freedom-metal/src/scrub.S:100
    csrr    a5, mhartid
200100e2:	f14027f3          	csrr	a5,mhartid
E:/GitHub/HiFive01-RevB/FS_workspace/002_LED_Blink_All/freedom-metal/src/scrub.S:103

    /* Disable machine interrupts to be safe */
    li      a3, 8
200100e6:	46a1                	li	a3,8
E:/GitHub/HiFive01-RevB/FS_workspace/002_LED_Blink_All/freedom-metal/src/scrub.S:104
    csrc    mstatus, a3
200100e8:	3006b073          	csrc	mstatus,a3
E:/GitHub/HiFive01-RevB/FS_workspace/002_LED_Blink_All/freedom-metal/src/scrub.S:107

    /* Zero out per hart stack */
    mv      t1, sp
200100ec:	830a                	mv	t1,sp
E:/GitHub/HiFive01-RevB/FS_workspace/002_LED_Blink_All/freedom-metal/src/scrub.S:108
    la      t2, __stack_size
200100ee:	dfff0397          	auipc	t2,0xdfff0
200100f2:	31238393          	addi	t2,t2,786 # 400 <__stack_size>
E:/GitHub/HiFive01-RevB/FS_workspace/002_LED_Blink_All/freedom-metal/src/scrub.S:109
    add     t2, t2, sp
200100f6:	938a                	add	t2,t2,sp
E:/GitHub/HiFive01-RevB/FS_workspace/002_LED_Blink_All/freedom-metal/src/scrub.S:110
    beq     t1, t2, 1f
200100f8:	00730363          	beq	t1,t2,200100fe <__metal_before_start+0x32>
E:/GitHub/HiFive01-RevB/FS_workspace/002_LED_Blink_All/freedom-metal/src/scrub.S:111
    jal     __metal_memory_scrub
200100fc:	37d1                	jal	200100c0 <__metal_memory_scrub>
E:/GitHub/HiFive01-RevB/FS_workspace/002_LED_Blink_All/freedom-metal/src/scrub.S:113
1:
    bne     a5, t0, skip_scrub
200100fe:	02579863          	bne	a5,t0,2001012e <skip_scrub>
E:/GitHub/HiFive01-RevB/FS_workspace/002_LED_Blink_All/freedom-metal/src/scrub.S:116

    /* Zero out data segment */
    la      t1, metal_segment_data_target_start
20010102:	5fff0317          	auipc	t1,0x5fff0
20010106:	efe30313          	addi	t1,t1,-258 # 80000000 <__metal_led_table>
E:/GitHub/HiFive01-RevB/FS_workspace/002_LED_Blink_All/freedom-metal/src/scrub.S:117
    la      t2, metal_segment_data_target_end
2001010a:	5fff1397          	auipc	t2,0x5fff1
2001010e:	98e38393          	addi	t2,t2,-1650 # 80000a98 <_global_atexit>
E:/GitHub/HiFive01-RevB/FS_workspace/002_LED_Blink_All/freedom-metal/src/scrub.S:118
    beq     t1, t2, 1f
20010112:	00730363          	beq	t1,t2,20010118 <__metal_before_start+0x4c>
E:/GitHub/HiFive01-RevB/FS_workspace/002_LED_Blink_All/freedom-metal/src/scrub.S:119
    jal     __metal_memory_scrub
20010116:	376d                	jal	200100c0 <__metal_memory_scrub>
E:/GitHub/HiFive01-RevB/FS_workspace/002_LED_Blink_All/freedom-metal/src/scrub.S:122
1:
    /* Zero out itim memory */
    la      t1, metal_segment_itim_target_start
20010118:	e7ff0317          	auipc	t1,0xe7ff0
2001011c:	ee830313          	addi	t1,t1,-280 # 8000000 <metal_segment_itim_target_end>
E:/GitHub/HiFive01-RevB/FS_workspace/002_LED_Blink_All/freedom-metal/src/scrub.S:123
    la      t2, metal_segment_itim_target_end
20010120:	e7ff0397          	auipc	t2,0xe7ff0
20010124:	ee038393          	addi	t2,t2,-288 # 8000000 <metal_segment_itim_target_end>
E:/GitHub/HiFive01-RevB/FS_workspace/002_LED_Blink_All/freedom-metal/src/scrub.S:124
    beq     t1, t2, skip_scrub
20010128:	00730363          	beq	t1,t2,2001012e <skip_scrub>
E:/GitHub/HiFive01-RevB/FS_workspace/002_LED_Blink_All/freedom-metal/src/scrub.S:125
    jal     __metal_memory_scrub
2001012c:	3f51                	jal	200100c0 <__metal_memory_scrub>

2001012e <skip_scrub>:
skip_scrub():
E:/GitHub/HiFive01-RevB/FS_workspace/002_LED_Blink_All/freedom-metal/src/scrub.S:129

skip_scrub:
    /* Restore caller ra */
    mv      ra, s0
2001012e:	80a2                	mv	ra,s0
E:/GitHub/HiFive01-RevB/FS_workspace/002_LED_Blink_All/freedom-metal/src/scrub.S:130
    ret
20010130:	8082                	ret
	...

20010134 <early_trap_vector>:
early_trap_vector():
E:/GitHub/HiFive01-RevB/FS_workspace/002_LED_Blink_All/freedom-metal/src/trap.S:64
.section .text.metal.init.trapvec
.global early_trap_vector
.align 2
early_trap_vector:
    .cfi_startproc
    csrr t0, mcause
20010134:	342022f3          	csrr	t0,mcause
E:/GitHub/HiFive01-RevB/FS_workspace/002_LED_Blink_All/freedom-metal/src/trap.S:65
    csrr t1, mepc
20010138:	34102373          	csrr	t1,mepc
E:/GitHub/HiFive01-RevB/FS_workspace/002_LED_Blink_All/freedom-metal/src/trap.S:66
    csrr t2, mtval
2001013c:	343023f3          	csrr	t2,mtval
E:/GitHub/HiFive01-RevB/FS_workspace/002_LED_Blink_All/freedom-metal/src/trap.S:67
    j early_trap_vector
20010140:	bfd5                	j	20010134 <early_trap_vector>

20010142 <__metal_synchronize_harts>:
__metal_synchronize_harts():
E:/GitHub/HiFive01-RevB/FS_workspace/002_LED_Blink_All/freedom-metal/src/synchronize_harts.c:19
/*
 * _synchronize_harts() is called by crt0.S to cause harts > 0 to wait for
 * hart 0 to finish copying the datat section, zeroing the BSS, and running
 * the libc contstructors.
 */
__attribute__((section(".init"))) void __metal_synchronize_harts() {
20010142:	1141                	addi	sp,sp,-16
20010144:	c622                	sw	s0,12(sp)
20010146:	0800                	addi	s0,sp,16
E:/GitHub/HiFive01-RevB/FS_workspace/002_LED_Blink_All/freedom-metal/src/synchronize_harts.c:66
        while (METAL_MSIP(msip_base, hart) == 1)
            ;
    }

#endif /* __METAL_DT_MAX_HARTS > 1 */
}
20010148:	0001                	nop
2001014a:	4432                	lw	s0,12(sp)
2001014c:	0141                	addi	sp,sp,16
2001014e:	8082                	ret

20010150 <_start>:
_start():
E:/GitHub/HiFive01-RevB/FS_workspace/002_LED_Blink_All/freedom-metal/gloss/crt0.S:36
.cfi_startproc
.cfi_undefined ra

  /* This is a bit funky: it's not usually sane for _start to return, but in
   * this case we actually want to in order to signal an error to the METAL. */
  mv s0, ra
20010150:	8406                	mv	s0,ra
E:/GitHub/HiFive01-RevB/FS_workspace/002_LED_Blink_All/freedom-metal/gloss/crt0.S:44
   * safely perform any access that may be relaxed without GP being set.  This
   * is done with relaxation disabled to avoid relaxing the address calculation
   * to just "addi gp, gp, 0". */
.option push
.option norelax
  la gp, __global_pointer$
20010152:	5fff1197          	auipc	gp,0x5fff1
20010156:	11e18193          	addi	gp,gp,286 # 80001270 <__global_pointer$>
E:/GitHub/HiFive01-RevB/FS_workspace/002_LED_Blink_All/freedom-metal/gloss/crt0.S:50
.option pop

  /* Stack pointer is expected to be initialized before _start */

  /* If we're not hart 0, skip the initialization work */
  la t0, __metal_boot_hart
2001015a:	00000293          	li	t0,0
E:/GitHub/HiFive01-RevB/FS_workspace/002_LED_Blink_All/freedom-metal/gloss/crt0.S:51
  bne a0, t0, _skip_init
2001015e:	0e551163          	bne	a0,t0,20010240 <_skip_init>
E:/GitHub/HiFive01-RevB/FS_workspace/002_LED_Blink_All/freedom-metal/gloss/crt0.S:60
   * boot and then need to get relocated into a non-persistant writable memory
   * before C code can execute.  If this is the case we do so here.  This step
   * is optional: if the METAL provides an environment in which this relocation
   * is not necessary then it must simply set metal_segment_data_source_start to
   * be equal to metal_segment_data_target_start. */
  la t0, metal_segment_data_source_start
20010162:	00005297          	auipc	t0,0x5
20010166:	7d628293          	addi	t0,t0,2006 # 20015938 <metal_segment_data_source_start>
E:/GitHub/HiFive01-RevB/FS_workspace/002_LED_Blink_All/freedom-metal/gloss/crt0.S:61
  la t1, metal_segment_data_target_start
2001016a:	5fff0317          	auipc	t1,0x5fff0
2001016e:	e9630313          	addi	t1,t1,-362 # 80000000 <__metal_led_table>
E:/GitHub/HiFive01-RevB/FS_workspace/002_LED_Blink_All/freedom-metal/gloss/crt0.S:62
  la t2, metal_segment_data_target_end
20010172:	5fff1397          	auipc	t2,0x5fff1
20010176:	92638393          	addi	t2,t2,-1754 # 80000a98 <_global_atexit>
E:/GitHub/HiFive01-RevB/FS_workspace/002_LED_Blink_All/freedom-metal/gloss/crt0.S:64

  beq t0, t1, 2f
2001017a:	00628c63          	beq	t0,t1,20010192 <_start+0x42>
E:/GitHub/HiFive01-RevB/FS_workspace/002_LED_Blink_All/freedom-metal/gloss/crt0.S:65
  bge t1, t2, 2f
2001017e:	00735a63          	bge	t1,t2,20010192 <_start+0x42>
E:/GitHub/HiFive01-RevB/FS_workspace/002_LED_Blink_All/freedom-metal/gloss/crt0.S:69

1:
#if __riscv_xlen == 32
  lw   a0, 0(t0)
20010182:	0002a503          	lw	a0,0(t0)
E:/GitHub/HiFive01-RevB/FS_workspace/002_LED_Blink_All/freedom-metal/gloss/crt0.S:70
  addi t0, t0, 4
20010186:	0291                	addi	t0,t0,4
E:/GitHub/HiFive01-RevB/FS_workspace/002_LED_Blink_All/freedom-metal/gloss/crt0.S:71
  sw   a0, 0(t1)
20010188:	00a32023          	sw	a0,0(t1)
E:/GitHub/HiFive01-RevB/FS_workspace/002_LED_Blink_All/freedom-metal/gloss/crt0.S:72
  addi t1, t1, 4
2001018c:	0311                	addi	t1,t1,4
E:/GitHub/HiFive01-RevB/FS_workspace/002_LED_Blink_All/freedom-metal/gloss/crt0.S:73
  blt  t1, t2, 1b
2001018e:	fe734ae3          	blt	t1,t2,20010182 <_start+0x32>
E:/GitHub/HiFive01-RevB/FS_workspace/002_LED_Blink_All/freedom-metal/gloss/crt0.S:84
  blt  t1, t2, 1b
#endif
2:

  /* Copy the ITIM section */
  la t0, metal_segment_itim_source_start
20010192:	00001297          	auipc	t0,0x1
20010196:	d2e28293          	addi	t0,t0,-722 # 20010ec0 <metal_segment_itim_source_start>
E:/GitHub/HiFive01-RevB/FS_workspace/002_LED_Blink_All/freedom-metal/gloss/crt0.S:85
  la t1, metal_segment_itim_target_start
2001019a:	e7ff0317          	auipc	t1,0xe7ff0
2001019e:	e6630313          	addi	t1,t1,-410 # 8000000 <metal_segment_itim_target_end>
E:/GitHub/HiFive01-RevB/FS_workspace/002_LED_Blink_All/freedom-metal/gloss/crt0.S:86
  la t2, metal_segment_itim_target_end
200101a2:	e7ff0397          	auipc	t2,0xe7ff0
200101a6:	e5e38393          	addi	t2,t2,-418 # 8000000 <metal_segment_itim_target_end>
E:/GitHub/HiFive01-RevB/FS_workspace/002_LED_Blink_All/freedom-metal/gloss/crt0.S:88

  beq t0, t1, 2f
200101aa:	00628c63          	beq	t0,t1,200101c2 <_start+0x72>
E:/GitHub/HiFive01-RevB/FS_workspace/002_LED_Blink_All/freedom-metal/gloss/crt0.S:89
  bge t1, t2, 2f
200101ae:	00735a63          	bge	t1,t2,200101c2 <_start+0x72>
E:/GitHub/HiFive01-RevB/FS_workspace/002_LED_Blink_All/freedom-metal/gloss/crt0.S:93

1:
#if __riscv_xlen == 32
  lw   a0, 0(t0)
200101b2:	0002a503          	lw	a0,0(t0)
E:/GitHub/HiFive01-RevB/FS_workspace/002_LED_Blink_All/freedom-metal/gloss/crt0.S:94
  addi t0, t0, 4
200101b6:	0291                	addi	t0,t0,4
E:/GitHub/HiFive01-RevB/FS_workspace/002_LED_Blink_All/freedom-metal/gloss/crt0.S:95
  sw   a0, 0(t1)
200101b8:	00a32023          	sw	a0,0(t1)
E:/GitHub/HiFive01-RevB/FS_workspace/002_LED_Blink_All/freedom-metal/gloss/crt0.S:96
  addi t1, t1, 4
200101bc:	0311                	addi	t1,t1,4
E:/GitHub/HiFive01-RevB/FS_workspace/002_LED_Blink_All/freedom-metal/gloss/crt0.S:97
  blt  t1, t2, 1b
200101be:	fe734ae3          	blt	t1,t2,200101b2 <_start+0x62>
E:/GitHub/HiFive01-RevB/FS_workspace/002_LED_Blink_All/freedom-metal/gloss/crt0.S:109
#endif
2:

  /* Fence all subsequent instruction fetches until after the ITIM writes
     complete */
  fence.i
200101c2:	0000100f          	fence.i
E:/GitHub/HiFive01-RevB/FS_workspace/002_LED_Blink_All/freedom-metal/gloss/crt0.S:114

2:

  /* Copy the LIM section */
  la t0, metal_segment_lim_source_start
200101c6:	00001297          	auipc	t0,0x1
200101ca:	cfa28293          	addi	t0,t0,-774 # 20010ec0 <metal_segment_itim_source_start>
E:/GitHub/HiFive01-RevB/FS_workspace/002_LED_Blink_All/freedom-metal/gloss/crt0.S:115
  la t1, metal_segment_lim_target_start
200101ce:	5fff0317          	auipc	t1,0x5fff0
200101d2:	e3230313          	addi	t1,t1,-462 # 80000000 <__metal_led_table>
E:/GitHub/HiFive01-RevB/FS_workspace/002_LED_Blink_All/freedom-metal/gloss/crt0.S:116
  la t2, metal_segment_lim_target_end
200101d6:	5fff0397          	auipc	t2,0x5fff0
200101da:	e2a38393          	addi	t2,t2,-470 # 80000000 <__metal_led_table>
E:/GitHub/HiFive01-RevB/FS_workspace/002_LED_Blink_All/freedom-metal/gloss/crt0.S:118

  beq t0, t1, 2f
200101de:	00628c63          	beq	t0,t1,200101f6 <_start+0xa6>
E:/GitHub/HiFive01-RevB/FS_workspace/002_LED_Blink_All/freedom-metal/gloss/crt0.S:119
  bge t1, t2, 2f
200101e2:	00735a63          	bge	t1,t2,200101f6 <_start+0xa6>
E:/GitHub/HiFive01-RevB/FS_workspace/002_LED_Blink_All/freedom-metal/gloss/crt0.S:123

1:
#if __riscv_xlen == 32
  lw   a0, 0(t0)
200101e6:	0002a503          	lw	a0,0(t0)
E:/GitHub/HiFive01-RevB/FS_workspace/002_LED_Blink_All/freedom-metal/gloss/crt0.S:124
  addi t0, t0, 4
200101ea:	0291                	addi	t0,t0,4
E:/GitHub/HiFive01-RevB/FS_workspace/002_LED_Blink_All/freedom-metal/gloss/crt0.S:125
  sw   a0, 0(t1)
200101ec:	00a32023          	sw	a0,0(t1)
E:/GitHub/HiFive01-RevB/FS_workspace/002_LED_Blink_All/freedom-metal/gloss/crt0.S:126
  addi t1, t1, 4
200101f0:	0311                	addi	t1,t1,4
E:/GitHub/HiFive01-RevB/FS_workspace/002_LED_Blink_All/freedom-metal/gloss/crt0.S:127
  blt  t1, t2, 1b
200101f2:	fe734ae3          	blt	t1,t2,200101e6 <_start+0x96>
E:/GitHub/HiFive01-RevB/FS_workspace/002_LED_Blink_All/freedom-metal/gloss/crt0.S:139
#endif
2:

  /* Fence all subsequent instruction fetches until after the LIM writes
     complete */
  fence.i
200101f6:	0000100f          	fence.i
E:/GitHub/HiFive01-RevB/FS_workspace/002_LED_Blink_All/freedom-metal/gloss/crt0.S:142

  /* Zero the BSS segment. */
  la t1, metal_segment_bss_target_start
200101fa:	5fff1317          	auipc	t1,0x5fff1
200101fe:	89e30313          	addi	t1,t1,-1890 # 80000a98 <_global_atexit>
E:/GitHub/HiFive01-RevB/FS_workspace/002_LED_Blink_All/freedom-metal/gloss/crt0.S:143
  la t2, metal_segment_bss_target_end
20010202:	8c018393          	addi	t2,gp,-1856 # 80000b30 <metal_segment_bss_target_end>
E:/GitHub/HiFive01-RevB/FS_workspace/002_LED_Blink_All/freedom-metal/gloss/crt0.S:145

  bge t1, t2, 2f
20010206:	00735763          	bge	t1,t2,20010214 <_start+0xc4>
E:/GitHub/HiFive01-RevB/FS_workspace/002_LED_Blink_All/freedom-metal/gloss/crt0.S:149

1:
#if __riscv_xlen == 32
  sw   x0, 0(t1)
2001020a:	00032023          	sw	zero,0(t1)
E:/GitHub/HiFive01-RevB/FS_workspace/002_LED_Blink_All/freedom-metal/gloss/crt0.S:150
  addi t1, t1, 4
2001020e:	0311                	addi	t1,t1,4
E:/GitHub/HiFive01-RevB/FS_workspace/002_LED_Blink_All/freedom-metal/gloss/crt0.S:151
  blt  t1, t2, 1b
20010210:	fe734de3          	blt	t1,t2,2001020a <_start+0xba>
E:/GitHub/HiFive01-RevB/FS_workspace/002_LED_Blink_All/freedom-metal/gloss/crt0.S:161
#endif
2:

  /* Set TLS pointer */
  .weak __tls_base	
  la tp, __tls_base
20010214:	5fff1217          	auipc	tp,0x5fff1
20010218:	88420213          	addi	tp,tp,-1916 # 80000a98 <_global_atexit>
E:/GitHub/HiFive01-RevB/FS_workspace/002_LED_Blink_All/freedom-metal/gloss/crt0.S:166

  /* At this point we're in an environment that can execute C code.  The first
   * thing to do is to make the callback to the parent environment if it's been
   * requested to do so. */
  beqz a2, 1f
2001021c:	c211                	beqz	a2,20010220 <_start+0xd0>
E:/GitHub/HiFive01-RevB/FS_workspace/002_LED_Blink_All/freedom-metal/gloss/crt0.S:167
  jalr a2
2001021e:	9602                	jalr	a2
E:/GitHub/HiFive01-RevB/FS_workspace/002_LED_Blink_All/freedom-metal/gloss/crt0.S:171
1:

  /* The RISC-V port only uses new-style constructors and destructors. */
  la a0, __libc_fini_array
20010220:	00005517          	auipc	a0,0x5
20010224:	2c250513          	addi	a0,a0,706 # 200154e2 <__libc_fini_array>
E:/GitHub/HiFive01-RevB/FS_workspace/002_LED_Blink_All/freedom-metal/gloss/crt0.S:172
  call atexit
20010228:	288050ef          	jal	ra,200154b0 <atexit>
E:/GitHub/HiFive01-RevB/FS_workspace/002_LED_Blink_All/freedom-metal/gloss/crt0.S:173
  call __libc_init_array
2001022c:	2ec050ef          	jal	ra,20015518 <__libc_init_array>
E:/GitHub/HiFive01-RevB/FS_workspace/002_LED_Blink_All/freedom-metal/gloss/crt0.S:177

  /* Register metal_fini_run as a destructor and call metal_init_run to
   * run and setup Metal constructors */
  la a0, metal_fini_run
20010230:	00005517          	auipc	a0,0x5
20010234:	6da50513          	addi	a0,a0,1754 # 2001590a <metal_fini_run>
E:/GitHub/HiFive01-RevB/FS_workspace/002_LED_Blink_All/freedom-metal/gloss/crt0.S:178
  call atexit
20010238:	278050ef          	jal	ra,200154b0 <atexit>
E:/GitHub/HiFive01-RevB/FS_workspace/002_LED_Blink_All/freedom-metal/gloss/crt0.S:179
  call metal_init_run
2001023c:	6ba050ef          	jal	ra,200158f6 <metal_init_run>

20010240 <_skip_init>:
_skip_init():
E:/GitHub/HiFive01-RevB/FS_workspace/002_LED_Blink_All/freedom-metal/gloss/crt0.S:185

_skip_init:

  /* Synchronize harts so that secondary harts wait until hart 0 finishes
     initializing */
  call __metal_synchronize_harts
20010240:	3709                	jal	20010142 <__metal_synchronize_harts>
E:/GitHub/HiFive01-RevB/FS_workspace/002_LED_Blink_All/freedom-metal/gloss/crt0.S:188

  /* Disable and clear all interrupt sources */
  li   a3, -1
20010242:	56fd                	li	a3,-1
E:/GitHub/HiFive01-RevB/FS_workspace/002_LED_Blink_All/freedom-metal/gloss/crt0.S:189
  csrc mie, a3
20010244:	3046b073          	csrc	mie,a3
E:/GitHub/HiFive01-RevB/FS_workspace/002_LED_Blink_All/freedom-metal/gloss/crt0.S:190
  csrc mip, a3
20010248:	3446b073          	csrc	mip,a3
E:/GitHub/HiFive01-RevB/FS_workspace/002_LED_Blink_All/freedom-metal/gloss/crt0.S:194

  /* The delegation CSRs exist if user mode interrupts (N extension) or
   * supervisor mode (S extension) are supported */
  csrr a5, misa
2001024c:	301027f3          	csrr	a5,misa
E:/GitHub/HiFive01-RevB/FS_workspace/002_LED_Blink_All/freedom-metal/gloss/crt0.S:195
  lui  a4, 0x42
20010250:	00042737          	lui	a4,0x42
E:/GitHub/HiFive01-RevB/FS_workspace/002_LED_Blink_All/freedom-metal/gloss/crt0.S:196
  and  a4, a4, a5
20010254:	8f7d                	and	a4,a4,a5
E:/GitHub/HiFive01-RevB/FS_workspace/002_LED_Blink_All/freedom-metal/gloss/crt0.S:197
  beqz a4, 1f
20010256:	c709                	beqz	a4,20010260 <_skip_init+0x20>
E:/GitHub/HiFive01-RevB/FS_workspace/002_LED_Blink_All/freedom-metal/gloss/crt0.S:198
  csrc mideleg, a3
20010258:	3036b073          	csrc	mideleg,a3
E:/GitHub/HiFive01-RevB/FS_workspace/002_LED_Blink_All/freedom-metal/gloss/crt0.S:199
  csrc medeleg, a3
2001025c:	3026b073          	csrc	medeleg,a3
E:/GitHub/HiFive01-RevB/FS_workspace/002_LED_Blink_All/freedom-metal/gloss/crt0.S:203
1:

  /* The satp CSR exists if supervisor mode (S extension) is supported */
  lui  a4, 0x40
20010260:	00040737          	lui	a4,0x40
E:/GitHub/HiFive01-RevB/FS_workspace/002_LED_Blink_All/freedom-metal/gloss/crt0.S:204
  and  a4, a4, a5
20010264:	8f7d                	and	a4,a4,a5
E:/GitHub/HiFive01-RevB/FS_workspace/002_LED_Blink_All/freedom-metal/gloss/crt0.S:205
  beqz a4, 1f
20010266:	c319                	beqz	a4,2001026c <_skip_init+0x2c>
E:/GitHub/HiFive01-RevB/FS_workspace/002_LED_Blink_All/freedom-metal/gloss/crt0.S:206
  csrc satp, a3
20010268:	1806b073          	csrc	satp,a3
E:/GitHub/HiFive01-RevB/FS_workspace/002_LED_Blink_All/freedom-metal/gloss/crt0.S:210
1:

  /* Check RISC-V isa and enable FS bits if Floating Point architecture. */
  li   a4, 0x10028
2001026c:	6741                	lui	a4,0x10
2001026e:	02870713          	addi	a4,a4,40 # 10028 <__heap_size+0xf828>
E:/GitHub/HiFive01-RevB/FS_workspace/002_LED_Blink_All/freedom-metal/gloss/crt0.S:211
  and  a5, a5, a4
20010272:	8ff9                	and	a5,a5,a4
E:/GitHub/HiFive01-RevB/FS_workspace/002_LED_Blink_All/freedom-metal/gloss/crt0.S:212
  beqz a5, 1f
20010274:	cb89                	beqz	a5,20010286 <_skip_init+0x46>
E:/GitHub/HiFive01-RevB/FS_workspace/002_LED_Blink_All/freedom-metal/gloss/crt0.S:213
  csrr a5, mstatus
20010276:	300027f3          	csrr	a5,mstatus
E:/GitHub/HiFive01-RevB/FS_workspace/002_LED_Blink_All/freedom-metal/gloss/crt0.S:214
  lui  a4, 0x2
2001027a:	6709                	lui	a4,0x2
E:/GitHub/HiFive01-RevB/FS_workspace/002_LED_Blink_All/freedom-metal/gloss/crt0.S:215
  or   a5, a5, a4
2001027c:	8fd9                	or	a5,a5,a4
E:/GitHub/HiFive01-RevB/FS_workspace/002_LED_Blink_All/freedom-metal/gloss/crt0.S:216
  csrw mstatus, a5
2001027e:	30079073          	csrw	mstatus,a5
E:/GitHub/HiFive01-RevB/FS_workspace/002_LED_Blink_All/freedom-metal/gloss/crt0.S:217
  csrwi fcsr, 0
20010282:	00305073          	csrwi	fcsr,0
E:/GitHub/HiFive01-RevB/FS_workspace/002_LED_Blink_All/freedom-metal/gloss/crt0.S:221
1:

  /* Check for vector extension support and enable it if found */
  csrr a5, misa
20010286:	301027f3          	csrr	a5,misa
E:/GitHub/HiFive01-RevB/FS_workspace/002_LED_Blink_All/freedom-metal/gloss/crt0.S:222
  li a4, 0x200000
2001028a:	00200737          	lui	a4,0x200
E:/GitHub/HiFive01-RevB/FS_workspace/002_LED_Blink_All/freedom-metal/gloss/crt0.S:223
  and a5, a5, a4
2001028e:	8ff9                	and	a5,a5,a4
E:/GitHub/HiFive01-RevB/FS_workspace/002_LED_Blink_All/freedom-metal/gloss/crt0.S:224
  beqz a5, 1f
20010290:	c799                	beqz	a5,2001029e <_skip_init+0x5e>
E:/GitHub/HiFive01-RevB/FS_workspace/002_LED_Blink_All/freedom-metal/gloss/crt0.S:225
  csrr a5, mstatus
20010292:	300027f3          	csrr	a5,mstatus
E:/GitHub/HiFive01-RevB/FS_workspace/002_LED_Blink_All/freedom-metal/gloss/crt0.S:226
  ori a5, a5, 0x200
20010296:	2007e793          	ori	a5,a5,512
E:/GitHub/HiFive01-RevB/FS_workspace/002_LED_Blink_All/freedom-metal/gloss/crt0.S:227
  csrw mstatus, a5
2001029a:	30079073          	csrw	mstatus,a5
E:/GitHub/HiFive01-RevB/FS_workspace/002_LED_Blink_All/freedom-metal/gloss/crt0.S:233
1:

  /* This is a C runtime, so main() is defined to have some arguments.  Since
   * there's nothing sane the METAL can pass we don't bother with that but
   * instead just setup as close to a NOP as we can. */
  li a0, 1     /* argc=1 */
2001029e:	4505                	li	a0,1
E:/GitHub/HiFive01-RevB/FS_workspace/002_LED_Blink_All/freedom-metal/gloss/crt0.S:234
  la a1, argv  /* argv = {"libgloss", NULL} */
200102a0:	00001597          	auipc	a1,0x1
200102a4:	be458593          	addi	a1,a1,-1052 # 20010e84 <argv>
E:/GitHub/HiFive01-RevB/FS_workspace/002_LED_Blink_All/freedom-metal/gloss/crt0.S:235
  la a2, envp  /* envp = {NULL} */
200102a8:	00001617          	auipc	a2,0x1
200102ac:	be060613          	addi	a2,a2,-1056 # 20010e88 <envp>
E:/GitHub/HiFive01-RevB/FS_workspace/002_LED_Blink_All/freedom-metal/gloss/crt0.S:236
  call secondary_main
200102b0:	2031                	jal	200102bc <secondary_main>
E:/GitHub/HiFive01-RevB/FS_workspace/002_LED_Blink_All/freedom-metal/gloss/crt0.S:242

  /* Call exit to handle libc's cleanup routines.  Under normal contains this
   * shouldn't even get called, but I'm still not using a tail call here
   * because returning to the METAL is the right thing to do in pathological
   * situations. */
  call exit
200102b2:	208050ef          	jal	ra,200154ba <exit>
E:/GitHub/HiFive01-RevB/FS_workspace/002_LED_Blink_All/freedom-metal/gloss/crt0.S:247

  /* And here's where we return.  Again, it's a bit odd but the METAL defines
   * this as a bad idea (ie, as opposed to leaving it undefined) and at this
   * point it's really the only thing left to do. */
  mv ra, s0
200102b6:	80a2                	mv	ra,s0
E:/GitHub/HiFive01-RevB/FS_workspace/002_LED_Blink_All/freedom-metal/gloss/crt0.S:248
  ret
200102b8:	8082                	ret

200102ba <_fini>:
_init():
E:/GitHub/HiFive01-RevB/FS_workspace/002_LED_Blink_All/freedom-metal/gloss/crt0.S:260
.type   _init, @function
.global _fini
.type   _fini, @function
_init:
_fini:
  ret
200102ba:	8082                	ret

200102bc <secondary_main>:
secondary_main():
E:/GitHub/HiFive01-RevB/FS_workspace/002_LED_Blink_All/freedom-metal/gloss/crt0.S:271
.weak   secondary_main
.global secondary_main
.type   secondary_main, @function

secondary_main:
  addi sp, sp, -16
200102bc:	1141                	addi	sp,sp,-16
E:/GitHub/HiFive01-RevB/FS_workspace/002_LED_Blink_All/freedom-metal/gloss/crt0.S:273
#if __riscv_xlen == 32
  sw ra, 4(sp)
200102be:	c206                	sw	ra,4(sp)
E:/GitHub/HiFive01-RevB/FS_workspace/002_LED_Blink_All/freedom-metal/gloss/crt0.S:277
#else
  sd ra, 8(sp)
#endif
  csrr t0, mhartid
200102c0:	f14022f3          	csrr	t0,mhartid
E:/GitHub/HiFive01-RevB/FS_workspace/002_LED_Blink_All/freedom-metal/gloss/crt0.S:278
  la t1, __metal_boot_hart
200102c4:	00000313          	li	t1,0
E:/GitHub/HiFive01-RevB/FS_workspace/002_LED_Blink_All/freedom-metal/gloss/crt0.S:279
  beq t0, t1, 2f
200102c8:	00628563          	beq	t0,t1,200102d2 <secondary_main+0x16>
E:/GitHub/HiFive01-RevB/FS_workspace/002_LED_Blink_All/freedom-metal/gloss/crt0.S:281
1:
  wfi
200102cc:	10500073          	wfi
E:/GitHub/HiFive01-RevB/FS_workspace/002_LED_Blink_All/freedom-metal/gloss/crt0.S:282
  j 1b
200102d0:	bff5                	j	200102cc <secondary_main+0x10>
E:/GitHub/HiFive01-RevB/FS_workspace/002_LED_Blink_All/freedom-metal/gloss/crt0.S:284
2:
  call main
200102d2:	42f000ef          	jal	ra,20010f00 <main>
E:/GitHub/HiFive01-RevB/FS_workspace/002_LED_Blink_All/freedom-metal/gloss/crt0.S:286
#if __riscv_xlen == 32
  lw ra, 4(sp)
200102d6:	4092                	lw	ra,4(sp)
E:/GitHub/HiFive01-RevB/FS_workspace/002_LED_Blink_All/freedom-metal/gloss/crt0.S:290
#else
  ld ra, 8(sp)
#endif
  addi sp, sp, 16
200102d8:	0141                	addi	sp,sp,16
E:/GitHub/HiFive01-RevB/FS_workspace/002_LED_Blink_All/freedom-metal/gloss/crt0.S:291
  ret
200102da:	8082                	ret

Disassembly of section .ctors:

200102e8 <metal_sifive_fe310_g000_pll_init>:
metal_sifive_fe310_g000_pll_init():
E:/GitHub/HiFive01-RevB/FS_workspace/002_LED_Blink_All/freedom-metal/src/drivers/sifive_fe310-g000_pll.c:151
    return pll_input_rate * config->multiplier / config->divisor;
}

#ifdef __METAL_DT_SIFIVE_FE310_G000_PLL_HANDLE

METAL_CONSTRUCTOR(metal_sifive_fe310_g000_pll_init) {
200102e8:	1101                	addi	sp,sp,-32
200102ea:	ce06                	sw	ra,28(sp)
200102ec:	cc22                	sw	s0,24(sp)
200102ee:	1000                	addi	s0,sp,32
E:/GitHub/HiFive01-RevB/FS_workspace/002_LED_Blink_All/freedom-metal/src/drivers/sifive_fe310-g000_pll.c:152
    long init_rate = __metal_driver_sifive_fe310_g000_pll_init_rate();
200102f0:	299030ef          	jal	ra,20013d88 <__metal_driver_sifive_fe310_g000_pll_init_rate>
200102f4:	fea42623          	sw	a0,-20(s0)
E:/GitHub/HiFive01-RevB/FS_workspace/002_LED_Blink_All/freedom-metal/src/drivers/sifive_fe310-g000_pll.c:154
    /* If the PLL init_rate is zero, don't initialize the PLL */
    if (init_rate != 0)
200102f8:	fec42783          	lw	a5,-20(s0)
200102fc:	c799                	beqz	a5,2001030a <metal_sifive_fe310_g000_pll_init+0x22>
E:/GitHub/HiFive01-RevB/FS_workspace/002_LED_Blink_All/freedom-metal/src/drivers/sifive_fe310-g000_pll.c:155
        __metal_driver_sifive_fe310_g000_pll_init(
200102fe:	800017b7          	lui	a5,0x80001
20010302:	a0078513          	addi	a0,a5,-1536 # 80000a00 <__global_pointer$+0xfffff790>
20010306:	30f030ef          	jal	ra,20013e14 <__metal_driver_sifive_fe310_g000_pll_init>
E:/GitHub/HiFive01-RevB/FS_workspace/002_LED_Blink_All/freedom-metal/src/drivers/sifive_fe310-g000_pll.c:157
            __METAL_DT_SIFIVE_FE310_G000_PLL_HANDLE);
}
2001030a:	0001                	nop
2001030c:	40f2                	lw	ra,28(sp)
2001030e:	4462                	lw	s0,24(sp)
20010310:	6105                	addi	sp,sp,32
20010312:	8082                	ret

20010314 <use_hfxosc>:
use_hfxosc():
E:/GitHub/HiFive01-RevB/FS_workspace/002_LED_Blink_All/freedom-metal/src/drivers/sifive_fe310-g000_pll.c:389

    return __metal_driver_sifive_fe310_g000_pll_get_rate_hz(clock);
}

#ifdef __METAL_DT_SIFIVE_FE310_G000_PLL_HANDLE
METAL_CONSTRUCTOR(use_hfxosc) {
20010314:	1101                	addi	sp,sp,-32
20010316:	ce06                	sw	ra,28(sp)
20010318:	cc22                	sw	s0,24(sp)
2001031a:	1000                	addi	s0,sp,32
E:/GitHub/HiFive01-RevB/FS_workspace/002_LED_Blink_All/freedom-metal/src/drivers/sifive_fe310-g000_pll.c:390
    long init_rate = __metal_driver_sifive_fe310_g000_pll_init_rate();
2001031c:	26d030ef          	jal	ra,20013d88 <__metal_driver_sifive_fe310_g000_pll_init_rate>
20010320:	fea42623          	sw	a0,-20(s0)
E:/GitHub/HiFive01-RevB/FS_workspace/002_LED_Blink_All/freedom-metal/src/drivers/sifive_fe310-g000_pll.c:391
    metal_clock_set_rate_hz(&__METAL_DT_SIFIVE_FE310_G000_PLL_HANDLE->clock,
20010324:	fec42583          	lw	a1,-20(s0)
20010328:	800017b7          	lui	a5,0x80001
2001032c:	a0078513          	addi	a0,a5,-1536 # 80000a00 <__global_pointer$+0xfffff790>
20010330:	613040ef          	jal	ra,20015142 <metal_clock_set_rate_hz>
E:/GitHub/HiFive01-RevB/FS_workspace/002_LED_Blink_All/freedom-metal/src/drivers/sifive_fe310-g000_pll.c:393
                            init_rate);
}
20010334:	0001                	nop
20010336:	40f2                	lw	ra,28(sp)
20010338:	4462                	lw	s0,24(sp)
2001033a:	6105                	addi	sp,sp,32
2001033c:	8082                	ret

Disassembly of section .text:

20010f00 <main>:
main():
E:\GitHub\HiFive01-RevB\FS_workspace\002_LED_Blink_All\src/sifive-welcome.c:17
#include <metal/led.h>

void delay(void);

int main(void)
{
20010f00:	1101                	addi	sp,sp,-32
20010f02:	ce06                	sw	ra,28(sp)
20010f04:	cc22                	sw	s0,24(sp)
20010f06:	1000                	addi	s0,sp,32
E:\GitHub\HiFive01-RevB\FS_workspace\002_LED_Blink_All\src/sifive-welcome.c:27
	struct metal_led *ledGreen;
	/**
	 * @brief Get the handle for the RedLed
	 *
	 */
	ledRed = metal_led_get_rgb("LD0", "red");
20010f08:	200107b7          	lui	a5,0x20010
20010f0c:	34078593          	addi	a1,a5,832 # 20010340 <use_hfxosc+0x2c>
20010f10:	200107b7          	lui	a5,0x20010
20010f14:	34478513          	addi	a0,a5,836 # 20010344 <use_hfxosc+0x30>
20010f18:	22a1                	jal	20011060 <metal_led_get_rgb>
20010f1a:	fea42623          	sw	a0,-20(s0)
E:\GitHub\HiFive01-RevB\FS_workspace\002_LED_Blink_All\src/sifive-welcome.c:28
	ledGreen = metal_led_get_rgb("LD0", "green");
20010f1e:	200107b7          	lui	a5,0x20010
20010f22:	34878593          	addi	a1,a5,840 # 20010348 <use_hfxosc+0x34>
20010f26:	200107b7          	lui	a5,0x20010
20010f2a:	34478513          	addi	a0,a5,836 # 20010344 <use_hfxosc+0x30>
20010f2e:	2a0d                	jal	20011060 <metal_led_get_rgb>
20010f30:	fea42423          	sw	a0,-24(s0)
E:\GitHub\HiFive01-RevB\FS_workspace\002_LED_Blink_All\src/sifive-welcome.c:29
	ledBlue = metal_led_get_rgb("LD0", "blue");
20010f34:	200107b7          	lui	a5,0x20010
20010f38:	35078593          	addi	a1,a5,848 # 20010350 <use_hfxosc+0x3c>
20010f3c:	200107b7          	lui	a5,0x20010
20010f40:	34478513          	addi	a0,a5,836 # 20010344 <use_hfxosc+0x30>
20010f44:	2a31                	jal	20011060 <metal_led_get_rgb>
20010f46:	fea42223          	sw	a0,-28(s0)
E:\GitHub\HiFive01-RevB\FS_workspace\002_LED_Blink_All\src/sifive-welcome.c:34
	/**
	 * @brief Construct a new metal led enable object
	 *
	 */
	metal_led_enable(ledRed);
20010f4a:	fec42503          	lw	a0,-20(s0)
20010f4e:	205d                	jal	20010ff4 <metal_led_enable>
E:\GitHub\HiFive01-RevB\FS_workspace\002_LED_Blink_All\src/sifive-welcome.c:35
	metal_led_enable(ledGreen);
20010f50:	fe842503          	lw	a0,-24(s0)
20010f54:	2045                	jal	20010ff4 <metal_led_enable>
E:\GitHub\HiFive01-RevB\FS_workspace\002_LED_Blink_All\src/sifive-welcome.c:36
	metal_led_enable(ledBlue);
20010f56:	fe442503          	lw	a0,-28(s0)
20010f5a:	2869                	jal	20010ff4 <metal_led_enable>
E:\GitHub\HiFive01-RevB\FS_workspace\002_LED_Blink_All\src/sifive-welcome.c:39
	//led_on -> Turns OFF the LED
	//led_off -> Turns ON the LED
	metal_led_on(ledRed);
20010f5c:	fec42503          	lw	a0,-20(s0)
20010f60:	2865                	jal	20011018 <metal_led_on>
E:\GitHub\HiFive01-RevB\FS_workspace\002_LED_Blink_All\src/sifive-welcome.c:40
	metal_led_on(ledGreen);
20010f62:	fe842503          	lw	a0,-24(s0)
20010f66:	284d                	jal	20011018 <metal_led_on>
E:\GitHub\HiFive01-RevB\FS_workspace\002_LED_Blink_All\src/sifive-welcome.c:41
	metal_led_on(ledBlue);
20010f68:	fe442503          	lw	a0,-28(s0)
20010f6c:	2075                	jal	20011018 <metal_led_on>
E:\GitHub\HiFive01-RevB\FS_workspace\002_LED_Blink_All\src/sifive-welcome.c:45 (discriminator 1)
	while(1)
	{
		//Red alone ON
		metal_led_off(ledRed);
20010f6e:	fec42503          	lw	a0,-20(s0)
20010f72:	20e9                	jal	2001103c <metal_led_off>
E:\GitHub\HiFive01-RevB\FS_workspace\002_LED_Blink_All\src/sifive-welcome.c:46 (discriminator 1)
		metal_led_on(ledGreen);
20010f74:	fe842503          	lw	a0,-24(s0)
20010f78:	2045                	jal	20011018 <metal_led_on>
E:\GitHub\HiFive01-RevB\FS_workspace\002_LED_Blink_All\src/sifive-welcome.c:47 (discriminator 1)
		metal_led_on(ledBlue);
20010f7a:	fe442503          	lw	a0,-28(s0)
20010f7e:	2869                	jal	20011018 <metal_led_on>
E:\GitHub\HiFive01-RevB\FS_workspace\002_LED_Blink_All\src/sifive-welcome.c:48 (discriminator 1)
		delay();
20010f80:	2035                	jal	20010fac <delay>
E:\GitHub\HiFive01-RevB\FS_workspace\002_LED_Blink_All\src/sifive-welcome.c:50 (discriminator 1)
		//Green alone ON
		metal_led_off(ledGreen);
20010f82:	fe842503          	lw	a0,-24(s0)
20010f86:	285d                	jal	2001103c <metal_led_off>
E:\GitHub\HiFive01-RevB\FS_workspace\002_LED_Blink_All\src/sifive-welcome.c:51 (discriminator 1)
		metal_led_on(ledRed);
20010f88:	fec42503          	lw	a0,-20(s0)
20010f8c:	2071                	jal	20011018 <metal_led_on>
E:\GitHub\HiFive01-RevB\FS_workspace\002_LED_Blink_All\src/sifive-welcome.c:52 (discriminator 1)
		metal_led_on(ledBlue);
20010f8e:	fe442503          	lw	a0,-28(s0)
20010f92:	2059                	jal	20011018 <metal_led_on>
E:\GitHub\HiFive01-RevB\FS_workspace\002_LED_Blink_All\src/sifive-welcome.c:53 (discriminator 1)
		delay();
20010f94:	2821                	jal	20010fac <delay>
E:\GitHub\HiFive01-RevB\FS_workspace\002_LED_Blink_All\src/sifive-welcome.c:55 (discriminator 1)
		//Blue alone ON
		metal_led_off(ledBlue);
20010f96:	fe442503          	lw	a0,-28(s0)
20010f9a:	204d                	jal	2001103c <metal_led_off>
E:\GitHub\HiFive01-RevB\FS_workspace\002_LED_Blink_All\src/sifive-welcome.c:56 (discriminator 1)
		metal_led_on(ledGreen);
20010f9c:	fe842503          	lw	a0,-24(s0)
20010fa0:	28a5                	jal	20011018 <metal_led_on>
E:\GitHub\HiFive01-RevB\FS_workspace\002_LED_Blink_All\src/sifive-welcome.c:57 (discriminator 1)
		metal_led_on(ledRed);
20010fa2:	fec42503          	lw	a0,-20(s0)
20010fa6:	288d                	jal	20011018 <metal_led_on>
E:\GitHub\HiFive01-RevB\FS_workspace\002_LED_Blink_All\src/sifive-welcome.c:58 (discriminator 1)
		delay();
20010fa8:	2011                	jal	20010fac <delay>
E:\GitHub\HiFive01-RevB\FS_workspace\002_LED_Blink_All\src/sifive-welcome.c:45 (discriminator 1)
		metal_led_off(ledRed);
20010faa:	b7d1                	j	20010f6e <main+0x6e>

20010fac <delay>:
delay():
E:\GitHub\HiFive01-RevB\FS_workspace\002_LED_Blink_All\src/sifive-welcome.c:63
	}
}

void delay(void)
{
20010fac:	1101                	addi	sp,sp,-32
20010fae:	ce22                	sw	s0,28(sp)
20010fb0:	1000                	addi	s0,sp,32
E:\GitHub\HiFive01-RevB\FS_workspace\002_LED_Blink_All\src/sifive-welcome.c:68

//uint64_t ticks = sec * RTC_FREQ;
//mtime_wait(ticks);

	for(int i=0;i<1000;i++)
20010fb2:	fe042623          	sw	zero,-20(s0)
20010fb6:	a025                	j	20010fde <delay+0x32>
E:\GitHub\HiFive01-RevB\FS_workspace\002_LED_Blink_All\src/sifive-welcome.c:70
	{
		for(int j=0;j<300;j++);
20010fb8:	fe042423          	sw	zero,-24(s0)
20010fbc:	a031                	j	20010fc8 <delay+0x1c>
E:\GitHub\HiFive01-RevB\FS_workspace\002_LED_Blink_All\src/sifive-welcome.c:70 (discriminator 3)
20010fbe:	fe842783          	lw	a5,-24(s0)
20010fc2:	0785                	addi	a5,a5,1
20010fc4:	fef42423          	sw	a5,-24(s0)
E:\GitHub\HiFive01-RevB\FS_workspace\002_LED_Blink_All\src/sifive-welcome.c:70 (discriminator 1)
20010fc8:	fe842703          	lw	a4,-24(s0)
20010fcc:	12b00793          	li	a5,299
20010fd0:	fee7d7e3          	bge	a5,a4,20010fbe <delay+0x12>
E:\GitHub\HiFive01-RevB\FS_workspace\002_LED_Blink_All\src/sifive-welcome.c:68 (discriminator 2)
	for(int i=0;i<1000;i++)
20010fd4:	fec42783          	lw	a5,-20(s0)
20010fd8:	0785                	addi	a5,a5,1
20010fda:	fef42623          	sw	a5,-20(s0)
E:\GitHub\HiFive01-RevB\FS_workspace\002_LED_Blink_All\src/sifive-welcome.c:68 (discriminator 1)
20010fde:	fec42703          	lw	a4,-20(s0)
20010fe2:	3e700793          	li	a5,999
20010fe6:	fce7d9e3          	bge	a5,a4,20010fb8 <delay+0xc>
E:\GitHub\HiFive01-RevB\FS_workspace\002_LED_Blink_All\src/sifive-welcome.c:72
	}
}
20010fea:	0001                	nop
20010fec:	0001                	nop
20010fee:	4472                	lw	s0,28(sp)
20010ff0:	6105                	addi	sp,sp,32
20010ff2:	8082                	ret

20010ff4 <metal_led_enable>:
metal_led_enable():
E:/GitHub/HiFive01-RevB/FS_workspace/002_LED_Blink_All/freedom-metal/metal/led.h:49

/*!
 * @brief Enable an LED
 * @param led The handle for the LED
 */
__inline__ void metal_led_enable(struct metal_led *led) {
20010ff4:	1101                	addi	sp,sp,-32
20010ff6:	ce06                	sw	ra,28(sp)
20010ff8:	cc22                	sw	s0,24(sp)
20010ffa:	1000                	addi	s0,sp,32
20010ffc:	fea42623          	sw	a0,-20(s0)
E:/GitHub/HiFive01-RevB/FS_workspace/002_LED_Blink_All/freedom-metal/metal/led.h:50
    led->vtable->led_enable(led);
20011000:	fec42783          	lw	a5,-20(s0)
20011004:	439c                	lw	a5,0(a5)
20011006:	43dc                	lw	a5,4(a5)
20011008:	fec42503          	lw	a0,-20(s0)
2001100c:	9782                	jalr	a5
E:/GitHub/HiFive01-RevB/FS_workspace/002_LED_Blink_All/freedom-metal/metal/led.h:51
}
2001100e:	0001                	nop
20011010:	40f2                	lw	ra,28(sp)
20011012:	4462                	lw	s0,24(sp)
20011014:	6105                	addi	sp,sp,32
20011016:	8082                	ret

20011018 <metal_led_on>:
metal_led_on():
E:/GitHub/HiFive01-RevB/FS_workspace/002_LED_Blink_All/freedom-metal/metal/led.h:57

/*!
 * @brief Turn an LED on
 * @param led The handle for the LED
 */
__inline__ void metal_led_on(struct metal_led *led) {
20011018:	1101                	addi	sp,sp,-32
2001101a:	ce06                	sw	ra,28(sp)
2001101c:	cc22                	sw	s0,24(sp)
2001101e:	1000                	addi	s0,sp,32
20011020:	fea42623          	sw	a0,-20(s0)
E:/GitHub/HiFive01-RevB/FS_workspace/002_LED_Blink_All/freedom-metal/metal/led.h:58
    led->vtable->led_on(led);
20011024:	fec42783          	lw	a5,-20(s0)
20011028:	439c                	lw	a5,0(a5)
2001102a:	479c                	lw	a5,8(a5)
2001102c:	fec42503          	lw	a0,-20(s0)
20011030:	9782                	jalr	a5
E:/GitHub/HiFive01-RevB/FS_workspace/002_LED_Blink_All/freedom-metal/metal/led.h:59
}
20011032:	0001                	nop
20011034:	40f2                	lw	ra,28(sp)
20011036:	4462                	lw	s0,24(sp)
20011038:	6105                	addi	sp,sp,32
2001103a:	8082                	ret

2001103c <metal_led_off>:
metal_led_off():
E:/GitHub/HiFive01-RevB/FS_workspace/002_LED_Blink_All/freedom-metal/metal/led.h:65

/*!
 * @brief Turn an LED off
 * @param led The handle for the LED
 */
__inline__ void metal_led_off(struct metal_led *led) {
2001103c:	1101                	addi	sp,sp,-32
2001103e:	ce06                	sw	ra,28(sp)
20011040:	cc22                	sw	s0,24(sp)
20011042:	1000                	addi	s0,sp,32
20011044:	fea42623          	sw	a0,-20(s0)
E:/GitHub/HiFive01-RevB/FS_workspace/002_LED_Blink_All/freedom-metal/metal/led.h:66
    led->vtable->led_off(led);
20011048:	fec42783          	lw	a5,-20(s0)
2001104c:	439c                	lw	a5,0(a5)
2001104e:	47dc                	lw	a5,12(a5)
20011050:	fec42503          	lw	a0,-20(s0)
20011054:	9782                	jalr	a5
E:/GitHub/HiFive01-RevB/FS_workspace/002_LED_Blink_All/freedom-metal/metal/led.h:67
}
20011056:	0001                	nop
20011058:	40f2                	lw	ra,28(sp)
2001105a:	4462                	lw	s0,24(sp)
2001105c:	6105                	addi	sp,sp,32
2001105e:	8082                	ret

20011060 <metal_led_get_rgb>:
metal_led_get_rgb():
E:/GitHub/HiFive01-RevB/FS_workspace/002_LED_Blink_All/freedom-metal/src/led.c:8

#include <metal/led.h>
#include <metal/machine.h>
#include <string.h>

struct metal_led *metal_led_get_rgb(char *label, char *color) {
20011060:	7175                	addi	sp,sp,-144
20011062:	c706                	sw	ra,140(sp)
20011064:	c522                	sw	s0,136(sp)
20011066:	0900                	addi	s0,sp,144
20011068:	f6a42e23          	sw	a0,-132(s0)
2001106c:	f6b42c23          	sw	a1,-136(s0)
E:/GitHub/HiFive01-RevB/FS_workspace/002_LED_Blink_All/freedom-metal/src/led.c:13
    int i;
    struct metal_led *led;
    char led_label[100];

    if ((__METAL_DT_MAX_LEDS == 0) || (label == NULL) || (color == NULL)) {
20011070:	f7c42783          	lw	a5,-132(s0)
20011074:	c781                	beqz	a5,2001107c <metal_led_get_rgb+0x1c>
E:/GitHub/HiFive01-RevB/FS_workspace/002_LED_Blink_All/freedom-metal/src/led.c:13 (discriminator 1)
20011076:	f7842783          	lw	a5,-136(s0)
2001107a:	e399                	bnez	a5,20011080 <metal_led_get_rgb+0x20>
E:/GitHub/HiFive01-RevB/FS_workspace/002_LED_Blink_All/freedom-metal/src/led.c:14
        return NULL;
2001107c:	4781                	li	a5,0
2001107e:	a0bd                	j	200110ec <metal_led_get_rgb+0x8c>
E:/GitHub/HiFive01-RevB/FS_workspace/002_LED_Blink_All/freedom-metal/src/led.c:17
    }

    strcpy(led_label, label);
20011080:	f8440793          	addi	a5,s0,-124
20011084:	f7c42583          	lw	a1,-132(s0)
20011088:	853e                	mv	a0,a5
2001108a:	626040ef          	jal	ra,200156b0 <strcpy>
E:/GitHub/HiFive01-RevB/FS_workspace/002_LED_Blink_All/freedom-metal/src/led.c:18
    strcat(led_label, color);
2001108e:	f8440793          	addi	a5,s0,-124
20011092:	f7842583          	lw	a1,-136(s0)
20011096:	853e                	mv	a0,a5
20011098:	4de040ef          	jal	ra,20015576 <strcat>
E:/GitHub/HiFive01-RevB/FS_workspace/002_LED_Blink_All/freedom-metal/src/led.c:19
    for (i = 0; i < __METAL_DT_MAX_LEDS; i++) {
2001109c:	fe042623          	sw	zero,-20(s0)
200110a0:	a081                	j	200110e0 <metal_led_get_rgb+0x80>
E:/GitHub/HiFive01-RevB/FS_workspace/002_LED_Blink_All/freedom-metal/src/led.c:20
        led = (struct metal_led *)__metal_led_table[i];
200110a2:	800007b7          	lui	a5,0x80000
200110a6:	00078713          	mv	a4,a5
200110aa:	fec42783          	lw	a5,-20(s0)
200110ae:	078a                	slli	a5,a5,0x2
200110b0:	97ba                	add	a5,a5,a4
200110b2:	439c                	lw	a5,0(a5)
200110b4:	fef42423          	sw	a5,-24(s0)
E:/GitHub/HiFive01-RevB/FS_workspace/002_LED_Blink_All/freedom-metal/src/led.c:21
        if (led->vtable->led_exist(led, led_label)) {
200110b8:	fe842783          	lw	a5,-24(s0)
200110bc:	439c                	lw	a5,0(a5)
200110be:	4398                	lw	a4,0(a5)
200110c0:	f8440793          	addi	a5,s0,-124
200110c4:	85be                	mv	a1,a5
200110c6:	fe842503          	lw	a0,-24(s0)
200110ca:	9702                	jalr	a4
200110cc:	87aa                	mv	a5,a0
200110ce:	c781                	beqz	a5,200110d6 <metal_led_get_rgb+0x76>
E:/GitHub/HiFive01-RevB/FS_workspace/002_LED_Blink_All/freedom-metal/src/led.c:22
            return led;
200110d0:	fe842783          	lw	a5,-24(s0)
200110d4:	a821                	j	200110ec <metal_led_get_rgb+0x8c>
E:/GitHub/HiFive01-RevB/FS_workspace/002_LED_Blink_All/freedom-metal/src/led.c:19 (discriminator 2)
    for (i = 0; i < __METAL_DT_MAX_LEDS; i++) {
200110d6:	fec42783          	lw	a5,-20(s0)
200110da:	0785                	addi	a5,a5,1
200110dc:	fef42623          	sw	a5,-20(s0)
E:/GitHub/HiFive01-RevB/FS_workspace/002_LED_Blink_All/freedom-metal/src/led.c:19 (discriminator 1)
200110e0:	fec42703          	lw	a4,-20(s0)
200110e4:	4789                	li	a5,2
200110e6:	fae7dee3          	bge	a5,a4,200110a2 <metal_led_get_rgb+0x42>
E:/GitHub/HiFive01-RevB/FS_workspace/002_LED_Blink_All/freedom-metal/src/led.c:25
        }
    }
    return NULL;
200110ea:	4781                	li	a5,0
E:/GitHub/HiFive01-RevB/FS_workspace/002_LED_Blink_All/freedom-metal/src/led.c:26 (discriminator 1)
}
200110ec:	853e                	mv	a0,a5
200110ee:	40ba                	lw	ra,140(sp)
200110f0:	442a                	lw	s0,136(sp)
200110f2:	6149                	addi	sp,sp,144
200110f4:	8082                	ret

200110f6 <__metal_driver_sifive_clint0_control_base>:
__metal_driver_sifive_clint0_control_base():
E:\GitHub\HiFive01-RevB\FS_workspace\002_LED_Blink_All\bsp\build\debug/./metal/machine.h:233
/* --------------------- fixed_factor_clock ------------ */


/* --------------------- sifive_clint0 ------------ */
static __inline__ unsigned long __metal_driver_sifive_clint0_control_base(struct metal_interrupt *controller)
{
200110f6:	1101                	addi	sp,sp,-32
200110f8:	ce22                	sw	s0,28(sp)
200110fa:	1000                	addi	s0,sp,32
200110fc:	fea42623          	sw	a0,-20(s0)
E:\GitHub\HiFive01-RevB\FS_workspace\002_LED_Blink_All\bsp\build\debug/./metal/machine.h:234
	if ((uintptr_t)controller == (uintptr_t)&__metal_dt_clint_2000000) {
20011100:	fec42703          	lw	a4,-20(s0)
20011104:	800017b7          	lui	a5,0x80001
20011108:	a7478793          	addi	a5,a5,-1420 # 80000a74 <__global_pointer$+0xfffff804>
2001110c:	00f71563          	bne	a4,a5,20011116 <__metal_driver_sifive_clint0_control_base+0x20>
E:\GitHub\HiFive01-RevB\FS_workspace\002_LED_Blink_All\bsp\build\debug/./metal/machine.h:235
		return METAL_RISCV_CLINT0_2000000_BASE_ADDRESS;
20011110:	020007b7          	lui	a5,0x2000
20011114:	a011                	j	20011118 <__metal_driver_sifive_clint0_control_base+0x22>
E:\GitHub\HiFive01-RevB\FS_workspace\002_LED_Blink_All\bsp\build\debug/./metal/machine.h:238
	}
	else {
		return 0;
20011116:	4781                	li	a5,0
E:\GitHub\HiFive01-RevB\FS_workspace\002_LED_Blink_All\bsp\build\debug/./metal/machine.h:240
	}
}
20011118:	853e                	mv	a0,a5
2001111a:	4472                	lw	s0,28(sp)
2001111c:	6105                	addi	sp,sp,32
2001111e:	8082                	ret

20011120 <__metal_driver_sifive_clint0_num_interrupts>:
__metal_driver_sifive_clint0_num_interrupts():
E:\GitHub\HiFive01-RevB\FS_workspace\002_LED_Blink_All\bsp\build\debug/./metal/machine.h:253
		return 0;
	}
}

static __inline__ int __metal_driver_sifive_clint0_num_interrupts(struct metal_interrupt *controller)
{
20011120:	1101                	addi	sp,sp,-32
20011122:	ce22                	sw	s0,28(sp)
20011124:	1000                	addi	s0,sp,32
20011126:	fea42623          	sw	a0,-20(s0)
E:\GitHub\HiFive01-RevB\FS_workspace\002_LED_Blink_All\bsp\build\debug/./metal/machine.h:254
	if ((uintptr_t)controller == (uintptr_t)&__metal_dt_clint_2000000) {
2001112a:	fec42703          	lw	a4,-20(s0)
2001112e:	800017b7          	lui	a5,0x80001
20011132:	a7478793          	addi	a5,a5,-1420 # 80000a74 <__global_pointer$+0xfffff804>
20011136:	00f71463          	bne	a4,a5,2001113e <__metal_driver_sifive_clint0_num_interrupts+0x1e>
E:\GitHub\HiFive01-RevB\FS_workspace\002_LED_Blink_All\bsp\build\debug/./metal/machine.h:255
		return METAL_MAX_CLINT_INTERRUPTS;
2001113a:	4789                	li	a5,2
2001113c:	a011                	j	20011140 <__metal_driver_sifive_clint0_num_interrupts+0x20>
E:\GitHub\HiFive01-RevB\FS_workspace\002_LED_Blink_All\bsp\build\debug/./metal/machine.h:258
	}
	else {
		return 0;
2001113e:	4781                	li	a5,0
E:\GitHub\HiFive01-RevB\FS_workspace\002_LED_Blink_All\bsp\build\debug/./metal/machine.h:260
	}
}
20011140:	853e                	mv	a0,a5
20011142:	4472                	lw	s0,28(sp)
20011144:	6105                	addi	sp,sp,32
20011146:	8082                	ret

20011148 <__metal_driver_sifive_clint0_interrupt_parents>:
__metal_driver_sifive_clint0_interrupt_parents():
E:\GitHub\HiFive01-RevB\FS_workspace\002_LED_Blink_All\bsp\build\debug/./metal/machine.h:263

static __inline__ struct metal_interrupt * __metal_driver_sifive_clint0_interrupt_parents(struct metal_interrupt *controller, int idx)
{
20011148:	1101                	addi	sp,sp,-32
2001114a:	ce22                	sw	s0,28(sp)
2001114c:	1000                	addi	s0,sp,32
2001114e:	fea42623          	sw	a0,-20(s0)
20011152:	feb42423          	sw	a1,-24(s0)
E:\GitHub\HiFive01-RevB\FS_workspace\002_LED_Blink_All\bsp\build\debug/./metal/machine.h:264
	if (idx == 0) {
20011156:	fe842783          	lw	a5,-24(s0)
2001115a:	e791                	bnez	a5,20011166 <__metal_driver_sifive_clint0_interrupt_parents+0x1e>
E:\GitHub\HiFive01-RevB\FS_workspace\002_LED_Blink_All\bsp\build\debug/./metal/machine.h:265
		return (struct metal_interrupt *)&__metal_dt_cpu_0_interrupt_controller.controller;
2001115c:	800007b7          	lui	a5,0x80000
20011160:	04078793          	addi	a5,a5,64 # 80000040 <__global_pointer$+0xffffedd0>
20011164:	a821                	j	2001117c <__metal_driver_sifive_clint0_interrupt_parents+0x34>
E:\GitHub\HiFive01-RevB\FS_workspace\002_LED_Blink_All\bsp\build\debug/./metal/machine.h:267
	}
	else if (idx == 1) {
20011166:	fe842703          	lw	a4,-24(s0)
2001116a:	4785                	li	a5,1
2001116c:	00f71763          	bne	a4,a5,2001117a <__metal_driver_sifive_clint0_interrupt_parents+0x32>
E:\GitHub\HiFive01-RevB\FS_workspace\002_LED_Blink_All\bsp\build\debug/./metal/machine.h:268
		return (struct metal_interrupt *)&__metal_dt_cpu_0_interrupt_controller.controller;
20011170:	800007b7          	lui	a5,0x80000
20011174:	04078793          	addi	a5,a5,64 # 80000040 <__global_pointer$+0xffffedd0>
20011178:	a011                	j	2001117c <__metal_driver_sifive_clint0_interrupt_parents+0x34>
E:\GitHub\HiFive01-RevB\FS_workspace\002_LED_Blink_All\bsp\build\debug/./metal/machine.h:271
	}
	else {
		return NULL;
2001117a:	4781                	li	a5,0
E:\GitHub\HiFive01-RevB\FS_workspace\002_LED_Blink_All\bsp\build\debug/./metal/machine.h:273
	}
}
2001117c:	853e                	mv	a0,a5
2001117e:	4472                	lw	s0,28(sp)
20011180:	6105                	addi	sp,sp,32
20011182:	8082                	ret

20011184 <__metal_driver_sifive_clint0_interrupt_lines>:
__metal_driver_sifive_clint0_interrupt_lines():
E:\GitHub\HiFive01-RevB\FS_workspace\002_LED_Blink_All\bsp\build\debug/./metal/machine.h:276

static __inline__ int __metal_driver_sifive_clint0_interrupt_lines(struct metal_interrupt *controller, int idx)
{
20011184:	1101                	addi	sp,sp,-32
20011186:	ce22                	sw	s0,28(sp)
20011188:	1000                	addi	s0,sp,32
2001118a:	fea42623          	sw	a0,-20(s0)
2001118e:	feb42423          	sw	a1,-24(s0)
E:\GitHub\HiFive01-RevB\FS_workspace\002_LED_Blink_All\bsp\build\debug/./metal/machine.h:277
	if (idx == 0) {
20011192:	fe842783          	lw	a5,-24(s0)
20011196:	e399                	bnez	a5,2001119c <__metal_driver_sifive_clint0_interrupt_lines+0x18>
E:\GitHub\HiFive01-RevB\FS_workspace\002_LED_Blink_All\bsp\build\debug/./metal/machine.h:278
		return 3;
20011198:	478d                	li	a5,3
2001119a:	a809                	j	200111ac <__metal_driver_sifive_clint0_interrupt_lines+0x28>
E:\GitHub\HiFive01-RevB\FS_workspace\002_LED_Blink_All\bsp\build\debug/./metal/machine.h:280
	}
	else if (idx == 1) {
2001119c:	fe842703          	lw	a4,-24(s0)
200111a0:	4785                	li	a5,1
200111a2:	00f71463          	bne	a4,a5,200111aa <__metal_driver_sifive_clint0_interrupt_lines+0x26>
E:\GitHub\HiFive01-RevB\FS_workspace\002_LED_Blink_All\bsp\build\debug/./metal/machine.h:281
		return 7;
200111a6:	479d                	li	a5,7
200111a8:	a011                	j	200111ac <__metal_driver_sifive_clint0_interrupt_lines+0x28>
E:\GitHub\HiFive01-RevB\FS_workspace\002_LED_Blink_All\bsp\build\debug/./metal/machine.h:284
	}
	else {
		return 0;
200111aa:	4781                	li	a5,0
E:\GitHub\HiFive01-RevB\FS_workspace\002_LED_Blink_All\bsp\build\debug/./metal/machine.h:286
	}
}
200111ac:	853e                	mv	a0,a5
200111ae:	4472                	lw	s0,28(sp)
200111b0:	6105                	addi	sp,sp,32
200111b2:	8082                	ret

200111b4 <__metal_clint0_mtime_get>:
__metal_clint0_mtime_get():
E:/GitHub/HiFive01-RevB/FS_workspace/002_LED_Blink_All/freedom-metal/src/drivers/riscv_clint0.c:14
#include <metal/drivers/riscv_clint0.h>
#include <metal/io.h>
#include <metal/machine.h>

unsigned long long
__metal_clint0_mtime_get(struct __metal_driver_riscv_clint0 *clint) {
200111b4:	715d                	addi	sp,sp,-80
200111b6:	c686                	sw	ra,76(sp)
200111b8:	c4a2                	sw	s0,72(sp)
200111ba:	c2ca                	sw	s2,68(sp)
200111bc:	c0ce                	sw	s3,64(sp)
200111be:	de52                	sw	s4,60(sp)
200111c0:	dc56                	sw	s5,56(sp)
200111c2:	da5a                	sw	s6,52(sp)
200111c4:	d85e                	sw	s7,48(sp)
200111c6:	d662                	sw	s8,44(sp)
200111c8:	d466                	sw	s9,40(sp)
200111ca:	0880                	addi	s0,sp,80
200111cc:	faa42e23          	sw	a0,-68(s0)
E:/GitHub/HiFive01-RevB/FS_workspace/002_LED_Blink_All/freedom-metal/src/drivers/riscv_clint0.c:17
    __metal_io_u32 lo, hi;
    unsigned long control_base =
        __metal_driver_sifive_clint0_control_base(&clint->controller);
200111d0:	fbc42783          	lw	a5,-68(s0)
200111d4:	853e                	mv	a0,a5
200111d6:	3705                	jal	200110f6 <__metal_driver_sifive_clint0_control_base>
200111d8:	fca42623          	sw	a0,-52(s0)
E:/GitHub/HiFive01-RevB/FS_workspace/002_LED_Blink_All/freedom-metal/src/drivers/riscv_clint0.c:21 (discriminator 1)

    /* Guard against rollover when reading */
    do {
        hi = __METAL_ACCESS_ONCE(
200111dc:	fcc42703          	lw	a4,-52(s0)
200111e0:	67b1                	lui	a5,0xc
200111e2:	17f1                	addi	a5,a5,-4
200111e4:	97ba                	add	a5,a5,a4
200111e6:	439c                	lw	a5,0(a5)
200111e8:	fcf42423          	sw	a5,-56(s0)
E:/GitHub/HiFive01-RevB/FS_workspace/002_LED_Blink_All/freedom-metal/src/drivers/riscv_clint0.c:23 (discriminator 1)
            (__metal_io_u32 *)(control_base + METAL_RISCV_CLINT0_MTIME + 4));
        lo = __METAL_ACCESS_ONCE(
200111ec:	fcc42703          	lw	a4,-52(s0)
200111f0:	67b1                	lui	a5,0xc
200111f2:	17e1                	addi	a5,a5,-8
200111f4:	97ba                	add	a5,a5,a4
200111f6:	439c                	lw	a5,0(a5)
200111f8:	fcf42223          	sw	a5,-60(s0)
E:/GitHub/HiFive01-RevB/FS_workspace/002_LED_Blink_All/freedom-metal/src/drivers/riscv_clint0.c:25 (discriminator 1)
            (__metal_io_u32 *)(control_base + METAL_RISCV_CLINT0_MTIME));
    } while (__METAL_ACCESS_ONCE((__metal_io_u32 *)(control_base +
200111fc:	fcc42703          	lw	a4,-52(s0)
20011200:	67b1                	lui	a5,0xc
20011202:	17f1                	addi	a5,a5,-4
20011204:	97ba                	add	a5,a5,a4
20011206:	439c                	lw	a5,0(a5)
20011208:	fc842703          	lw	a4,-56(s0)
2001120c:	fcf718e3          	bne	a4,a5,200111dc <__metal_clint0_mtime_get+0x28>
E:/GitHub/HiFive01-RevB/FS_workspace/002_LED_Blink_All/freedom-metal/src/drivers/riscv_clint0.c:29
                                                    METAL_RISCV_CLINT0_MTIME +
                                                    4)) != hi);

    return (((unsigned long long)hi) << 32) | lo;
20011210:	fc842783          	lw	a5,-56(s0)
20011214:	8c3e                	mv	s8,a5
20011216:	4c81                	li	s9,0
20011218:	000c1993          	slli	s3,s8,0x0
2001121c:	4901                	li	s2,0
2001121e:	fc442783          	lw	a5,-60(s0)
20011222:	8a3e                	mv	s4,a5
20011224:	4a81                	li	s5,0
20011226:	01496b33          	or	s6,s2,s4
2001122a:	0159ebb3          	or	s7,s3,s5
2001122e:	875a                	mv	a4,s6
20011230:	87de                	mv	a5,s7
E:/GitHub/HiFive01-RevB/FS_workspace/002_LED_Blink_All/freedom-metal/src/drivers/riscv_clint0.c:30
}
20011232:	853a                	mv	a0,a4
20011234:	85be                	mv	a1,a5
20011236:	40b6                	lw	ra,76(sp)
20011238:	4426                	lw	s0,72(sp)
2001123a:	4916                	lw	s2,68(sp)
2001123c:	4986                	lw	s3,64(sp)
2001123e:	5a72                	lw	s4,60(sp)
20011240:	5ae2                	lw	s5,56(sp)
20011242:	5b52                	lw	s6,52(sp)
20011244:	5bc2                	lw	s7,48(sp)
20011246:	5c32                	lw	s8,44(sp)
20011248:	5ca2                	lw	s9,40(sp)
2001124a:	6161                	addi	sp,sp,80
2001124c:	8082                	ret

2001124e <__metal_driver_riscv_clint0_mtimecmp_set>:
__metal_driver_riscv_clint0_mtimecmp_set():
E:/GitHub/HiFive01-RevB/FS_workspace/002_LED_Blink_All/freedom-metal/src/drivers/riscv_clint0.c:34

int __metal_driver_riscv_clint0_mtimecmp_set(struct metal_interrupt *controller,
                                             int hartid,
                                             unsigned long long time) {
2001124e:	7179                	addi	sp,sp,-48
20011250:	d606                	sw	ra,44(sp)
20011252:	d422                	sw	s0,40(sp)
20011254:	d24a                	sw	s2,36(sp)
20011256:	d04e                	sw	s3,32(sp)
20011258:	1800                	addi	s0,sp,48
2001125a:	fca42e23          	sw	a0,-36(s0)
2001125e:	fcb42c23          	sw	a1,-40(s0)
20011262:	fcc42823          	sw	a2,-48(s0)
20011266:	fcd42a23          	sw	a3,-44(s0)
E:/GitHub/HiFive01-RevB/FS_workspace/002_LED_Blink_All/freedom-metal/src/drivers/riscv_clint0.c:35
    struct __metal_driver_riscv_clint0 *clint =
2001126a:	fdc42783          	lw	a5,-36(s0)
2001126e:	fef42623          	sw	a5,-20(s0)
E:/GitHub/HiFive01-RevB/FS_workspace/002_LED_Blink_All/freedom-metal/src/drivers/riscv_clint0.c:38
        (struct __metal_driver_riscv_clint0 *)(controller);
    unsigned long control_base =
        __metal_driver_sifive_clint0_control_base(&clint->controller);
20011272:	fec42783          	lw	a5,-20(s0)
20011276:	853e                	mv	a0,a5
20011278:	3dbd                	jal	200110f6 <__metal_driver_sifive_clint0_control_base>
2001127a:	fea42423          	sw	a0,-24(s0)
E:/GitHub/HiFive01-RevB/FS_workspace/002_LED_Blink_All/freedom-metal/src/drivers/riscv_clint0.c:45
     * and are NOT internally latched for multiword transfers.
     * Need to be careful about sequencing to avoid triggering
     * spurious interrupts: For that set the high word to a max
     * value first.
     */
    __METAL_ACCESS_ONCE((__metal_io_u32 *)(control_base + (8 * hartid) +
2001127e:	fd842783          	lw	a5,-40(s0)
20011282:	078e                	slli	a5,a5,0x3
20011284:	873e                	mv	a4,a5
20011286:	fe842783          	lw	a5,-24(s0)
2001128a:	973e                	add	a4,a4,a5
2001128c:	6791                	lui	a5,0x4
2001128e:	0791                	addi	a5,a5,4
20011290:	97ba                	add	a5,a5,a4
20011292:	873e                	mv	a4,a5
E:/GitHub/HiFive01-RevB/FS_workspace/002_LED_Blink_All/freedom-metal/src/drivers/riscv_clint0.c:47
                                           METAL_RISCV_CLINT0_MTIMECMP_BASE +
                                           4)) = 0xFFFFFFFF;
20011294:	57fd                	li	a5,-1
20011296:	c31c                	sw	a5,0(a4)
E:/GitHub/HiFive01-RevB/FS_workspace/002_LED_Blink_All/freedom-metal/src/drivers/riscv_clint0.c:48
    __METAL_ACCESS_ONCE((__metal_io_u32 *)(control_base + (8 * hartid) +
20011298:	fd842783          	lw	a5,-40(s0)
2001129c:	078e                	slli	a5,a5,0x3
2001129e:	873e                	mv	a4,a5
200112a0:	fe842783          	lw	a5,-24(s0)
200112a4:	973e                	add	a4,a4,a5
200112a6:	6791                	lui	a5,0x4
200112a8:	97ba                	add	a5,a5,a4
200112aa:	873e                	mv	a4,a5
E:/GitHub/HiFive01-RevB/FS_workspace/002_LED_Blink_All/freedom-metal/src/drivers/riscv_clint0.c:50
                                           METAL_RISCV_CLINT0_MTIMECMP_BASE)) =
        (__metal_io_u32)time;
200112ac:	fd042783          	lw	a5,-48(s0)
E:/GitHub/HiFive01-RevB/FS_workspace/002_LED_Blink_All/freedom-metal/src/drivers/riscv_clint0.c:49
                                           METAL_RISCV_CLINT0_MTIMECMP_BASE)) =
200112b0:	c31c                	sw	a5,0(a4)
E:/GitHub/HiFive01-RevB/FS_workspace/002_LED_Blink_All/freedom-metal/src/drivers/riscv_clint0.c:53
    __METAL_ACCESS_ONCE((__metal_io_u32 *)(control_base + (8 * hartid) +
                                           METAL_RISCV_CLINT0_MTIMECMP_BASE +
                                           4)) = (__metal_io_u32)(time >> 32);
200112b2:	fd442783          	lw	a5,-44(s0)
200112b6:	0007d913          	srli	s2,a5,0x0
200112ba:	4981                	li	s3,0
E:/GitHub/HiFive01-RevB/FS_workspace/002_LED_Blink_All/freedom-metal/src/drivers/riscv_clint0.c:51
    __METAL_ACCESS_ONCE((__metal_io_u32 *)(control_base + (8 * hartid) +
200112bc:	fd842783          	lw	a5,-40(s0)
200112c0:	078e                	slli	a5,a5,0x3
200112c2:	873e                	mv	a4,a5
200112c4:	fe842783          	lw	a5,-24(s0)
200112c8:	973e                	add	a4,a4,a5
200112ca:	6791                	lui	a5,0x4
200112cc:	0791                	addi	a5,a5,4
200112ce:	97ba                	add	a5,a5,a4
E:/GitHub/HiFive01-RevB/FS_workspace/002_LED_Blink_All/freedom-metal/src/drivers/riscv_clint0.c:53
                                           4)) = (__metal_io_u32)(time >> 32);
200112d0:	874a                	mv	a4,s2
200112d2:	c398                	sw	a4,0(a5)
E:/GitHub/HiFive01-RevB/FS_workspace/002_LED_Blink_All/freedom-metal/src/drivers/riscv_clint0.c:54
    return 0;
200112d4:	4781                	li	a5,0
E:/GitHub/HiFive01-RevB/FS_workspace/002_LED_Blink_All/freedom-metal/src/drivers/riscv_clint0.c:55
}
200112d6:	853e                	mv	a0,a5
200112d8:	50b2                	lw	ra,44(sp)
200112da:	5422                	lw	s0,40(sp)
200112dc:	5912                	lw	s2,36(sp)
200112de:	5982                	lw	s3,32(sp)
200112e0:	6145                	addi	sp,sp,48
200112e2:	8082                	ret

200112e4 <_get_cpu_intc>:
_get_cpu_intc():
E:/GitHub/HiFive01-RevB/FS_workspace/002_LED_Blink_All/freedom-metal/src/drivers/riscv_clint0.c:57

static struct metal_interrupt *_get_cpu_intc() {
200112e4:	1101                	addi	sp,sp,-32
200112e6:	ce06                	sw	ra,28(sp)
200112e8:	cc22                	sw	s0,24(sp)
200112ea:	1000                	addi	s0,sp,32
E:/GitHub/HiFive01-RevB/FS_workspace/002_LED_Blink_All/freedom-metal/src/drivers/riscv_clint0.c:58
    int hartid = 0;
200112ec:	fe042623          	sw	zero,-20(s0)
E:/GitHub/HiFive01-RevB/FS_workspace/002_LED_Blink_All/freedom-metal/src/drivers/riscv_clint0.c:59
    __asm__ volatile("csrr %[hartid], mhartid"
200112f0:	f14027f3          	csrr	a5,mhartid
200112f4:	fef42623          	sw	a5,-20(s0)
E:/GitHub/HiFive01-RevB/FS_workspace/002_LED_Blink_All/freedom-metal/src/drivers/riscv_clint0.c:62
                     : [hartid] "=r"(hartid)::"memory");

    struct metal_cpu *cpu = metal_cpu_get(hartid);
200112f8:	fec42783          	lw	a5,-20(s0)
200112fc:	853e                	mv	a0,a5
200112fe:	6b3030ef          	jal	ra,200151b0 <metal_cpu_get>
20011302:	fea42423          	sw	a0,-24(s0)
E:/GitHub/HiFive01-RevB/FS_workspace/002_LED_Blink_All/freedom-metal/src/drivers/riscv_clint0.c:64

    return metal_cpu_interrupt_controller(cpu);
20011306:	fe842503          	lw	a0,-24(s0)
2001130a:	681030ef          	jal	ra,2001518a <metal_cpu_interrupt_controller>
2001130e:	87aa                	mv	a5,a0
E:/GitHub/HiFive01-RevB/FS_workspace/002_LED_Blink_All/freedom-metal/src/drivers/riscv_clint0.c:65
}
20011310:	853e                	mv	a0,a5
20011312:	40f2                	lw	ra,28(sp)
20011314:	4462                	lw	s0,24(sp)
20011316:	6105                	addi	sp,sp,32
20011318:	8082                	ret

2001131a <__metal_driver_riscv_clint0_init>:
__metal_driver_riscv_clint0_init():
E:/GitHub/HiFive01-RevB/FS_workspace/002_LED_Blink_All/freedom-metal/src/drivers/riscv_clint0.c:67

void __metal_driver_riscv_clint0_init(struct metal_interrupt *controller) {
2001131a:	7139                	addi	sp,sp,-64
2001131c:	de06                	sw	ra,60(sp)
2001131e:	dc22                	sw	s0,56(sp)
20011320:	0080                	addi	s0,sp,64
20011322:	fca42623          	sw	a0,-52(s0)
E:/GitHub/HiFive01-RevB/FS_workspace/002_LED_Blink_All/freedom-metal/src/drivers/riscv_clint0.c:69
    int num_interrupts =
        __metal_driver_sifive_clint0_num_interrupts(controller);
20011326:	fcc42503          	lw	a0,-52(s0)
2001132a:	3bdd                	jal	20011120 <__metal_driver_sifive_clint0_num_interrupts>
2001132c:	fea42423          	sw	a0,-24(s0)
E:/GitHub/HiFive01-RevB/FS_workspace/002_LED_Blink_All/freedom-metal/src/drivers/riscv_clint0.c:70
    struct __metal_driver_riscv_clint0 *clint =
20011330:	fcc42783          	lw	a5,-52(s0)
20011334:	fef42223          	sw	a5,-28(s0)
E:/GitHub/HiFive01-RevB/FS_workspace/002_LED_Blink_All/freedom-metal/src/drivers/riscv_clint0.c:73
        (struct __metal_driver_riscv_clint0 *)(controller);

    if (!clint->init_done) {
20011338:	fe442783          	lw	a5,-28(s0)
2001133c:	43dc                	lw	a5,4(a5)
2001133e:	efa9                	bnez	a5,20011398 <__metal_driver_riscv_clint0_init+0x7e>
E:/GitHub/HiFive01-RevB/FS_workspace/002_LED_Blink_All/freedom-metal/src/drivers/riscv_clint0.c:76
        /* Register its interrupts with with parent controller, aka sw and
         * timerto its default isr */
        for (int i = 0; i < num_interrupts; i++) {
20011340:	fe042623          	sw	zero,-20(s0)
20011344:	a081                	j	20011384 <__metal_driver_riscv_clint0_init+0x6a>
E:/GitHub/HiFive01-RevB/FS_workspace/002_LED_Blink_All/freedom-metal/src/drivers/riscv_clint0.c:78 (discriminator 3)
            struct metal_interrupt *intc =
                __metal_driver_sifive_clint0_interrupt_parents(controller, i);
20011346:	fec42583          	lw	a1,-20(s0)
2001134a:	fcc42503          	lw	a0,-52(s0)
2001134e:	3bed                	jal	20011148 <__metal_driver_sifive_clint0_interrupt_parents>
20011350:	fea42023          	sw	a0,-32(s0)
E:/GitHub/HiFive01-RevB/FS_workspace/002_LED_Blink_All/freedom-metal/src/drivers/riscv_clint0.c:80 (discriminator 3)
            int line =
                __metal_driver_sifive_clint0_interrupt_lines(controller, i);
20011354:	fec42583          	lw	a1,-20(s0)
20011358:	fcc42503          	lw	a0,-52(s0)
2001135c:	3525                	jal	20011184 <__metal_driver_sifive_clint0_interrupt_lines>
2001135e:	fca42e23          	sw	a0,-36(s0)
E:/GitHub/HiFive01-RevB/FS_workspace/002_LED_Blink_All/freedom-metal/src/drivers/riscv_clint0.c:81 (discriminator 3)
            intc->vtable->interrupt_register(intc, line, NULL, controller);
20011362:	fe042783          	lw	a5,-32(s0)
20011366:	439c                	lw	a5,0(a5)
20011368:	4fdc                	lw	a5,28(a5)
2001136a:	fcc42683          	lw	a3,-52(s0)
2001136e:	4601                	li	a2,0
20011370:	fdc42583          	lw	a1,-36(s0)
20011374:	fe042503          	lw	a0,-32(s0)
20011378:	9782                	jalr	a5
E:/GitHub/HiFive01-RevB/FS_workspace/002_LED_Blink_All/freedom-metal/src/drivers/riscv_clint0.c:76 (discriminator 3)
        for (int i = 0; i < num_interrupts; i++) {
2001137a:	fec42783          	lw	a5,-20(s0)
2001137e:	0785                	addi	a5,a5,1
20011380:	fef42623          	sw	a5,-20(s0)
E:/GitHub/HiFive01-RevB/FS_workspace/002_LED_Blink_All/freedom-metal/src/drivers/riscv_clint0.c:76 (discriminator 1)
20011384:	fec42703          	lw	a4,-20(s0)
20011388:	fe842783          	lw	a5,-24(s0)
2001138c:	faf74de3          	blt	a4,a5,20011346 <__metal_driver_riscv_clint0_init+0x2c>
E:/GitHub/HiFive01-RevB/FS_workspace/002_LED_Blink_All/freedom-metal/src/drivers/riscv_clint0.c:83
        }
        clint->init_done = 1;
20011390:	fe442783          	lw	a5,-28(s0)
20011394:	4705                	li	a4,1
20011396:	c3d8                	sw	a4,4(a5)
E:/GitHub/HiFive01-RevB/FS_workspace/002_LED_Blink_All/freedom-metal/src/drivers/riscv_clint0.c:85
    }
}
20011398:	0001                	nop
2001139a:	50f2                	lw	ra,60(sp)
2001139c:	5462                	lw	s0,56(sp)
2001139e:	6121                	addi	sp,sp,64
200113a0:	8082                	ret

200113a2 <__metal_driver_riscv_clint0_register>:
__metal_driver_riscv_clint0_register():
E:/GitHub/HiFive01-RevB/FS_workspace/002_LED_Blink_All/freedom-metal/src/drivers/riscv_clint0.c:89

int __metal_driver_riscv_clint0_register(struct metal_interrupt *controller,
                                         int id, metal_interrupt_handler_t isr,
                                         void *priv) {
200113a2:	7139                	addi	sp,sp,-64
200113a4:	de06                	sw	ra,60(sp)
200113a6:	dc22                	sw	s0,56(sp)
200113a8:	0080                	addi	s0,sp,64
200113aa:	fca42623          	sw	a0,-52(s0)
200113ae:	fcb42423          	sw	a1,-56(s0)
200113b2:	fcc42223          	sw	a2,-60(s0)
200113b6:	fcd42023          	sw	a3,-64(s0)
E:/GitHub/HiFive01-RevB/FS_workspace/002_LED_Blink_All/freedom-metal/src/drivers/riscv_clint0.c:90
    int rc = -1;
200113ba:	57fd                	li	a5,-1
200113bc:	fef42623          	sw	a5,-20(s0)
E:/GitHub/HiFive01-RevB/FS_workspace/002_LED_Blink_All/freedom-metal/src/drivers/riscv_clint0.c:91
    metal_vector_mode mode = __metal_controller_interrupt_vector_mode();
200113c0:	496010ef          	jal	ra,20012856 <__metal_controller_interrupt_vector_mode>
200113c4:	fea42023          	sw	a0,-32(s0)
E:/GitHub/HiFive01-RevB/FS_workspace/002_LED_Blink_All/freedom-metal/src/drivers/riscv_clint0.c:92
    struct metal_interrupt *intc = NULL;
200113c8:	fe042423          	sw	zero,-24(s0)
E:/GitHub/HiFive01-RevB/FS_workspace/002_LED_Blink_All/freedom-metal/src/drivers/riscv_clint0.c:93
    struct metal_interrupt *cpu_intc = _get_cpu_intc();
200113cc:	3f21                	jal	200112e4 <_get_cpu_intc>
200113ce:	fca42e23          	sw	a0,-36(s0)
E:/GitHub/HiFive01-RevB/FS_workspace/002_LED_Blink_All/freedom-metal/src/drivers/riscv_clint0.c:95
    int num_interrupts =
        __metal_driver_sifive_clint0_num_interrupts(controller);
200113d2:	fcc42503          	lw	a0,-52(s0)
200113d6:	33a9                	jal	20011120 <__metal_driver_sifive_clint0_num_interrupts>
200113d8:	fca42c23          	sw	a0,-40(s0)
E:/GitHub/HiFive01-RevB/FS_workspace/002_LED_Blink_All/freedom-metal/src/drivers/riscv_clint0.c:97

    if ((mode != METAL_VECTOR_MODE) && (mode != METAL_DIRECT_MODE)) {
200113dc:	fe042703          	lw	a4,-32(s0)
200113e0:	4785                	li	a5,1
200113e2:	00f70863          	beq	a4,a5,200113f2 <__metal_driver_riscv_clint0_register+0x50>
E:/GitHub/HiFive01-RevB/FS_workspace/002_LED_Blink_All/freedom-metal/src/drivers/riscv_clint0.c:97 (discriminator 1)
200113e6:	fe042783          	lw	a5,-32(s0)
200113ea:	c781                	beqz	a5,200113f2 <__metal_driver_riscv_clint0_register+0x50>
E:/GitHub/HiFive01-RevB/FS_workspace/002_LED_Blink_All/freedom-metal/src/drivers/riscv_clint0.c:98
        return rc;
200113ec:	fec42783          	lw	a5,-20(s0)
200113f0:	a049                	j	20011472 <__metal_driver_riscv_clint0_register+0xd0>
E:/GitHub/HiFive01-RevB/FS_workspace/002_LED_Blink_All/freedom-metal/src/drivers/riscv_clint0.c:101
    }

    for (int i = 0; i < num_interrupts; i++) {
200113f2:	fe042223          	sw	zero,-28(s0)
200113f6:	a091                	j	2001143a <__metal_driver_riscv_clint0_register+0x98>
E:/GitHub/HiFive01-RevB/FS_workspace/002_LED_Blink_All/freedom-metal/src/drivers/riscv_clint0.c:102
        int line = __metal_driver_sifive_clint0_interrupt_lines(controller, i);
200113f8:	fe442583          	lw	a1,-28(s0)
200113fc:	fcc42503          	lw	a0,-52(s0)
20011400:	3351                	jal	20011184 <__metal_driver_sifive_clint0_interrupt_lines>
20011402:	fca42a23          	sw	a0,-44(s0)
E:/GitHub/HiFive01-RevB/FS_workspace/002_LED_Blink_All/freedom-metal/src/drivers/riscv_clint0.c:103
        intc = __metal_driver_sifive_clint0_interrupt_parents(controller, i);
20011406:	fe442583          	lw	a1,-28(s0)
2001140a:	fcc42503          	lw	a0,-52(s0)
2001140e:	3b2d                	jal	20011148 <__metal_driver_sifive_clint0_interrupt_parents>
20011410:	fea42423          	sw	a0,-24(s0)
E:/GitHub/HiFive01-RevB/FS_workspace/002_LED_Blink_All/freedom-metal/src/drivers/riscv_clint0.c:104
        if (cpu_intc == intc && id == line) {
20011414:	fdc42703          	lw	a4,-36(s0)
20011418:	fe842783          	lw	a5,-24(s0)
2001141c:	00f71863          	bne	a4,a5,2001142c <__metal_driver_riscv_clint0_register+0x8a>
E:/GitHub/HiFive01-RevB/FS_workspace/002_LED_Blink_All/freedom-metal/src/drivers/riscv_clint0.c:104 (discriminator 1)
20011420:	fc842703          	lw	a4,-56(s0)
20011424:	fd442783          	lw	a5,-44(s0)
20011428:	02f70063          	beq	a4,a5,20011448 <__metal_driver_riscv_clint0_register+0xa6>
E:/GitHub/HiFive01-RevB/FS_workspace/002_LED_Blink_All/freedom-metal/src/drivers/riscv_clint0.c:107 (discriminator 2)
            break;
        }
        intc = NULL;
2001142c:	fe042423          	sw	zero,-24(s0)
E:/GitHub/HiFive01-RevB/FS_workspace/002_LED_Blink_All/freedom-metal/src/drivers/riscv_clint0.c:101 (discriminator 2)
    for (int i = 0; i < num_interrupts; i++) {
20011430:	fe442783          	lw	a5,-28(s0)
20011434:	0785                	addi	a5,a5,1
20011436:	fef42223          	sw	a5,-28(s0)
E:/GitHub/HiFive01-RevB/FS_workspace/002_LED_Blink_All/freedom-metal/src/drivers/riscv_clint0.c:101 (discriminator 1)
2001143a:	fe442703          	lw	a4,-28(s0)
2001143e:	fd842783          	lw	a5,-40(s0)
20011442:	faf74be3          	blt	a4,a5,200113f8 <__metal_driver_riscv_clint0_register+0x56>
20011446:	a011                	j	2001144a <__metal_driver_riscv_clint0_register+0xa8>
E:/GitHub/HiFive01-RevB/FS_workspace/002_LED_Blink_All/freedom-metal/src/drivers/riscv_clint0.c:105
            break;
20011448:	0001                	nop
E:/GitHub/HiFive01-RevB/FS_workspace/002_LED_Blink_All/freedom-metal/src/drivers/riscv_clint0.c:111
    }

    /* Register its interrupts with parent controller */
    if (intc) {
2001144a:	fe842783          	lw	a5,-24(s0)
2001144e:	c385                	beqz	a5,2001146e <__metal_driver_riscv_clint0_register+0xcc>
E:/GitHub/HiFive01-RevB/FS_workspace/002_LED_Blink_All/freedom-metal/src/drivers/riscv_clint0.c:112
        rc = intc->vtable->interrupt_register(intc, id, isr, priv);
20011450:	fe842783          	lw	a5,-24(s0)
20011454:	439c                	lw	a5,0(a5)
20011456:	4fdc                	lw	a5,28(a5)
20011458:	fc042683          	lw	a3,-64(s0)
2001145c:	fc442603          	lw	a2,-60(s0)
20011460:	fc842583          	lw	a1,-56(s0)
20011464:	fe842503          	lw	a0,-24(s0)
20011468:	9782                	jalr	a5
2001146a:	fea42623          	sw	a0,-20(s0)
E:/GitHub/HiFive01-RevB/FS_workspace/002_LED_Blink_All/freedom-metal/src/drivers/riscv_clint0.c:114
    }
    return rc;
2001146e:	fec42783          	lw	a5,-20(s0)
E:/GitHub/HiFive01-RevB/FS_workspace/002_LED_Blink_All/freedom-metal/src/drivers/riscv_clint0.c:115
}
20011472:	853e                	mv	a0,a5
20011474:	50f2                	lw	ra,60(sp)
20011476:	5462                	lw	s0,56(sp)
20011478:	6121                	addi	sp,sp,64
2001147a:	8082                	ret

2001147c <__metal_driver_riscv_clint0_vector_register>:
__metal_driver_riscv_clint0_vector_register():
E:/GitHub/HiFive01-RevB/FS_workspace/002_LED_Blink_All/freedom-metal/src/drivers/riscv_clint0.c:119

int __metal_driver_riscv_clint0_vector_register(
    struct metal_interrupt *controller, int id,
    metal_interrupt_vector_handler_t isr, void *priv) {
2001147c:	7179                	addi	sp,sp,-48
2001147e:	d622                	sw	s0,44(sp)
20011480:	1800                	addi	s0,sp,48
20011482:	fca42e23          	sw	a0,-36(s0)
20011486:	fcb42c23          	sw	a1,-40(s0)
2001148a:	fcc42a23          	sw	a2,-44(s0)
2001148e:	fcd42823          	sw	a3,-48(s0)
E:/GitHub/HiFive01-RevB/FS_workspace/002_LED_Blink_All/freedom-metal/src/drivers/riscv_clint0.c:121
    /* Not supported. User can override the 'weak' handler with their own */
    int rc = -1;
20011492:	57fd                	li	a5,-1
20011494:	fef42623          	sw	a5,-20(s0)
E:/GitHub/HiFive01-RevB/FS_workspace/002_LED_Blink_All/freedom-metal/src/drivers/riscv_clint0.c:122
    return rc;
20011498:	fec42783          	lw	a5,-20(s0)
E:/GitHub/HiFive01-RevB/FS_workspace/002_LED_Blink_All/freedom-metal/src/drivers/riscv_clint0.c:123
}
2001149c:	853e                	mv	a0,a5
2001149e:	5432                	lw	s0,44(sp)
200114a0:	6145                	addi	sp,sp,48
200114a2:	8082                	ret

200114a4 <__metal_driver_riscv_clint0_get_vector_mode>:
__metal_driver_riscv_clint0_get_vector_mode():
E:/GitHub/HiFive01-RevB/FS_workspace/002_LED_Blink_All/freedom-metal/src/drivers/riscv_clint0.c:126

metal_vector_mode __metal_driver_riscv_clint0_get_vector_mode(
    struct metal_interrupt *controller) {
200114a4:	1101                	addi	sp,sp,-32
200114a6:	ce06                	sw	ra,28(sp)
200114a8:	cc22                	sw	s0,24(sp)
200114aa:	1000                	addi	s0,sp,32
200114ac:	fea42623          	sw	a0,-20(s0)
E:/GitHub/HiFive01-RevB/FS_workspace/002_LED_Blink_All/freedom-metal/src/drivers/riscv_clint0.c:127
    return __metal_controller_interrupt_vector_mode();
200114b0:	3a6010ef          	jal	ra,20012856 <__metal_controller_interrupt_vector_mode>
200114b4:	87aa                	mv	a5,a0
E:/GitHub/HiFive01-RevB/FS_workspace/002_LED_Blink_All/freedom-metal/src/drivers/riscv_clint0.c:128
}
200114b6:	853e                	mv	a0,a5
200114b8:	40f2                	lw	ra,28(sp)
200114ba:	4462                	lw	s0,24(sp)
200114bc:	6105                	addi	sp,sp,32
200114be:	8082                	ret

200114c0 <__metal_driver_riscv_clint0_set_vector_mode>:
__metal_driver_riscv_clint0_set_vector_mode():
E:/GitHub/HiFive01-RevB/FS_workspace/002_LED_Blink_All/freedom-metal/src/drivers/riscv_clint0.c:131

int __metal_driver_riscv_clint0_set_vector_mode(
    struct metal_interrupt *controller, metal_vector_mode mode) {
200114c0:	7179                	addi	sp,sp,-48
200114c2:	d606                	sw	ra,44(sp)
200114c4:	d422                	sw	s0,40(sp)
200114c6:	1800                	addi	s0,sp,48
200114c8:	fca42e23          	sw	a0,-36(s0)
200114cc:	fcb42c23          	sw	a1,-40(s0)
E:/GitHub/HiFive01-RevB/FS_workspace/002_LED_Blink_All/freedom-metal/src/drivers/riscv_clint0.c:132
    int rc = -1;
200114d0:	57fd                	li	a5,-1
200114d2:	fef42623          	sw	a5,-20(s0)
E:/GitHub/HiFive01-RevB/FS_workspace/002_LED_Blink_All/freedom-metal/src/drivers/riscv_clint0.c:133
    struct metal_interrupt *intc = _get_cpu_intc();
200114d6:	3539                	jal	200112e4 <_get_cpu_intc>
200114d8:	fea42423          	sw	a0,-24(s0)
E:/GitHub/HiFive01-RevB/FS_workspace/002_LED_Blink_All/freedom-metal/src/drivers/riscv_clint0.c:135

    if (intc) {
200114dc:	fe842783          	lw	a5,-24(s0)
200114e0:	c395                	beqz	a5,20011504 <__metal_driver_riscv_clint0_set_vector_mode+0x44>
E:/GitHub/HiFive01-RevB/FS_workspace/002_LED_Blink_All/freedom-metal/src/drivers/riscv_clint0.c:138
        /* Valid vector modes are VECTOR and DIRECT, anything else is invalid
         * (-1) */
        switch (mode) {
200114e2:	fd842703          	lw	a4,-40(s0)
200114e6:	4785                	li	a5,1
200114e8:	02e7e063          	bltu	a5,a4,20011508 <__metal_driver_riscv_clint0_set_vector_mode+0x48>
E:/GitHub/HiFive01-RevB/FS_workspace/002_LED_Blink_All/freedom-metal/src/drivers/riscv_clint0.c:141
        case METAL_VECTOR_MODE:
        case METAL_DIRECT_MODE:
            rc = intc->vtable->interrupt_set_vector_mode(intc, mode);
200114ec:	fe842783          	lw	a5,-24(s0)
200114f0:	439c                	lw	a5,0(a5)
200114f2:	43dc                	lw	a5,4(a5)
200114f4:	fd842583          	lw	a1,-40(s0)
200114f8:	fe842503          	lw	a0,-24(s0)
200114fc:	9782                	jalr	a5
200114fe:	fea42623          	sw	a0,-20(s0)
E:/GitHub/HiFive01-RevB/FS_workspace/002_LED_Blink_All/freedom-metal/src/drivers/riscv_clint0.c:142
            break;
20011502:	a021                	j	2001150a <__metal_driver_riscv_clint0_set_vector_mode+0x4a>
E:/GitHub/HiFive01-RevB/FS_workspace/002_LED_Blink_All/freedom-metal/src/drivers/riscv_clint0.c:146
        default:
            break;
        }
    }
20011504:	0001                	nop
20011506:	a011                	j	2001150a <__metal_driver_riscv_clint0_set_vector_mode+0x4a>
E:/GitHub/HiFive01-RevB/FS_workspace/002_LED_Blink_All/freedom-metal/src/drivers/riscv_clint0.c:144
            break;
20011508:	0001                	nop
E:/GitHub/HiFive01-RevB/FS_workspace/002_LED_Blink_All/freedom-metal/src/drivers/riscv_clint0.c:147
    return rc;
2001150a:	fec42783          	lw	a5,-20(s0)
E:/GitHub/HiFive01-RevB/FS_workspace/002_LED_Blink_All/freedom-metal/src/drivers/riscv_clint0.c:148
}
2001150e:	853e                	mv	a0,a5
20011510:	50b2                	lw	ra,44(sp)
20011512:	5422                	lw	s0,40(sp)
20011514:	6145                	addi	sp,sp,48
20011516:	8082                	ret

20011518 <__metal_driver_riscv_clint0_enable>:
__metal_driver_riscv_clint0_enable():
E:/GitHub/HiFive01-RevB/FS_workspace/002_LED_Blink_All/freedom-metal/src/drivers/riscv_clint0.c:151

int __metal_driver_riscv_clint0_enable(struct metal_interrupt *controller,
                                       int id) {
20011518:	7139                	addi	sp,sp,-64
2001151a:	de06                	sw	ra,60(sp)
2001151c:	dc22                	sw	s0,56(sp)
2001151e:	0080                	addi	s0,sp,64
20011520:	fca42623          	sw	a0,-52(s0)
20011524:	fcb42423          	sw	a1,-56(s0)
E:/GitHub/HiFive01-RevB/FS_workspace/002_LED_Blink_All/freedom-metal/src/drivers/riscv_clint0.c:152
    int rc = -1;
20011528:	57fd                	li	a5,-1
2001152a:	fef42623          	sw	a5,-20(s0)
E:/GitHub/HiFive01-RevB/FS_workspace/002_LED_Blink_All/freedom-metal/src/drivers/riscv_clint0.c:154

    if (id) {
2001152e:	fc842783          	lw	a5,-56(s0)
20011532:	c7c9                	beqz	a5,200115bc <__metal_driver_riscv_clint0_enable+0xa4>
E:/GitHub/HiFive01-RevB/FS_workspace/002_LED_Blink_All/freedom-metal/src/drivers/riscv_clint0.c:155
        struct metal_interrupt *intc = NULL;
20011534:	fe042423          	sw	zero,-24(s0)
E:/GitHub/HiFive01-RevB/FS_workspace/002_LED_Blink_All/freedom-metal/src/drivers/riscv_clint0.c:156
        struct metal_interrupt *cpu_intc = _get_cpu_intc();
20011538:	3375                	jal	200112e4 <_get_cpu_intc>
2001153a:	fea42023          	sw	a0,-32(s0)
E:/GitHub/HiFive01-RevB/FS_workspace/002_LED_Blink_All/freedom-metal/src/drivers/riscv_clint0.c:158
        int num_interrupts =
            __metal_driver_sifive_clint0_num_interrupts(controller);
2001153e:	fcc42503          	lw	a0,-52(s0)
20011542:	3ef9                	jal	20011120 <__metal_driver_sifive_clint0_num_interrupts>
20011544:	fca42e23          	sw	a0,-36(s0)
E:/GitHub/HiFive01-RevB/FS_workspace/002_LED_Blink_All/freedom-metal/src/drivers/riscv_clint0.c:160

        for (int i = 0; i < num_interrupts; i++) {
20011548:	fe042223          	sw	zero,-28(s0)
2001154c:	a091                	j	20011590 <__metal_driver_riscv_clint0_enable+0x78>
E:/GitHub/HiFive01-RevB/FS_workspace/002_LED_Blink_All/freedom-metal/src/drivers/riscv_clint0.c:162
            int line =
                __metal_driver_sifive_clint0_interrupt_lines(controller, i);
2001154e:	fe442583          	lw	a1,-28(s0)
20011552:	fcc42503          	lw	a0,-52(s0)
20011556:	313d                	jal	20011184 <__metal_driver_sifive_clint0_interrupt_lines>
20011558:	fca42c23          	sw	a0,-40(s0)
E:/GitHub/HiFive01-RevB/FS_workspace/002_LED_Blink_All/freedom-metal/src/drivers/riscv_clint0.c:164
            intc =
                __metal_driver_sifive_clint0_interrupt_parents(controller, i);
2001155c:	fe442583          	lw	a1,-28(s0)
20011560:	fcc42503          	lw	a0,-52(s0)
20011564:	36d5                	jal	20011148 <__metal_driver_sifive_clint0_interrupt_parents>
20011566:	fea42423          	sw	a0,-24(s0)
E:/GitHub/HiFive01-RevB/FS_workspace/002_LED_Blink_All/freedom-metal/src/drivers/riscv_clint0.c:165
            if (cpu_intc == intc && id == line) {
2001156a:	fe042703          	lw	a4,-32(s0)
2001156e:	fe842783          	lw	a5,-24(s0)
20011572:	00f71863          	bne	a4,a5,20011582 <__metal_driver_riscv_clint0_enable+0x6a>
E:/GitHub/HiFive01-RevB/FS_workspace/002_LED_Blink_All/freedom-metal/src/drivers/riscv_clint0.c:165 (discriminator 1)
20011576:	fc842703          	lw	a4,-56(s0)
2001157a:	fd842783          	lw	a5,-40(s0)
2001157e:	02f70063          	beq	a4,a5,2001159e <__metal_driver_riscv_clint0_enable+0x86>
E:/GitHub/HiFive01-RevB/FS_workspace/002_LED_Blink_All/freedom-metal/src/drivers/riscv_clint0.c:168 (discriminator 2)
                break;
            }
            intc = NULL;
20011582:	fe042423          	sw	zero,-24(s0)
E:/GitHub/HiFive01-RevB/FS_workspace/002_LED_Blink_All/freedom-metal/src/drivers/riscv_clint0.c:160 (discriminator 2)
        for (int i = 0; i < num_interrupts; i++) {
20011586:	fe442783          	lw	a5,-28(s0)
2001158a:	0785                	addi	a5,a5,1
2001158c:	fef42223          	sw	a5,-28(s0)
E:/GitHub/HiFive01-RevB/FS_workspace/002_LED_Blink_All/freedom-metal/src/drivers/riscv_clint0.c:160 (discriminator 1)
20011590:	fe442703          	lw	a4,-28(s0)
20011594:	fdc42783          	lw	a5,-36(s0)
20011598:	faf74be3          	blt	a4,a5,2001154e <__metal_driver_riscv_clint0_enable+0x36>
2001159c:	a011                	j	200115a0 <__metal_driver_riscv_clint0_enable+0x88>
E:/GitHub/HiFive01-RevB/FS_workspace/002_LED_Blink_All/freedom-metal/src/drivers/riscv_clint0.c:166
                break;
2001159e:	0001                	nop
E:/GitHub/HiFive01-RevB/FS_workspace/002_LED_Blink_All/freedom-metal/src/drivers/riscv_clint0.c:172
        }

        /* Enable its interrupts with parent controller */
        if (intc) {
200115a0:	fe842783          	lw	a5,-24(s0)
200115a4:	cf81                	beqz	a5,200115bc <__metal_driver_riscv_clint0_enable+0xa4>
E:/GitHub/HiFive01-RevB/FS_workspace/002_LED_Blink_All/freedom-metal/src/drivers/riscv_clint0.c:173
            rc = intc->vtable->interrupt_enable(intc, id);
200115a6:	fe842783          	lw	a5,-24(s0)
200115aa:	439c                	lw	a5,0(a5)
200115ac:	53dc                	lw	a5,36(a5)
200115ae:	fc842583          	lw	a1,-56(s0)
200115b2:	fe842503          	lw	a0,-24(s0)
200115b6:	9782                	jalr	a5
200115b8:	fea42623          	sw	a0,-20(s0)
E:/GitHub/HiFive01-RevB/FS_workspace/002_LED_Blink_All/freedom-metal/src/drivers/riscv_clint0.c:177
        }
    }

    return rc;
200115bc:	fec42783          	lw	a5,-20(s0)
E:/GitHub/HiFive01-RevB/FS_workspace/002_LED_Blink_All/freedom-metal/src/drivers/riscv_clint0.c:178
}
200115c0:	853e                	mv	a0,a5
200115c2:	50f2                	lw	ra,60(sp)
200115c4:	5462                	lw	s0,56(sp)
200115c6:	6121                	addi	sp,sp,64
200115c8:	8082                	ret

200115ca <__metal_driver_riscv_clint0_disable>:
__metal_driver_riscv_clint0_disable():
E:/GitHub/HiFive01-RevB/FS_workspace/002_LED_Blink_All/freedom-metal/src/drivers/riscv_clint0.c:181

int __metal_driver_riscv_clint0_disable(struct metal_interrupt *controller,
                                        int id) {
200115ca:	7139                	addi	sp,sp,-64
200115cc:	de06                	sw	ra,60(sp)
200115ce:	dc22                	sw	s0,56(sp)
200115d0:	0080                	addi	s0,sp,64
200115d2:	fca42623          	sw	a0,-52(s0)
200115d6:	fcb42423          	sw	a1,-56(s0)
E:/GitHub/HiFive01-RevB/FS_workspace/002_LED_Blink_All/freedom-metal/src/drivers/riscv_clint0.c:182
    int rc = -1;
200115da:	57fd                	li	a5,-1
200115dc:	fef42623          	sw	a5,-20(s0)
E:/GitHub/HiFive01-RevB/FS_workspace/002_LED_Blink_All/freedom-metal/src/drivers/riscv_clint0.c:184

    if (id) {
200115e0:	fc842783          	lw	a5,-56(s0)
200115e4:	c7c9                	beqz	a5,2001166e <__metal_driver_riscv_clint0_disable+0xa4>
E:/GitHub/HiFive01-RevB/FS_workspace/002_LED_Blink_All/freedom-metal/src/drivers/riscv_clint0.c:185
        struct metal_interrupt *intc = NULL;
200115e6:	fe042423          	sw	zero,-24(s0)
E:/GitHub/HiFive01-RevB/FS_workspace/002_LED_Blink_All/freedom-metal/src/drivers/riscv_clint0.c:186
        struct metal_interrupt *cpu_intc = _get_cpu_intc();
200115ea:	39ed                	jal	200112e4 <_get_cpu_intc>
200115ec:	fea42023          	sw	a0,-32(s0)
E:/GitHub/HiFive01-RevB/FS_workspace/002_LED_Blink_All/freedom-metal/src/drivers/riscv_clint0.c:188
        int num_interrupts =
            __metal_driver_sifive_clint0_num_interrupts(controller);
200115f0:	fcc42503          	lw	a0,-52(s0)
200115f4:	3635                	jal	20011120 <__metal_driver_sifive_clint0_num_interrupts>
200115f6:	fca42e23          	sw	a0,-36(s0)
E:/GitHub/HiFive01-RevB/FS_workspace/002_LED_Blink_All/freedom-metal/src/drivers/riscv_clint0.c:190

        for (int i = 0; i < num_interrupts; i++) {
200115fa:	fe042223          	sw	zero,-28(s0)
200115fe:	a091                	j	20011642 <__metal_driver_riscv_clint0_disable+0x78>
E:/GitHub/HiFive01-RevB/FS_workspace/002_LED_Blink_All/freedom-metal/src/drivers/riscv_clint0.c:192
            int line =
                __metal_driver_sifive_clint0_interrupt_lines(controller, i);
20011600:	fe442583          	lw	a1,-28(s0)
20011604:	fcc42503          	lw	a0,-52(s0)
20011608:	3eb5                	jal	20011184 <__metal_driver_sifive_clint0_interrupt_lines>
2001160a:	fca42c23          	sw	a0,-40(s0)
E:/GitHub/HiFive01-RevB/FS_workspace/002_LED_Blink_All/freedom-metal/src/drivers/riscv_clint0.c:194
            intc =
                __metal_driver_sifive_clint0_interrupt_parents(controller, i);
2001160e:	fe442583          	lw	a1,-28(s0)
20011612:	fcc42503          	lw	a0,-52(s0)
20011616:	3e0d                	jal	20011148 <__metal_driver_sifive_clint0_interrupt_parents>
20011618:	fea42423          	sw	a0,-24(s0)
E:/GitHub/HiFive01-RevB/FS_workspace/002_LED_Blink_All/freedom-metal/src/drivers/riscv_clint0.c:195
            if (cpu_intc == intc && id == line) {
2001161c:	fe042703          	lw	a4,-32(s0)
20011620:	fe842783          	lw	a5,-24(s0)
20011624:	00f71863          	bne	a4,a5,20011634 <__metal_driver_riscv_clint0_disable+0x6a>
E:/GitHub/HiFive01-RevB/FS_workspace/002_LED_Blink_All/freedom-metal/src/drivers/riscv_clint0.c:195 (discriminator 1)
20011628:	fc842703          	lw	a4,-56(s0)
2001162c:	fd842783          	lw	a5,-40(s0)
20011630:	02f70063          	beq	a4,a5,20011650 <__metal_driver_riscv_clint0_disable+0x86>
E:/GitHub/HiFive01-RevB/FS_workspace/002_LED_Blink_All/freedom-metal/src/drivers/riscv_clint0.c:198 (discriminator 2)
                break;
            }
            intc = NULL;
20011634:	fe042423          	sw	zero,-24(s0)
E:/GitHub/HiFive01-RevB/FS_workspace/002_LED_Blink_All/freedom-metal/src/drivers/riscv_clint0.c:190 (discriminator 2)
        for (int i = 0; i < num_interrupts; i++) {
20011638:	fe442783          	lw	a5,-28(s0)
2001163c:	0785                	addi	a5,a5,1
2001163e:	fef42223          	sw	a5,-28(s0)
E:/GitHub/HiFive01-RevB/FS_workspace/002_LED_Blink_All/freedom-metal/src/drivers/riscv_clint0.c:190 (discriminator 1)
20011642:	fe442703          	lw	a4,-28(s0)
20011646:	fdc42783          	lw	a5,-36(s0)
2001164a:	faf74be3          	blt	a4,a5,20011600 <__metal_driver_riscv_clint0_disable+0x36>
2001164e:	a011                	j	20011652 <__metal_driver_riscv_clint0_disable+0x88>
E:/GitHub/HiFive01-RevB/FS_workspace/002_LED_Blink_All/freedom-metal/src/drivers/riscv_clint0.c:196
                break;
20011650:	0001                	nop
E:/GitHub/HiFive01-RevB/FS_workspace/002_LED_Blink_All/freedom-metal/src/drivers/riscv_clint0.c:202
        }

        /* Disable its interrupts with parent controller */
        if (intc) {
20011652:	fe842783          	lw	a5,-24(s0)
20011656:	cf81                	beqz	a5,2001166e <__metal_driver_riscv_clint0_disable+0xa4>
E:/GitHub/HiFive01-RevB/FS_workspace/002_LED_Blink_All/freedom-metal/src/drivers/riscv_clint0.c:203
            rc = intc->vtable->interrupt_disable(intc, id);
20011658:	fe842783          	lw	a5,-24(s0)
2001165c:	439c                	lw	a5,0(a5)
2001165e:	579c                	lw	a5,40(a5)
20011660:	fc842583          	lw	a1,-56(s0)
20011664:	fe842503          	lw	a0,-24(s0)
20011668:	9782                	jalr	a5
2001166a:	fea42623          	sw	a0,-20(s0)
E:/GitHub/HiFive01-RevB/FS_workspace/002_LED_Blink_All/freedom-metal/src/drivers/riscv_clint0.c:207
        }
    }

    return rc;
2001166e:	fec42783          	lw	a5,-20(s0)
E:/GitHub/HiFive01-RevB/FS_workspace/002_LED_Blink_All/freedom-metal/src/drivers/riscv_clint0.c:208
}
20011672:	853e                	mv	a0,a5
20011674:	50f2                	lw	ra,60(sp)
20011676:	5462                	lw	s0,56(sp)
20011678:	6121                	addi	sp,sp,64
2001167a:	8082                	ret

2001167c <__metal_driver_riscv_clint0_command_request>:
__metal_driver_riscv_clint0_command_request():
E:/GitHub/HiFive01-RevB/FS_workspace/002_LED_Blink_All/freedom-metal/src/drivers/riscv_clint0.c:211

int __metal_driver_riscv_clint0_command_request(
    struct metal_interrupt *controller, int command, void *data) {
2001167c:	7179                	addi	sp,sp,-48
2001167e:	d606                	sw	ra,44(sp)
20011680:	d422                	sw	s0,40(sp)
20011682:	1800                	addi	s0,sp,48
20011684:	fca42e23          	sw	a0,-36(s0)
20011688:	fcb42c23          	sw	a1,-40(s0)
2001168c:	fcc42a23          	sw	a2,-44(s0)
E:/GitHub/HiFive01-RevB/FS_workspace/002_LED_Blink_All/freedom-metal/src/drivers/riscv_clint0.c:213
    int hartid;
    int rc = -1;
20011690:	57fd                	li	a5,-1
20011692:	fef42623          	sw	a5,-20(s0)
E:/GitHub/HiFive01-RevB/FS_workspace/002_LED_Blink_All/freedom-metal/src/drivers/riscv_clint0.c:214
    struct __metal_driver_riscv_clint0 *clint =
20011696:	fdc42783          	lw	a5,-36(s0)
2001169a:	fef42423          	sw	a5,-24(s0)
E:/GitHub/HiFive01-RevB/FS_workspace/002_LED_Blink_All/freedom-metal/src/drivers/riscv_clint0.c:217
        (struct __metal_driver_riscv_clint0 *)(controller);
    unsigned long control_base =
        __metal_driver_sifive_clint0_control_base(controller);
2001169e:	fdc42503          	lw	a0,-36(s0)
200116a2:	3c91                	jal	200110f6 <__metal_driver_sifive_clint0_control_base>
200116a4:	fea42223          	sw	a0,-28(s0)
E:/GitHub/HiFive01-RevB/FS_workspace/002_LED_Blink_All/freedom-metal/src/drivers/riscv_clint0.c:219

    switch (command) {
200116a8:	fd842703          	lw	a4,-40(s0)
200116ac:	4791                	li	a5,4
200116ae:	0cf70063          	beq	a4,a5,2001176e <__metal_driver_riscv_clint0_command_request+0xf2>
200116b2:	fd842703          	lw	a4,-40(s0)
200116b6:	4791                	li	a5,4
200116b8:	0ee7c063          	blt	a5,a4,20011798 <__metal_driver_riscv_clint0_command_request+0x11c>
200116bc:	fd842703          	lw	a4,-40(s0)
200116c0:	478d                	li	a5,3
200116c2:	06f70563          	beq	a4,a5,2001172c <__metal_driver_riscv_clint0_command_request+0xb0>
200116c6:	fd842703          	lw	a4,-40(s0)
200116ca:	478d                	li	a5,3
200116cc:	0ce7c663          	blt	a5,a4,20011798 <__metal_driver_riscv_clint0_command_request+0x11c>
200116d0:	fd842703          	lw	a4,-40(s0)
200116d4:	4785                	li	a5,1
200116d6:	00f70863          	beq	a4,a5,200116e6 <__metal_driver_riscv_clint0_command_request+0x6a>
200116da:	fd842703          	lw	a4,-40(s0)
200116de:	4789                	li	a5,2
200116e0:	02f70263          	beq	a4,a5,20011704 <__metal_driver_riscv_clint0_command_request+0x88>
E:/GitHub/HiFive01-RevB/FS_workspace/002_LED_Blink_All/freedom-metal/src/drivers/riscv_clint0.c:263
            rc = __METAL_ACCESS_ONCE(
                (__metal_io_u32 *)(control_base + (hartid * 4)));
        }
        break;
    default:
        break;
200116e4:	a855                	j	20011798 <__metal_driver_riscv_clint0_command_request+0x11c>
E:/GitHub/HiFive01-RevB/FS_workspace/002_LED_Blink_All/freedom-metal/src/drivers/riscv_clint0.c:221
        if (data) {
200116e6:	fd442783          	lw	a5,-44(s0)
200116ea:	cbcd                	beqz	a5,2001179c <__metal_driver_riscv_clint0_command_request+0x120>
E:/GitHub/HiFive01-RevB/FS_workspace/002_LED_Blink_All/freedom-metal/src/drivers/riscv_clint0.c:222
            *(unsigned long long *)data = __metal_clint0_mtime_get(clint);
200116ec:	fe842503          	lw	a0,-24(s0)
200116f0:	34d1                	jal	200111b4 <__metal_clint0_mtime_get>
200116f2:	872a                	mv	a4,a0
200116f4:	87ae                	mv	a5,a1
200116f6:	fd442683          	lw	a3,-44(s0)
200116fa:	c298                	sw	a4,0(a3)
200116fc:	c2dc                	sw	a5,4(a3)
E:/GitHub/HiFive01-RevB/FS_workspace/002_LED_Blink_All/freedom-metal/src/drivers/riscv_clint0.c:223
            rc = 0;
200116fe:	fe042623          	sw	zero,-20(s0)
E:/GitHub/HiFive01-RevB/FS_workspace/002_LED_Blink_All/freedom-metal/src/drivers/riscv_clint0.c:225
        break;
20011702:	a869                	j	2001179c <__metal_driver_riscv_clint0_command_request+0x120>
E:/GitHub/HiFive01-RevB/FS_workspace/002_LED_Blink_All/freedom-metal/src/drivers/riscv_clint0.c:227
        if (data) {
20011704:	fd442783          	lw	a5,-44(s0)
20011708:	cfc1                	beqz	a5,200117a0 <__metal_driver_riscv_clint0_command_request+0x124>
E:/GitHub/HiFive01-RevB/FS_workspace/002_LED_Blink_All/freedom-metal/src/drivers/riscv_clint0.c:228
            hartid = *(int *)data;
2001170a:	fd442783          	lw	a5,-44(s0)
2001170e:	439c                	lw	a5,0(a5)
20011710:	fef42023          	sw	a5,-32(s0)
E:/GitHub/HiFive01-RevB/FS_workspace/002_LED_Blink_All/freedom-metal/src/drivers/riscv_clint0.c:229
            __METAL_ACCESS_ONCE((
20011714:	fe042783          	lw	a5,-32(s0)
20011718:	078a                	slli	a5,a5,0x2
2001171a:	873e                	mv	a4,a5
2001171c:	fe442783          	lw	a5,-28(s0)
20011720:	97ba                	add	a5,a5,a4
E:/GitHub/HiFive01-RevB/FS_workspace/002_LED_Blink_All/freedom-metal/src/drivers/riscv_clint0.c:230
                __metal_io_u32 *)(control_base + (hartid * 4))) = METAL_DISABLE;
20011722:	0007a023          	sw	zero,0(a5) # 4000 <__heap_size+0x3800>
E:/GitHub/HiFive01-RevB/FS_workspace/002_LED_Blink_All/freedom-metal/src/drivers/riscv_clint0.c:231
            rc = 0;
20011726:	fe042623          	sw	zero,-20(s0)
E:/GitHub/HiFive01-RevB/FS_workspace/002_LED_Blink_All/freedom-metal/src/drivers/riscv_clint0.c:233
        break;
2001172a:	a89d                	j	200117a0 <__metal_driver_riscv_clint0_command_request+0x124>
E:/GitHub/HiFive01-RevB/FS_workspace/002_LED_Blink_All/freedom-metal/src/drivers/riscv_clint0.c:235
        if (data) {
2001172c:	fd442783          	lw	a5,-44(s0)
20011730:	cbb5                	beqz	a5,200117a4 <__metal_driver_riscv_clint0_command_request+0x128>
E:/GitHub/HiFive01-RevB/FS_workspace/002_LED_Blink_All/freedom-metal/src/drivers/riscv_clint0.c:236
            hartid = *(int *)data;
20011732:	fd442783          	lw	a5,-44(s0)
20011736:	439c                	lw	a5,0(a5)
20011738:	fef42023          	sw	a5,-32(s0)
E:/GitHub/HiFive01-RevB/FS_workspace/002_LED_Blink_All/freedom-metal/src/drivers/riscv_clint0.c:237
            __METAL_ACCESS_ONCE(
2001173c:	fe042783          	lw	a5,-32(s0)
20011740:	078a                	slli	a5,a5,0x2
20011742:	873e                	mv	a4,a5
20011744:	fe442783          	lw	a5,-28(s0)
20011748:	97ba                	add	a5,a5,a4
2001174a:	873e                	mv	a4,a5
E:/GitHub/HiFive01-RevB/FS_workspace/002_LED_Blink_All/freedom-metal/src/drivers/riscv_clint0.c:238
                (__metal_io_u32 *)(control_base + (hartid * 4))) = METAL_ENABLE;
2001174c:	4785                	li	a5,1
2001174e:	c31c                	sw	a5,0(a4)
E:/GitHub/HiFive01-RevB/FS_workspace/002_LED_Blink_All/freedom-metal/src/drivers/riscv_clint0.c:248
            __METAL_IO_FENCE(o, i);
20011750:	0480000f          	fence	o,i
E:/GitHub/HiFive01-RevB/FS_workspace/002_LED_Blink_All/freedom-metal/src/drivers/riscv_clint0.c:249
            rc = __METAL_ACCESS_ONCE(
20011754:	fe042783          	lw	a5,-32(s0)
20011758:	078a                	slli	a5,a5,0x2
2001175a:	873e                	mv	a4,a5
2001175c:	fe442783          	lw	a5,-28(s0)
20011760:	97ba                	add	a5,a5,a4
20011762:	439c                	lw	a5,0(a5)
20011764:	fef42623          	sw	a5,-20(s0)
E:/GitHub/HiFive01-RevB/FS_workspace/002_LED_Blink_All/freedom-metal/src/drivers/riscv_clint0.c:251
            rc = 0;
20011768:	fe042623          	sw	zero,-20(s0)
E:/GitHub/HiFive01-RevB/FS_workspace/002_LED_Blink_All/freedom-metal/src/drivers/riscv_clint0.c:253
        break;
2001176c:	a825                	j	200117a4 <__metal_driver_riscv_clint0_command_request+0x128>
E:/GitHub/HiFive01-RevB/FS_workspace/002_LED_Blink_All/freedom-metal/src/drivers/riscv_clint0.c:255
        rc = 0;
2001176e:	fe042623          	sw	zero,-20(s0)
E:/GitHub/HiFive01-RevB/FS_workspace/002_LED_Blink_All/freedom-metal/src/drivers/riscv_clint0.c:256
        if (data) {
20011772:	fd442783          	lw	a5,-44(s0)
20011776:	cb8d                	beqz	a5,200117a8 <__metal_driver_riscv_clint0_command_request+0x12c>
E:/GitHub/HiFive01-RevB/FS_workspace/002_LED_Blink_All/freedom-metal/src/drivers/riscv_clint0.c:257
            hartid = *(int *)data;
20011778:	fd442783          	lw	a5,-44(s0)
2001177c:	439c                	lw	a5,0(a5)
2001177e:	fef42023          	sw	a5,-32(s0)
E:/GitHub/HiFive01-RevB/FS_workspace/002_LED_Blink_All/freedom-metal/src/drivers/riscv_clint0.c:258
            rc = __METAL_ACCESS_ONCE(
20011782:	fe042783          	lw	a5,-32(s0)
20011786:	078a                	slli	a5,a5,0x2
20011788:	873e                	mv	a4,a5
2001178a:	fe442783          	lw	a5,-28(s0)
2001178e:	97ba                	add	a5,a5,a4
20011790:	439c                	lw	a5,0(a5)
20011792:	fef42623          	sw	a5,-20(s0)
E:/GitHub/HiFive01-RevB/FS_workspace/002_LED_Blink_All/freedom-metal/src/drivers/riscv_clint0.c:261
        break;
20011796:	a809                	j	200117a8 <__metal_driver_riscv_clint0_command_request+0x12c>
E:/GitHub/HiFive01-RevB/FS_workspace/002_LED_Blink_All/freedom-metal/src/drivers/riscv_clint0.c:263
        break;
20011798:	0001                	nop
2001179a:	a801                	j	200117aa <__metal_driver_riscv_clint0_command_request+0x12e>
E:/GitHub/HiFive01-RevB/FS_workspace/002_LED_Blink_All/freedom-metal/src/drivers/riscv_clint0.c:225
        break;
2001179c:	0001                	nop
2001179e:	a031                	j	200117aa <__metal_driver_riscv_clint0_command_request+0x12e>
E:/GitHub/HiFive01-RevB/FS_workspace/002_LED_Blink_All/freedom-metal/src/drivers/riscv_clint0.c:233
        break;
200117a0:	0001                	nop
200117a2:	a021                	j	200117aa <__metal_driver_riscv_clint0_command_request+0x12e>
E:/GitHub/HiFive01-RevB/FS_workspace/002_LED_Blink_All/freedom-metal/src/drivers/riscv_clint0.c:253
        break;
200117a4:	0001                	nop
200117a6:	a011                	j	200117aa <__metal_driver_riscv_clint0_command_request+0x12e>
E:/GitHub/HiFive01-RevB/FS_workspace/002_LED_Blink_All/freedom-metal/src/drivers/riscv_clint0.c:261
        break;
200117a8:	0001                	nop
E:/GitHub/HiFive01-RevB/FS_workspace/002_LED_Blink_All/freedom-metal/src/drivers/riscv_clint0.c:266
    }

    return rc;
200117aa:	fec42783          	lw	a5,-20(s0)
E:/GitHub/HiFive01-RevB/FS_workspace/002_LED_Blink_All/freedom-metal/src/drivers/riscv_clint0.c:267
}
200117ae:	853e                	mv	a0,a5
200117b0:	50b2                	lw	ra,44(sp)
200117b2:	5422                	lw	s0,40(sp)
200117b4:	6145                	addi	sp,sp,48
200117b6:	8082                	ret

200117b8 <__metal_driver_riscv_clint0_clear_interrupt>:
__metal_driver_riscv_clint0_clear_interrupt():
E:/GitHub/HiFive01-RevB/FS_workspace/002_LED_Blink_All/freedom-metal/src/drivers/riscv_clint0.c:270

int __metal_driver_riscv_clint0_clear_interrupt(
    struct metal_interrupt *controller, int id) {
200117b8:	7179                	addi	sp,sp,-48
200117ba:	d606                	sw	ra,44(sp)
200117bc:	d422                	sw	s0,40(sp)
200117be:	1800                	addi	s0,sp,48
200117c0:	fca42e23          	sw	a0,-36(s0)
200117c4:	fcb42c23          	sw	a1,-40(s0)
E:/GitHub/HiFive01-RevB/FS_workspace/002_LED_Blink_All/freedom-metal/src/drivers/riscv_clint0.c:271
    int hartid = metal_cpu_get_current_hartid();
200117c8:	217030ef          	jal	ra,200151de <metal_cpu_get_current_hartid>
200117cc:	87aa                	mv	a5,a0
200117ce:	fef42623          	sw	a5,-20(s0)
E:/GitHub/HiFive01-RevB/FS_workspace/002_LED_Blink_All/freedom-metal/src/drivers/riscv_clint0.c:272
    return __metal_driver_riscv_clint0_command_request(
200117d2:	fec40793          	addi	a5,s0,-20
200117d6:	863e                	mv	a2,a5
200117d8:	4589                	li	a1,2
200117da:	fdc42503          	lw	a0,-36(s0)
200117de:	3d79                	jal	2001167c <__metal_driver_riscv_clint0_command_request>
200117e0:	87aa                	mv	a5,a0
E:/GitHub/HiFive01-RevB/FS_workspace/002_LED_Blink_All/freedom-metal/src/drivers/riscv_clint0.c:274
        controller, METAL_SOFTWARE_IPI_CLEAR, &hartid);
}
200117e2:	853e                	mv	a0,a5
200117e4:	50b2                	lw	ra,44(sp)
200117e6:	5422                	lw	s0,40(sp)
200117e8:	6145                	addi	sp,sp,48
200117ea:	8082                	ret

200117ec <__metal_driver_riscv_clint0_set_interrupt>:
__metal_driver_riscv_clint0_set_interrupt():
E:/GitHub/HiFive01-RevB/FS_workspace/002_LED_Blink_All/freedom-metal/src/drivers/riscv_clint0.c:277

int __metal_driver_riscv_clint0_set_interrupt(
    struct metal_interrupt *controller, int id) {
200117ec:	7179                	addi	sp,sp,-48
200117ee:	d606                	sw	ra,44(sp)
200117f0:	d422                	sw	s0,40(sp)
200117f2:	1800                	addi	s0,sp,48
200117f4:	fca42e23          	sw	a0,-36(s0)
200117f8:	fcb42c23          	sw	a1,-40(s0)
E:/GitHub/HiFive01-RevB/FS_workspace/002_LED_Blink_All/freedom-metal/src/drivers/riscv_clint0.c:278
    int hartid = metal_cpu_get_current_hartid();
200117fc:	1e3030ef          	jal	ra,200151de <metal_cpu_get_current_hartid>
20011800:	87aa                	mv	a5,a0
20011802:	fef42623          	sw	a5,-20(s0)
E:/GitHub/HiFive01-RevB/FS_workspace/002_LED_Blink_All/freedom-metal/src/drivers/riscv_clint0.c:279
    return __metal_driver_riscv_clint0_command_request(
20011806:	fec40793          	addi	a5,s0,-20
2001180a:	863e                	mv	a2,a5
2001180c:	458d                	li	a1,3
2001180e:	fdc42503          	lw	a0,-36(s0)
20011812:	35ad                	jal	2001167c <__metal_driver_riscv_clint0_command_request>
20011814:	87aa                	mv	a5,a0
E:/GitHub/HiFive01-RevB/FS_workspace/002_LED_Blink_All/freedom-metal/src/drivers/riscv_clint0.c:281
        controller, METAL_SOFTWARE_IPI_SET, &hartid);
}
20011816:	853e                	mv	a0,a5
20011818:	50b2                	lw	ra,44(sp)
2001181a:	5422                	lw	s0,40(sp)
2001181c:	6145                	addi	sp,sp,48
2001181e:	8082                	ret

20011820 <__metal_driver_cpu_hartid>:
__metal_driver_cpu_hartid():
E:\GitHub\HiFive01-RevB\FS_workspace\002_LED_Blink_All\bsp\build\debug/./metal/machine.h:292



/* --------------------- cpu ------------ */
static __inline__ int __metal_driver_cpu_hartid(struct metal_cpu *cpu)
{
20011820:	1101                	addi	sp,sp,-32
20011822:	ce22                	sw	s0,28(sp)
20011824:	1000                	addi	s0,sp,32
20011826:	fea42623          	sw	a0,-20(s0)
E:\GitHub\HiFive01-RevB\FS_workspace\002_LED_Blink_All\bsp\build\debug/./metal/machine.h:293
	if ((uintptr_t)cpu == (uintptr_t)&__metal_dt_cpu_0) {
2001182a:	fec42703          	lw	a4,-20(s0)
2001182e:	800017b7          	lui	a5,0x80001
20011832:	a7c78793          	addi	a5,a5,-1412 # 80000a7c <__global_pointer$+0xfffff80c>
20011836:	00f71463          	bne	a4,a5,2001183e <__metal_driver_cpu_hartid+0x1e>
E:\GitHub\HiFive01-RevB\FS_workspace\002_LED_Blink_All\bsp\build\debug/./metal/machine.h:294
		return 0;
2001183a:	4781                	li	a5,0
2001183c:	a011                	j	20011840 <__metal_driver_cpu_hartid+0x20>
E:\GitHub\HiFive01-RevB\FS_workspace\002_LED_Blink_All\bsp\build\debug/./metal/machine.h:297
	}
	else {
		return -1;
2001183e:	57fd                	li	a5,-1
E:\GitHub\HiFive01-RevB\FS_workspace\002_LED_Blink_All\bsp\build\debug/./metal/machine.h:299
	}
}
20011840:	853e                	mv	a0,a5
20011842:	4472                	lw	s0,28(sp)
20011844:	6105                	addi	sp,sp,32
20011846:	8082                	ret

20011848 <__metal_driver_cpu_timebase>:
__metal_driver_cpu_timebase():
E:\GitHub\HiFive01-RevB\FS_workspace\002_LED_Blink_All\bsp\build\debug/./metal/machine.h:302

static __inline__ int __metal_driver_cpu_timebase(struct metal_cpu *cpu)
{
20011848:	1101                	addi	sp,sp,-32
2001184a:	ce22                	sw	s0,28(sp)
2001184c:	1000                	addi	s0,sp,32
2001184e:	fea42623          	sw	a0,-20(s0)
E:\GitHub\HiFive01-RevB\FS_workspace\002_LED_Blink_All\bsp\build\debug/./metal/machine.h:303
	if ((uintptr_t)cpu == (uintptr_t)&__metal_dt_cpu_0) {
20011852:	fec42703          	lw	a4,-20(s0)
20011856:	800017b7          	lui	a5,0x80001
2001185a:	a7c78793          	addi	a5,a5,-1412 # 80000a7c <__global_pointer$+0xfffff80c>
2001185e:	00f71763          	bne	a4,a5,2001186c <__metal_driver_cpu_timebase+0x24>
E:\GitHub\HiFive01-RevB\FS_workspace\002_LED_Blink_All\bsp\build\debug/./metal/machine.h:304
		return 16000000;
20011862:	00f427b7          	lui	a5,0xf42
20011866:	40078793          	addi	a5,a5,1024 # f42400 <__heap_size+0xf41c00>
2001186a:	a011                	j	2001186e <__metal_driver_cpu_timebase+0x26>
E:\GitHub\HiFive01-RevB\FS_workspace\002_LED_Blink_All\bsp\build\debug/./metal/machine.h:307
	}
	else {
		return 0;
2001186c:	4781                	li	a5,0
E:\GitHub\HiFive01-RevB\FS_workspace\002_LED_Blink_All\bsp\build\debug/./metal/machine.h:309
	}
}
2001186e:	853e                	mv	a0,a5
20011870:	4472                	lw	s0,28(sp)
20011872:	6105                	addi	sp,sp,32
20011874:	8082                	ret

20011876 <__metal_driver_cpu_interrupt_controller>:
__metal_driver_cpu_interrupt_controller():
E:\GitHub\HiFive01-RevB\FS_workspace\002_LED_Blink_All\bsp\build\debug/./metal/machine.h:312

static __inline__ struct metal_interrupt * __metal_driver_cpu_interrupt_controller(struct metal_cpu *cpu)
{
20011876:	1101                	addi	sp,sp,-32
20011878:	ce22                	sw	s0,28(sp)
2001187a:	1000                	addi	s0,sp,32
2001187c:	fea42623          	sw	a0,-20(s0)
E:\GitHub\HiFive01-RevB\FS_workspace\002_LED_Blink_All\bsp\build\debug/./metal/machine.h:313
	if ((uintptr_t)cpu == (uintptr_t)&__metal_dt_cpu_0) {
20011880:	fec42703          	lw	a4,-20(s0)
20011884:	800017b7          	lui	a5,0x80001
20011888:	a7c78793          	addi	a5,a5,-1412 # 80000a7c <__global_pointer$+0xfffff80c>
2001188c:	00f71763          	bne	a4,a5,2001189a <__metal_driver_cpu_interrupt_controller+0x24>
E:\GitHub\HiFive01-RevB\FS_workspace\002_LED_Blink_All\bsp\build\debug/./metal/machine.h:314
		return &__metal_dt_cpu_0_interrupt_controller.controller;
20011890:	800007b7          	lui	a5,0x80000
20011894:	04078793          	addi	a5,a5,64 # 80000040 <__global_pointer$+0xffffedd0>
20011898:	a011                	j	2001189c <__metal_driver_cpu_interrupt_controller+0x26>
E:\GitHub\HiFive01-RevB\FS_workspace\002_LED_Blink_All\bsp\build\debug/./metal/machine.h:317
	}
	else {
		return NULL;
2001189a:	4781                	li	a5,0
E:\GitHub\HiFive01-RevB\FS_workspace\002_LED_Blink_All\bsp\build\debug/./metal/machine.h:319
	}
}
2001189c:	853e                	mv	a0,a5
2001189e:	4472                	lw	s0,28(sp)
200118a0:	6105                	addi	sp,sp,32
200118a2:	8082                	ret

200118a4 <__metal_driver_cpu_buserror>:
__metal_driver_cpu_buserror():
E:\GitHub\HiFive01-RevB\FS_workspace\002_LED_Blink_All\bsp\build\debug/./metal/machine.h:332
		return 0;
	}
}

static __inline__ struct metal_buserror * __metal_driver_cpu_buserror(struct metal_cpu *cpu)
{
200118a4:	1101                	addi	sp,sp,-32
200118a6:	ce22                	sw	s0,28(sp)
200118a8:	1000                	addi	s0,sp,32
200118aa:	fea42623          	sw	a0,-20(s0)
E:\GitHub\HiFive01-RevB\FS_workspace\002_LED_Blink_All\bsp\build\debug/./metal/machine.h:333
	if ((uintptr_t)cpu == (uintptr_t)&__metal_dt_cpu_0) {
200118ae:	fec42703          	lw	a4,-20(s0)
200118b2:	800017b7          	lui	a5,0x80001
200118b6:	a7c78793          	addi	a5,a5,-1412 # 80000a7c <__global_pointer$+0xfffff80c>
200118ba:	00f71463          	bne	a4,a5,200118c2 <__metal_driver_cpu_buserror+0x1e>
E:\GitHub\HiFive01-RevB\FS_workspace\002_LED_Blink_All\bsp\build\debug/./metal/machine.h:334
		return NULL;
200118be:	4781                	li	a5,0
200118c0:	a011                	j	200118c4 <__metal_driver_cpu_buserror+0x20>
E:\GitHub\HiFive01-RevB\FS_workspace\002_LED_Blink_All\bsp\build\debug/./metal/machine.h:337
	}
	else {
		return NULL;
200118c2:	4781                	li	a5,0
E:\GitHub\HiFive01-RevB\FS_workspace\002_LED_Blink_All\bsp\build\debug/./metal/machine.h:339
	}
}
200118c4:	853e                	mv	a0,a5
200118c6:	4472                	lw	s0,28(sp)
200118c8:	6105                	addi	sp,sp,32
200118ca:	8082                	ret

200118cc <__metal_driver_cpu_get>:
__metal_driver_cpu_get():
E:/GitHub/HiFive01-RevB/FS_workspace/002_LED_Blink_All/freedom-metal/src/drivers/riscv_cpu.c:25
extern void __metal_vector_table();
unsigned long long __metal_driver_cpu_mtime_get(struct metal_cpu *cpu);
int __metal_driver_cpu_mtimecmp_set(struct metal_cpu *cpu,
                                    unsigned long long time);

struct metal_cpu *__metal_driver_cpu_get(int hartid) {
200118cc:	1101                	addi	sp,sp,-32
200118ce:	ce22                	sw	s0,28(sp)
200118d0:	1000                	addi	s0,sp,32
200118d2:	fea42623          	sw	a0,-20(s0)
E:/GitHub/HiFive01-RevB/FS_workspace/002_LED_Blink_All/freedom-metal/src/drivers/riscv_cpu.c:26
    if (hartid < __METAL_DT_MAX_HARTS) {
200118d6:	fec42783          	lw	a5,-20(s0)
200118da:	00f04c63          	bgtz	a5,200118f2 <__metal_driver_cpu_get+0x26>
E:/GitHub/HiFive01-RevB/FS_workspace/002_LED_Blink_All/freedom-metal/src/drivers/riscv_cpu.c:27
        return &(__metal_cpu_table[hartid]->cpu);
200118de:	800017b7          	lui	a5,0x80001
200118e2:	fec42703          	lw	a4,-20(s0)
200118e6:	070a                	slli	a4,a4,0x2
200118e8:	a7078793          	addi	a5,a5,-1424 # 80000a70 <__global_pointer$+0xfffff800>
200118ec:	97ba                	add	a5,a5,a4
200118ee:	439c                	lw	a5,0(a5)
200118f0:	a011                	j	200118f4 <__metal_driver_cpu_get+0x28>
E:/GitHub/HiFive01-RevB/FS_workspace/002_LED_Blink_All/freedom-metal/src/drivers/riscv_cpu.c:29
    }
    return (struct metal_cpu *)NULL;
200118f2:	4781                	li	a5,0
E:/GitHub/HiFive01-RevB/FS_workspace/002_LED_Blink_All/freedom-metal/src/drivers/riscv_cpu.c:30
}
200118f4:	853e                	mv	a0,a5
200118f6:	4472                	lw	s0,28(sp)
200118f8:	6105                	addi	sp,sp,32
200118fa:	8082                	ret

200118fc <__metal_myhart_id>:
__metal_myhart_id():
E:/GitHub/HiFive01-RevB/FS_workspace/002_LED_Blink_All/freedom-metal/src/drivers/riscv_cpu.c:32

uintptr_t __metal_myhart_id(void) {
200118fc:	1101                	addi	sp,sp,-32
200118fe:	ce22                	sw	s0,28(sp)
20011900:	1000                	addi	s0,sp,32
E:/GitHub/HiFive01-RevB/FS_workspace/002_LED_Blink_All/freedom-metal/src/drivers/riscv_cpu.c:34
    uintptr_t myhart;
    __asm__ volatile("csrr %0, mhartid" : "=r"(myhart));
20011902:	f14027f3          	csrr	a5,mhartid
20011906:	fef42623          	sw	a5,-20(s0)
E:/GitHub/HiFive01-RevB/FS_workspace/002_LED_Blink_All/freedom-metal/src/drivers/riscv_cpu.c:35
    return myhart;
2001190a:	fec42783          	lw	a5,-20(s0)
E:/GitHub/HiFive01-RevB/FS_workspace/002_LED_Blink_All/freedom-metal/src/drivers/riscv_cpu.c:36
}
2001190e:	853e                	mv	a0,a5
20011910:	4472                	lw	s0,28(sp)
20011912:	6105                	addi	sp,sp,32
20011914:	8082                	ret

20011916 <__metal_interrupt_global_enable>:
__metal_interrupt_global_enable():
E:/GitHub/HiFive01-RevB/FS_workspace/002_LED_Blink_All/freedom-metal/src/drivers/riscv_cpu.c:45
    for (ptr = base; ptr < (base + size); ptr++) {
        *ptr = 0;
    }
}

void __metal_interrupt_global_enable(void) {
20011916:	1101                	addi	sp,sp,-32
20011918:	ce22                	sw	s0,28(sp)
2001191a:	1000                	addi	s0,sp,32
E:/GitHub/HiFive01-RevB/FS_workspace/002_LED_Blink_All/freedom-metal/src/drivers/riscv_cpu.c:47
    uintptr_t m;
    __asm__ volatile("csrrs %0, mstatus, %1"
2001191c:	47a1                	li	a5,8
2001191e:	3007a7f3          	csrrs	a5,mstatus,a5
20011922:	fef42623          	sw	a5,-20(s0)
E:/GitHub/HiFive01-RevB/FS_workspace/002_LED_Blink_All/freedom-metal/src/drivers/riscv_cpu.c:50
                     : "=r"(m)
                     : "r"(METAL_MIE_INTERRUPT));
}
20011926:	0001                	nop
20011928:	4472                	lw	s0,28(sp)
2001192a:	6105                	addi	sp,sp,32
2001192c:	8082                	ret

2001192e <__metal_interrupt_global_disable>:
__metal_interrupt_global_disable():
E:/GitHub/HiFive01-RevB/FS_workspace/002_LED_Blink_All/freedom-metal/src/drivers/riscv_cpu.c:52

void __metal_interrupt_global_disable(void) {
2001192e:	1101                	addi	sp,sp,-32
20011930:	ce22                	sw	s0,28(sp)
20011932:	1000                	addi	s0,sp,32
E:/GitHub/HiFive01-RevB/FS_workspace/002_LED_Blink_All/freedom-metal/src/drivers/riscv_cpu.c:54
    uintptr_t m;
    __asm__ volatile("csrrc %0, mstatus, %1"
20011934:	47a1                	li	a5,8
20011936:	3007b7f3          	csrrc	a5,mstatus,a5
2001193a:	fef42623          	sw	a5,-20(s0)
E:/GitHub/HiFive01-RevB/FS_workspace/002_LED_Blink_All/freedom-metal/src/drivers/riscv_cpu.c:57
                     : "=r"(m)
                     : "r"(METAL_MIE_INTERRUPT));
}
2001193e:	0001                	nop
20011940:	4472                	lw	s0,28(sp)
20011942:	6105                	addi	sp,sp,32
20011944:	8082                	ret

20011946 <__metal_interrupt_software_enable>:
__metal_interrupt_software_enable():
E:/GitHub/HiFive01-RevB/FS_workspace/002_LED_Blink_All/freedom-metal/src/drivers/riscv_cpu.c:59

void __metal_interrupt_software_enable(void) {
20011946:	1101                	addi	sp,sp,-32
20011948:	ce22                	sw	s0,28(sp)
2001194a:	1000                	addi	s0,sp,32
E:/GitHub/HiFive01-RevB/FS_workspace/002_LED_Blink_All/freedom-metal/src/drivers/riscv_cpu.c:61
    uintptr_t m;
    __asm__ volatile("csrrs %0, mie, %1"
2001194c:	47a1                	li	a5,8
2001194e:	3047a7f3          	csrrs	a5,mie,a5
20011952:	fef42623          	sw	a5,-20(s0)
E:/GitHub/HiFive01-RevB/FS_workspace/002_LED_Blink_All/freedom-metal/src/drivers/riscv_cpu.c:64
                     : "=r"(m)
                     : "r"(METAL_LOCAL_INTERRUPT_SW));
}
20011956:	0001                	nop
20011958:	4472                	lw	s0,28(sp)
2001195a:	6105                	addi	sp,sp,32
2001195c:	8082                	ret

2001195e <__metal_interrupt_software_disable>:
__metal_interrupt_software_disable():
E:/GitHub/HiFive01-RevB/FS_workspace/002_LED_Blink_All/freedom-metal/src/drivers/riscv_cpu.c:66

void __metal_interrupt_software_disable(void) {
2001195e:	1101                	addi	sp,sp,-32
20011960:	ce22                	sw	s0,28(sp)
20011962:	1000                	addi	s0,sp,32
E:/GitHub/HiFive01-RevB/FS_workspace/002_LED_Blink_All/freedom-metal/src/drivers/riscv_cpu.c:68
    uintptr_t m;
    __asm__ volatile("csrrc %0, mie, %1"
20011964:	47a1                	li	a5,8
20011966:	3047b7f3          	csrrc	a5,mie,a5
2001196a:	fef42623          	sw	a5,-20(s0)
E:/GitHub/HiFive01-RevB/FS_workspace/002_LED_Blink_All/freedom-metal/src/drivers/riscv_cpu.c:71
                     : "=r"(m)
                     : "r"(METAL_LOCAL_INTERRUPT_SW));
}
2001196e:	0001                	nop
20011970:	4472                	lw	s0,28(sp)
20011972:	6105                	addi	sp,sp,32
20011974:	8082                	ret

20011976 <__metal_interrupt_timer_enable>:
__metal_interrupt_timer_enable():
E:/GitHub/HiFive01-RevB/FS_workspace/002_LED_Blink_All/freedom-metal/src/drivers/riscv_cpu.c:73

void __metal_interrupt_timer_enable(void) {
20011976:	1101                	addi	sp,sp,-32
20011978:	ce22                	sw	s0,28(sp)
2001197a:	1000                	addi	s0,sp,32
E:/GitHub/HiFive01-RevB/FS_workspace/002_LED_Blink_All/freedom-metal/src/drivers/riscv_cpu.c:75
    uintptr_t m;
    __asm__ volatile("csrrs %0, mie, %1"
2001197c:	08000793          	li	a5,128
20011980:	3047a7f3          	csrrs	a5,mie,a5
20011984:	fef42623          	sw	a5,-20(s0)
E:/GitHub/HiFive01-RevB/FS_workspace/002_LED_Blink_All/freedom-metal/src/drivers/riscv_cpu.c:78
                     : "=r"(m)
                     : "r"(METAL_LOCAL_INTERRUPT_TMR));
}
20011988:	0001                	nop
2001198a:	4472                	lw	s0,28(sp)
2001198c:	6105                	addi	sp,sp,32
2001198e:	8082                	ret

20011990 <__metal_interrupt_timer_disable>:
__metal_interrupt_timer_disable():
E:/GitHub/HiFive01-RevB/FS_workspace/002_LED_Blink_All/freedom-metal/src/drivers/riscv_cpu.c:80

void __metal_interrupt_timer_disable(void) {
20011990:	1101                	addi	sp,sp,-32
20011992:	ce22                	sw	s0,28(sp)
20011994:	1000                	addi	s0,sp,32
E:/GitHub/HiFive01-RevB/FS_workspace/002_LED_Blink_All/freedom-metal/src/drivers/riscv_cpu.c:82
    uintptr_t m;
    __asm__ volatile("csrrc %0, mie, %1"
20011996:	08000793          	li	a5,128
2001199a:	3047b7f3          	csrrc	a5,mie,a5
2001199e:	fef42623          	sw	a5,-20(s0)
E:/GitHub/HiFive01-RevB/FS_workspace/002_LED_Blink_All/freedom-metal/src/drivers/riscv_cpu.c:85
                     : "=r"(m)
                     : "r"(METAL_LOCAL_INTERRUPT_TMR));
}
200119a2:	0001                	nop
200119a4:	4472                	lw	s0,28(sp)
200119a6:	6105                	addi	sp,sp,32
200119a8:	8082                	ret

200119aa <__metal_interrupt_external_enable>:
__metal_interrupt_external_enable():
E:/GitHub/HiFive01-RevB/FS_workspace/002_LED_Blink_All/freedom-metal/src/drivers/riscv_cpu.c:87

void __metal_interrupt_external_enable(void) {
200119aa:	1101                	addi	sp,sp,-32
200119ac:	ce22                	sw	s0,28(sp)
200119ae:	1000                	addi	s0,sp,32
E:/GitHub/HiFive01-RevB/FS_workspace/002_LED_Blink_All/freedom-metal/src/drivers/riscv_cpu.c:89
    uintptr_t m;
    __asm__ volatile("csrrs %0, mie, %1"
200119b0:	6785                	lui	a5,0x1
200119b2:	80078793          	addi	a5,a5,-2048 # 800 <__heap_size>
200119b6:	3047a7f3          	csrrs	a5,mie,a5
200119ba:	fef42623          	sw	a5,-20(s0)
E:/GitHub/HiFive01-RevB/FS_workspace/002_LED_Blink_All/freedom-metal/src/drivers/riscv_cpu.c:92
                     : "=r"(m)
                     : "r"(METAL_LOCAL_INTERRUPT_EXT));
}
200119be:	0001                	nop
200119c0:	4472                	lw	s0,28(sp)
200119c2:	6105                	addi	sp,sp,32
200119c4:	8082                	ret

200119c6 <__metal_interrupt_external_disable>:
__metal_interrupt_external_disable():
E:/GitHub/HiFive01-RevB/FS_workspace/002_LED_Blink_All/freedom-metal/src/drivers/riscv_cpu.c:94

void __metal_interrupt_external_disable(void) {
200119c6:	1101                	addi	sp,sp,-32
200119c8:	ce22                	sw	s0,28(sp)
200119ca:	1000                	addi	s0,sp,32
E:/GitHub/HiFive01-RevB/FS_workspace/002_LED_Blink_All/freedom-metal/src/drivers/riscv_cpu.c:96
    unsigned long m;
    __asm__ volatile("csrrc %0, mie, %1"
200119cc:	6785                	lui	a5,0x1
200119ce:	80078793          	addi	a5,a5,-2048 # 800 <__heap_size>
200119d2:	3047b7f3          	csrrc	a5,mie,a5
200119d6:	fef42623          	sw	a5,-20(s0)
E:/GitHub/HiFive01-RevB/FS_workspace/002_LED_Blink_All/freedom-metal/src/drivers/riscv_cpu.c:99
                     : "=r"(m)
                     : "r"(METAL_LOCAL_INTERRUPT_EXT));
}
200119da:	0001                	nop
200119dc:	4472                	lw	s0,28(sp)
200119de:	6105                	addi	sp,sp,32
200119e0:	8082                	ret

200119e2 <__metal_interrupt_local_enable>:
__metal_interrupt_local_enable():
E:/GitHub/HiFive01-RevB/FS_workspace/002_LED_Blink_All/freedom-metal/src/drivers/riscv_cpu.c:101

void __metal_interrupt_local_enable(int id) {
200119e2:	7179                	addi	sp,sp,-48
200119e4:	d622                	sw	s0,44(sp)
200119e6:	1800                	addi	s0,sp,48
200119e8:	fca42e23          	sw	a0,-36(s0)
E:/GitHub/HiFive01-RevB/FS_workspace/002_LED_Blink_All/freedom-metal/src/drivers/riscv_cpu.c:102
    uintptr_t b = 1 << id;
200119ec:	fdc42783          	lw	a5,-36(s0)
200119f0:	4705                	li	a4,1
200119f2:	00f717b3          	sll	a5,a4,a5
200119f6:	fef42623          	sw	a5,-20(s0)
E:/GitHub/HiFive01-RevB/FS_workspace/002_LED_Blink_All/freedom-metal/src/drivers/riscv_cpu.c:104
    uintptr_t m;
    __asm__ volatile("csrrs %0, mie, %1" : "=r"(m) : "r"(b));
200119fa:	fec42783          	lw	a5,-20(s0)
200119fe:	3047a7f3          	csrrs	a5,mie,a5
20011a02:	fef42423          	sw	a5,-24(s0)
E:/GitHub/HiFive01-RevB/FS_workspace/002_LED_Blink_All/freedom-metal/src/drivers/riscv_cpu.c:105
}
20011a06:	0001                	nop
20011a08:	5432                	lw	s0,44(sp)
20011a0a:	6145                	addi	sp,sp,48
20011a0c:	8082                	ret

20011a0e <__metal_interrupt_local_disable>:
__metal_interrupt_local_disable():
E:/GitHub/HiFive01-RevB/FS_workspace/002_LED_Blink_All/freedom-metal/src/drivers/riscv_cpu.c:107

void __metal_interrupt_local_disable(int id) {
20011a0e:	7179                	addi	sp,sp,-48
20011a10:	d622                	sw	s0,44(sp)
20011a12:	1800                	addi	s0,sp,48
20011a14:	fca42e23          	sw	a0,-36(s0)
E:/GitHub/HiFive01-RevB/FS_workspace/002_LED_Blink_All/freedom-metal/src/drivers/riscv_cpu.c:108
    uintptr_t b = 1 << id;
20011a18:	fdc42783          	lw	a5,-36(s0)
20011a1c:	4705                	li	a4,1
20011a1e:	00f717b3          	sll	a5,a4,a5
20011a22:	fef42623          	sw	a5,-20(s0)
E:/GitHub/HiFive01-RevB/FS_workspace/002_LED_Blink_All/freedom-metal/src/drivers/riscv_cpu.c:110
    uintptr_t m;
    __asm__ volatile("csrrc %0, mie, %1" : "=r"(m) : "r"(b));
20011a26:	fec42783          	lw	a5,-20(s0)
20011a2a:	3047b7f3          	csrrc	a5,mie,a5
20011a2e:	fef42423          	sw	a5,-24(s0)
E:/GitHub/HiFive01-RevB/FS_workspace/002_LED_Blink_All/freedom-metal/src/drivers/riscv_cpu.c:111
}
20011a32:	0001                	nop
20011a34:	5432                	lw	s0,44(sp)
20011a36:	6145                	addi	sp,sp,48
20011a38:	8082                	ret

20011a3a <__metal_default_exception_handler>:
__metal_default_exception_handler():
E:/GitHub/HiFive01-RevB/FS_workspace/002_LED_Blink_All/freedom-metal/src/drivers/riscv_cpu.c:113

void __metal_default_exception_handler(struct metal_cpu *cpu, int ecode) {
20011a3a:	1101                	addi	sp,sp,-32
20011a3c:	ce06                	sw	ra,28(sp)
20011a3e:	cc22                	sw	s0,24(sp)
20011a40:	1000                	addi	s0,sp,32
20011a42:	fea42623          	sw	a0,-20(s0)
20011a46:	feb42423          	sw	a1,-24(s0)
E:/GitHub/HiFive01-RevB/FS_workspace/002_LED_Blink_All/freedom-metal/src/drivers/riscv_cpu.c:114
    metal_shutdown(100);
20011a4a:	06400513          	li	a0,100
20011a4e:	0d3030ef          	jal	ra,20015320 <metal_shutdown>

20011a52 <__metal_default_interrupt_handler>:
__metal_default_interrupt_handler():
E:/GitHub/HiFive01-RevB/FS_workspace/002_LED_Blink_All/freedom-metal/src/drivers/riscv_cpu.c:117
}

void __metal_default_interrupt_handler(int id, void *priv) {
20011a52:	1101                	addi	sp,sp,-32
20011a54:	ce06                	sw	ra,28(sp)
20011a56:	cc22                	sw	s0,24(sp)
20011a58:	1000                	addi	s0,sp,32
20011a5a:	fea42623          	sw	a0,-20(s0)
20011a5e:	feb42423          	sw	a1,-24(s0)
E:/GitHub/HiFive01-RevB/FS_workspace/002_LED_Blink_All/freedom-metal/src/drivers/riscv_cpu.c:118
    metal_shutdown(200);
20011a62:	0c800513          	li	a0,200
20011a66:	0bb030ef          	jal	ra,20015320 <metal_shutdown>

20011a6a <metal_interrupt_vector_handler>:
metal_interrupt_vector_handler():
E:/GitHub/HiFive01-RevB/FS_workspace/002_LED_Blink_All/freedom-metal/src/drivers/riscv_cpu.c:122
}

/* The metal_interrupt_vector_handler() function can be redefined. */
void __attribute__((weak, interrupt)) metal_interrupt_vector_handler(void) {
20011a6a:	715d                	addi	sp,sp,-80
20011a6c:	c686                	sw	ra,76(sp)
20011a6e:	c496                	sw	t0,72(sp)
20011a70:	c29a                	sw	t1,68(sp)
20011a72:	c09e                	sw	t2,64(sp)
20011a74:	de22                	sw	s0,60(sp)
20011a76:	dc2a                	sw	a0,56(sp)
20011a78:	da2e                	sw	a1,52(sp)
20011a7a:	d832                	sw	a2,48(sp)
20011a7c:	d636                	sw	a3,44(sp)
20011a7e:	d43a                	sw	a4,40(sp)
20011a80:	d23e                	sw	a5,36(sp)
20011a82:	d042                	sw	a6,32(sp)
20011a84:	ce46                	sw	a7,28(sp)
20011a86:	cc72                	sw	t3,24(sp)
20011a88:	ca76                	sw	t4,20(sp)
20011a8a:	c87a                	sw	t5,16(sp)
20011a8c:	c67e                	sw	t6,12(sp)
20011a8e:	0880                	addi	s0,sp,80
E:/GitHub/HiFive01-RevB/FS_workspace/002_LED_Blink_All/freedom-metal/src/drivers/riscv_cpu.c:123
    metal_shutdown(300);
20011a90:	12c00513          	li	a0,300
20011a94:	08d030ef          	jal	ra,20015320 <metal_shutdown>

20011a98 <metal_software_interrupt_vector_handler>:
metal_software_interrupt_vector_handler():
E:/GitHub/HiFive01-RevB/FS_workspace/002_LED_Blink_All/freedom-metal/src/drivers/riscv_cpu.c:128
}

/* The metal_software_interrupt_vector_handler() function can be redefined. */
void __attribute__((weak, interrupt))
metal_software_interrupt_vector_handler(void) {
20011a98:	711d                	addi	sp,sp,-96
20011a9a:	ce86                	sw	ra,92(sp)
20011a9c:	cc96                	sw	t0,88(sp)
20011a9e:	ca9a                	sw	t1,84(sp)
20011aa0:	c89e                	sw	t2,80(sp)
20011aa2:	c6a2                	sw	s0,76(sp)
20011aa4:	c4aa                	sw	a0,72(sp)
20011aa6:	c2ae                	sw	a1,68(sp)
20011aa8:	c0b2                	sw	a2,64(sp)
20011aaa:	de36                	sw	a3,60(sp)
20011aac:	dc3a                	sw	a4,56(sp)
20011aae:	da3e                	sw	a5,52(sp)
20011ab0:	d842                	sw	a6,48(sp)
20011ab2:	d646                	sw	a7,44(sp)
20011ab4:	d472                	sw	t3,40(sp)
20011ab6:	d276                	sw	t4,36(sp)
20011ab8:	d07a                	sw	t5,32(sp)
20011aba:	ce7e                	sw	t6,28(sp)
20011abc:	1080                	addi	s0,sp,96
E:/GitHub/HiFive01-RevB/FS_workspace/002_LED_Blink_All/freedom-metal/src/drivers/riscv_cpu.c:129
    __METAL_IRQ_VECTOR_HANDLER(METAL_INTERRUPT_ID_SW);
20011abe:	3d3d                	jal	200118fc <__metal_myhart_id>
20011ac0:	872a                	mv	a4,a0
20011ac2:	800017b7          	lui	a5,0x80001
20011ac6:	070a                	slli	a4,a4,0x2
20011ac8:	a7078793          	addi	a5,a5,-1424 # 80000a70 <__global_pointer$+0xfffff800>
20011acc:	97ba                	add	a5,a5,a4
20011ace:	439c                	lw	a5,0(a5)
20011ad0:	faf42623          	sw	a5,-84(s0)
20011ad4:	fac42783          	lw	a5,-84(s0)
20011ad8:	c785                	beqz	a5,20011b00 <metal_software_interrupt_vector_handler+0x68>
E:/GitHub/HiFive01-RevB/FS_workspace/002_LED_Blink_All/freedom-metal/src/drivers/riscv_cpu.c:129 (discriminator 1)
20011ada:	fac42503          	lw	a0,-84(s0)
20011ade:	3b61                	jal	20011876 <__metal_driver_cpu_interrupt_controller>
20011ae0:	faa42423          	sw	a0,-88(s0)
20011ae4:	fa842783          	lw	a5,-88(s0)
20011ae8:	0e07a783          	lw	a5,224(a5)
20011aec:	faf42223          	sw	a5,-92(s0)
20011af0:	fa842783          	lw	a5,-88(s0)
20011af4:	0d87a783          	lw	a5,216(a5)
20011af8:	fa442583          	lw	a1,-92(s0)
20011afc:	450d                	li	a0,3
20011afe:	9782                	jalr	a5
E:/GitHub/HiFive01-RevB/FS_workspace/002_LED_Blink_All/freedom-metal/src/drivers/riscv_cpu.c:130
}
20011b00:	0001                	nop
20011b02:	40f6                	lw	ra,92(sp)
20011b04:	42e6                	lw	t0,88(sp)
20011b06:	4356                	lw	t1,84(sp)
20011b08:	43c6                	lw	t2,80(sp)
20011b0a:	4436                	lw	s0,76(sp)
20011b0c:	4526                	lw	a0,72(sp)
20011b0e:	4596                	lw	a1,68(sp)
20011b10:	4606                	lw	a2,64(sp)
20011b12:	56f2                	lw	a3,60(sp)
20011b14:	5762                	lw	a4,56(sp)
20011b16:	57d2                	lw	a5,52(sp)
20011b18:	5842                	lw	a6,48(sp)
20011b1a:	58b2                	lw	a7,44(sp)
20011b1c:	5e22                	lw	t3,40(sp)
20011b1e:	5e92                	lw	t4,36(sp)
20011b20:	5f02                	lw	t5,32(sp)
20011b22:	4ff2                	lw	t6,28(sp)
20011b24:	6125                	addi	sp,sp,96
20011b26:	30200073          	mret

20011b2a <__metal_default_sw_handler>:
__metal_default_sw_handler():
E:/GitHub/HiFive01-RevB/FS_workspace/002_LED_Blink_All/freedom-metal/src/drivers/riscv_cpu.c:132

void __metal_default_sw_handler(int id, void *priv) {
20011b2a:	7179                	addi	sp,sp,-48
20011b2c:	d606                	sw	ra,44(sp)
20011b2e:	d422                	sw	s0,40(sp)
20011b30:	1800                	addi	s0,sp,48
20011b32:	fca42e23          	sw	a0,-36(s0)
20011b36:	fcb42c23          	sw	a1,-40(s0)
E:/GitHub/HiFive01-RevB/FS_workspace/002_LED_Blink_All/freedom-metal/src/drivers/riscv_cpu.c:135
    uintptr_t mcause;
    struct __metal_driver_riscv_cpu_intc *intc;
    struct __metal_driver_cpu *cpu = __metal_cpu_table[__metal_myhart_id()];
20011b3a:	33c9                	jal	200118fc <__metal_myhart_id>
20011b3c:	872a                	mv	a4,a0
20011b3e:	800017b7          	lui	a5,0x80001
20011b42:	070a                	slli	a4,a4,0x2
20011b44:	a7078793          	addi	a5,a5,-1424 # 80000a70 <__global_pointer$+0xfffff800>
20011b48:	97ba                	add	a5,a5,a4
20011b4a:	439c                	lw	a5,0(a5)
20011b4c:	fef42623          	sw	a5,-20(s0)
E:/GitHub/HiFive01-RevB/FS_workspace/002_LED_Blink_All/freedom-metal/src/drivers/riscv_cpu.c:137

    __asm__ volatile("csrr %0, mcause" : "=r"(mcause));
20011b50:	342027f3          	csrr	a5,mcause
20011b54:	fef42423          	sw	a5,-24(s0)
E:/GitHub/HiFive01-RevB/FS_workspace/002_LED_Blink_All/freedom-metal/src/drivers/riscv_cpu.c:138
    if (cpu) {
20011b58:	fec42783          	lw	a5,-20(s0)
20011b5c:	c795                	beqz	a5,20011b88 <__metal_default_sw_handler+0x5e>
E:/GitHub/HiFive01-RevB/FS_workspace/002_LED_Blink_All/freedom-metal/src/drivers/riscv_cpu.c:140
        intc = (struct __metal_driver_riscv_cpu_intc *)
            __metal_driver_cpu_interrupt_controller((struct metal_cpu *)cpu);
20011b5e:	fec42503          	lw	a0,-20(s0)
20011b62:	3b11                	jal	20011876 <__metal_driver_cpu_interrupt_controller>
20011b64:	fea42223          	sw	a0,-28(s0)
E:/GitHub/HiFive01-RevB/FS_workspace/002_LED_Blink_All/freedom-metal/src/drivers/riscv_cpu.c:141
        intc->metal_exception_table[mcause & METAL_MCAUSE_CAUSE](
20011b68:	fe842783          	lw	a5,-24(s0)
20011b6c:	3ff7f793          	andi	a5,a5,1023
20011b70:	fe442703          	lw	a4,-28(s0)
20011b74:	0e878793          	addi	a5,a5,232
20011b78:	078a                	slli	a5,a5,0x2
20011b7a:	97ba                	add	a5,a5,a4
20011b7c:	439c                	lw	a5,0(a5)
20011b7e:	fdc42583          	lw	a1,-36(s0)
20011b82:	fec42503          	lw	a0,-20(s0)
20011b86:	9782                	jalr	a5
E:/GitHub/HiFive01-RevB/FS_workspace/002_LED_Blink_All/freedom-metal/src/drivers/riscv_cpu.c:144
            (struct metal_cpu *)cpu, id);
    }
}
20011b88:	0001                	nop
20011b8a:	50b2                	lw	ra,44(sp)
20011b8c:	5422                	lw	s0,40(sp)
20011b8e:	6145                	addi	sp,sp,48
20011b90:	8082                	ret

20011b92 <metal_timer_interrupt_vector_handler>:
metal_timer_interrupt_vector_handler():
E:/GitHub/HiFive01-RevB/FS_workspace/002_LED_Blink_All/freedom-metal/src/drivers/riscv_cpu.c:148

/* The metal_timer_interrupt_vector_handler() function can be redefined. */
void __attribute__((weak, interrupt))
metal_timer_interrupt_vector_handler(void) {
20011b92:	711d                	addi	sp,sp,-96
20011b94:	ce86                	sw	ra,92(sp)
20011b96:	cc96                	sw	t0,88(sp)
20011b98:	ca9a                	sw	t1,84(sp)
20011b9a:	c89e                	sw	t2,80(sp)
20011b9c:	c6a2                	sw	s0,76(sp)
20011b9e:	c4aa                	sw	a0,72(sp)
20011ba0:	c2ae                	sw	a1,68(sp)
20011ba2:	c0b2                	sw	a2,64(sp)
20011ba4:	de36                	sw	a3,60(sp)
20011ba6:	dc3a                	sw	a4,56(sp)
20011ba8:	da3e                	sw	a5,52(sp)
20011baa:	d842                	sw	a6,48(sp)
20011bac:	d646                	sw	a7,44(sp)
20011bae:	d472                	sw	t3,40(sp)
20011bb0:	d276                	sw	t4,36(sp)
20011bb2:	d07a                	sw	t5,32(sp)
20011bb4:	ce7e                	sw	t6,28(sp)
20011bb6:	1080                	addi	s0,sp,96
E:/GitHub/HiFive01-RevB/FS_workspace/002_LED_Blink_All/freedom-metal/src/drivers/riscv_cpu.c:149
    __METAL_IRQ_VECTOR_HANDLER(METAL_INTERRUPT_ID_TMR);
20011bb8:	3391                	jal	200118fc <__metal_myhart_id>
20011bba:	872a                	mv	a4,a0
20011bbc:	800017b7          	lui	a5,0x80001
20011bc0:	070a                	slli	a4,a4,0x2
20011bc2:	a7078793          	addi	a5,a5,-1424 # 80000a70 <__global_pointer$+0xfffff800>
20011bc6:	97ba                	add	a5,a5,a4
20011bc8:	439c                	lw	a5,0(a5)
20011bca:	faf42623          	sw	a5,-84(s0)
20011bce:	fac42783          	lw	a5,-84(s0)
20011bd2:	c785                	beqz	a5,20011bfa <metal_timer_interrupt_vector_handler+0x68>
E:/GitHub/HiFive01-RevB/FS_workspace/002_LED_Blink_All/freedom-metal/src/drivers/riscv_cpu.c:149 (discriminator 1)
20011bd4:	fac42503          	lw	a0,-84(s0)
20011bd8:	3979                	jal	20011876 <__metal_driver_cpu_interrupt_controller>
20011bda:	faa42423          	sw	a0,-88(s0)
20011bde:	fa842783          	lw	a5,-88(s0)
20011be2:	1407a783          	lw	a5,320(a5)
20011be6:	faf42223          	sw	a5,-92(s0)
20011bea:	fa842783          	lw	a5,-88(s0)
20011bee:	1387a783          	lw	a5,312(a5)
20011bf2:	fa442583          	lw	a1,-92(s0)
20011bf6:	451d                	li	a0,7
20011bf8:	9782                	jalr	a5
E:/GitHub/HiFive01-RevB/FS_workspace/002_LED_Blink_All/freedom-metal/src/drivers/riscv_cpu.c:150
}
20011bfa:	0001                	nop
20011bfc:	40f6                	lw	ra,92(sp)
20011bfe:	42e6                	lw	t0,88(sp)
20011c00:	4356                	lw	t1,84(sp)
20011c02:	43c6                	lw	t2,80(sp)
20011c04:	4436                	lw	s0,76(sp)
20011c06:	4526                	lw	a0,72(sp)
20011c08:	4596                	lw	a1,68(sp)
20011c0a:	4606                	lw	a2,64(sp)
20011c0c:	56f2                	lw	a3,60(sp)
20011c0e:	5762                	lw	a4,56(sp)
20011c10:	57d2                	lw	a5,52(sp)
20011c12:	5842                	lw	a6,48(sp)
20011c14:	58b2                	lw	a7,44(sp)
20011c16:	5e22                	lw	t3,40(sp)
20011c18:	5e92                	lw	t4,36(sp)
20011c1a:	5f02                	lw	t5,32(sp)
20011c1c:	4ff2                	lw	t6,28(sp)
20011c1e:	6125                	addi	sp,sp,96
20011c20:	30200073          	mret

20011c24 <__metal_default_beu_handler>:
__metal_default_beu_handler():
E:/GitHub/HiFive01-RevB/FS_workspace/002_LED_Blink_All/freedom-metal/src/drivers/riscv_cpu.c:152

void __metal_default_beu_handler(int id, void *priv) {}
20011c24:	1101                	addi	sp,sp,-32
20011c26:	ce22                	sw	s0,28(sp)
20011c28:	1000                	addi	s0,sp,32
20011c2a:	fea42623          	sw	a0,-20(s0)
20011c2e:	feb42423          	sw	a1,-24(s0)
20011c32:	0001                	nop
20011c34:	4472                	lw	s0,28(sp)
20011c36:	6105                	addi	sp,sp,32
20011c38:	8082                	ret

20011c3a <__metal_default_timer_handler>:
__metal_default_timer_handler():
E:/GitHub/HiFive01-RevB/FS_workspace/002_LED_Blink_All/freedom-metal/src/drivers/riscv_cpu.c:154

void __metal_default_timer_handler(int id, void *priv) {
20011c3a:	7179                	addi	sp,sp,-48
20011c3c:	d606                	sw	ra,44(sp)
20011c3e:	d422                	sw	s0,40(sp)
20011c40:	1800                	addi	s0,sp,48
20011c42:	fca42e23          	sw	a0,-36(s0)
20011c46:	fcb42c23          	sw	a1,-40(s0)
E:/GitHub/HiFive01-RevB/FS_workspace/002_LED_Blink_All/freedom-metal/src/drivers/riscv_cpu.c:155
    struct metal_cpu *cpu = __metal_driver_cpu_get(__metal_myhart_id());
20011c4a:	394d                	jal	200118fc <__metal_myhart_id>
20011c4c:	87aa                	mv	a5,a0
20011c4e:	853e                	mv	a0,a5
20011c50:	39b5                	jal	200118cc <__metal_driver_cpu_get>
20011c52:	fea42623          	sw	a0,-20(s0)
E:/GitHub/HiFive01-RevB/FS_workspace/002_LED_Blink_All/freedom-metal/src/drivers/riscv_cpu.c:156
    unsigned long long time = __metal_driver_cpu_mtime_get(cpu);
20011c56:	fec42503          	lw	a0,-20(s0)
20011c5a:	2c0010ef          	jal	ra,20012f1a <__metal_driver_cpu_mtime_get>
20011c5e:	fea42023          	sw	a0,-32(s0)
20011c62:	feb42223          	sw	a1,-28(s0)
E:/GitHub/HiFive01-RevB/FS_workspace/002_LED_Blink_All/freedom-metal/src/drivers/riscv_cpu.c:159

    /* Set a 10 cycle timer */
    __metal_driver_cpu_mtimecmp_set(cpu, time + 10);
20011c66:	fe042703          	lw	a4,-32(s0)
20011c6a:	fe442783          	lw	a5,-28(s0)
20011c6e:	4529                	li	a0,10
20011c70:	4581                	li	a1,0
20011c72:	00a70633          	add	a2,a4,a0
20011c76:	8832                	mv	a6,a2
20011c78:	00e83833          	sltu	a6,a6,a4
20011c7c:	00b786b3          	add	a3,a5,a1
20011c80:	00d807b3          	add	a5,a6,a3
20011c84:	86be                	mv	a3,a5
20011c86:	8732                	mv	a4,a2
20011c88:	87b6                	mv	a5,a3
20011c8a:	85ba                	mv	a1,a4
20011c8c:	863e                	mv	a2,a5
20011c8e:	fec42503          	lw	a0,-20(s0)
20011c92:	2ee010ef          	jal	ra,20012f80 <__metal_driver_cpu_mtimecmp_set>
E:/GitHub/HiFive01-RevB/FS_workspace/002_LED_Blink_All/freedom-metal/src/drivers/riscv_cpu.c:160
}
20011c96:	0001                	nop
20011c98:	50b2                	lw	ra,44(sp)
20011c9a:	5422                	lw	s0,40(sp)
20011c9c:	6145                	addi	sp,sp,48
20011c9e:	8082                	ret
	...

20011d00 <__metal_exception_handler>:
__metal_exception_handler():
E:/GitHub/HiFive01-RevB/FS_workspace/002_LED_Blink_All/freedom-metal/src/drivers/riscv_cpu.c:169
metal_external_interrupt_vector_handler(void) {
    __METAL_IRQ_VECTOR_HANDLER(METAL_INTERRUPT_ID_EXT);
}

void __metal_exception_handler(void) __attribute__((interrupt, aligned(128)));
void __metal_exception_handler(void) {
20011d00:	7119                	addi	sp,sp,-128
20011d02:	de86                	sw	ra,124(sp)
20011d04:	dc96                	sw	t0,120(sp)
20011d06:	da9a                	sw	t1,116(sp)
20011d08:	d89e                	sw	t2,112(sp)
20011d0a:	d6a2                	sw	s0,108(sp)
20011d0c:	d4aa                	sw	a0,104(sp)
20011d0e:	d2ae                	sw	a1,100(sp)
20011d10:	d0b2                	sw	a2,96(sp)
20011d12:	ceb6                	sw	a3,92(sp)
20011d14:	ccba                	sw	a4,88(sp)
20011d16:	cabe                	sw	a5,84(sp)
20011d18:	c8c2                	sw	a6,80(sp)
20011d1a:	c6c6                	sw	a7,76(sp)
20011d1c:	c4f2                	sw	t3,72(sp)
20011d1e:	c2f6                	sw	t4,68(sp)
20011d20:	c0fa                	sw	t5,64(sp)
20011d22:	de7e                	sw	t6,60(sp)
20011d24:	0100                	addi	s0,sp,128
E:/GitHub/HiFive01-RevB/FS_workspace/002_LED_Blink_All/freedom-metal/src/drivers/riscv_cpu.c:174
    int id;
    void *priv;
    uintptr_t mcause, mepc, mtval, mtvec;
    struct __metal_driver_riscv_cpu_intc *intc;
    struct __metal_driver_cpu *cpu = __metal_cpu_table[__metal_myhart_id()];
20011d26:	3ed9                	jal	200118fc <__metal_myhart_id>
20011d28:	872a                	mv	a4,a0
20011d2a:	800017b7          	lui	a5,0x80001
20011d2e:	070a                	slli	a4,a4,0x2
20011d30:	a7078793          	addi	a5,a5,-1424 # 80000a70 <__global_pointer$+0xfffff800>
20011d34:	97ba                	add	a5,a5,a4
20011d36:	439c                	lw	a5,0(a5)
20011d38:	faf42623          	sw	a5,-84(s0)
E:/GitHub/HiFive01-RevB/FS_workspace/002_LED_Blink_All/freedom-metal/src/drivers/riscv_cpu.c:176

    __asm__ volatile("csrr %0, mcause" : "=r"(mcause));
20011d3c:	342027f3          	csrr	a5,mcause
20011d40:	faf42423          	sw	a5,-88(s0)
E:/GitHub/HiFive01-RevB/FS_workspace/002_LED_Blink_All/freedom-metal/src/drivers/riscv_cpu.c:177
    __asm__ volatile("csrr %0, mepc" : "=r"(mepc));
20011d44:	341027f3          	csrr	a5,mepc
20011d48:	faf42223          	sw	a5,-92(s0)
E:/GitHub/HiFive01-RevB/FS_workspace/002_LED_Blink_All/freedom-metal/src/drivers/riscv_cpu.c:178
    __asm__ volatile("csrr %0, mtval" : "=r"(mtval));
20011d4c:	343027f3          	csrr	a5,mtval
20011d50:	faf42023          	sw	a5,-96(s0)
E:/GitHub/HiFive01-RevB/FS_workspace/002_LED_Blink_All/freedom-metal/src/drivers/riscv_cpu.c:179
    __asm__ volatile("csrr %0, mtvec" : "=r"(mtvec));
20011d54:	305027f3          	csrr	a5,mtvec
20011d58:	f8f42e23          	sw	a5,-100(s0)
E:/GitHub/HiFive01-RevB/FS_workspace/002_LED_Blink_All/freedom-metal/src/drivers/riscv_cpu.c:181

    if (cpu) {
20011d5c:	fac42783          	lw	a5,-84(s0)
20011d60:	cbf5                	beqz	a5,20011e54 <__metal_exception_handler+0x154>
E:/GitHub/HiFive01-RevB/FS_workspace/002_LED_Blink_All/freedom-metal/src/drivers/riscv_cpu.c:183
        intc = (struct __metal_driver_riscv_cpu_intc *)
            __metal_driver_cpu_interrupt_controller((struct metal_cpu *)cpu);
20011d62:	fac42503          	lw	a0,-84(s0)
20011d66:	3e01                	jal	20011876 <__metal_driver_cpu_interrupt_controller>
20011d68:	f8a42c23          	sw	a0,-104(s0)
E:/GitHub/HiFive01-RevB/FS_workspace/002_LED_Blink_All/freedom-metal/src/drivers/riscv_cpu.c:184
        id = mcause & METAL_MCAUSE_CAUSE;
20011d6c:	fa842783          	lw	a5,-88(s0)
20011d70:	3ff7f793          	andi	a5,a5,1023
20011d74:	f8f42a23          	sw	a5,-108(s0)
E:/GitHub/HiFive01-RevB/FS_workspace/002_LED_Blink_All/freedom-metal/src/drivers/riscv_cpu.c:185
        if (mcause & METAL_MCAUSE_INTR) {
20011d78:	fa842783          	lw	a5,-88(s0)
20011d7c:	0a07de63          	bgez	a5,20011e38 <__metal_exception_handler+0x138>
E:/GitHub/HiFive01-RevB/FS_workspace/002_LED_Blink_All/freedom-metal/src/drivers/riscv_cpu.c:186
            if (id == METAL_INTERRUPT_ID_BEU) {
20011d80:	f9442703          	lw	a4,-108(s0)
20011d84:	08000793          	li	a5,128
20011d88:	02f71263          	bne	a4,a5,20011dac <__metal_exception_handler+0xac>
E:/GitHub/HiFive01-RevB/FS_workspace/002_LED_Blink_All/freedom-metal/src/drivers/riscv_cpu.c:187
                priv = intc->metal_int_beu.exint_data;
20011d8c:	f9842783          	lw	a5,-104(s0)
20011d90:	3987a783          	lw	a5,920(a5)
20011d94:	f8f42623          	sw	a5,-116(s0)
E:/GitHub/HiFive01-RevB/FS_workspace/002_LED_Blink_All/freedom-metal/src/drivers/riscv_cpu.c:188
                intc->metal_int_beu.handler(id, priv);
20011d98:	f9842783          	lw	a5,-104(s0)
20011d9c:	3907a783          	lw	a5,912(a5)
20011da0:	f8c42583          	lw	a1,-116(s0)
20011da4:	f9442503          	lw	a0,-108(s0)
20011da8:	9782                	jalr	a5
E:/GitHub/HiFive01-RevB/FS_workspace/002_LED_Blink_All/freedom-metal/src/drivers/riscv_cpu.c:189
                return;
20011daa:	a06d                	j	20011e54 <__metal_exception_handler+0x154>
E:/GitHub/HiFive01-RevB/FS_workspace/002_LED_Blink_All/freedom-metal/src/drivers/riscv_cpu.c:191
            }
            if ((id < METAL_INTERRUPT_ID_CSW) ||
20011dac:	f9442703          	lw	a4,-108(s0)
20011db0:	47ad                	li	a5,11
20011db2:	00e7d763          	bge	a5,a4,20011dc0 <__metal_exception_handler+0xc0>
E:/GitHub/HiFive01-RevB/FS_workspace/002_LED_Blink_All/freedom-metal/src/drivers/riscv_cpu.c:192 (discriminator 1)
                ((mtvec & METAL_MTVEC_MASK) == METAL_MTVEC_DIRECT)) {
20011db6:	f9c42783          	lw	a5,-100(s0)
20011dba:	03f7f793          	andi	a5,a5,63
E:/GitHub/HiFive01-RevB/FS_workspace/002_LED_Blink_All/freedom-metal/src/drivers/riscv_cpu.c:191 (discriminator 1)
            if ((id < METAL_INTERRUPT_ID_CSW) ||
20011dbe:	ef9d                	bnez	a5,20011dfc <__metal_exception_handler+0xfc>
E:/GitHub/HiFive01-RevB/FS_workspace/002_LED_Blink_All/freedom-metal/src/drivers/riscv_cpu.c:193
                priv = intc->metal_int_table[id].exint_data;
20011dc0:	f9842683          	lw	a3,-104(s0)
20011dc4:	f9442703          	lw	a4,-108(s0)
20011dc8:	87ba                	mv	a5,a4
20011dca:	0786                	slli	a5,a5,0x1
20011dcc:	97ba                	add	a5,a5,a4
20011dce:	078e                	slli	a5,a5,0x3
20011dd0:	97b6                	add	a5,a5,a3
20011dd2:	0987a783          	lw	a5,152(a5)
20011dd6:	f8f42623          	sw	a5,-116(s0)
E:/GitHub/HiFive01-RevB/FS_workspace/002_LED_Blink_All/freedom-metal/src/drivers/riscv_cpu.c:194
                intc->metal_int_table[id].handler(id, priv);
20011dda:	f9842683          	lw	a3,-104(s0)
20011dde:	f9442703          	lw	a4,-108(s0)
20011de2:	87ba                	mv	a5,a4
20011de4:	0786                	slli	a5,a5,0x1
20011de6:	97ba                	add	a5,a5,a4
20011de8:	078e                	slli	a5,a5,0x3
20011dea:	97b6                	add	a5,a5,a3
20011dec:	0907a783          	lw	a5,144(a5)
20011df0:	f8c42583          	lw	a1,-116(s0)
20011df4:	f9442503          	lw	a0,-108(s0)
20011df8:	9782                	jalr	a5
E:/GitHub/HiFive01-RevB/FS_workspace/002_LED_Blink_All/freedom-metal/src/drivers/riscv_cpu.c:195
                return;
20011dfa:	a8a9                	j	20011e54 <__metal_exception_handler+0x154>
E:/GitHub/HiFive01-RevB/FS_workspace/002_LED_Blink_All/freedom-metal/src/drivers/riscv_cpu.c:197
            }
            if ((mtvec & METAL_MTVEC_MASK) == METAL_MTVEC_CLIC) {
20011dfc:	f9c42783          	lw	a5,-100(s0)
20011e00:	03f7f713          	andi	a4,a5,63
20011e04:	4789                	li	a5,2
20011e06:	04f71763          	bne	a4,a5,20011e54 <__metal_exception_handler+0x154>
E:/GitHub/HiFive01-RevB/FS_workspace/002_LED_Blink_All/freedom-metal/src/drivers/riscv_cpu.c:201
                uintptr_t mtvt;
                metal_interrupt_handler_t mtvt_handler;

                __asm__ volatile("csrr %0, 0x307" : "=r"(mtvt));
20011e0a:	307027f3          	csrr	a5,mtvt
20011e0e:	f8f42823          	sw	a5,-112(s0)
E:/GitHub/HiFive01-RevB/FS_workspace/002_LED_Blink_All/freedom-metal/src/drivers/riscv_cpu.c:202
                priv = intc->metal_int_table[METAL_INTERRUPT_ID_SW].sub_int;
20011e12:	f9842783          	lw	a5,-104(s0)
20011e16:	0dc7a783          	lw	a5,220(a5)
20011e1a:	f8f42623          	sw	a5,-116(s0)
E:/GitHub/HiFive01-RevB/FS_workspace/002_LED_Blink_All/freedom-metal/src/drivers/riscv_cpu.c:203
                mtvt_handler = (metal_interrupt_handler_t) * (uintptr_t *)mtvt;
20011e1e:	f9042783          	lw	a5,-112(s0)
20011e22:	439c                	lw	a5,0(a5)
20011e24:	f8f42423          	sw	a5,-120(s0)
E:/GitHub/HiFive01-RevB/FS_workspace/002_LED_Blink_All/freedom-metal/src/drivers/riscv_cpu.c:204
                mtvt_handler(id, priv);
20011e28:	f8842783          	lw	a5,-120(s0)
20011e2c:	f8c42583          	lw	a1,-116(s0)
20011e30:	f9442503          	lw	a0,-108(s0)
20011e34:	9782                	jalr	a5
E:/GitHub/HiFive01-RevB/FS_workspace/002_LED_Blink_All/freedom-metal/src/drivers/riscv_cpu.c:205
                return;
20011e36:	a839                	j	20011e54 <__metal_exception_handler+0x154>
E:/GitHub/HiFive01-RevB/FS_workspace/002_LED_Blink_All/freedom-metal/src/drivers/riscv_cpu.c:208
            }
        } else {
            intc->metal_exception_table[id]((struct metal_cpu *)cpu, id);
20011e38:	f9842703          	lw	a4,-104(s0)
20011e3c:	f9442783          	lw	a5,-108(s0)
20011e40:	0e878793          	addi	a5,a5,232
20011e44:	078a                	slli	a5,a5,0x2
20011e46:	97ba                	add	a5,a5,a4
20011e48:	439c                	lw	a5,0(a5)
20011e4a:	f9442583          	lw	a1,-108(s0)
20011e4e:	fac42503          	lw	a0,-84(s0)
20011e52:	9782                	jalr	a5
E:/GitHub/HiFive01-RevB/FS_workspace/002_LED_Blink_All/freedom-metal/src/drivers/riscv_cpu.c:211
        }
    }
}
20011e54:	50f6                	lw	ra,124(sp)
20011e56:	52e6                	lw	t0,120(sp)
20011e58:	5356                	lw	t1,116(sp)
20011e5a:	53c6                	lw	t2,112(sp)
20011e5c:	5436                	lw	s0,108(sp)
20011e5e:	5526                	lw	a0,104(sp)
20011e60:	5596                	lw	a1,100(sp)
20011e62:	5606                	lw	a2,96(sp)
20011e64:	46f6                	lw	a3,92(sp)
20011e66:	4766                	lw	a4,88(sp)
20011e68:	47d6                	lw	a5,84(sp)
20011e6a:	4846                	lw	a6,80(sp)
20011e6c:	48b6                	lw	a7,76(sp)
20011e6e:	4e26                	lw	t3,72(sp)
20011e70:	4e96                	lw	t4,68(sp)
20011e72:	4f06                	lw	t5,64(sp)
20011e74:	5ff2                	lw	t6,60(sp)
20011e76:	6109                	addi	sp,sp,128
20011e78:	30200073          	mret
	...

20011ef6 <metal_lc0_interrupt_vector_handler>:
metal_lc0_interrupt_vector_handler():
E:/GitHub/HiFive01-RevB/FS_workspace/002_LED_Blink_All/freedom-metal/src/drivers/riscv_cpu.c:214

/* The metal_lc0_interrupt_vector_handler() function can be redefined. */
void __attribute__((weak, interrupt)) metal_lc0_interrupt_vector_handler(void) {
20011ef6:	711d                	addi	sp,sp,-96
20011ef8:	ce86                	sw	ra,92(sp)
20011efa:	cc96                	sw	t0,88(sp)
20011efc:	ca9a                	sw	t1,84(sp)
20011efe:	c89e                	sw	t2,80(sp)
20011f00:	c6a2                	sw	s0,76(sp)
20011f02:	c4aa                	sw	a0,72(sp)
20011f04:	c2ae                	sw	a1,68(sp)
20011f06:	c0b2                	sw	a2,64(sp)
20011f08:	de36                	sw	a3,60(sp)
20011f0a:	dc3a                	sw	a4,56(sp)
20011f0c:	da3e                	sw	a5,52(sp)
20011f0e:	d842                	sw	a6,48(sp)
20011f10:	d646                	sw	a7,44(sp)
20011f12:	d472                	sw	t3,40(sp)
20011f14:	d276                	sw	t4,36(sp)
20011f16:	d07a                	sw	t5,32(sp)
20011f18:	ce7e                	sw	t6,28(sp)
20011f1a:	1080                	addi	s0,sp,96
E:/GitHub/HiFive01-RevB/FS_workspace/002_LED_Blink_All/freedom-metal/src/drivers/riscv_cpu.c:215
    __METAL_IRQ_VECTOR_HANDLER(METAL_INTERRUPT_ID_LC0);
20011f1c:	9e1ff0ef          	jal	ra,200118fc <__metal_myhart_id>
20011f20:	872a                	mv	a4,a0
20011f22:	800017b7          	lui	a5,0x80001
20011f26:	070a                	slli	a4,a4,0x2
20011f28:	a7078793          	addi	a5,a5,-1424 # 80000a70 <__global_pointer$+0xfffff800>
20011f2c:	97ba                	add	a5,a5,a4
20011f2e:	439c                	lw	a5,0(a5)
20011f30:	faf42623          	sw	a5,-84(s0)
20011f34:	fac42783          	lw	a5,-84(s0)
20011f38:	c78d                	beqz	a5,20011f62 <metal_lc0_interrupt_vector_handler+0x6c>
E:/GitHub/HiFive01-RevB/FS_workspace/002_LED_Blink_All/freedom-metal/src/drivers/riscv_cpu.c:215 (discriminator 1)
20011f3a:	fac42503          	lw	a0,-84(s0)
20011f3e:	939ff0ef          	jal	ra,20011876 <__metal_driver_cpu_interrupt_controller>
20011f42:	faa42423          	sw	a0,-88(s0)
20011f46:	fa842783          	lw	a5,-88(s0)
20011f4a:	2187a783          	lw	a5,536(a5)
20011f4e:	faf42223          	sw	a5,-92(s0)
20011f52:	fa842783          	lw	a5,-88(s0)
20011f56:	2107a783          	lw	a5,528(a5)
20011f5a:	fa442583          	lw	a1,-92(s0)
20011f5e:	4541                	li	a0,16
20011f60:	9782                	jalr	a5
E:/GitHub/HiFive01-RevB/FS_workspace/002_LED_Blink_All/freedom-metal/src/drivers/riscv_cpu.c:216
}
20011f62:	0001                	nop
20011f64:	40f6                	lw	ra,92(sp)
20011f66:	42e6                	lw	t0,88(sp)
20011f68:	4356                	lw	t1,84(sp)
20011f6a:	43c6                	lw	t2,80(sp)
20011f6c:	4436                	lw	s0,76(sp)
20011f6e:	4526                	lw	a0,72(sp)
20011f70:	4596                	lw	a1,68(sp)
20011f72:	4606                	lw	a2,64(sp)
20011f74:	56f2                	lw	a3,60(sp)
20011f76:	5762                	lw	a4,56(sp)
20011f78:	57d2                	lw	a5,52(sp)
20011f7a:	5842                	lw	a6,48(sp)
20011f7c:	58b2                	lw	a7,44(sp)
20011f7e:	5e22                	lw	t3,40(sp)
20011f80:	5e92                	lw	t4,36(sp)
20011f82:	5f02                	lw	t5,32(sp)
20011f84:	4ff2                	lw	t6,28(sp)
20011f86:	6125                	addi	sp,sp,96
20011f88:	30200073          	mret

20011f8c <metal_lc1_interrupt_vector_handler>:
metal_lc1_interrupt_vector_handler():
E:/GitHub/HiFive01-RevB/FS_workspace/002_LED_Blink_All/freedom-metal/src/drivers/riscv_cpu.c:219

/* The metal_lc1_interrupt_vector_handler() function can be redefined. */
void __attribute__((weak, interrupt)) metal_lc1_interrupt_vector_handler(void) {
20011f8c:	711d                	addi	sp,sp,-96
20011f8e:	ce86                	sw	ra,92(sp)
20011f90:	cc96                	sw	t0,88(sp)
20011f92:	ca9a                	sw	t1,84(sp)
20011f94:	c89e                	sw	t2,80(sp)
20011f96:	c6a2                	sw	s0,76(sp)
20011f98:	c4aa                	sw	a0,72(sp)
20011f9a:	c2ae                	sw	a1,68(sp)
20011f9c:	c0b2                	sw	a2,64(sp)
20011f9e:	de36                	sw	a3,60(sp)
20011fa0:	dc3a                	sw	a4,56(sp)
20011fa2:	da3e                	sw	a5,52(sp)
20011fa4:	d842                	sw	a6,48(sp)
20011fa6:	d646                	sw	a7,44(sp)
20011fa8:	d472                	sw	t3,40(sp)
20011faa:	d276                	sw	t4,36(sp)
20011fac:	d07a                	sw	t5,32(sp)
20011fae:	ce7e                	sw	t6,28(sp)
20011fb0:	1080                	addi	s0,sp,96
E:/GitHub/HiFive01-RevB/FS_workspace/002_LED_Blink_All/freedom-metal/src/drivers/riscv_cpu.c:220
    __METAL_IRQ_VECTOR_HANDLER(METAL_INTERRUPT_ID_LC1);
20011fb2:	94bff0ef          	jal	ra,200118fc <__metal_myhart_id>
20011fb6:	872a                	mv	a4,a0
20011fb8:	800017b7          	lui	a5,0x80001
20011fbc:	070a                	slli	a4,a4,0x2
20011fbe:	a7078793          	addi	a5,a5,-1424 # 80000a70 <__global_pointer$+0xfffff800>
20011fc2:	97ba                	add	a5,a5,a4
20011fc4:	439c                	lw	a5,0(a5)
20011fc6:	faf42623          	sw	a5,-84(s0)
20011fca:	fac42783          	lw	a5,-84(s0)
20011fce:	c78d                	beqz	a5,20011ff8 <metal_lc1_interrupt_vector_handler+0x6c>
E:/GitHub/HiFive01-RevB/FS_workspace/002_LED_Blink_All/freedom-metal/src/drivers/riscv_cpu.c:220 (discriminator 1)
20011fd0:	fac42503          	lw	a0,-84(s0)
20011fd4:	8a3ff0ef          	jal	ra,20011876 <__metal_driver_cpu_interrupt_controller>
20011fd8:	faa42423          	sw	a0,-88(s0)
20011fdc:	fa842783          	lw	a5,-88(s0)
20011fe0:	2307a783          	lw	a5,560(a5)
20011fe4:	faf42223          	sw	a5,-92(s0)
20011fe8:	fa842783          	lw	a5,-88(s0)
20011fec:	2287a783          	lw	a5,552(a5)
20011ff0:	fa442583          	lw	a1,-92(s0)
20011ff4:	4545                	li	a0,17
20011ff6:	9782                	jalr	a5
E:/GitHub/HiFive01-RevB/FS_workspace/002_LED_Blink_All/freedom-metal/src/drivers/riscv_cpu.c:221
}
20011ff8:	0001                	nop
20011ffa:	40f6                	lw	ra,92(sp)
20011ffc:	42e6                	lw	t0,88(sp)
20011ffe:	4356                	lw	t1,84(sp)
20012000:	43c6                	lw	t2,80(sp)
20012002:	4436                	lw	s0,76(sp)
20012004:	4526                	lw	a0,72(sp)
20012006:	4596                	lw	a1,68(sp)
20012008:	4606                	lw	a2,64(sp)
2001200a:	56f2                	lw	a3,60(sp)
2001200c:	5762                	lw	a4,56(sp)
2001200e:	57d2                	lw	a5,52(sp)
20012010:	5842                	lw	a6,48(sp)
20012012:	58b2                	lw	a7,44(sp)
20012014:	5e22                	lw	t3,40(sp)
20012016:	5e92                	lw	t4,36(sp)
20012018:	5f02                	lw	t5,32(sp)
2001201a:	4ff2                	lw	t6,28(sp)
2001201c:	6125                	addi	sp,sp,96
2001201e:	30200073          	mret

20012022 <metal_lc2_interrupt_vector_handler>:
metal_lc2_interrupt_vector_handler():
E:/GitHub/HiFive01-RevB/FS_workspace/002_LED_Blink_All/freedom-metal/src/drivers/riscv_cpu.c:224

/* The metal_lc2_interrupt_vector_handler() function can be redefined. */
void __attribute__((weak, interrupt)) metal_lc2_interrupt_vector_handler(void) {
20012022:	711d                	addi	sp,sp,-96
20012024:	ce86                	sw	ra,92(sp)
20012026:	cc96                	sw	t0,88(sp)
20012028:	ca9a                	sw	t1,84(sp)
2001202a:	c89e                	sw	t2,80(sp)
2001202c:	c6a2                	sw	s0,76(sp)
2001202e:	c4aa                	sw	a0,72(sp)
20012030:	c2ae                	sw	a1,68(sp)
20012032:	c0b2                	sw	a2,64(sp)
20012034:	de36                	sw	a3,60(sp)
20012036:	dc3a                	sw	a4,56(sp)
20012038:	da3e                	sw	a5,52(sp)
2001203a:	d842                	sw	a6,48(sp)
2001203c:	d646                	sw	a7,44(sp)
2001203e:	d472                	sw	t3,40(sp)
20012040:	d276                	sw	t4,36(sp)
20012042:	d07a                	sw	t5,32(sp)
20012044:	ce7e                	sw	t6,28(sp)
20012046:	1080                	addi	s0,sp,96
E:/GitHub/HiFive01-RevB/FS_workspace/002_LED_Blink_All/freedom-metal/src/drivers/riscv_cpu.c:225
    __METAL_IRQ_VECTOR_HANDLER(METAL_INTERRUPT_ID_LC2);
20012048:	8b5ff0ef          	jal	ra,200118fc <__metal_myhart_id>
2001204c:	872a                	mv	a4,a0
2001204e:	800017b7          	lui	a5,0x80001
20012052:	070a                	slli	a4,a4,0x2
20012054:	a7078793          	addi	a5,a5,-1424 # 80000a70 <__global_pointer$+0xfffff800>
20012058:	97ba                	add	a5,a5,a4
2001205a:	439c                	lw	a5,0(a5)
2001205c:	faf42623          	sw	a5,-84(s0)
20012060:	fac42783          	lw	a5,-84(s0)
20012064:	c78d                	beqz	a5,2001208e <metal_lc2_interrupt_vector_handler+0x6c>
E:/GitHub/HiFive01-RevB/FS_workspace/002_LED_Blink_All/freedom-metal/src/drivers/riscv_cpu.c:225 (discriminator 1)
20012066:	fac42503          	lw	a0,-84(s0)
2001206a:	80dff0ef          	jal	ra,20011876 <__metal_driver_cpu_interrupt_controller>
2001206e:	faa42423          	sw	a0,-88(s0)
20012072:	fa842783          	lw	a5,-88(s0)
20012076:	2487a783          	lw	a5,584(a5)
2001207a:	faf42223          	sw	a5,-92(s0)
2001207e:	fa842783          	lw	a5,-88(s0)
20012082:	2407a783          	lw	a5,576(a5)
20012086:	fa442583          	lw	a1,-92(s0)
2001208a:	4549                	li	a0,18
2001208c:	9782                	jalr	a5
E:/GitHub/HiFive01-RevB/FS_workspace/002_LED_Blink_All/freedom-metal/src/drivers/riscv_cpu.c:226
}
2001208e:	0001                	nop
20012090:	40f6                	lw	ra,92(sp)
20012092:	42e6                	lw	t0,88(sp)
20012094:	4356                	lw	t1,84(sp)
20012096:	43c6                	lw	t2,80(sp)
20012098:	4436                	lw	s0,76(sp)
2001209a:	4526                	lw	a0,72(sp)
2001209c:	4596                	lw	a1,68(sp)
2001209e:	4606                	lw	a2,64(sp)
200120a0:	56f2                	lw	a3,60(sp)
200120a2:	5762                	lw	a4,56(sp)
200120a4:	57d2                	lw	a5,52(sp)
200120a6:	5842                	lw	a6,48(sp)
200120a8:	58b2                	lw	a7,44(sp)
200120aa:	5e22                	lw	t3,40(sp)
200120ac:	5e92                	lw	t4,36(sp)
200120ae:	5f02                	lw	t5,32(sp)
200120b0:	4ff2                	lw	t6,28(sp)
200120b2:	6125                	addi	sp,sp,96
200120b4:	30200073          	mret

200120b8 <metal_lc3_interrupt_vector_handler>:
metal_lc3_interrupt_vector_handler():
E:/GitHub/HiFive01-RevB/FS_workspace/002_LED_Blink_All/freedom-metal/src/drivers/riscv_cpu.c:229

/* The metal_lc3_interrupt_vector_handler() function can be redefined. */
void __attribute__((weak, interrupt)) metal_lc3_interrupt_vector_handler(void) {
200120b8:	711d                	addi	sp,sp,-96
200120ba:	ce86                	sw	ra,92(sp)
200120bc:	cc96                	sw	t0,88(sp)
200120be:	ca9a                	sw	t1,84(sp)
200120c0:	c89e                	sw	t2,80(sp)
200120c2:	c6a2                	sw	s0,76(sp)
200120c4:	c4aa                	sw	a0,72(sp)
200120c6:	c2ae                	sw	a1,68(sp)
200120c8:	c0b2                	sw	a2,64(sp)
200120ca:	de36                	sw	a3,60(sp)
200120cc:	dc3a                	sw	a4,56(sp)
200120ce:	da3e                	sw	a5,52(sp)
200120d0:	d842                	sw	a6,48(sp)
200120d2:	d646                	sw	a7,44(sp)
200120d4:	d472                	sw	t3,40(sp)
200120d6:	d276                	sw	t4,36(sp)
200120d8:	d07a                	sw	t5,32(sp)
200120da:	ce7e                	sw	t6,28(sp)
200120dc:	1080                	addi	s0,sp,96
E:/GitHub/HiFive01-RevB/FS_workspace/002_LED_Blink_All/freedom-metal/src/drivers/riscv_cpu.c:230
    __METAL_IRQ_VECTOR_HANDLER(METAL_INTERRUPT_ID_LC3);
200120de:	81fff0ef          	jal	ra,200118fc <__metal_myhart_id>
200120e2:	872a                	mv	a4,a0
200120e4:	800017b7          	lui	a5,0x80001
200120e8:	070a                	slli	a4,a4,0x2
200120ea:	a7078793          	addi	a5,a5,-1424 # 80000a70 <__global_pointer$+0xfffff800>
200120ee:	97ba                	add	a5,a5,a4
200120f0:	439c                	lw	a5,0(a5)
200120f2:	faf42623          	sw	a5,-84(s0)
200120f6:	fac42783          	lw	a5,-84(s0)
200120fa:	c78d                	beqz	a5,20012124 <metal_lc3_interrupt_vector_handler+0x6c>
E:/GitHub/HiFive01-RevB/FS_workspace/002_LED_Blink_All/freedom-metal/src/drivers/riscv_cpu.c:230 (discriminator 1)
200120fc:	fac42503          	lw	a0,-84(s0)
20012100:	f76ff0ef          	jal	ra,20011876 <__metal_driver_cpu_interrupt_controller>
20012104:	faa42423          	sw	a0,-88(s0)
20012108:	fa842783          	lw	a5,-88(s0)
2001210c:	2607a783          	lw	a5,608(a5)
20012110:	faf42223          	sw	a5,-92(s0)
20012114:	fa842783          	lw	a5,-88(s0)
20012118:	2587a783          	lw	a5,600(a5)
2001211c:	fa442583          	lw	a1,-92(s0)
20012120:	454d                	li	a0,19
20012122:	9782                	jalr	a5
E:/GitHub/HiFive01-RevB/FS_workspace/002_LED_Blink_All/freedom-metal/src/drivers/riscv_cpu.c:231
}
20012124:	0001                	nop
20012126:	40f6                	lw	ra,92(sp)
20012128:	42e6                	lw	t0,88(sp)
2001212a:	4356                	lw	t1,84(sp)
2001212c:	43c6                	lw	t2,80(sp)
2001212e:	4436                	lw	s0,76(sp)
20012130:	4526                	lw	a0,72(sp)
20012132:	4596                	lw	a1,68(sp)
20012134:	4606                	lw	a2,64(sp)
20012136:	56f2                	lw	a3,60(sp)
20012138:	5762                	lw	a4,56(sp)
2001213a:	57d2                	lw	a5,52(sp)
2001213c:	5842                	lw	a6,48(sp)
2001213e:	58b2                	lw	a7,44(sp)
20012140:	5e22                	lw	t3,40(sp)
20012142:	5e92                	lw	t4,36(sp)
20012144:	5f02                	lw	t5,32(sp)
20012146:	4ff2                	lw	t6,28(sp)
20012148:	6125                	addi	sp,sp,96
2001214a:	30200073          	mret

2001214e <metal_lc4_interrupt_vector_handler>:
metal_lc4_interrupt_vector_handler():
E:/GitHub/HiFive01-RevB/FS_workspace/002_LED_Blink_All/freedom-metal/src/drivers/riscv_cpu.c:234

/* The metal_lc4_interrupt_vector_handler() function can be redefined. */
void __attribute__((weak, interrupt)) metal_lc4_interrupt_vector_handler(void) {
2001214e:	711d                	addi	sp,sp,-96
20012150:	ce86                	sw	ra,92(sp)
20012152:	cc96                	sw	t0,88(sp)
20012154:	ca9a                	sw	t1,84(sp)
20012156:	c89e                	sw	t2,80(sp)
20012158:	c6a2                	sw	s0,76(sp)
2001215a:	c4aa                	sw	a0,72(sp)
2001215c:	c2ae                	sw	a1,68(sp)
2001215e:	c0b2                	sw	a2,64(sp)
20012160:	de36                	sw	a3,60(sp)
20012162:	dc3a                	sw	a4,56(sp)
20012164:	da3e                	sw	a5,52(sp)
20012166:	d842                	sw	a6,48(sp)
20012168:	d646                	sw	a7,44(sp)
2001216a:	d472                	sw	t3,40(sp)
2001216c:	d276                	sw	t4,36(sp)
2001216e:	d07a                	sw	t5,32(sp)
20012170:	ce7e                	sw	t6,28(sp)
20012172:	1080                	addi	s0,sp,96
E:/GitHub/HiFive01-RevB/FS_workspace/002_LED_Blink_All/freedom-metal/src/drivers/riscv_cpu.c:235
    __METAL_IRQ_VECTOR_HANDLER(METAL_INTERRUPT_ID_LC4);
20012174:	f88ff0ef          	jal	ra,200118fc <__metal_myhart_id>
20012178:	872a                	mv	a4,a0
2001217a:	800017b7          	lui	a5,0x80001
2001217e:	070a                	slli	a4,a4,0x2
20012180:	a7078793          	addi	a5,a5,-1424 # 80000a70 <__global_pointer$+0xfffff800>
20012184:	97ba                	add	a5,a5,a4
20012186:	439c                	lw	a5,0(a5)
20012188:	faf42623          	sw	a5,-84(s0)
2001218c:	fac42783          	lw	a5,-84(s0)
20012190:	c78d                	beqz	a5,200121ba <metal_lc4_interrupt_vector_handler+0x6c>
E:/GitHub/HiFive01-RevB/FS_workspace/002_LED_Blink_All/freedom-metal/src/drivers/riscv_cpu.c:235 (discriminator 1)
20012192:	fac42503          	lw	a0,-84(s0)
20012196:	ee0ff0ef          	jal	ra,20011876 <__metal_driver_cpu_interrupt_controller>
2001219a:	faa42423          	sw	a0,-88(s0)
2001219e:	fa842783          	lw	a5,-88(s0)
200121a2:	2787a783          	lw	a5,632(a5)
200121a6:	faf42223          	sw	a5,-92(s0)
200121aa:	fa842783          	lw	a5,-88(s0)
200121ae:	2707a783          	lw	a5,624(a5)
200121b2:	fa442583          	lw	a1,-92(s0)
200121b6:	4551                	li	a0,20
200121b8:	9782                	jalr	a5
E:/GitHub/HiFive01-RevB/FS_workspace/002_LED_Blink_All/freedom-metal/src/drivers/riscv_cpu.c:236
}
200121ba:	0001                	nop
200121bc:	40f6                	lw	ra,92(sp)
200121be:	42e6                	lw	t0,88(sp)
200121c0:	4356                	lw	t1,84(sp)
200121c2:	43c6                	lw	t2,80(sp)
200121c4:	4436                	lw	s0,76(sp)
200121c6:	4526                	lw	a0,72(sp)
200121c8:	4596                	lw	a1,68(sp)
200121ca:	4606                	lw	a2,64(sp)
200121cc:	56f2                	lw	a3,60(sp)
200121ce:	5762                	lw	a4,56(sp)
200121d0:	57d2                	lw	a5,52(sp)
200121d2:	5842                	lw	a6,48(sp)
200121d4:	58b2                	lw	a7,44(sp)
200121d6:	5e22                	lw	t3,40(sp)
200121d8:	5e92                	lw	t4,36(sp)
200121da:	5f02                	lw	t5,32(sp)
200121dc:	4ff2                	lw	t6,28(sp)
200121de:	6125                	addi	sp,sp,96
200121e0:	30200073          	mret

200121e4 <metal_lc5_interrupt_vector_handler>:
metal_lc5_interrupt_vector_handler():
E:/GitHub/HiFive01-RevB/FS_workspace/002_LED_Blink_All/freedom-metal/src/drivers/riscv_cpu.c:239

/* The metal_lc5_interrupt_vector_handler() function can be redefined. */
void __attribute__((weak, interrupt)) metal_lc5_interrupt_vector_handler(void) {
200121e4:	711d                	addi	sp,sp,-96
200121e6:	ce86                	sw	ra,92(sp)
200121e8:	cc96                	sw	t0,88(sp)
200121ea:	ca9a                	sw	t1,84(sp)
200121ec:	c89e                	sw	t2,80(sp)
200121ee:	c6a2                	sw	s0,76(sp)
200121f0:	c4aa                	sw	a0,72(sp)
200121f2:	c2ae                	sw	a1,68(sp)
200121f4:	c0b2                	sw	a2,64(sp)
200121f6:	de36                	sw	a3,60(sp)
200121f8:	dc3a                	sw	a4,56(sp)
200121fa:	da3e                	sw	a5,52(sp)
200121fc:	d842                	sw	a6,48(sp)
200121fe:	d646                	sw	a7,44(sp)
20012200:	d472                	sw	t3,40(sp)
20012202:	d276                	sw	t4,36(sp)
20012204:	d07a                	sw	t5,32(sp)
20012206:	ce7e                	sw	t6,28(sp)
20012208:	1080                	addi	s0,sp,96
E:/GitHub/HiFive01-RevB/FS_workspace/002_LED_Blink_All/freedom-metal/src/drivers/riscv_cpu.c:240
    __METAL_IRQ_VECTOR_HANDLER(METAL_INTERRUPT_ID_LC5);
2001220a:	ef2ff0ef          	jal	ra,200118fc <__metal_myhart_id>
2001220e:	872a                	mv	a4,a0
20012210:	800017b7          	lui	a5,0x80001
20012214:	070a                	slli	a4,a4,0x2
20012216:	a7078793          	addi	a5,a5,-1424 # 80000a70 <__global_pointer$+0xfffff800>
2001221a:	97ba                	add	a5,a5,a4
2001221c:	439c                	lw	a5,0(a5)
2001221e:	faf42623          	sw	a5,-84(s0)
20012222:	fac42783          	lw	a5,-84(s0)
20012226:	c78d                	beqz	a5,20012250 <metal_lc5_interrupt_vector_handler+0x6c>
E:/GitHub/HiFive01-RevB/FS_workspace/002_LED_Blink_All/freedom-metal/src/drivers/riscv_cpu.c:240 (discriminator 1)
20012228:	fac42503          	lw	a0,-84(s0)
2001222c:	e4aff0ef          	jal	ra,20011876 <__metal_driver_cpu_interrupt_controller>
20012230:	faa42423          	sw	a0,-88(s0)
20012234:	fa842783          	lw	a5,-88(s0)
20012238:	2907a783          	lw	a5,656(a5)
2001223c:	faf42223          	sw	a5,-92(s0)
20012240:	fa842783          	lw	a5,-88(s0)
20012244:	2887a783          	lw	a5,648(a5)
20012248:	fa442583          	lw	a1,-92(s0)
2001224c:	4555                	li	a0,21
2001224e:	9782                	jalr	a5
E:/GitHub/HiFive01-RevB/FS_workspace/002_LED_Blink_All/freedom-metal/src/drivers/riscv_cpu.c:241
}
20012250:	0001                	nop
20012252:	40f6                	lw	ra,92(sp)
20012254:	42e6                	lw	t0,88(sp)
20012256:	4356                	lw	t1,84(sp)
20012258:	43c6                	lw	t2,80(sp)
2001225a:	4436                	lw	s0,76(sp)
2001225c:	4526                	lw	a0,72(sp)
2001225e:	4596                	lw	a1,68(sp)
20012260:	4606                	lw	a2,64(sp)
20012262:	56f2                	lw	a3,60(sp)
20012264:	5762                	lw	a4,56(sp)
20012266:	57d2                	lw	a5,52(sp)
20012268:	5842                	lw	a6,48(sp)
2001226a:	58b2                	lw	a7,44(sp)
2001226c:	5e22                	lw	t3,40(sp)
2001226e:	5e92                	lw	t4,36(sp)
20012270:	5f02                	lw	t5,32(sp)
20012272:	4ff2                	lw	t6,28(sp)
20012274:	6125                	addi	sp,sp,96
20012276:	30200073          	mret

2001227a <metal_lc6_interrupt_vector_handler>:
metal_lc6_interrupt_vector_handler():
E:/GitHub/HiFive01-RevB/FS_workspace/002_LED_Blink_All/freedom-metal/src/drivers/riscv_cpu.c:244

/* The metal_lc6_interrupt_vector_handler() function can be redefined. */
void __attribute__((weak, interrupt)) metal_lc6_interrupt_vector_handler(void) {
2001227a:	711d                	addi	sp,sp,-96
2001227c:	ce86                	sw	ra,92(sp)
2001227e:	cc96                	sw	t0,88(sp)
20012280:	ca9a                	sw	t1,84(sp)
20012282:	c89e                	sw	t2,80(sp)
20012284:	c6a2                	sw	s0,76(sp)
20012286:	c4aa                	sw	a0,72(sp)
20012288:	c2ae                	sw	a1,68(sp)
2001228a:	c0b2                	sw	a2,64(sp)
2001228c:	de36                	sw	a3,60(sp)
2001228e:	dc3a                	sw	a4,56(sp)
20012290:	da3e                	sw	a5,52(sp)
20012292:	d842                	sw	a6,48(sp)
20012294:	d646                	sw	a7,44(sp)
20012296:	d472                	sw	t3,40(sp)
20012298:	d276                	sw	t4,36(sp)
2001229a:	d07a                	sw	t5,32(sp)
2001229c:	ce7e                	sw	t6,28(sp)
2001229e:	1080                	addi	s0,sp,96
E:/GitHub/HiFive01-RevB/FS_workspace/002_LED_Blink_All/freedom-metal/src/drivers/riscv_cpu.c:245
    __METAL_IRQ_VECTOR_HANDLER(METAL_INTERRUPT_ID_LC6);
200122a0:	e5cff0ef          	jal	ra,200118fc <__metal_myhart_id>
200122a4:	872a                	mv	a4,a0
200122a6:	800017b7          	lui	a5,0x80001
200122aa:	070a                	slli	a4,a4,0x2
200122ac:	a7078793          	addi	a5,a5,-1424 # 80000a70 <__global_pointer$+0xfffff800>
200122b0:	97ba                	add	a5,a5,a4
200122b2:	439c                	lw	a5,0(a5)
200122b4:	faf42623          	sw	a5,-84(s0)
200122b8:	fac42783          	lw	a5,-84(s0)
200122bc:	c78d                	beqz	a5,200122e6 <metal_lc6_interrupt_vector_handler+0x6c>
E:/GitHub/HiFive01-RevB/FS_workspace/002_LED_Blink_All/freedom-metal/src/drivers/riscv_cpu.c:245 (discriminator 1)
200122be:	fac42503          	lw	a0,-84(s0)
200122c2:	db4ff0ef          	jal	ra,20011876 <__metal_driver_cpu_interrupt_controller>
200122c6:	faa42423          	sw	a0,-88(s0)
200122ca:	fa842783          	lw	a5,-88(s0)
200122ce:	2a87a783          	lw	a5,680(a5)
200122d2:	faf42223          	sw	a5,-92(s0)
200122d6:	fa842783          	lw	a5,-88(s0)
200122da:	2a07a783          	lw	a5,672(a5)
200122de:	fa442583          	lw	a1,-92(s0)
200122e2:	4559                	li	a0,22
200122e4:	9782                	jalr	a5
E:/GitHub/HiFive01-RevB/FS_workspace/002_LED_Blink_All/freedom-metal/src/drivers/riscv_cpu.c:246
}
200122e6:	0001                	nop
200122e8:	40f6                	lw	ra,92(sp)
200122ea:	42e6                	lw	t0,88(sp)
200122ec:	4356                	lw	t1,84(sp)
200122ee:	43c6                	lw	t2,80(sp)
200122f0:	4436                	lw	s0,76(sp)
200122f2:	4526                	lw	a0,72(sp)
200122f4:	4596                	lw	a1,68(sp)
200122f6:	4606                	lw	a2,64(sp)
200122f8:	56f2                	lw	a3,60(sp)
200122fa:	5762                	lw	a4,56(sp)
200122fc:	57d2                	lw	a5,52(sp)
200122fe:	5842                	lw	a6,48(sp)
20012300:	58b2                	lw	a7,44(sp)
20012302:	5e22                	lw	t3,40(sp)
20012304:	5e92                	lw	t4,36(sp)
20012306:	5f02                	lw	t5,32(sp)
20012308:	4ff2                	lw	t6,28(sp)
2001230a:	6125                	addi	sp,sp,96
2001230c:	30200073          	mret

20012310 <metal_lc7_interrupt_vector_handler>:
metal_lc7_interrupt_vector_handler():
E:/GitHub/HiFive01-RevB/FS_workspace/002_LED_Blink_All/freedom-metal/src/drivers/riscv_cpu.c:249

/* The metal_lc7_interrupt_vector_handler() function can be redefined. */
void __attribute__((weak, interrupt)) metal_lc7_interrupt_vector_handler(void) {
20012310:	711d                	addi	sp,sp,-96
20012312:	ce86                	sw	ra,92(sp)
20012314:	cc96                	sw	t0,88(sp)
20012316:	ca9a                	sw	t1,84(sp)
20012318:	c89e                	sw	t2,80(sp)
2001231a:	c6a2                	sw	s0,76(sp)
2001231c:	c4aa                	sw	a0,72(sp)
2001231e:	c2ae                	sw	a1,68(sp)
20012320:	c0b2                	sw	a2,64(sp)
20012322:	de36                	sw	a3,60(sp)
20012324:	dc3a                	sw	a4,56(sp)
20012326:	da3e                	sw	a5,52(sp)
20012328:	d842                	sw	a6,48(sp)
2001232a:	d646                	sw	a7,44(sp)
2001232c:	d472                	sw	t3,40(sp)
2001232e:	d276                	sw	t4,36(sp)
20012330:	d07a                	sw	t5,32(sp)
20012332:	ce7e                	sw	t6,28(sp)
20012334:	1080                	addi	s0,sp,96
E:/GitHub/HiFive01-RevB/FS_workspace/002_LED_Blink_All/freedom-metal/src/drivers/riscv_cpu.c:250
    __METAL_IRQ_VECTOR_HANDLER(METAL_INTERRUPT_ID_LC7);
20012336:	dc6ff0ef          	jal	ra,200118fc <__metal_myhart_id>
2001233a:	872a                	mv	a4,a0
2001233c:	800017b7          	lui	a5,0x80001
20012340:	070a                	slli	a4,a4,0x2
20012342:	a7078793          	addi	a5,a5,-1424 # 80000a70 <__global_pointer$+0xfffff800>
20012346:	97ba                	add	a5,a5,a4
20012348:	439c                	lw	a5,0(a5)
2001234a:	faf42623          	sw	a5,-84(s0)
2001234e:	fac42783          	lw	a5,-84(s0)
20012352:	c78d                	beqz	a5,2001237c <metal_lc7_interrupt_vector_handler+0x6c>
E:/GitHub/HiFive01-RevB/FS_workspace/002_LED_Blink_All/freedom-metal/src/drivers/riscv_cpu.c:250 (discriminator 1)
20012354:	fac42503          	lw	a0,-84(s0)
20012358:	d1eff0ef          	jal	ra,20011876 <__metal_driver_cpu_interrupt_controller>
2001235c:	faa42423          	sw	a0,-88(s0)
20012360:	fa842783          	lw	a5,-88(s0)
20012364:	2c07a783          	lw	a5,704(a5)
20012368:	faf42223          	sw	a5,-92(s0)
2001236c:	fa842783          	lw	a5,-88(s0)
20012370:	2b87a783          	lw	a5,696(a5)
20012374:	fa442583          	lw	a1,-92(s0)
20012378:	455d                	li	a0,23
2001237a:	9782                	jalr	a5
E:/GitHub/HiFive01-RevB/FS_workspace/002_LED_Blink_All/freedom-metal/src/drivers/riscv_cpu.c:251
}
2001237c:	0001                	nop
2001237e:	40f6                	lw	ra,92(sp)
20012380:	42e6                	lw	t0,88(sp)
20012382:	4356                	lw	t1,84(sp)
20012384:	43c6                	lw	t2,80(sp)
20012386:	4436                	lw	s0,76(sp)
20012388:	4526                	lw	a0,72(sp)
2001238a:	4596                	lw	a1,68(sp)
2001238c:	4606                	lw	a2,64(sp)
2001238e:	56f2                	lw	a3,60(sp)
20012390:	5762                	lw	a4,56(sp)
20012392:	57d2                	lw	a5,52(sp)
20012394:	5842                	lw	a6,48(sp)
20012396:	58b2                	lw	a7,44(sp)
20012398:	5e22                	lw	t3,40(sp)
2001239a:	5e92                	lw	t4,36(sp)
2001239c:	5f02                	lw	t5,32(sp)
2001239e:	4ff2                	lw	t6,28(sp)
200123a0:	6125                	addi	sp,sp,96
200123a2:	30200073          	mret

200123a6 <metal_lc8_interrupt_vector_handler>:
metal_lc8_interrupt_vector_handler():
E:/GitHub/HiFive01-RevB/FS_workspace/002_LED_Blink_All/freedom-metal/src/drivers/riscv_cpu.c:254

/* The metal_lc8_interrupt_vector_handler() function can be redefined. */
void __attribute__((weak, interrupt)) metal_lc8_interrupt_vector_handler(void) {
200123a6:	711d                	addi	sp,sp,-96
200123a8:	ce86                	sw	ra,92(sp)
200123aa:	cc96                	sw	t0,88(sp)
200123ac:	ca9a                	sw	t1,84(sp)
200123ae:	c89e                	sw	t2,80(sp)
200123b0:	c6a2                	sw	s0,76(sp)
200123b2:	c4aa                	sw	a0,72(sp)
200123b4:	c2ae                	sw	a1,68(sp)
200123b6:	c0b2                	sw	a2,64(sp)
200123b8:	de36                	sw	a3,60(sp)
200123ba:	dc3a                	sw	a4,56(sp)
200123bc:	da3e                	sw	a5,52(sp)
200123be:	d842                	sw	a6,48(sp)
200123c0:	d646                	sw	a7,44(sp)
200123c2:	d472                	sw	t3,40(sp)
200123c4:	d276                	sw	t4,36(sp)
200123c6:	d07a                	sw	t5,32(sp)
200123c8:	ce7e                	sw	t6,28(sp)
200123ca:	1080                	addi	s0,sp,96
E:/GitHub/HiFive01-RevB/FS_workspace/002_LED_Blink_All/freedom-metal/src/drivers/riscv_cpu.c:255
    __METAL_IRQ_VECTOR_HANDLER(METAL_INTERRUPT_ID_LC8);
200123cc:	d30ff0ef          	jal	ra,200118fc <__metal_myhart_id>
200123d0:	872a                	mv	a4,a0
200123d2:	800017b7          	lui	a5,0x80001
200123d6:	070a                	slli	a4,a4,0x2
200123d8:	a7078793          	addi	a5,a5,-1424 # 80000a70 <__global_pointer$+0xfffff800>
200123dc:	97ba                	add	a5,a5,a4
200123de:	439c                	lw	a5,0(a5)
200123e0:	faf42623          	sw	a5,-84(s0)
200123e4:	fac42783          	lw	a5,-84(s0)
200123e8:	c78d                	beqz	a5,20012412 <metal_lc8_interrupt_vector_handler+0x6c>
E:/GitHub/HiFive01-RevB/FS_workspace/002_LED_Blink_All/freedom-metal/src/drivers/riscv_cpu.c:255 (discriminator 1)
200123ea:	fac42503          	lw	a0,-84(s0)
200123ee:	c88ff0ef          	jal	ra,20011876 <__metal_driver_cpu_interrupt_controller>
200123f2:	faa42423          	sw	a0,-88(s0)
200123f6:	fa842783          	lw	a5,-88(s0)
200123fa:	2d87a783          	lw	a5,728(a5)
200123fe:	faf42223          	sw	a5,-92(s0)
20012402:	fa842783          	lw	a5,-88(s0)
20012406:	2d07a783          	lw	a5,720(a5)
2001240a:	fa442583          	lw	a1,-92(s0)
2001240e:	4561                	li	a0,24
20012410:	9782                	jalr	a5
E:/GitHub/HiFive01-RevB/FS_workspace/002_LED_Blink_All/freedom-metal/src/drivers/riscv_cpu.c:256
}
20012412:	0001                	nop
20012414:	40f6                	lw	ra,92(sp)
20012416:	42e6                	lw	t0,88(sp)
20012418:	4356                	lw	t1,84(sp)
2001241a:	43c6                	lw	t2,80(sp)
2001241c:	4436                	lw	s0,76(sp)
2001241e:	4526                	lw	a0,72(sp)
20012420:	4596                	lw	a1,68(sp)
20012422:	4606                	lw	a2,64(sp)
20012424:	56f2                	lw	a3,60(sp)
20012426:	5762                	lw	a4,56(sp)
20012428:	57d2                	lw	a5,52(sp)
2001242a:	5842                	lw	a6,48(sp)
2001242c:	58b2                	lw	a7,44(sp)
2001242e:	5e22                	lw	t3,40(sp)
20012430:	5e92                	lw	t4,36(sp)
20012432:	5f02                	lw	t5,32(sp)
20012434:	4ff2                	lw	t6,28(sp)
20012436:	6125                	addi	sp,sp,96
20012438:	30200073          	mret

2001243c <metal_lc9_interrupt_vector_handler>:
metal_lc9_interrupt_vector_handler():
E:/GitHub/HiFive01-RevB/FS_workspace/002_LED_Blink_All/freedom-metal/src/drivers/riscv_cpu.c:259

/* The metal_lc9_interrupt_vector_handler() function can be redefined. */
void __attribute__((weak, interrupt)) metal_lc9_interrupt_vector_handler(void) {
2001243c:	711d                	addi	sp,sp,-96
2001243e:	ce86                	sw	ra,92(sp)
20012440:	cc96                	sw	t0,88(sp)
20012442:	ca9a                	sw	t1,84(sp)
20012444:	c89e                	sw	t2,80(sp)
20012446:	c6a2                	sw	s0,76(sp)
20012448:	c4aa                	sw	a0,72(sp)
2001244a:	c2ae                	sw	a1,68(sp)
2001244c:	c0b2                	sw	a2,64(sp)
2001244e:	de36                	sw	a3,60(sp)
20012450:	dc3a                	sw	a4,56(sp)
20012452:	da3e                	sw	a5,52(sp)
20012454:	d842                	sw	a6,48(sp)
20012456:	d646                	sw	a7,44(sp)
20012458:	d472                	sw	t3,40(sp)
2001245a:	d276                	sw	t4,36(sp)
2001245c:	d07a                	sw	t5,32(sp)
2001245e:	ce7e                	sw	t6,28(sp)
20012460:	1080                	addi	s0,sp,96
E:/GitHub/HiFive01-RevB/FS_workspace/002_LED_Blink_All/freedom-metal/src/drivers/riscv_cpu.c:260
    __METAL_IRQ_VECTOR_HANDLER(METAL_INTERRUPT_ID_LC9);
20012462:	c9aff0ef          	jal	ra,200118fc <__metal_myhart_id>
20012466:	872a                	mv	a4,a0
20012468:	800017b7          	lui	a5,0x80001
2001246c:	070a                	slli	a4,a4,0x2
2001246e:	a7078793          	addi	a5,a5,-1424 # 80000a70 <__global_pointer$+0xfffff800>
20012472:	97ba                	add	a5,a5,a4
20012474:	439c                	lw	a5,0(a5)
20012476:	faf42623          	sw	a5,-84(s0)
2001247a:	fac42783          	lw	a5,-84(s0)
2001247e:	c78d                	beqz	a5,200124a8 <metal_lc9_interrupt_vector_handler+0x6c>
E:/GitHub/HiFive01-RevB/FS_workspace/002_LED_Blink_All/freedom-metal/src/drivers/riscv_cpu.c:260 (discriminator 1)
20012480:	fac42503          	lw	a0,-84(s0)
20012484:	bf2ff0ef          	jal	ra,20011876 <__metal_driver_cpu_interrupt_controller>
20012488:	faa42423          	sw	a0,-88(s0)
2001248c:	fa842783          	lw	a5,-88(s0)
20012490:	2f07a783          	lw	a5,752(a5)
20012494:	faf42223          	sw	a5,-92(s0)
20012498:	fa842783          	lw	a5,-88(s0)
2001249c:	2e87a783          	lw	a5,744(a5)
200124a0:	fa442583          	lw	a1,-92(s0)
200124a4:	4565                	li	a0,25
200124a6:	9782                	jalr	a5
E:/GitHub/HiFive01-RevB/FS_workspace/002_LED_Blink_All/freedom-metal/src/drivers/riscv_cpu.c:261
}
200124a8:	0001                	nop
200124aa:	40f6                	lw	ra,92(sp)
200124ac:	42e6                	lw	t0,88(sp)
200124ae:	4356                	lw	t1,84(sp)
200124b0:	43c6                	lw	t2,80(sp)
200124b2:	4436                	lw	s0,76(sp)
200124b4:	4526                	lw	a0,72(sp)
200124b6:	4596                	lw	a1,68(sp)
200124b8:	4606                	lw	a2,64(sp)
200124ba:	56f2                	lw	a3,60(sp)
200124bc:	5762                	lw	a4,56(sp)
200124be:	57d2                	lw	a5,52(sp)
200124c0:	5842                	lw	a6,48(sp)
200124c2:	58b2                	lw	a7,44(sp)
200124c4:	5e22                	lw	t3,40(sp)
200124c6:	5e92                	lw	t4,36(sp)
200124c8:	5f02                	lw	t5,32(sp)
200124ca:	4ff2                	lw	t6,28(sp)
200124cc:	6125                	addi	sp,sp,96
200124ce:	30200073          	mret

200124d2 <metal_lc10_interrupt_vector_handler>:
metal_lc10_interrupt_vector_handler():
E:/GitHub/HiFive01-RevB/FS_workspace/002_LED_Blink_All/freedom-metal/src/drivers/riscv_cpu.c:265

/* The metal_lc10_interrupt_vector_handler() function can be redefined. */
void __attribute__((weak, interrupt))
metal_lc10_interrupt_vector_handler(void) {
200124d2:	711d                	addi	sp,sp,-96
200124d4:	ce86                	sw	ra,92(sp)
200124d6:	cc96                	sw	t0,88(sp)
200124d8:	ca9a                	sw	t1,84(sp)
200124da:	c89e                	sw	t2,80(sp)
200124dc:	c6a2                	sw	s0,76(sp)
200124de:	c4aa                	sw	a0,72(sp)
200124e0:	c2ae                	sw	a1,68(sp)
200124e2:	c0b2                	sw	a2,64(sp)
200124e4:	de36                	sw	a3,60(sp)
200124e6:	dc3a                	sw	a4,56(sp)
200124e8:	da3e                	sw	a5,52(sp)
200124ea:	d842                	sw	a6,48(sp)
200124ec:	d646                	sw	a7,44(sp)
200124ee:	d472                	sw	t3,40(sp)
200124f0:	d276                	sw	t4,36(sp)
200124f2:	d07a                	sw	t5,32(sp)
200124f4:	ce7e                	sw	t6,28(sp)
200124f6:	1080                	addi	s0,sp,96
E:/GitHub/HiFive01-RevB/FS_workspace/002_LED_Blink_All/freedom-metal/src/drivers/riscv_cpu.c:266
    __METAL_IRQ_VECTOR_HANDLER(METAL_INTERRUPT_ID_LC10);
200124f8:	c04ff0ef          	jal	ra,200118fc <__metal_myhart_id>
200124fc:	872a                	mv	a4,a0
200124fe:	800017b7          	lui	a5,0x80001
20012502:	070a                	slli	a4,a4,0x2
20012504:	a7078793          	addi	a5,a5,-1424 # 80000a70 <__global_pointer$+0xfffff800>
20012508:	97ba                	add	a5,a5,a4
2001250a:	439c                	lw	a5,0(a5)
2001250c:	faf42623          	sw	a5,-84(s0)
20012510:	fac42783          	lw	a5,-84(s0)
20012514:	c78d                	beqz	a5,2001253e <metal_lc10_interrupt_vector_handler+0x6c>
E:/GitHub/HiFive01-RevB/FS_workspace/002_LED_Blink_All/freedom-metal/src/drivers/riscv_cpu.c:266 (discriminator 1)
20012516:	fac42503          	lw	a0,-84(s0)
2001251a:	b5cff0ef          	jal	ra,20011876 <__metal_driver_cpu_interrupt_controller>
2001251e:	faa42423          	sw	a0,-88(s0)
20012522:	fa842783          	lw	a5,-88(s0)
20012526:	3087a783          	lw	a5,776(a5)
2001252a:	faf42223          	sw	a5,-92(s0)
2001252e:	fa842783          	lw	a5,-88(s0)
20012532:	3007a783          	lw	a5,768(a5)
20012536:	fa442583          	lw	a1,-92(s0)
2001253a:	4569                	li	a0,26
2001253c:	9782                	jalr	a5
E:/GitHub/HiFive01-RevB/FS_workspace/002_LED_Blink_All/freedom-metal/src/drivers/riscv_cpu.c:267
}
2001253e:	0001                	nop
20012540:	40f6                	lw	ra,92(sp)
20012542:	42e6                	lw	t0,88(sp)
20012544:	4356                	lw	t1,84(sp)
20012546:	43c6                	lw	t2,80(sp)
20012548:	4436                	lw	s0,76(sp)
2001254a:	4526                	lw	a0,72(sp)
2001254c:	4596                	lw	a1,68(sp)
2001254e:	4606                	lw	a2,64(sp)
20012550:	56f2                	lw	a3,60(sp)
20012552:	5762                	lw	a4,56(sp)
20012554:	57d2                	lw	a5,52(sp)
20012556:	5842                	lw	a6,48(sp)
20012558:	58b2                	lw	a7,44(sp)
2001255a:	5e22                	lw	t3,40(sp)
2001255c:	5e92                	lw	t4,36(sp)
2001255e:	5f02                	lw	t5,32(sp)
20012560:	4ff2                	lw	t6,28(sp)
20012562:	6125                	addi	sp,sp,96
20012564:	30200073          	mret

20012568 <metal_lc11_interrupt_vector_handler>:
metal_lc11_interrupt_vector_handler():
E:/GitHub/HiFive01-RevB/FS_workspace/002_LED_Blink_All/freedom-metal/src/drivers/riscv_cpu.c:271

/* The metal_lc11_interrupt_vector_handler() function can be redefined. */
void __attribute__((weak, interrupt))
metal_lc11_interrupt_vector_handler(void) {
20012568:	711d                	addi	sp,sp,-96
2001256a:	ce86                	sw	ra,92(sp)
2001256c:	cc96                	sw	t0,88(sp)
2001256e:	ca9a                	sw	t1,84(sp)
20012570:	c89e                	sw	t2,80(sp)
20012572:	c6a2                	sw	s0,76(sp)
20012574:	c4aa                	sw	a0,72(sp)
20012576:	c2ae                	sw	a1,68(sp)
20012578:	c0b2                	sw	a2,64(sp)
2001257a:	de36                	sw	a3,60(sp)
2001257c:	dc3a                	sw	a4,56(sp)
2001257e:	da3e                	sw	a5,52(sp)
20012580:	d842                	sw	a6,48(sp)
20012582:	d646                	sw	a7,44(sp)
20012584:	d472                	sw	t3,40(sp)
20012586:	d276                	sw	t4,36(sp)
20012588:	d07a                	sw	t5,32(sp)
2001258a:	ce7e                	sw	t6,28(sp)
2001258c:	1080                	addi	s0,sp,96
E:/GitHub/HiFive01-RevB/FS_workspace/002_LED_Blink_All/freedom-metal/src/drivers/riscv_cpu.c:272
    __METAL_IRQ_VECTOR_HANDLER(METAL_INTERRUPT_ID_LC11);
2001258e:	b6eff0ef          	jal	ra,200118fc <__metal_myhart_id>
20012592:	872a                	mv	a4,a0
20012594:	800017b7          	lui	a5,0x80001
20012598:	070a                	slli	a4,a4,0x2
2001259a:	a7078793          	addi	a5,a5,-1424 # 80000a70 <__global_pointer$+0xfffff800>
2001259e:	97ba                	add	a5,a5,a4
200125a0:	439c                	lw	a5,0(a5)
200125a2:	faf42623          	sw	a5,-84(s0)
200125a6:	fac42783          	lw	a5,-84(s0)
200125aa:	c78d                	beqz	a5,200125d4 <metal_lc11_interrupt_vector_handler+0x6c>
E:/GitHub/HiFive01-RevB/FS_workspace/002_LED_Blink_All/freedom-metal/src/drivers/riscv_cpu.c:272 (discriminator 1)
200125ac:	fac42503          	lw	a0,-84(s0)
200125b0:	ac6ff0ef          	jal	ra,20011876 <__metal_driver_cpu_interrupt_controller>
200125b4:	faa42423          	sw	a0,-88(s0)
200125b8:	fa842783          	lw	a5,-88(s0)
200125bc:	3207a783          	lw	a5,800(a5)
200125c0:	faf42223          	sw	a5,-92(s0)
200125c4:	fa842783          	lw	a5,-88(s0)
200125c8:	3187a783          	lw	a5,792(a5)
200125cc:	fa442583          	lw	a1,-92(s0)
200125d0:	456d                	li	a0,27
200125d2:	9782                	jalr	a5
E:/GitHub/HiFive01-RevB/FS_workspace/002_LED_Blink_All/freedom-metal/src/drivers/riscv_cpu.c:273
}
200125d4:	0001                	nop
200125d6:	40f6                	lw	ra,92(sp)
200125d8:	42e6                	lw	t0,88(sp)
200125da:	4356                	lw	t1,84(sp)
200125dc:	43c6                	lw	t2,80(sp)
200125de:	4436                	lw	s0,76(sp)
200125e0:	4526                	lw	a0,72(sp)
200125e2:	4596                	lw	a1,68(sp)
200125e4:	4606                	lw	a2,64(sp)
200125e6:	56f2                	lw	a3,60(sp)
200125e8:	5762                	lw	a4,56(sp)
200125ea:	57d2                	lw	a5,52(sp)
200125ec:	5842                	lw	a6,48(sp)
200125ee:	58b2                	lw	a7,44(sp)
200125f0:	5e22                	lw	t3,40(sp)
200125f2:	5e92                	lw	t4,36(sp)
200125f4:	5f02                	lw	t5,32(sp)
200125f6:	4ff2                	lw	t6,28(sp)
200125f8:	6125                	addi	sp,sp,96
200125fa:	30200073          	mret

200125fe <metal_lc12_interrupt_vector_handler>:
metal_lc12_interrupt_vector_handler():
E:/GitHub/HiFive01-RevB/FS_workspace/002_LED_Blink_All/freedom-metal/src/drivers/riscv_cpu.c:277

/* The metal_lc12_interrupt_vector_handler() function can be redefined. */
void __attribute__((weak, interrupt))
metal_lc12_interrupt_vector_handler(void) {
200125fe:	711d                	addi	sp,sp,-96
20012600:	ce86                	sw	ra,92(sp)
20012602:	cc96                	sw	t0,88(sp)
20012604:	ca9a                	sw	t1,84(sp)
20012606:	c89e                	sw	t2,80(sp)
20012608:	c6a2                	sw	s0,76(sp)
2001260a:	c4aa                	sw	a0,72(sp)
2001260c:	c2ae                	sw	a1,68(sp)
2001260e:	c0b2                	sw	a2,64(sp)
20012610:	de36                	sw	a3,60(sp)
20012612:	dc3a                	sw	a4,56(sp)
20012614:	da3e                	sw	a5,52(sp)
20012616:	d842                	sw	a6,48(sp)
20012618:	d646                	sw	a7,44(sp)
2001261a:	d472                	sw	t3,40(sp)
2001261c:	d276                	sw	t4,36(sp)
2001261e:	d07a                	sw	t5,32(sp)
20012620:	ce7e                	sw	t6,28(sp)
20012622:	1080                	addi	s0,sp,96
E:/GitHub/HiFive01-RevB/FS_workspace/002_LED_Blink_All/freedom-metal/src/drivers/riscv_cpu.c:278
    __METAL_IRQ_VECTOR_HANDLER(METAL_INTERRUPT_ID_LC12);
20012624:	ad8ff0ef          	jal	ra,200118fc <__metal_myhart_id>
20012628:	872a                	mv	a4,a0
2001262a:	800017b7          	lui	a5,0x80001
2001262e:	070a                	slli	a4,a4,0x2
20012630:	a7078793          	addi	a5,a5,-1424 # 80000a70 <__global_pointer$+0xfffff800>
20012634:	97ba                	add	a5,a5,a4
20012636:	439c                	lw	a5,0(a5)
20012638:	faf42623          	sw	a5,-84(s0)
2001263c:	fac42783          	lw	a5,-84(s0)
20012640:	c78d                	beqz	a5,2001266a <metal_lc12_interrupt_vector_handler+0x6c>
E:/GitHub/HiFive01-RevB/FS_workspace/002_LED_Blink_All/freedom-metal/src/drivers/riscv_cpu.c:278 (discriminator 1)
20012642:	fac42503          	lw	a0,-84(s0)
20012646:	a30ff0ef          	jal	ra,20011876 <__metal_driver_cpu_interrupt_controller>
2001264a:	faa42423          	sw	a0,-88(s0)
2001264e:	fa842783          	lw	a5,-88(s0)
20012652:	3387a783          	lw	a5,824(a5)
20012656:	faf42223          	sw	a5,-92(s0)
2001265a:	fa842783          	lw	a5,-88(s0)
2001265e:	3307a783          	lw	a5,816(a5)
20012662:	fa442583          	lw	a1,-92(s0)
20012666:	4571                	li	a0,28
20012668:	9782                	jalr	a5
E:/GitHub/HiFive01-RevB/FS_workspace/002_LED_Blink_All/freedom-metal/src/drivers/riscv_cpu.c:279
}
2001266a:	0001                	nop
2001266c:	40f6                	lw	ra,92(sp)
2001266e:	42e6                	lw	t0,88(sp)
20012670:	4356                	lw	t1,84(sp)
20012672:	43c6                	lw	t2,80(sp)
20012674:	4436                	lw	s0,76(sp)
20012676:	4526                	lw	a0,72(sp)
20012678:	4596                	lw	a1,68(sp)
2001267a:	4606                	lw	a2,64(sp)
2001267c:	56f2                	lw	a3,60(sp)
2001267e:	5762                	lw	a4,56(sp)
20012680:	57d2                	lw	a5,52(sp)
20012682:	5842                	lw	a6,48(sp)
20012684:	58b2                	lw	a7,44(sp)
20012686:	5e22                	lw	t3,40(sp)
20012688:	5e92                	lw	t4,36(sp)
2001268a:	5f02                	lw	t5,32(sp)
2001268c:	4ff2                	lw	t6,28(sp)
2001268e:	6125                	addi	sp,sp,96
20012690:	30200073          	mret

20012694 <metal_lc13_interrupt_vector_handler>:
metal_lc13_interrupt_vector_handler():
E:/GitHub/HiFive01-RevB/FS_workspace/002_LED_Blink_All/freedom-metal/src/drivers/riscv_cpu.c:283

/* The metal_lc13_interrupt_vector_handler() function can be redefined. */
void __attribute__((weak, interrupt))
metal_lc13_interrupt_vector_handler(void) {
20012694:	711d                	addi	sp,sp,-96
20012696:	ce86                	sw	ra,92(sp)
20012698:	cc96                	sw	t0,88(sp)
2001269a:	ca9a                	sw	t1,84(sp)
2001269c:	c89e                	sw	t2,80(sp)
2001269e:	c6a2                	sw	s0,76(sp)
200126a0:	c4aa                	sw	a0,72(sp)
200126a2:	c2ae                	sw	a1,68(sp)
200126a4:	c0b2                	sw	a2,64(sp)
200126a6:	de36                	sw	a3,60(sp)
200126a8:	dc3a                	sw	a4,56(sp)
200126aa:	da3e                	sw	a5,52(sp)
200126ac:	d842                	sw	a6,48(sp)
200126ae:	d646                	sw	a7,44(sp)
200126b0:	d472                	sw	t3,40(sp)
200126b2:	d276                	sw	t4,36(sp)
200126b4:	d07a                	sw	t5,32(sp)
200126b6:	ce7e                	sw	t6,28(sp)
200126b8:	1080                	addi	s0,sp,96
E:/GitHub/HiFive01-RevB/FS_workspace/002_LED_Blink_All/freedom-metal/src/drivers/riscv_cpu.c:284
    __METAL_IRQ_VECTOR_HANDLER(METAL_INTERRUPT_ID_LC13);
200126ba:	a42ff0ef          	jal	ra,200118fc <__metal_myhart_id>
200126be:	872a                	mv	a4,a0
200126c0:	800017b7          	lui	a5,0x80001
200126c4:	070a                	slli	a4,a4,0x2
200126c6:	a7078793          	addi	a5,a5,-1424 # 80000a70 <__global_pointer$+0xfffff800>
200126ca:	97ba                	add	a5,a5,a4
200126cc:	439c                	lw	a5,0(a5)
200126ce:	faf42623          	sw	a5,-84(s0)
200126d2:	fac42783          	lw	a5,-84(s0)
200126d6:	c78d                	beqz	a5,20012700 <metal_lc13_interrupt_vector_handler+0x6c>
E:/GitHub/HiFive01-RevB/FS_workspace/002_LED_Blink_All/freedom-metal/src/drivers/riscv_cpu.c:284 (discriminator 1)
200126d8:	fac42503          	lw	a0,-84(s0)
200126dc:	99aff0ef          	jal	ra,20011876 <__metal_driver_cpu_interrupt_controller>
200126e0:	faa42423          	sw	a0,-88(s0)
200126e4:	fa842783          	lw	a5,-88(s0)
200126e8:	3507a783          	lw	a5,848(a5)
200126ec:	faf42223          	sw	a5,-92(s0)
200126f0:	fa842783          	lw	a5,-88(s0)
200126f4:	3487a783          	lw	a5,840(a5)
200126f8:	fa442583          	lw	a1,-92(s0)
200126fc:	4575                	li	a0,29
200126fe:	9782                	jalr	a5
E:/GitHub/HiFive01-RevB/FS_workspace/002_LED_Blink_All/freedom-metal/src/drivers/riscv_cpu.c:285
}
20012700:	0001                	nop
20012702:	40f6                	lw	ra,92(sp)
20012704:	42e6                	lw	t0,88(sp)
20012706:	4356                	lw	t1,84(sp)
20012708:	43c6                	lw	t2,80(sp)
2001270a:	4436                	lw	s0,76(sp)
2001270c:	4526                	lw	a0,72(sp)
2001270e:	4596                	lw	a1,68(sp)
20012710:	4606                	lw	a2,64(sp)
20012712:	56f2                	lw	a3,60(sp)
20012714:	5762                	lw	a4,56(sp)
20012716:	57d2                	lw	a5,52(sp)
20012718:	5842                	lw	a6,48(sp)
2001271a:	58b2                	lw	a7,44(sp)
2001271c:	5e22                	lw	t3,40(sp)
2001271e:	5e92                	lw	t4,36(sp)
20012720:	5f02                	lw	t5,32(sp)
20012722:	4ff2                	lw	t6,28(sp)
20012724:	6125                	addi	sp,sp,96
20012726:	30200073          	mret

2001272a <metal_lc14_interrupt_vector_handler>:
metal_lc14_interrupt_vector_handler():
E:/GitHub/HiFive01-RevB/FS_workspace/002_LED_Blink_All/freedom-metal/src/drivers/riscv_cpu.c:289

/* The metal_lc14_interrupt_vector_handler() function can be redefined. */
void __attribute__((weak, interrupt))
metal_lc14_interrupt_vector_handler(void) {
2001272a:	711d                	addi	sp,sp,-96
2001272c:	ce86                	sw	ra,92(sp)
2001272e:	cc96                	sw	t0,88(sp)
20012730:	ca9a                	sw	t1,84(sp)
20012732:	c89e                	sw	t2,80(sp)
20012734:	c6a2                	sw	s0,76(sp)
20012736:	c4aa                	sw	a0,72(sp)
20012738:	c2ae                	sw	a1,68(sp)
2001273a:	c0b2                	sw	a2,64(sp)
2001273c:	de36                	sw	a3,60(sp)
2001273e:	dc3a                	sw	a4,56(sp)
20012740:	da3e                	sw	a5,52(sp)
20012742:	d842                	sw	a6,48(sp)
20012744:	d646                	sw	a7,44(sp)
20012746:	d472                	sw	t3,40(sp)
20012748:	d276                	sw	t4,36(sp)
2001274a:	d07a                	sw	t5,32(sp)
2001274c:	ce7e                	sw	t6,28(sp)
2001274e:	1080                	addi	s0,sp,96
E:/GitHub/HiFive01-RevB/FS_workspace/002_LED_Blink_All/freedom-metal/src/drivers/riscv_cpu.c:290
    __METAL_IRQ_VECTOR_HANDLER(METAL_INTERRUPT_ID_LC14);
20012750:	9acff0ef          	jal	ra,200118fc <__metal_myhart_id>
20012754:	872a                	mv	a4,a0
20012756:	800017b7          	lui	a5,0x80001
2001275a:	070a                	slli	a4,a4,0x2
2001275c:	a7078793          	addi	a5,a5,-1424 # 80000a70 <__global_pointer$+0xfffff800>
20012760:	97ba                	add	a5,a5,a4
20012762:	439c                	lw	a5,0(a5)
20012764:	faf42623          	sw	a5,-84(s0)
20012768:	fac42783          	lw	a5,-84(s0)
2001276c:	c78d                	beqz	a5,20012796 <metal_lc14_interrupt_vector_handler+0x6c>
E:/GitHub/HiFive01-RevB/FS_workspace/002_LED_Blink_All/freedom-metal/src/drivers/riscv_cpu.c:290 (discriminator 1)
2001276e:	fac42503          	lw	a0,-84(s0)
20012772:	904ff0ef          	jal	ra,20011876 <__metal_driver_cpu_interrupt_controller>
20012776:	faa42423          	sw	a0,-88(s0)
2001277a:	fa842783          	lw	a5,-88(s0)
2001277e:	3687a783          	lw	a5,872(a5)
20012782:	faf42223          	sw	a5,-92(s0)
20012786:	fa842783          	lw	a5,-88(s0)
2001278a:	3607a783          	lw	a5,864(a5)
2001278e:	fa442583          	lw	a1,-92(s0)
20012792:	4579                	li	a0,30
20012794:	9782                	jalr	a5
E:/GitHub/HiFive01-RevB/FS_workspace/002_LED_Blink_All/freedom-metal/src/drivers/riscv_cpu.c:291
}
20012796:	0001                	nop
20012798:	40f6                	lw	ra,92(sp)
2001279a:	42e6                	lw	t0,88(sp)
2001279c:	4356                	lw	t1,84(sp)
2001279e:	43c6                	lw	t2,80(sp)
200127a0:	4436                	lw	s0,76(sp)
200127a2:	4526                	lw	a0,72(sp)
200127a4:	4596                	lw	a1,68(sp)
200127a6:	4606                	lw	a2,64(sp)
200127a8:	56f2                	lw	a3,60(sp)
200127aa:	5762                	lw	a4,56(sp)
200127ac:	57d2                	lw	a5,52(sp)
200127ae:	5842                	lw	a6,48(sp)
200127b0:	58b2                	lw	a7,44(sp)
200127b2:	5e22                	lw	t3,40(sp)
200127b4:	5e92                	lw	t4,36(sp)
200127b6:	5f02                	lw	t5,32(sp)
200127b8:	4ff2                	lw	t6,28(sp)
200127ba:	6125                	addi	sp,sp,96
200127bc:	30200073          	mret

200127c0 <metal_lc15_interrupt_vector_handler>:
metal_lc15_interrupt_vector_handler():
E:/GitHub/HiFive01-RevB/FS_workspace/002_LED_Blink_All/freedom-metal/src/drivers/riscv_cpu.c:295

/* The metal_lc15_interrupt_vector_handler() function can be redefined. */
void __attribute__((weak, interrupt))
metal_lc15_interrupt_vector_handler(void) {
200127c0:	711d                	addi	sp,sp,-96
200127c2:	ce86                	sw	ra,92(sp)
200127c4:	cc96                	sw	t0,88(sp)
200127c6:	ca9a                	sw	t1,84(sp)
200127c8:	c89e                	sw	t2,80(sp)
200127ca:	c6a2                	sw	s0,76(sp)
200127cc:	c4aa                	sw	a0,72(sp)
200127ce:	c2ae                	sw	a1,68(sp)
200127d0:	c0b2                	sw	a2,64(sp)
200127d2:	de36                	sw	a3,60(sp)
200127d4:	dc3a                	sw	a4,56(sp)
200127d6:	da3e                	sw	a5,52(sp)
200127d8:	d842                	sw	a6,48(sp)
200127da:	d646                	sw	a7,44(sp)
200127dc:	d472                	sw	t3,40(sp)
200127de:	d276                	sw	t4,36(sp)
200127e0:	d07a                	sw	t5,32(sp)
200127e2:	ce7e                	sw	t6,28(sp)
200127e4:	1080                	addi	s0,sp,96
E:/GitHub/HiFive01-RevB/FS_workspace/002_LED_Blink_All/freedom-metal/src/drivers/riscv_cpu.c:296
    __METAL_IRQ_VECTOR_HANDLER(METAL_INTERRUPT_ID_LC15);
200127e6:	916ff0ef          	jal	ra,200118fc <__metal_myhart_id>
200127ea:	872a                	mv	a4,a0
200127ec:	800017b7          	lui	a5,0x80001
200127f0:	070a                	slli	a4,a4,0x2
200127f2:	a7078793          	addi	a5,a5,-1424 # 80000a70 <__global_pointer$+0xfffff800>
200127f6:	97ba                	add	a5,a5,a4
200127f8:	439c                	lw	a5,0(a5)
200127fa:	faf42623          	sw	a5,-84(s0)
200127fe:	fac42783          	lw	a5,-84(s0)
20012802:	c78d                	beqz	a5,2001282c <metal_lc15_interrupt_vector_handler+0x6c>
E:/GitHub/HiFive01-RevB/FS_workspace/002_LED_Blink_All/freedom-metal/src/drivers/riscv_cpu.c:296 (discriminator 1)
20012804:	fac42503          	lw	a0,-84(s0)
20012808:	86eff0ef          	jal	ra,20011876 <__metal_driver_cpu_interrupt_controller>
2001280c:	faa42423          	sw	a0,-88(s0)
20012810:	fa842783          	lw	a5,-88(s0)
20012814:	3807a783          	lw	a5,896(a5)
20012818:	faf42223          	sw	a5,-92(s0)
2001281c:	fa842783          	lw	a5,-88(s0)
20012820:	3787a783          	lw	a5,888(a5)
20012824:	fa442583          	lw	a1,-92(s0)
20012828:	457d                	li	a0,31
2001282a:	9782                	jalr	a5
E:/GitHub/HiFive01-RevB/FS_workspace/002_LED_Blink_All/freedom-metal/src/drivers/riscv_cpu.c:297
}
2001282c:	0001                	nop
2001282e:	40f6                	lw	ra,92(sp)
20012830:	42e6                	lw	t0,88(sp)
20012832:	4356                	lw	t1,84(sp)
20012834:	43c6                	lw	t2,80(sp)
20012836:	4436                	lw	s0,76(sp)
20012838:	4526                	lw	a0,72(sp)
2001283a:	4596                	lw	a1,68(sp)
2001283c:	4606                	lw	a2,64(sp)
2001283e:	56f2                	lw	a3,60(sp)
20012840:	5762                	lw	a4,56(sp)
20012842:	57d2                	lw	a5,52(sp)
20012844:	5842                	lw	a6,48(sp)
20012846:	58b2                	lw	a7,44(sp)
20012848:	5e22                	lw	t3,40(sp)
2001284a:	5e92                	lw	t4,36(sp)
2001284c:	5f02                	lw	t5,32(sp)
2001284e:	4ff2                	lw	t6,28(sp)
20012850:	6125                	addi	sp,sp,96
20012852:	30200073          	mret

20012856 <__metal_controller_interrupt_vector_mode>:
__metal_controller_interrupt_vector_mode():
E:/GitHub/HiFive01-RevB/FS_workspace/002_LED_Blink_All/freedom-metal/src/drivers/riscv_cpu.c:299

metal_vector_mode __metal_controller_interrupt_vector_mode(void) {
20012856:	1101                	addi	sp,sp,-32
20012858:	ce22                	sw	s0,28(sp)
2001285a:	1000                	addi	s0,sp,32
E:/GitHub/HiFive01-RevB/FS_workspace/002_LED_Blink_All/freedom-metal/src/drivers/riscv_cpu.c:302
    uintptr_t val;

    __asm__ volatile("csrr %0, mtvec" : "=r"(val));
2001285c:	305027f3          	csrr	a5,mtvec
20012860:	fef42623          	sw	a5,-20(s0)
E:/GitHub/HiFive01-RevB/FS_workspace/002_LED_Blink_All/freedom-metal/src/drivers/riscv_cpu.c:303
    val &= METAL_MTVEC_MASK;
20012864:	fec42783          	lw	a5,-20(s0)
20012868:	03f7f793          	andi	a5,a5,63
2001286c:	fef42623          	sw	a5,-20(s0)
E:/GitHub/HiFive01-RevB/FS_workspace/002_LED_Blink_All/freedom-metal/src/drivers/riscv_cpu.c:305

    switch (val) {
20012870:	fec42703          	lw	a4,-20(s0)
20012874:	478d                	li	a5,3
20012876:	02f70363          	beq	a4,a5,2001289c <__metal_controller_interrupt_vector_mode+0x46>
2001287a:	fec42703          	lw	a4,-20(s0)
2001287e:	478d                	li	a5,3
20012880:	02e7e263          	bltu	a5,a4,200128a4 <__metal_controller_interrupt_vector_mode+0x4e>
20012884:	fec42703          	lw	a4,-20(s0)
20012888:	4785                	li	a5,1
2001288a:	00f70b63          	beq	a4,a5,200128a0 <__metal_controller_interrupt_vector_mode+0x4a>
2001288e:	fec42703          	lw	a4,-20(s0)
20012892:	4789                	li	a5,2
20012894:	00f71863          	bne	a4,a5,200128a4 <__metal_controller_interrupt_vector_mode+0x4e>
E:/GitHub/HiFive01-RevB/FS_workspace/002_LED_Blink_All/freedom-metal/src/drivers/riscv_cpu.c:307
    case METAL_MTVEC_CLIC:
        return METAL_SELECTIVE_VECTOR_MODE;
20012898:	478d                	li	a5,3
2001289a:	a031                	j	200128a6 <__metal_controller_interrupt_vector_mode+0x50>
E:/GitHub/HiFive01-RevB/FS_workspace/002_LED_Blink_All/freedom-metal/src/drivers/riscv_cpu.c:309
    case METAL_MTVEC_CLIC_VECTORED:
        return METAL_HARDWARE_VECTOR_MODE;
2001289c:	4791                	li	a5,4
2001289e:	a021                	j	200128a6 <__metal_controller_interrupt_vector_mode+0x50>
E:/GitHub/HiFive01-RevB/FS_workspace/002_LED_Blink_All/freedom-metal/src/drivers/riscv_cpu.c:311
    case METAL_MTVEC_VECTORED:
        return METAL_VECTOR_MODE;
200128a0:	4785                	li	a5,1
200128a2:	a011                	j	200128a6 <__metal_controller_interrupt_vector_mode+0x50>
E:/GitHub/HiFive01-RevB/FS_workspace/002_LED_Blink_All/freedom-metal/src/drivers/riscv_cpu.c:313
    }
    return METAL_DIRECT_MODE;
200128a4:	4781                	li	a5,0
E:/GitHub/HiFive01-RevB/FS_workspace/002_LED_Blink_All/freedom-metal/src/drivers/riscv_cpu.c:314
}
200128a6:	853e                	mv	a0,a5
200128a8:	4472                	lw	s0,28(sp)
200128aa:	6105                	addi	sp,sp,32
200128ac:	8082                	ret

200128ae <__metal_controller_interrupt_vector>:
__metal_controller_interrupt_vector():
E:/GitHub/HiFive01-RevB/FS_workspace/002_LED_Blink_All/freedom-metal/src/drivers/riscv_cpu.c:317

void __metal_controller_interrupt_vector(metal_vector_mode mode,
                                         void *vec_table) {
200128ae:	7179                	addi	sp,sp,-48
200128b0:	d622                	sw	s0,44(sp)
200128b2:	1800                	addi	s0,sp,48
200128b4:	fca42e23          	sw	a0,-36(s0)
200128b8:	fcb42c23          	sw	a1,-40(s0)
E:/GitHub/HiFive01-RevB/FS_workspace/002_LED_Blink_All/freedom-metal/src/drivers/riscv_cpu.c:320
    uintptr_t trap_entry, val;

    __asm__ volatile("csrr %0, mtvec" : "=r"(val));
200128bc:	305027f3          	csrr	a5,mtvec
200128c0:	fef42623          	sw	a5,-20(s0)
E:/GitHub/HiFive01-RevB/FS_workspace/002_LED_Blink_All/freedom-metal/src/drivers/riscv_cpu.c:321
    val &= ~(METAL_MTVEC_CLIC_VECTORED | METAL_MTVEC_CLIC_RESERVED);
200128c4:	fec42783          	lw	a5,-20(s0)
200128c8:	fc07f793          	andi	a5,a5,-64
200128cc:	fef42623          	sw	a5,-20(s0)
E:/GitHub/HiFive01-RevB/FS_workspace/002_LED_Blink_All/freedom-metal/src/drivers/riscv_cpu.c:322
    trap_entry = (uintptr_t)vec_table;
200128d0:	fd842783          	lw	a5,-40(s0)
200128d4:	fef42423          	sw	a5,-24(s0)
E:/GitHub/HiFive01-RevB/FS_workspace/002_LED_Blink_All/freedom-metal/src/drivers/riscv_cpu.c:324

    switch (mode) {
200128d8:	fdc42703          	lw	a4,-36(s0)
200128dc:	4791                	li	a5,4
200128de:	04f70563          	beq	a4,a5,20012928 <__metal_controller_interrupt_vector+0x7a>
200128e2:	fdc42703          	lw	a4,-36(s0)
200128e6:	4791                	li	a5,4
200128e8:	06e7e863          	bltu	a5,a4,20012958 <__metal_controller_interrupt_vector+0xaa>
200128ec:	fdc42703          	lw	a4,-36(s0)
200128f0:	478d                	li	a5,3
200128f2:	06e7e363          	bltu	a5,a4,20012958 <__metal_controller_interrupt_vector+0xaa>
200128f6:	fdc42703          	lw	a4,-36(s0)
200128fa:	4789                	li	a5,2
200128fc:	00f77b63          	bgeu	a4,a5,20012912 <__metal_controller_interrupt_vector+0x64>
20012900:	fdc42783          	lw	a5,-36(s0)
20012904:	c7a1                	beqz	a5,2001294c <__metal_controller_interrupt_vector+0x9e>
20012906:	fdc42703          	lw	a4,-36(s0)
2001290a:	4785                	li	a5,1
2001290c:	02f70963          	beq	a4,a5,2001293e <__metal_controller_interrupt_vector+0x90>
E:/GitHub/HiFive01-RevB/FS_workspace/002_LED_Blink_All/freedom-metal/src/drivers/riscv_cpu.c:344
    case METAL_DIRECT_MODE:
        __asm__ volatile(
            "csrw mtvec, %0" ::"r"(trap_entry & ~METAL_MTVEC_CLIC_VECTORED));
        break;
    }
}
20012910:	a0a1                	j	20012958 <__metal_controller_interrupt_vector+0xaa>
E:/GitHub/HiFive01-RevB/FS_workspace/002_LED_Blink_All/freedom-metal/src/drivers/riscv_cpu.c:327
        __asm__ volatile("csrw 0x307, %0" ::"r"(trap_entry));
20012912:	fe842783          	lw	a5,-24(s0)
20012916:	30779073          	csrw	mtvt,a5
E:/GitHub/HiFive01-RevB/FS_workspace/002_LED_Blink_All/freedom-metal/src/drivers/riscv_cpu.c:328
        __asm__ volatile("csrw mtvec, %0" ::"r"(val | METAL_MTVEC_CLIC));
2001291a:	fec42783          	lw	a5,-20(s0)
2001291e:	0027e793          	ori	a5,a5,2
20012922:	30579073          	csrw	mtvec,a5
E:/GitHub/HiFive01-RevB/FS_workspace/002_LED_Blink_All/freedom-metal/src/drivers/riscv_cpu.c:329
        break;
20012926:	a80d                	j	20012958 <__metal_controller_interrupt_vector+0xaa>
E:/GitHub/HiFive01-RevB/FS_workspace/002_LED_Blink_All/freedom-metal/src/drivers/riscv_cpu.c:331
        __asm__ volatile("csrw 0x307, %0" ::"r"(trap_entry));
20012928:	fe842783          	lw	a5,-24(s0)
2001292c:	30779073          	csrw	mtvt,a5
E:/GitHub/HiFive01-RevB/FS_workspace/002_LED_Blink_All/freedom-metal/src/drivers/riscv_cpu.c:333
            "csrw mtvec, %0" ::"r"(val | METAL_MTVEC_CLIC_VECTORED));
20012930:	fec42783          	lw	a5,-20(s0)
20012934:	0037e793          	ori	a5,a5,3
E:/GitHub/HiFive01-RevB/FS_workspace/002_LED_Blink_All/freedom-metal/src/drivers/riscv_cpu.c:332
        __asm__ volatile(
20012938:	30579073          	csrw	mtvec,a5
E:/GitHub/HiFive01-RevB/FS_workspace/002_LED_Blink_All/freedom-metal/src/drivers/riscv_cpu.c:334
        break;
2001293c:	a831                	j	20012958 <__metal_controller_interrupt_vector+0xaa>
E:/GitHub/HiFive01-RevB/FS_workspace/002_LED_Blink_All/freedom-metal/src/drivers/riscv_cpu.c:337
            "csrw mtvec, %0" ::"r"(trap_entry | METAL_MTVEC_VECTORED));
2001293e:	fe842783          	lw	a5,-24(s0)
20012942:	0017e793          	ori	a5,a5,1
E:/GitHub/HiFive01-RevB/FS_workspace/002_LED_Blink_All/freedom-metal/src/drivers/riscv_cpu.c:336
        __asm__ volatile(
20012946:	30579073          	csrw	mtvec,a5
E:/GitHub/HiFive01-RevB/FS_workspace/002_LED_Blink_All/freedom-metal/src/drivers/riscv_cpu.c:338
        break;
2001294a:	a039                	j	20012958 <__metal_controller_interrupt_vector+0xaa>
E:/GitHub/HiFive01-RevB/FS_workspace/002_LED_Blink_All/freedom-metal/src/drivers/riscv_cpu.c:341
            "csrw mtvec, %0" ::"r"(trap_entry & ~METAL_MTVEC_CLIC_VECTORED));
2001294c:	fe842783          	lw	a5,-24(s0)
20012950:	9bf1                	andi	a5,a5,-4
E:/GitHub/HiFive01-RevB/FS_workspace/002_LED_Blink_All/freedom-metal/src/drivers/riscv_cpu.c:340
        __asm__ volatile(
20012952:	30579073          	csrw	mtvec,a5
E:/GitHub/HiFive01-RevB/FS_workspace/002_LED_Blink_All/freedom-metal/src/drivers/riscv_cpu.c:342
        break;
20012956:	0001                	nop
E:/GitHub/HiFive01-RevB/FS_workspace/002_LED_Blink_All/freedom-metal/src/drivers/riscv_cpu.c:344
}
20012958:	0001                	nop
2001295a:	5432                	lw	s0,44(sp)
2001295c:	6145                	addi	sp,sp,48
2001295e:	8082                	ret

20012960 <__metal_valid_interrupt_id>:
__metal_valid_interrupt_id():
E:/GitHub/HiFive01-RevB/FS_workspace/002_LED_Blink_All/freedom-metal/src/drivers/riscv_cpu.c:346

int __metal_valid_interrupt_id(int id) {
20012960:	1101                	addi	sp,sp,-32
20012962:	ce22                	sw	s0,28(sp)
20012964:	1000                	addi	s0,sp,32
20012966:	fea42623          	sw	a0,-20(s0)
E:/GitHub/HiFive01-RevB/FS_workspace/002_LED_Blink_All/freedom-metal/src/drivers/riscv_cpu.c:347
    switch (id) {
2001296a:	fec42703          	lw	a4,-20(s0)
2001296e:	47fd                	li	a5,31
20012970:	02e7c663          	blt	a5,a4,2001299c <__metal_valid_interrupt_id+0x3c>
20012974:	fec42703          	lw	a4,-20(s0)
20012978:	478d                	li	a5,3
2001297a:	02f74963          	blt	a4,a5,200129ac <__metal_valid_interrupt_id+0x4c>
2001297e:	fec42783          	lw	a5,-20(s0)
20012982:	4705                	li	a4,1
20012984:	00f71733          	sll	a4,a4,a5
20012988:	77c5                	lui	a5,0xffff1
2001298a:	88878793          	addi	a5,a5,-1912 # ffff0888 <__global_pointer$+0x7ffef618>
2001298e:	8ff9                	and	a5,a5,a4
20012990:	00f037b3          	snez	a5,a5
20012994:	0ff7f793          	zext.b	a5,a5
20012998:	eb81                	bnez	a5,200129a8 <__metal_valid_interrupt_id+0x48>
E:/GitHub/HiFive01-RevB/FS_workspace/002_LED_Blink_All/freedom-metal/src/drivers/riscv_cpu.c:370
    case METAL_INTERRUPT_ID_LC14:
    case METAL_INTERRUPT_ID_LC15:
    case METAL_INTERRUPT_ID_BEU:
        return 1;
    default:
        break;
2001299a:	a809                	j	200129ac <__metal_valid_interrupt_id+0x4c>
E:/GitHub/HiFive01-RevB/FS_workspace/002_LED_Blink_All/freedom-metal/src/drivers/riscv_cpu.c:347
    switch (id) {
2001299c:	fec42703          	lw	a4,-20(s0)
200129a0:	08000793          	li	a5,128
200129a4:	00f71463          	bne	a4,a5,200129ac <__metal_valid_interrupt_id+0x4c>
E:/GitHub/HiFive01-RevB/FS_workspace/002_LED_Blink_All/freedom-metal/src/drivers/riscv_cpu.c:368
        return 1;
200129a8:	4785                	li	a5,1
200129aa:	a019                	j	200129b0 <__metal_valid_interrupt_id+0x50>
E:/GitHub/HiFive01-RevB/FS_workspace/002_LED_Blink_All/freedom-metal/src/drivers/riscv_cpu.c:370
        break;
200129ac:	0001                	nop
E:/GitHub/HiFive01-RevB/FS_workspace/002_LED_Blink_All/freedom-metal/src/drivers/riscv_cpu.c:373
    }

    return 0;
200129ae:	4781                	li	a5,0
E:/GitHub/HiFive01-RevB/FS_workspace/002_LED_Blink_All/freedom-metal/src/drivers/riscv_cpu.c:374
}
200129b0:	853e                	mv	a0,a5
200129b2:	4472                	lw	s0,28(sp)
200129b4:	6105                	addi	sp,sp,32
200129b6:	8082                	ret

200129b8 <__metal_local_interrupt_enable>:
__metal_local_interrupt_enable():
E:/GitHub/HiFive01-RevB/FS_workspace/002_LED_Blink_All/freedom-metal/src/drivers/riscv_cpu.c:377

int __metal_local_interrupt_enable(struct metal_interrupt *controller,
                                   metal_interrupt_id_e id, int enable) {
200129b8:	7179                	addi	sp,sp,-48
200129ba:	d606                	sw	ra,44(sp)
200129bc:	d422                	sw	s0,40(sp)
200129be:	1800                	addi	s0,sp,48
200129c0:	fca42e23          	sw	a0,-36(s0)
200129c4:	fcb42c23          	sw	a1,-40(s0)
200129c8:	fcc42a23          	sw	a2,-44(s0)
E:/GitHub/HiFive01-RevB/FS_workspace/002_LED_Blink_All/freedom-metal/src/drivers/riscv_cpu.c:378
    int rc = 0;
200129cc:	fe042623          	sw	zero,-20(s0)
E:/GitHub/HiFive01-RevB/FS_workspace/002_LED_Blink_All/freedom-metal/src/drivers/riscv_cpu.c:380

    if (!controller) {
200129d0:	fdc42783          	lw	a5,-36(s0)
200129d4:	e399                	bnez	a5,200129da <__metal_local_interrupt_enable+0x22>
E:/GitHub/HiFive01-RevB/FS_workspace/002_LED_Blink_All/freedom-metal/src/drivers/riscv_cpu.c:381
        return -1;
200129d6:	57fd                	li	a5,-1
200129d8:	a849                	j	20012a6a <__metal_local_interrupt_enable+0xb2>
200129da:	fd842703          	lw	a4,-40(s0)
200129de:	47fd                	li	a5,31
200129e0:	08e7e063          	bltu	a5,a4,20012a60 <__metal_local_interrupt_enable+0xa8>
200129e4:	fd842783          	lw	a5,-40(s0)
200129e8:	00279713          	slli	a4,a5,0x2
200129ec:	200107b7          	lui	a5,0x20010
200129f0:	3bc78793          	addi	a5,a5,956 # 200103bc <__metal_driver_vtable_riscv_clint0+0x64>
200129f4:	97ba                	add	a5,a5,a4
200129f6:	439c                	lw	a5,0(a5)
200129f8:	8782                	jr	a5
E:/GitHub/HiFive01-RevB/FS_workspace/002_LED_Blink_All/freedom-metal/src/drivers/riscv_cpu.c:386
    }

    switch (id) {
    case METAL_INTERRUPT_ID_BASE:
        if (enable) {
200129fa:	fd442783          	lw	a5,-44(s0)
200129fe:	c781                	beqz	a5,20012a06 <__metal_local_interrupt_enable+0x4e>
E:/GitHub/HiFive01-RevB/FS_workspace/002_LED_Blink_All/freedom-metal/src/drivers/riscv_cpu.c:387
            __metal_interrupt_global_enable();
20012a00:	f17fe0ef          	jal	ra,20011916 <__metal_interrupt_global_enable>
E:/GitHub/HiFive01-RevB/FS_workspace/002_LED_Blink_All/freedom-metal/src/drivers/riscv_cpu.c:391
        } else {
            __metal_interrupt_global_disable();
        }
        break;
20012a04:	a08d                	j	20012a66 <__metal_local_interrupt_enable+0xae>
E:/GitHub/HiFive01-RevB/FS_workspace/002_LED_Blink_All/freedom-metal/src/drivers/riscv_cpu.c:389
            __metal_interrupt_global_disable();
20012a06:	f29fe0ef          	jal	ra,2001192e <__metal_interrupt_global_disable>
E:/GitHub/HiFive01-RevB/FS_workspace/002_LED_Blink_All/freedom-metal/src/drivers/riscv_cpu.c:391
        break;
20012a0a:	a8b1                	j	20012a66 <__metal_local_interrupt_enable+0xae>
E:/GitHub/HiFive01-RevB/FS_workspace/002_LED_Blink_All/freedom-metal/src/drivers/riscv_cpu.c:393
    case METAL_INTERRUPT_ID_SW:
        if (enable) {
20012a0c:	fd442783          	lw	a5,-44(s0)
20012a10:	c781                	beqz	a5,20012a18 <__metal_local_interrupt_enable+0x60>
E:/GitHub/HiFive01-RevB/FS_workspace/002_LED_Blink_All/freedom-metal/src/drivers/riscv_cpu.c:394
            __metal_interrupt_software_enable();
20012a12:	f35fe0ef          	jal	ra,20011946 <__metal_interrupt_software_enable>
E:/GitHub/HiFive01-RevB/FS_workspace/002_LED_Blink_All/freedom-metal/src/drivers/riscv_cpu.c:398
        } else {
            __metal_interrupt_software_disable();
        }
        break;
20012a16:	a881                	j	20012a66 <__metal_local_interrupt_enable+0xae>
E:/GitHub/HiFive01-RevB/FS_workspace/002_LED_Blink_All/freedom-metal/src/drivers/riscv_cpu.c:396
            __metal_interrupt_software_disable();
20012a18:	f47fe0ef          	jal	ra,2001195e <__metal_interrupt_software_disable>
E:/GitHub/HiFive01-RevB/FS_workspace/002_LED_Blink_All/freedom-metal/src/drivers/riscv_cpu.c:398
        break;
20012a1c:	a0a9                	j	20012a66 <__metal_local_interrupt_enable+0xae>
E:/GitHub/HiFive01-RevB/FS_workspace/002_LED_Blink_All/freedom-metal/src/drivers/riscv_cpu.c:400
    case METAL_INTERRUPT_ID_TMR:
        if (enable) {
20012a1e:	fd442783          	lw	a5,-44(s0)
20012a22:	c781                	beqz	a5,20012a2a <__metal_local_interrupt_enable+0x72>
E:/GitHub/HiFive01-RevB/FS_workspace/002_LED_Blink_All/freedom-metal/src/drivers/riscv_cpu.c:401
            __metal_interrupt_timer_enable();
20012a24:	f53fe0ef          	jal	ra,20011976 <__metal_interrupt_timer_enable>
E:/GitHub/HiFive01-RevB/FS_workspace/002_LED_Blink_All/freedom-metal/src/drivers/riscv_cpu.c:405
        } else {
            __metal_interrupt_timer_disable();
        }
        break;
20012a28:	a83d                	j	20012a66 <__metal_local_interrupt_enable+0xae>
E:/GitHub/HiFive01-RevB/FS_workspace/002_LED_Blink_All/freedom-metal/src/drivers/riscv_cpu.c:403
            __metal_interrupt_timer_disable();
20012a2a:	f67fe0ef          	jal	ra,20011990 <__metal_interrupt_timer_disable>
E:/GitHub/HiFive01-RevB/FS_workspace/002_LED_Blink_All/freedom-metal/src/drivers/riscv_cpu.c:405
        break;
20012a2e:	a825                	j	20012a66 <__metal_local_interrupt_enable+0xae>
E:/GitHub/HiFive01-RevB/FS_workspace/002_LED_Blink_All/freedom-metal/src/drivers/riscv_cpu.c:407
    case METAL_INTERRUPT_ID_EXT:
        if (enable) {
20012a30:	fd442783          	lw	a5,-44(s0)
20012a34:	c781                	beqz	a5,20012a3c <__metal_local_interrupt_enable+0x84>
E:/GitHub/HiFive01-RevB/FS_workspace/002_LED_Blink_All/freedom-metal/src/drivers/riscv_cpu.c:408
            __metal_interrupt_external_enable();
20012a36:	f75fe0ef          	jal	ra,200119aa <__metal_interrupt_external_enable>
E:/GitHub/HiFive01-RevB/FS_workspace/002_LED_Blink_All/freedom-metal/src/drivers/riscv_cpu.c:412
        } else {
            __metal_interrupt_external_disable();
        }
        break;
20012a3a:	a035                	j	20012a66 <__metal_local_interrupt_enable+0xae>
E:/GitHub/HiFive01-RevB/FS_workspace/002_LED_Blink_All/freedom-metal/src/drivers/riscv_cpu.c:410
            __metal_interrupt_external_disable();
20012a3c:	f8bfe0ef          	jal	ra,200119c6 <__metal_interrupt_external_disable>
E:/GitHub/HiFive01-RevB/FS_workspace/002_LED_Blink_All/freedom-metal/src/drivers/riscv_cpu.c:412
        break;
20012a40:	a01d                	j	20012a66 <__metal_local_interrupt_enable+0xae>
E:/GitHub/HiFive01-RevB/FS_workspace/002_LED_Blink_All/freedom-metal/src/drivers/riscv_cpu.c:429
    case METAL_INTERRUPT_ID_LC11:
    case METAL_INTERRUPT_ID_LC12:
    case METAL_INTERRUPT_ID_LC13:
    case METAL_INTERRUPT_ID_LC14:
    case METAL_INTERRUPT_ID_LC15:
        if (enable) {
20012a42:	fd442783          	lw	a5,-44(s0)
20012a46:	c799                	beqz	a5,20012a54 <__metal_local_interrupt_enable+0x9c>
E:/GitHub/HiFive01-RevB/FS_workspace/002_LED_Blink_All/freedom-metal/src/drivers/riscv_cpu.c:430
            __metal_interrupt_local_enable(id);
20012a48:	fd842783          	lw	a5,-40(s0)
20012a4c:	853e                	mv	a0,a5
20012a4e:	f95fe0ef          	jal	ra,200119e2 <__metal_interrupt_local_enable>
E:/GitHub/HiFive01-RevB/FS_workspace/002_LED_Blink_All/freedom-metal/src/drivers/riscv_cpu.c:434
        } else {
            __metal_interrupt_local_disable(id);
        }
        break;
20012a52:	a811                	j	20012a66 <__metal_local_interrupt_enable+0xae>
E:/GitHub/HiFive01-RevB/FS_workspace/002_LED_Blink_All/freedom-metal/src/drivers/riscv_cpu.c:432
            __metal_interrupt_local_disable(id);
20012a54:	fd842783          	lw	a5,-40(s0)
20012a58:	853e                	mv	a0,a5
20012a5a:	fb5fe0ef          	jal	ra,20011a0e <__metal_interrupt_local_disable>
E:/GitHub/HiFive01-RevB/FS_workspace/002_LED_Blink_All/freedom-metal/src/drivers/riscv_cpu.c:434
        break;
20012a5e:	a021                	j	20012a66 <__metal_local_interrupt_enable+0xae>
E:/GitHub/HiFive01-RevB/FS_workspace/002_LED_Blink_All/freedom-metal/src/drivers/riscv_cpu.c:436
    default:
        rc = -1;
20012a60:	57fd                	li	a5,-1
20012a62:	fef42623          	sw	a5,-20(s0)
E:/GitHub/HiFive01-RevB/FS_workspace/002_LED_Blink_All/freedom-metal/src/drivers/riscv_cpu.c:438
    }
    return rc;
20012a66:	fec42783          	lw	a5,-20(s0)
E:/GitHub/HiFive01-RevB/FS_workspace/002_LED_Blink_All/freedom-metal/src/drivers/riscv_cpu.c:439
}
20012a6a:	853e                	mv	a0,a5
20012a6c:	50b2                	lw	ra,44(sp)
20012a6e:	5422                	lw	s0,40(sp)
20012a70:	6145                	addi	sp,sp,48
20012a72:	8082                	ret

20012a74 <__metal_exception_register>:
__metal_exception_register():
E:/GitHub/HiFive01-RevB/FS_workspace/002_LED_Blink_All/freedom-metal/src/drivers/riscv_cpu.c:442

int __metal_exception_register(struct metal_interrupt *controller, int ecode,
                               metal_exception_handler_t isr) {
20012a74:	7179                	addi	sp,sp,-48
20012a76:	d622                	sw	s0,44(sp)
20012a78:	1800                	addi	s0,sp,48
20012a7a:	fca42e23          	sw	a0,-36(s0)
20012a7e:	fcb42c23          	sw	a1,-40(s0)
20012a82:	fcc42a23          	sw	a2,-44(s0)
E:/GitHub/HiFive01-RevB/FS_workspace/002_LED_Blink_All/freedom-metal/src/drivers/riscv_cpu.c:443
    struct __metal_driver_riscv_cpu_intc *intc = (void *)(controller);
20012a86:	fdc42783          	lw	a5,-36(s0)
20012a8a:	fef42623          	sw	a5,-20(s0)
E:/GitHub/HiFive01-RevB/FS_workspace/002_LED_Blink_All/freedom-metal/src/drivers/riscv_cpu.c:445

    if ((ecode < METAL_MAX_EXCEPTION_CODE) && isr) {
20012a8e:	fd842703          	lw	a4,-40(s0)
20012a92:	47ad                	li	a5,11
20012a94:	02e7c263          	blt	a5,a4,20012ab8 <__metal_exception_register+0x44>
E:/GitHub/HiFive01-RevB/FS_workspace/002_LED_Blink_All/freedom-metal/src/drivers/riscv_cpu.c:445 (discriminator 1)
20012a98:	fd442783          	lw	a5,-44(s0)
20012a9c:	cf91                	beqz	a5,20012ab8 <__metal_exception_register+0x44>
E:/GitHub/HiFive01-RevB/FS_workspace/002_LED_Blink_All/freedom-metal/src/drivers/riscv_cpu.c:446
        intc->metal_exception_table[ecode] = isr;
20012a9e:	fec42703          	lw	a4,-20(s0)
20012aa2:	fd842783          	lw	a5,-40(s0)
20012aa6:	0e878793          	addi	a5,a5,232
20012aaa:	078a                	slli	a5,a5,0x2
20012aac:	97ba                	add	a5,a5,a4
20012aae:	fd442703          	lw	a4,-44(s0)
20012ab2:	c398                	sw	a4,0(a5)
E:/GitHub/HiFive01-RevB/FS_workspace/002_LED_Blink_All/freedom-metal/src/drivers/riscv_cpu.c:447
        return 0;
20012ab4:	4781                	li	a5,0
20012ab6:	a011                	j	20012aba <__metal_exception_register+0x46>
E:/GitHub/HiFive01-RevB/FS_workspace/002_LED_Blink_All/freedom-metal/src/drivers/riscv_cpu.c:449
    }
    return -1;
20012ab8:	57fd                	li	a5,-1
E:/GitHub/HiFive01-RevB/FS_workspace/002_LED_Blink_All/freedom-metal/src/drivers/riscv_cpu.c:450
}
20012aba:	853e                	mv	a0,a5
20012abc:	5432                	lw	s0,44(sp)
20012abe:	6145                	addi	sp,sp,48
20012ac0:	8082                	ret

20012ac2 <__metal_driver_riscv_cpu_controller_interrupt_init>:
__metal_driver_riscv_cpu_controller_interrupt_init():
E:/GitHub/HiFive01-RevB/FS_workspace/002_LED_Blink_All/freedom-metal/src/drivers/riscv_cpu.c:454

extern void early_trap_vector(void);
void __metal_driver_riscv_cpu_controller_interrupt_init(
    struct metal_interrupt *controller) {
20012ac2:	7179                	addi	sp,sp,-48
20012ac4:	d606                	sw	ra,44(sp)
20012ac6:	d422                	sw	s0,40(sp)
20012ac8:	1800                	addi	s0,sp,48
20012aca:	fca42e23          	sw	a0,-36(s0)
E:/GitHub/HiFive01-RevB/FS_workspace/002_LED_Blink_All/freedom-metal/src/drivers/riscv_cpu.c:455
    struct __metal_driver_riscv_cpu_intc *intc = (void *)(controller);
20012ace:	fdc42783          	lw	a5,-36(s0)
20012ad2:	fef42223          	sw	a5,-28(s0)
E:/GitHub/HiFive01-RevB/FS_workspace/002_LED_Blink_All/freedom-metal/src/drivers/riscv_cpu.c:457

    if (!intc->init_done) {
20012ad6:	fe442783          	lw	a5,-28(s0)
20012ada:	43dc                	lw	a5,4(a5)
20012adc:	efdd                	bnez	a5,20012b9a <__metal_driver_riscv_cpu_controller_interrupt_init+0xd8>
E:/GitHub/HiFive01-RevB/FS_workspace/002_LED_Blink_All/freedom-metal/src/drivers/riscv_cpu.c:459
        /* Default to use direct interrupt, setup sw cb table*/
        for (int i = 0; i < METAL_MAX_MI; i++) {
20012ade:	fe042623          	sw	zero,-20(s0)
20012ae2:	a0b9                	j	20012b30 <__metal_driver_riscv_cpu_controller_interrupt_init+0x6e>
E:/GitHub/HiFive01-RevB/FS_workspace/002_LED_Blink_All/freedom-metal/src/drivers/riscv_cpu.c:460 (discriminator 3)
            intc->metal_int_table[i].handler = NULL;
20012ae4:	fe442683          	lw	a3,-28(s0)
20012ae8:	fec42703          	lw	a4,-20(s0)
20012aec:	87ba                	mv	a5,a4
20012aee:	0786                	slli	a5,a5,0x1
20012af0:	97ba                	add	a5,a5,a4
20012af2:	078e                	slli	a5,a5,0x3
20012af4:	97b6                	add	a5,a5,a3
20012af6:	0807a823          	sw	zero,144(a5)
E:/GitHub/HiFive01-RevB/FS_workspace/002_LED_Blink_All/freedom-metal/src/drivers/riscv_cpu.c:461 (discriminator 3)
            intc->metal_int_table[i].sub_int = NULL;
20012afa:	fe442683          	lw	a3,-28(s0)
20012afe:	fec42703          	lw	a4,-20(s0)
20012b02:	87ba                	mv	a5,a4
20012b04:	0786                	slli	a5,a5,0x1
20012b06:	97ba                	add	a5,a5,a4
20012b08:	078e                	slli	a5,a5,0x3
20012b0a:	97b6                	add	a5,a5,a3
20012b0c:	0807aa23          	sw	zero,148(a5)
E:/GitHub/HiFive01-RevB/FS_workspace/002_LED_Blink_All/freedom-metal/src/drivers/riscv_cpu.c:462 (discriminator 3)
            intc->metal_int_table[i].exint_data = NULL;
20012b10:	fe442683          	lw	a3,-28(s0)
20012b14:	fec42703          	lw	a4,-20(s0)
20012b18:	87ba                	mv	a5,a4
20012b1a:	0786                	slli	a5,a5,0x1
20012b1c:	97ba                	add	a5,a5,a4
20012b1e:	078e                	slli	a5,a5,0x3
20012b20:	97b6                	add	a5,a5,a3
20012b22:	0807ac23          	sw	zero,152(a5)
E:/GitHub/HiFive01-RevB/FS_workspace/002_LED_Blink_All/freedom-metal/src/drivers/riscv_cpu.c:459 (discriminator 3)
        for (int i = 0; i < METAL_MAX_MI; i++) {
20012b26:	fec42783          	lw	a5,-20(s0)
20012b2a:	0785                	addi	a5,a5,1
20012b2c:	fef42623          	sw	a5,-20(s0)
E:/GitHub/HiFive01-RevB/FS_workspace/002_LED_Blink_All/freedom-metal/src/drivers/riscv_cpu.c:459 (discriminator 1)
20012b30:	fec42703          	lw	a4,-20(s0)
20012b34:	47fd                	li	a5,31
20012b36:	fae7d7e3          	bge	a5,a4,20012ae4 <__metal_driver_riscv_cpu_controller_interrupt_init+0x22>
E:/GitHub/HiFive01-RevB/FS_workspace/002_LED_Blink_All/freedom-metal/src/drivers/riscv_cpu.c:465
        }

        for (int i = 0; i < METAL_MAX_ME; i++) {
20012b3a:	fe042423          	sw	zero,-24(s0)
20012b3e:	a01d                	j	20012b64 <__metal_driver_riscv_cpu_controller_interrupt_init+0xa2>
E:/GitHub/HiFive01-RevB/FS_workspace/002_LED_Blink_All/freedom-metal/src/drivers/riscv_cpu.c:466 (discriminator 3)
            intc->metal_exception_table[i] = __metal_default_exception_handler;
20012b40:	fe442703          	lw	a4,-28(s0)
20012b44:	fe842783          	lw	a5,-24(s0)
20012b48:	0e878793          	addi	a5,a5,232
20012b4c:	078a                	slli	a5,a5,0x2
20012b4e:	97ba                	add	a5,a5,a4
20012b50:	20012737          	lui	a4,0x20012
20012b54:	a3a70713          	addi	a4,a4,-1478 # 20011a3a <__metal_default_exception_handler>
20012b58:	c398                	sw	a4,0(a5)
E:/GitHub/HiFive01-RevB/FS_workspace/002_LED_Blink_All/freedom-metal/src/drivers/riscv_cpu.c:465 (discriminator 3)
        for (int i = 0; i < METAL_MAX_ME; i++) {
20012b5a:	fe842783          	lw	a5,-24(s0)
20012b5e:	0785                	addi	a5,a5,1
20012b60:	fef42423          	sw	a5,-24(s0)
E:/GitHub/HiFive01-RevB/FS_workspace/002_LED_Blink_All/freedom-metal/src/drivers/riscv_cpu.c:465 (discriminator 1)
20012b64:	fe842703          	lw	a4,-24(s0)
20012b68:	47ad                	li	a5,11
20012b6a:	fce7dbe3          	bge	a5,a4,20012b40 <__metal_driver_riscv_cpu_controller_interrupt_init+0x7e>
E:/GitHub/HiFive01-RevB/FS_workspace/002_LED_Blink_All/freedom-metal/src/drivers/riscv_cpu.c:475
         * Set the real trap handler if the value of mtvec is equal to
         * early_trap_vector. If mtvec is not equal to early_trap_vector,
         * that means user has own trap handler, then we don't overwrite it.
         */
        uintptr_t mtvec;
        __asm__ volatile("csrr %0, mtvec" : "=r"(mtvec));
20012b6e:	305027f3          	csrr	a5,mtvec
20012b72:	fef42023          	sw	a5,-32(s0)
E:/GitHub/HiFive01-RevB/FS_workspace/002_LED_Blink_All/freedom-metal/src/drivers/riscv_cpu.c:476
        if (mtvec == (uintptr_t)&early_trap_vector) {
20012b76:	200107b7          	lui	a5,0x20010
20012b7a:	13478793          	addi	a5,a5,308 # 20010134 <early_trap_vector>
20012b7e:	fe042703          	lw	a4,-32(s0)
20012b82:	00f71863          	bne	a4,a5,20012b92 <__metal_driver_riscv_cpu_controller_interrupt_init+0xd0>
E:/GitHub/HiFive01-RevB/FS_workspace/002_LED_Blink_All/freedom-metal/src/drivers/riscv_cpu.c:477
            __metal_controller_interrupt_vector(
20012b86:	200127b7          	lui	a5,0x20012
20012b8a:	d0078593          	addi	a1,a5,-768 # 20011d00 <__metal_exception_handler>
20012b8e:	4501                	li	a0,0
20012b90:	3b39                	jal	200128ae <__metal_controller_interrupt_vector>
E:/GitHub/HiFive01-RevB/FS_workspace/002_LED_Blink_All/freedom-metal/src/drivers/riscv_cpu.c:481
                METAL_DIRECT_MODE,
                (void *)(uintptr_t)&__metal_exception_handler);
        }
        intc->init_done = 1;
20012b92:	fe442783          	lw	a5,-28(s0)
20012b96:	4705                	li	a4,1
20012b98:	c3d8                	sw	a4,4(a5)
E:/GitHub/HiFive01-RevB/FS_workspace/002_LED_Blink_All/freedom-metal/src/drivers/riscv_cpu.c:483
    }
}
20012b9a:	0001                	nop
20012b9c:	50b2                	lw	ra,44(sp)
20012b9e:	5422                	lw	s0,40(sp)
20012ba0:	6145                	addi	sp,sp,48
20012ba2:	8082                	ret

20012ba4 <__metal_driver_riscv_cpu_controller_interrupt_register>:
__metal_driver_riscv_cpu_controller_interrupt_register():
E:/GitHub/HiFive01-RevB/FS_workspace/002_LED_Blink_All/freedom-metal/src/drivers/riscv_cpu.c:487

int __metal_driver_riscv_cpu_controller_interrupt_register(
    struct metal_interrupt *controller, int id, metal_interrupt_handler_t isr,
    void *priv) {
20012ba4:	7179                	addi	sp,sp,-48
20012ba6:	d606                	sw	ra,44(sp)
20012ba8:	d422                	sw	s0,40(sp)
20012baa:	1800                	addi	s0,sp,48
20012bac:	fca42e23          	sw	a0,-36(s0)
20012bb0:	fcb42c23          	sw	a1,-40(s0)
20012bb4:	fcc42a23          	sw	a2,-44(s0)
20012bb8:	fcd42823          	sw	a3,-48(s0)
E:/GitHub/HiFive01-RevB/FS_workspace/002_LED_Blink_All/freedom-metal/src/drivers/riscv_cpu.c:488
    int rc = 0;
20012bbc:	fe042623          	sw	zero,-20(s0)
E:/GitHub/HiFive01-RevB/FS_workspace/002_LED_Blink_All/freedom-metal/src/drivers/riscv_cpu.c:489
    struct __metal_driver_riscv_cpu_intc *intc = (void *)(controller);
20012bc0:	fdc42783          	lw	a5,-36(s0)
20012bc4:	fef42423          	sw	a5,-24(s0)
E:/GitHub/HiFive01-RevB/FS_workspace/002_LED_Blink_All/freedom-metal/src/drivers/riscv_cpu.c:491

    if (!__metal_valid_interrupt_id(id)) {
20012bc8:	fd842503          	lw	a0,-40(s0)
20012bcc:	3b51                	jal	20012960 <__metal_valid_interrupt_id>
20012bce:	87aa                	mv	a5,a0
20012bd0:	e399                	bnez	a5,20012bd6 <__metal_driver_riscv_cpu_controller_interrupt_register+0x32>
E:/GitHub/HiFive01-RevB/FS_workspace/002_LED_Blink_All/freedom-metal/src/drivers/riscv_cpu.c:492
        return -11;
20012bd2:	57d5                	li	a5,-11
20012bd4:	a25d                	j	20012d7a <__metal_driver_riscv_cpu_controller_interrupt_register+0x1d6>
E:/GitHub/HiFive01-RevB/FS_workspace/002_LED_Blink_All/freedom-metal/src/drivers/riscv_cpu.c:494
    }
    if ((id == METAL_INTERRUPT_ID_BEU) &&
20012bd6:	fd842703          	lw	a4,-40(s0)
20012bda:	08000793          	li	a5,128
20012bde:	00f71763          	bne	a4,a5,20012bec <__metal_driver_riscv_cpu_controller_interrupt_register+0x48>
E:/GitHub/HiFive01-RevB/FS_workspace/002_LED_Blink_All/freedom-metal/src/drivers/riscv_cpu.c:495 (discriminator 1)
        (__metal_controller_interrupt_vector_mode() != METAL_DIRECT_MODE)) {
20012be2:	3995                	jal	20012856 <__metal_controller_interrupt_vector_mode>
20012be4:	87aa                	mv	a5,a0
E:/GitHub/HiFive01-RevB/FS_workspace/002_LED_Blink_All/freedom-metal/src/drivers/riscv_cpu.c:494 (discriminator 1)
    if ((id == METAL_INTERRUPT_ID_BEU) &&
20012be6:	c399                	beqz	a5,20012bec <__metal_driver_riscv_cpu_controller_interrupt_register+0x48>
E:/GitHub/HiFive01-RevB/FS_workspace/002_LED_Blink_All/freedom-metal/src/drivers/riscv_cpu.c:498
        /* Only allow registration of the bus error unit interrupt if
         * interrupt vectoring if off */
        return -13;
20012be8:	57cd                	li	a5,-13
20012bea:	aa41                	j	20012d7a <__metal_driver_riscv_cpu_controller_interrupt_register+0x1d6>
E:/GitHub/HiFive01-RevB/FS_workspace/002_LED_Blink_All/freedom-metal/src/drivers/riscv_cpu.c:501
    }

    if (isr) {
20012bec:	fd442783          	lw	a5,-44(s0)
20012bf0:	cfb9                	beqz	a5,20012c4e <__metal_driver_riscv_cpu_controller_interrupt_register+0xaa>
E:/GitHub/HiFive01-RevB/FS_workspace/002_LED_Blink_All/freedom-metal/src/drivers/riscv_cpu.c:502
        if (id == METAL_INTERRUPT_ID_BEU) {
20012bf2:	fd842703          	lw	a4,-40(s0)
20012bf6:	08000793          	li	a5,128
20012bfa:	00f71f63          	bne	a4,a5,20012c18 <__metal_driver_riscv_cpu_controller_interrupt_register+0x74>
E:/GitHub/HiFive01-RevB/FS_workspace/002_LED_Blink_All/freedom-metal/src/drivers/riscv_cpu.c:503
            intc->metal_int_beu.handler = isr;
20012bfe:	fe842783          	lw	a5,-24(s0)
20012c02:	fd442703          	lw	a4,-44(s0)
20012c06:	38e7a823          	sw	a4,912(a5)
E:/GitHub/HiFive01-RevB/FS_workspace/002_LED_Blink_All/freedom-metal/src/drivers/riscv_cpu.c:504
            intc->metal_int_beu.exint_data = priv;
20012c0a:	fe842783          	lw	a5,-24(s0)
20012c0e:	fd042703          	lw	a4,-48(s0)
20012c12:	38e7ac23          	sw	a4,920(a5)
20012c16:	a285                	j	20012d76 <__metal_driver_riscv_cpu_controller_interrupt_register+0x1d2>
E:/GitHub/HiFive01-RevB/FS_workspace/002_LED_Blink_All/freedom-metal/src/drivers/riscv_cpu.c:506
        } else {
            intc->metal_int_table[id].handler = isr;
20012c18:	fe842683          	lw	a3,-24(s0)
20012c1c:	fd842703          	lw	a4,-40(s0)
20012c20:	87ba                	mv	a5,a4
20012c22:	0786                	slli	a5,a5,0x1
20012c24:	97ba                	add	a5,a5,a4
20012c26:	078e                	slli	a5,a5,0x3
20012c28:	97b6                	add	a5,a5,a3
20012c2a:	fd442703          	lw	a4,-44(s0)
20012c2e:	08e7a823          	sw	a4,144(a5)
E:/GitHub/HiFive01-RevB/FS_workspace/002_LED_Blink_All/freedom-metal/src/drivers/riscv_cpu.c:507
            intc->metal_int_table[id].exint_data = priv;
20012c32:	fe842683          	lw	a3,-24(s0)
20012c36:	fd842703          	lw	a4,-40(s0)
20012c3a:	87ba                	mv	a5,a4
20012c3c:	0786                	slli	a5,a5,0x1
20012c3e:	97ba                	add	a5,a5,a4
20012c40:	078e                	slli	a5,a5,0x3
20012c42:	97b6                	add	a5,a5,a3
20012c44:	fd042703          	lw	a4,-48(s0)
20012c48:	08e7ac23          	sw	a4,152(a5)
20012c4c:	a22d                	j	20012d76 <__metal_driver_riscv_cpu_controller_interrupt_register+0x1d2>
E:/GitHub/HiFive01-RevB/FS_workspace/002_LED_Blink_All/freedom-metal/src/drivers/riscv_cpu.c:510
        }
    } else {
        switch (id) {
20012c4e:	fd842703          	lw	a4,-40(s0)
20012c52:	08000793          	li	a5,128
20012c56:	0cf70163          	beq	a4,a5,20012d18 <__metal_driver_riscv_cpu_controller_interrupt_register+0x174>
20012c5a:	fd842703          	lw	a4,-40(s0)
20012c5e:	08000793          	li	a5,128
20012c62:	10e7c763          	blt	a5,a4,20012d70 <__metal_driver_riscv_cpu_controller_interrupt_register+0x1cc>
20012c66:	fd842703          	lw	a4,-40(s0)
20012c6a:	47fd                	li	a5,31
20012c6c:	10e7c263          	blt	a5,a4,20012d70 <__metal_driver_riscv_cpu_controller_interrupt_register+0x1cc>
20012c70:	fd842703          	lw	a4,-40(s0)
20012c74:	47c1                	li	a5,16
20012c76:	0cf75063          	bge	a4,a5,20012d36 <__metal_driver_riscv_cpu_controller_interrupt_register+0x192>
20012c7a:	fd842703          	lw	a4,-40(s0)
20012c7e:	47ad                	li	a5,11
20012c80:	0af70b63          	beq	a4,a5,20012d36 <__metal_driver_riscv_cpu_controller_interrupt_register+0x192>
20012c84:	fd842703          	lw	a4,-40(s0)
20012c88:	47ad                	li	a5,11
20012c8a:	0ee7c363          	blt	a5,a4,20012d70 <__metal_driver_riscv_cpu_controller_interrupt_register+0x1cc>
20012c8e:	fd842703          	lw	a4,-40(s0)
20012c92:	478d                	li	a5,3
20012c94:	00f70863          	beq	a4,a5,20012ca4 <__metal_driver_riscv_cpu_controller_interrupt_register+0x100>
20012c98:	fd842703          	lw	a4,-40(s0)
20012c9c:	479d                	li	a5,7
20012c9e:	04f70063          	beq	a4,a5,20012cde <__metal_driver_riscv_cpu_controller_interrupt_register+0x13a>
20012ca2:	a0f9                	j	20012d70 <__metal_driver_riscv_cpu_controller_interrupt_register+0x1cc>
E:/GitHub/HiFive01-RevB/FS_workspace/002_LED_Blink_All/freedom-metal/src/drivers/riscv_cpu.c:512
        case METAL_INTERRUPT_ID_SW:
            intc->metal_int_table[id].handler = __metal_default_sw_handler;
20012ca4:	fe842683          	lw	a3,-24(s0)
20012ca8:	fd842703          	lw	a4,-40(s0)
20012cac:	87ba                	mv	a5,a4
20012cae:	0786                	slli	a5,a5,0x1
20012cb0:	97ba                	add	a5,a5,a4
20012cb2:	078e                	slli	a5,a5,0x3
20012cb4:	97b6                	add	a5,a5,a3
20012cb6:	20012737          	lui	a4,0x20012
20012cba:	b2a70713          	addi	a4,a4,-1238 # 20011b2a <__metal_default_sw_handler>
20012cbe:	08e7a823          	sw	a4,144(a5)
E:/GitHub/HiFive01-RevB/FS_workspace/002_LED_Blink_All/freedom-metal/src/drivers/riscv_cpu.c:513
            intc->metal_int_table[id].sub_int = priv;
20012cc2:	fe842683          	lw	a3,-24(s0)
20012cc6:	fd842703          	lw	a4,-40(s0)
20012cca:	87ba                	mv	a5,a4
20012ccc:	0786                	slli	a5,a5,0x1
20012cce:	97ba                	add	a5,a5,a4
20012cd0:	078e                	slli	a5,a5,0x3
20012cd2:	97b6                	add	a5,a5,a3
20012cd4:	fd042703          	lw	a4,-48(s0)
20012cd8:	08e7aa23          	sw	a4,148(a5)
E:/GitHub/HiFive01-RevB/FS_workspace/002_LED_Blink_All/freedom-metal/src/drivers/riscv_cpu.c:514
            break;
20012cdc:	a869                	j	20012d76 <__metal_driver_riscv_cpu_controller_interrupt_register+0x1d2>
E:/GitHub/HiFive01-RevB/FS_workspace/002_LED_Blink_All/freedom-metal/src/drivers/riscv_cpu.c:516
        case METAL_INTERRUPT_ID_TMR:
            intc->metal_int_table[id].handler = __metal_default_timer_handler;
20012cde:	fe842683          	lw	a3,-24(s0)
20012ce2:	fd842703          	lw	a4,-40(s0)
20012ce6:	87ba                	mv	a5,a4
20012ce8:	0786                	slli	a5,a5,0x1
20012cea:	97ba                	add	a5,a5,a4
20012cec:	078e                	slli	a5,a5,0x3
20012cee:	97b6                	add	a5,a5,a3
20012cf0:	20012737          	lui	a4,0x20012
20012cf4:	c3a70713          	addi	a4,a4,-966 # 20011c3a <__metal_default_timer_handler>
20012cf8:	08e7a823          	sw	a4,144(a5)
E:/GitHub/HiFive01-RevB/FS_workspace/002_LED_Blink_All/freedom-metal/src/drivers/riscv_cpu.c:517
            intc->metal_int_table[id].sub_int = priv;
20012cfc:	fe842683          	lw	a3,-24(s0)
20012d00:	fd842703          	lw	a4,-40(s0)
20012d04:	87ba                	mv	a5,a4
20012d06:	0786                	slli	a5,a5,0x1
20012d08:	97ba                	add	a5,a5,a4
20012d0a:	078e                	slli	a5,a5,0x3
20012d0c:	97b6                	add	a5,a5,a3
20012d0e:	fd042703          	lw	a4,-48(s0)
20012d12:	08e7aa23          	sw	a4,148(a5)
E:/GitHub/HiFive01-RevB/FS_workspace/002_LED_Blink_All/freedom-metal/src/drivers/riscv_cpu.c:518
            break;
20012d16:	a085                	j	20012d76 <__metal_driver_riscv_cpu_controller_interrupt_register+0x1d2>
E:/GitHub/HiFive01-RevB/FS_workspace/002_LED_Blink_All/freedom-metal/src/drivers/riscv_cpu.c:520
        case METAL_INTERRUPT_ID_BEU:
            intc->metal_int_beu.handler = __metal_default_beu_handler;
20012d18:	fe842783          	lw	a5,-24(s0)
20012d1c:	20012737          	lui	a4,0x20012
20012d20:	c2470713          	addi	a4,a4,-988 # 20011c24 <__metal_default_beu_handler>
20012d24:	38e7a823          	sw	a4,912(a5)
E:/GitHub/HiFive01-RevB/FS_workspace/002_LED_Blink_All/freedom-metal/src/drivers/riscv_cpu.c:521
            intc->metal_int_beu.exint_data = priv;
20012d28:	fe842783          	lw	a5,-24(s0)
20012d2c:	fd042703          	lw	a4,-48(s0)
20012d30:	38e7ac23          	sw	a4,920(a5)
E:/GitHub/HiFive01-RevB/FS_workspace/002_LED_Blink_All/freedom-metal/src/drivers/riscv_cpu.c:522
            break;
20012d34:	a089                	j	20012d76 <__metal_driver_riscv_cpu_controller_interrupt_register+0x1d2>
E:/GitHub/HiFive01-RevB/FS_workspace/002_LED_Blink_All/freedom-metal/src/drivers/riscv_cpu.c:540
        case METAL_INTERRUPT_ID_LC11:
        case METAL_INTERRUPT_ID_LC12:
        case METAL_INTERRUPT_ID_LC13:
        case METAL_INTERRUPT_ID_LC14:
        case METAL_INTERRUPT_ID_LC15:
            intc->metal_int_table[id].handler =
20012d36:	fe842683          	lw	a3,-24(s0)
20012d3a:	fd842703          	lw	a4,-40(s0)
20012d3e:	87ba                	mv	a5,a4
20012d40:	0786                	slli	a5,a5,0x1
20012d42:	97ba                	add	a5,a5,a4
20012d44:	078e                	slli	a5,a5,0x3
20012d46:	97b6                	add	a5,a5,a3
20012d48:	20012737          	lui	a4,0x20012
20012d4c:	a5270713          	addi	a4,a4,-1454 # 20011a52 <__metal_default_interrupt_handler>
20012d50:	08e7a823          	sw	a4,144(a5)
E:/GitHub/HiFive01-RevB/FS_workspace/002_LED_Blink_All/freedom-metal/src/drivers/riscv_cpu.c:542
                __metal_default_interrupt_handler;
            intc->metal_int_table[id].sub_int = priv;
20012d54:	fe842683          	lw	a3,-24(s0)
20012d58:	fd842703          	lw	a4,-40(s0)
20012d5c:	87ba                	mv	a5,a4
20012d5e:	0786                	slli	a5,a5,0x1
20012d60:	97ba                	add	a5,a5,a4
20012d62:	078e                	slli	a5,a5,0x3
20012d64:	97b6                	add	a5,a5,a3
20012d66:	fd042703          	lw	a4,-48(s0)
20012d6a:	08e7aa23          	sw	a4,148(a5)
E:/GitHub/HiFive01-RevB/FS_workspace/002_LED_Blink_All/freedom-metal/src/drivers/riscv_cpu.c:543
            break;
20012d6e:	a021                	j	20012d76 <__metal_driver_riscv_cpu_controller_interrupt_register+0x1d2>
E:/GitHub/HiFive01-RevB/FS_workspace/002_LED_Blink_All/freedom-metal/src/drivers/riscv_cpu.c:545
        default:
            rc = -12;
20012d70:	57d1                	li	a5,-12
20012d72:	fef42623          	sw	a5,-20(s0)
E:/GitHub/HiFive01-RevB/FS_workspace/002_LED_Blink_All/freedom-metal/src/drivers/riscv_cpu.c:548
        }
    }
    return rc;
20012d76:	fec42783          	lw	a5,-20(s0)
E:/GitHub/HiFive01-RevB/FS_workspace/002_LED_Blink_All/freedom-metal/src/drivers/riscv_cpu.c:549
}
20012d7a:	853e                	mv	a0,a5
20012d7c:	50b2                	lw	ra,44(sp)
20012d7e:	5422                	lw	s0,40(sp)
20012d80:	6145                	addi	sp,sp,48
20012d82:	8082                	ret

20012d84 <__metal_driver_riscv_cpu_controller_interrupt_enable>:
__metal_driver_riscv_cpu_controller_interrupt_enable():
E:/GitHub/HiFive01-RevB/FS_workspace/002_LED_Blink_All/freedom-metal/src/drivers/riscv_cpu.c:552

int __metal_driver_riscv_cpu_controller_interrupt_enable(
    struct metal_interrupt *controller, int id) {
20012d84:	1101                	addi	sp,sp,-32
20012d86:	ce06                	sw	ra,28(sp)
20012d88:	cc22                	sw	s0,24(sp)
20012d8a:	1000                	addi	s0,sp,32
20012d8c:	fea42623          	sw	a0,-20(s0)
20012d90:	feb42423          	sw	a1,-24(s0)
E:/GitHub/HiFive01-RevB/FS_workspace/002_LED_Blink_All/freedom-metal/src/drivers/riscv_cpu.c:553
    return __metal_local_interrupt_enable(controller, id, METAL_ENABLE);
20012d94:	fe842783          	lw	a5,-24(s0)
20012d98:	4605                	li	a2,1
20012d9a:	85be                	mv	a1,a5
20012d9c:	fec42503          	lw	a0,-20(s0)
20012da0:	3921                	jal	200129b8 <__metal_local_interrupt_enable>
20012da2:	87aa                	mv	a5,a0
E:/GitHub/HiFive01-RevB/FS_workspace/002_LED_Blink_All/freedom-metal/src/drivers/riscv_cpu.c:554
}
20012da4:	853e                	mv	a0,a5
20012da6:	40f2                	lw	ra,28(sp)
20012da8:	4462                	lw	s0,24(sp)
20012daa:	6105                	addi	sp,sp,32
20012dac:	8082                	ret

20012dae <__metal_driver_riscv_cpu_controller_interrupt_disable>:
__metal_driver_riscv_cpu_controller_interrupt_disable():
E:/GitHub/HiFive01-RevB/FS_workspace/002_LED_Blink_All/freedom-metal/src/drivers/riscv_cpu.c:557

int __metal_driver_riscv_cpu_controller_interrupt_disable(
    struct metal_interrupt *controller, int id) {
20012dae:	1101                	addi	sp,sp,-32
20012db0:	ce06                	sw	ra,28(sp)
20012db2:	cc22                	sw	s0,24(sp)
20012db4:	1000                	addi	s0,sp,32
20012db6:	fea42623          	sw	a0,-20(s0)
20012dba:	feb42423          	sw	a1,-24(s0)
E:/GitHub/HiFive01-RevB/FS_workspace/002_LED_Blink_All/freedom-metal/src/drivers/riscv_cpu.c:558
    return __metal_local_interrupt_enable(controller, id, METAL_DISABLE);
20012dbe:	fe842783          	lw	a5,-24(s0)
20012dc2:	4601                	li	a2,0
20012dc4:	85be                	mv	a1,a5
20012dc6:	fec42503          	lw	a0,-20(s0)
20012dca:	36fd                	jal	200129b8 <__metal_local_interrupt_enable>
20012dcc:	87aa                	mv	a5,a0
E:/GitHub/HiFive01-RevB/FS_workspace/002_LED_Blink_All/freedom-metal/src/drivers/riscv_cpu.c:559
}
20012dce:	853e                	mv	a0,a5
20012dd0:	40f2                	lw	ra,28(sp)
20012dd2:	4462                	lw	s0,24(sp)
20012dd4:	6105                	addi	sp,sp,32
20012dd6:	8082                	ret

20012dd8 <__metal_driver_riscv_cpu_controller_get_vector_mode>:
__metal_driver_riscv_cpu_controller_get_vector_mode():
E:/GitHub/HiFive01-RevB/FS_workspace/002_LED_Blink_All/freedom-metal/src/drivers/riscv_cpu.c:591
    }
    return -1;
}

metal_vector_mode __metal_driver_riscv_cpu_controller_get_vector_mode(
    struct metal_interrupt *controller) {
20012dd8:	1101                	addi	sp,sp,-32
20012dda:	ce06                	sw	ra,28(sp)
20012ddc:	cc22                	sw	s0,24(sp)
20012dde:	1000                	addi	s0,sp,32
20012de0:	fea42623          	sw	a0,-20(s0)
E:/GitHub/HiFive01-RevB/FS_workspace/002_LED_Blink_All/freedom-metal/src/drivers/riscv_cpu.c:592
    return __metal_controller_interrupt_vector_mode();
20012de4:	a73ff0ef          	jal	ra,20012856 <__metal_controller_interrupt_vector_mode>
20012de8:	87aa                	mv	a5,a0
E:/GitHub/HiFive01-RevB/FS_workspace/002_LED_Blink_All/freedom-metal/src/drivers/riscv_cpu.c:593
}
20012dea:	853e                	mv	a0,a5
20012dec:	40f2                	lw	ra,28(sp)
20012dee:	4462                	lw	s0,24(sp)
20012df0:	6105                	addi	sp,sp,32
20012df2:	8082                	ret

20012df4 <__metal_driver_riscv_cpu_controller_set_vector_mode>:
__metal_driver_riscv_cpu_controller_set_vector_mode():
E:/GitHub/HiFive01-RevB/FS_workspace/002_LED_Blink_All/freedom-metal/src/drivers/riscv_cpu.c:596

int __metal_driver_riscv_cpu_controller_set_vector_mode(
    struct metal_interrupt *controller, metal_vector_mode mode) {
20012df4:	1101                	addi	sp,sp,-32
20012df6:	ce06                	sw	ra,28(sp)
20012df8:	cc22                	sw	s0,24(sp)
20012dfa:	1000                	addi	s0,sp,32
20012dfc:	fea42623          	sw	a0,-20(s0)
20012e00:	feb42423          	sw	a1,-24(s0)
E:/GitHub/HiFive01-RevB/FS_workspace/002_LED_Blink_All/freedom-metal/src/drivers/riscv_cpu.c:598

    if (mode == METAL_DIRECT_MODE) {
20012e04:	fe842783          	lw	a5,-24(s0)
20012e08:	eb99                	bnez	a5,20012e1e <__metal_driver_riscv_cpu_controller_set_vector_mode+0x2a>
E:/GitHub/HiFive01-RevB/FS_workspace/002_LED_Blink_All/freedom-metal/src/drivers/riscv_cpu.c:599
        __metal_controller_interrupt_vector(
20012e0a:	200127b7          	lui	a5,0x20012
20012e0e:	d0078593          	addi	a1,a5,-768 # 20011d00 <__metal_exception_handler>
20012e12:	fe842503          	lw	a0,-24(s0)
20012e16:	a99ff0ef          	jal	ra,200128ae <__metal_controller_interrupt_vector>
E:/GitHub/HiFive01-RevB/FS_workspace/002_LED_Blink_All/freedom-metal/src/drivers/riscv_cpu.c:601
            mode, (void *)(uintptr_t)&__metal_exception_handler);
        return 0;
20012e1a:	4781                	li	a5,0
20012e1c:	a00d                	j	20012e3e <__metal_driver_riscv_cpu_controller_set_vector_mode+0x4a>
E:/GitHub/HiFive01-RevB/FS_workspace/002_LED_Blink_All/freedom-metal/src/drivers/riscv_cpu.c:603
    }
    if (mode == METAL_VECTOR_MODE) {
20012e1e:	fe842703          	lw	a4,-24(s0)
20012e22:	4785                	li	a5,1
20012e24:	00f71c63          	bne	a4,a5,20012e3c <__metal_driver_riscv_cpu_controller_set_vector_mode+0x48>
E:/GitHub/HiFive01-RevB/FS_workspace/002_LED_Blink_All/freedom-metal/src/drivers/riscv_cpu.c:604
        __metal_controller_interrupt_vector(
20012e28:	200157b7          	lui	a5,0x20015
20012e2c:	38078593          	addi	a1,a5,896 # 20015380 <__metal_vector_table>
20012e30:	fe842503          	lw	a0,-24(s0)
20012e34:	a7bff0ef          	jal	ra,200128ae <__metal_controller_interrupt_vector>
E:/GitHub/HiFive01-RevB/FS_workspace/002_LED_Blink_All/freedom-metal/src/drivers/riscv_cpu.c:606
            mode, (void *)(uintptr_t)__metal_vector_table);
        return 0;
20012e38:	4781                	li	a5,0
20012e3a:	a011                	j	20012e3e <__metal_driver_riscv_cpu_controller_set_vector_mode+0x4a>
E:/GitHub/HiFive01-RevB/FS_workspace/002_LED_Blink_All/freedom-metal/src/drivers/riscv_cpu.c:608
    }
    return -1;
20012e3c:	57fd                	li	a5,-1
E:/GitHub/HiFive01-RevB/FS_workspace/002_LED_Blink_All/freedom-metal/src/drivers/riscv_cpu.c:609
}
20012e3e:	853e                	mv	a0,a5
20012e40:	40f2                	lw	ra,28(sp)
20012e42:	4462                	lw	s0,24(sp)
20012e44:	6105                	addi	sp,sp,32
20012e46:	8082                	ret

20012e48 <__metal_driver_riscv_cpu_controller_command_request>:
__metal_driver_riscv_cpu_controller_command_request():
E:/GitHub/HiFive01-RevB/FS_workspace/002_LED_Blink_All/freedom-metal/src/drivers/riscv_cpu.c:612

int __metal_driver_riscv_cpu_controller_command_request(
    struct metal_interrupt *controller, int cmd, void *data) {
20012e48:	1101                	addi	sp,sp,-32
20012e4a:	ce22                	sw	s0,28(sp)
20012e4c:	1000                	addi	s0,sp,32
20012e4e:	fea42623          	sw	a0,-20(s0)
20012e52:	feb42423          	sw	a1,-24(s0)
20012e56:	fec42223          	sw	a2,-28(s0)
E:/GitHub/HiFive01-RevB/FS_workspace/002_LED_Blink_All/freedom-metal/src/drivers/riscv_cpu.c:615
    /* NOP for now, unless local interrupt lines the like of clic, clint, plic
     */
    return 0;
20012e5a:	4781                	li	a5,0
E:/GitHub/HiFive01-RevB/FS_workspace/002_LED_Blink_All/freedom-metal/src/drivers/riscv_cpu.c:616
}
20012e5c:	853e                	mv	a0,a5
20012e5e:	4472                	lw	s0,28(sp)
20012e60:	6105                	addi	sp,sp,32
20012e62:	8082                	ret

20012e64 <__metal_driver_cpu_mcycle_get>:
__metal_driver_cpu_mcycle_get():
E:/GitHub/HiFive01-RevB/FS_workspace/002_LED_Blink_All/freedom-metal/src/drivers/riscv_cpu.c:620

/* CPU driver !!! */

unsigned long long __metal_driver_cpu_mcycle_get(struct metal_cpu *cpu) {
20012e64:	7139                	addi	sp,sp,-64
20012e66:	de22                	sw	s0,60(sp)
20012e68:	0080                	addi	s0,sp,64
20012e6a:	fca42623          	sw	a0,-52(s0)
E:/GitHub/HiFive01-RevB/FS_workspace/002_LED_Blink_All/freedom-metal/src/drivers/riscv_cpu.c:621
    unsigned long long val = 0;
20012e6e:	4501                	li	a0,0
20012e70:	4581                	li	a1,0
20012e72:	fea42423          	sw	a0,-24(s0)
20012e76:	feb42623          	sw	a1,-20(s0)
E:/GitHub/HiFive01-RevB/FS_workspace/002_LED_Blink_All/freedom-metal/src/drivers/riscv_cpu.c:627 (discriminator 1)

#if __riscv_xlen == 32
    unsigned long hi, hi1, lo;

    do {
        __asm__ volatile("csrr %0, mcycleh" : "=r"(hi));
20012e7a:	b80025f3          	csrr	a1,mcycleh
20012e7e:	feb42223          	sw	a1,-28(s0)
E:/GitHub/HiFive01-RevB/FS_workspace/002_LED_Blink_All/freedom-metal/src/drivers/riscv_cpu.c:628 (discriminator 1)
        __asm__ volatile("csrr %0, mcycle" : "=r"(lo));
20012e82:	b00025f3          	csrr	a1,mcycle
20012e86:	feb42023          	sw	a1,-32(s0)
E:/GitHub/HiFive01-RevB/FS_workspace/002_LED_Blink_All/freedom-metal/src/drivers/riscv_cpu.c:629 (discriminator 1)
        __asm__ volatile("csrr %0, mcycleh" : "=r"(hi1));
20012e8a:	b80025f3          	csrr	a1,mcycleh
20012e8e:	fcb42e23          	sw	a1,-36(s0)
E:/GitHub/HiFive01-RevB/FS_workspace/002_LED_Blink_All/freedom-metal/src/drivers/riscv_cpu.c:632 (discriminator 1)
        /* hi != hi1 means mcycle overflow during we get value,
         * so we must retry. */
    } while (hi != hi1);
20012e92:	fe442503          	lw	a0,-28(s0)
20012e96:	fdc42583          	lw	a1,-36(s0)
20012e9a:	feb510e3          	bne	a0,a1,20012e7a <__metal_driver_cpu_mcycle_get+0x16>
E:/GitHub/HiFive01-RevB/FS_workspace/002_LED_Blink_All/freedom-metal/src/drivers/riscv_cpu.c:634

    val = ((unsigned long long)hi << 32) | lo;
20012e9e:	fe442583          	lw	a1,-28(s0)
20012ea2:	882e                	mv	a6,a1
20012ea4:	4881                	li	a7,0
20012ea6:	00081793          	slli	a5,a6,0x0
20012eaa:	4701                	li	a4,0
20012eac:	fe042583          	lw	a1,-32(s0)
20012eb0:	862e                	mv	a2,a1
20012eb2:	4681                	li	a3,0
20012eb4:	00c765b3          	or	a1,a4,a2
20012eb8:	feb42423          	sw	a1,-24(s0)
20012ebc:	8fd5                	or	a5,a5,a3
20012ebe:	fef42623          	sw	a5,-20(s0)
E:/GitHub/HiFive01-RevB/FS_workspace/002_LED_Blink_All/freedom-metal/src/drivers/riscv_cpu.c:639
#else
    __asm__ volatile("csrr %0, mcycle" : "=r"(val));
#endif

    return val;
20012ec2:	fe842703          	lw	a4,-24(s0)
20012ec6:	fec42783          	lw	a5,-20(s0)
E:/GitHub/HiFive01-RevB/FS_workspace/002_LED_Blink_All/freedom-metal/src/drivers/riscv_cpu.c:640
}
20012eca:	853a                	mv	a0,a4
20012ecc:	85be                	mv	a1,a5
20012ece:	5472                	lw	s0,60(sp)
20012ed0:	6121                	addi	sp,sp,64
20012ed2:	8082                	ret

20012ed4 <__metal_driver_cpu_timebase_get>:
__metal_driver_cpu_timebase_get():
E:/GitHub/HiFive01-RevB/FS_workspace/002_LED_Blink_All/freedom-metal/src/drivers/riscv_cpu.c:642

unsigned long long __metal_driver_cpu_timebase_get(struct metal_cpu *cpu) {
20012ed4:	7179                	addi	sp,sp,-48
20012ed6:	d606                	sw	ra,44(sp)
20012ed8:	d422                	sw	s0,40(sp)
20012eda:	d24a                	sw	s2,36(sp)
20012edc:	d04e                	sw	s3,32(sp)
20012ede:	1800                	addi	s0,sp,48
20012ee0:	fca42e23          	sw	a0,-36(s0)
E:/GitHub/HiFive01-RevB/FS_workspace/002_LED_Blink_All/freedom-metal/src/drivers/riscv_cpu.c:644
    int timebase;
    if (!cpu) {
20012ee4:	fdc42783          	lw	a5,-36(s0)
20012ee8:	e781                	bnez	a5,20012ef0 <__metal_driver_cpu_timebase_get+0x1c>
E:/GitHub/HiFive01-RevB/FS_workspace/002_LED_Blink_All/freedom-metal/src/drivers/riscv_cpu.c:645
        return 0;
20012eea:	4901                	li	s2,0
20012eec:	4981                	li	s3,0
20012eee:	a821                	j	20012f06 <__metal_driver_cpu_timebase_get+0x32>
E:/GitHub/HiFive01-RevB/FS_workspace/002_LED_Blink_All/freedom-metal/src/drivers/riscv_cpu.c:648
    }

    timebase = __metal_driver_cpu_timebase((struct metal_cpu *)cpu);
20012ef0:	fdc42503          	lw	a0,-36(s0)
20012ef4:	955fe0ef          	jal	ra,20011848 <__metal_driver_cpu_timebase>
20012ef8:	fea42623          	sw	a0,-20(s0)
E:/GitHub/HiFive01-RevB/FS_workspace/002_LED_Blink_All/freedom-metal/src/drivers/riscv_cpu.c:649
    return timebase;
20012efc:	fec42783          	lw	a5,-20(s0)
20012f00:	893e                	mv	s2,a5
20012f02:	87fd                	srai	a5,a5,0x1f
20012f04:	89be                	mv	s3,a5
E:/GitHub/HiFive01-RevB/FS_workspace/002_LED_Blink_All/freedom-metal/src/drivers/riscv_cpu.c:650
}
20012f06:	874a                	mv	a4,s2
20012f08:	87ce                	mv	a5,s3
20012f0a:	853a                	mv	a0,a4
20012f0c:	85be                	mv	a1,a5
20012f0e:	50b2                	lw	ra,44(sp)
20012f10:	5422                	lw	s0,40(sp)
20012f12:	5912                	lw	s2,36(sp)
20012f14:	5982                	lw	s3,32(sp)
20012f16:	6145                	addi	sp,sp,48
20012f18:	8082                	ret

20012f1a <__metal_driver_cpu_mtime_get>:
__metal_driver_cpu_mtime_get():
E:/GitHub/HiFive01-RevB/FS_workspace/002_LED_Blink_All/freedom-metal/src/drivers/riscv_cpu.c:652

unsigned long long __metal_driver_cpu_mtime_get(struct metal_cpu *cpu) {
20012f1a:	7179                	addi	sp,sp,-48
20012f1c:	d606                	sw	ra,44(sp)
20012f1e:	d422                	sw	s0,40(sp)
20012f20:	1800                	addi	s0,sp,48
20012f22:	fca42e23          	sw	a0,-36(s0)
E:/GitHub/HiFive01-RevB/FS_workspace/002_LED_Blink_All/freedom-metal/src/drivers/riscv_cpu.c:653
    unsigned long long time = 0;
20012f26:	4781                	li	a5,0
20012f28:	4801                	li	a6,0
20012f2a:	fef42023          	sw	a5,-32(s0)
20012f2e:	ff042223          	sw	a6,-28(s0)
E:/GitHub/HiFive01-RevB/FS_workspace/002_LED_Blink_All/freedom-metal/src/drivers/riscv_cpu.c:657
    struct metal_interrupt *tmr_intc;
    struct __metal_driver_riscv_cpu_intc *intc =
        (struct __metal_driver_riscv_cpu_intc *)
            __metal_driver_cpu_interrupt_controller(cpu);
20012f32:	fdc42503          	lw	a0,-36(s0)
20012f36:	941fe0ef          	jal	ra,20011876 <__metal_driver_cpu_interrupt_controller>
20012f3a:	fea42623          	sw	a0,-20(s0)
E:/GitHub/HiFive01-RevB/FS_workspace/002_LED_Blink_All/freedom-metal/src/drivers/riscv_cpu.c:659

    if (intc) {
20012f3e:	fec42783          	lw	a5,-20(s0)
20012f42:	c78d                	beqz	a5,20012f6c <__metal_driver_cpu_mtime_get+0x52>
E:/GitHub/HiFive01-RevB/FS_workspace/002_LED_Blink_All/freedom-metal/src/drivers/riscv_cpu.c:660
        tmr_intc = intc->metal_int_table[METAL_INTERRUPT_ID_TMR].sub_int;
20012f44:	fec42783          	lw	a5,-20(s0)
20012f48:	13c7a783          	lw	a5,316(a5)
20012f4c:	fef42423          	sw	a5,-24(s0)
E:/GitHub/HiFive01-RevB/FS_workspace/002_LED_Blink_All/freedom-metal/src/drivers/riscv_cpu.c:661
        if (tmr_intc) {
20012f50:	fe842783          	lw	a5,-24(s0)
20012f54:	cf81                	beqz	a5,20012f6c <__metal_driver_cpu_mtime_get+0x52>
E:/GitHub/HiFive01-RevB/FS_workspace/002_LED_Blink_All/freedom-metal/src/drivers/riscv_cpu.c:662
            tmr_intc->vtable->command_request(tmr_intc, METAL_TIMER_MTIME_GET,
20012f56:	fe842783          	lw	a5,-24(s0)
20012f5a:	439c                	lw	a5,0(a5)
20012f5c:	47f8                	lw	a4,76(a5)
20012f5e:	fe040793          	addi	a5,s0,-32
20012f62:	863e                	mv	a2,a5
20012f64:	4585                	li	a1,1
20012f66:	fe842503          	lw	a0,-24(s0)
20012f6a:	9702                	jalr	a4
E:/GitHub/HiFive01-RevB/FS_workspace/002_LED_Blink_All/freedom-metal/src/drivers/riscv_cpu.c:666
                                              &time);
        }
    }
    return time;
20012f6c:	fe042703          	lw	a4,-32(s0)
20012f70:	fe442783          	lw	a5,-28(s0)
E:/GitHub/HiFive01-RevB/FS_workspace/002_LED_Blink_All/freedom-metal/src/drivers/riscv_cpu.c:667
}
20012f74:	853a                	mv	a0,a4
20012f76:	85be                	mv	a1,a5
20012f78:	50b2                	lw	ra,44(sp)
20012f7a:	5422                	lw	s0,40(sp)
20012f7c:	6145                	addi	sp,sp,48
20012f7e:	8082                	ret

20012f80 <__metal_driver_cpu_mtimecmp_set>:
__metal_driver_cpu_mtimecmp_set():
E:/GitHub/HiFive01-RevB/FS_workspace/002_LED_Blink_All/freedom-metal/src/drivers/riscv_cpu.c:670

int __metal_driver_cpu_mtimecmp_set(struct metal_cpu *cpu,
                                    unsigned long long time) {
20012f80:	7179                	addi	sp,sp,-48
20012f82:	d606                	sw	ra,44(sp)
20012f84:	d422                	sw	s0,40(sp)
20012f86:	d226                	sw	s1,36(sp)
20012f88:	1800                	addi	s0,sp,48
20012f8a:	fca42e23          	sw	a0,-36(s0)
20012f8e:	fcb42823          	sw	a1,-48(s0)
20012f92:	fcc42a23          	sw	a2,-44(s0)
E:/GitHub/HiFive01-RevB/FS_workspace/002_LED_Blink_All/freedom-metal/src/drivers/riscv_cpu.c:671
    int rc = -1;
20012f96:	57fd                	li	a5,-1
20012f98:	fef42623          	sw	a5,-20(s0)
E:/GitHub/HiFive01-RevB/FS_workspace/002_LED_Blink_All/freedom-metal/src/drivers/riscv_cpu.c:675
    struct metal_interrupt *tmr_intc;
    struct __metal_driver_riscv_cpu_intc *intc =
        (struct __metal_driver_riscv_cpu_intc *)
            __metal_driver_cpu_interrupt_controller(cpu);
20012f9c:	fdc42503          	lw	a0,-36(s0)
20012fa0:	8d7fe0ef          	jal	ra,20011876 <__metal_driver_cpu_interrupt_controller>
20012fa4:	fea42423          	sw	a0,-24(s0)
E:/GitHub/HiFive01-RevB/FS_workspace/002_LED_Blink_All/freedom-metal/src/drivers/riscv_cpu.c:677

    if (intc) {
20012fa8:	fe842783          	lw	a5,-24(s0)
20012fac:	cf8d                	beqz	a5,20012fe6 <__metal_driver_cpu_mtimecmp_set+0x66>
E:/GitHub/HiFive01-RevB/FS_workspace/002_LED_Blink_All/freedom-metal/src/drivers/riscv_cpu.c:678
        tmr_intc = intc->metal_int_table[METAL_INTERRUPT_ID_TMR].sub_int;
20012fae:	fe842783          	lw	a5,-24(s0)
20012fb2:	13c7a783          	lw	a5,316(a5)
20012fb6:	fef42223          	sw	a5,-28(s0)
E:/GitHub/HiFive01-RevB/FS_workspace/002_LED_Blink_All/freedom-metal/src/drivers/riscv_cpu.c:679
        if (tmr_intc) {
20012fba:	fe442783          	lw	a5,-28(s0)
20012fbe:	c785                	beqz	a5,20012fe6 <__metal_driver_cpu_mtimecmp_set+0x66>
E:/GitHub/HiFive01-RevB/FS_workspace/002_LED_Blink_All/freedom-metal/src/drivers/riscv_cpu.c:680
            rc = tmr_intc->vtable->mtimecmp_set(
20012fc0:	fe442783          	lw	a5,-28(s0)
20012fc4:	439c                	lw	a5,0(a5)
20012fc6:	4ba4                	lw	s1,80(a5)
20012fc8:	fdc42503          	lw	a0,-36(s0)
20012fcc:	855fe0ef          	jal	ra,20011820 <__metal_driver_cpu_hartid>
20012fd0:	87aa                	mv	a5,a0
20012fd2:	fd042603          	lw	a2,-48(s0)
20012fd6:	fd442683          	lw	a3,-44(s0)
20012fda:	85be                	mv	a1,a5
20012fdc:	fe442503          	lw	a0,-28(s0)
20012fe0:	9482                	jalr	s1
20012fe2:	fea42623          	sw	a0,-20(s0)
E:/GitHub/HiFive01-RevB/FS_workspace/002_LED_Blink_All/freedom-metal/src/drivers/riscv_cpu.c:684
                tmr_intc, __metal_driver_cpu_hartid(cpu), time);
        }
    }
    return rc;
20012fe6:	fec42783          	lw	a5,-20(s0)
E:/GitHub/HiFive01-RevB/FS_workspace/002_LED_Blink_All/freedom-metal/src/drivers/riscv_cpu.c:685
}
20012fea:	853e                	mv	a0,a5
20012fec:	50b2                	lw	ra,44(sp)
20012fee:	5422                	lw	s0,40(sp)
20012ff0:	5492                	lw	s1,36(sp)
20012ff2:	6145                	addi	sp,sp,48
20012ff4:	8082                	ret

20012ff6 <__metal_driver_cpu_timer_controller_interrupt>:
__metal_driver_cpu_timer_controller_interrupt():
E:/GitHub/HiFive01-RevB/FS_workspace/002_LED_Blink_All/freedom-metal/src/drivers/riscv_cpu.c:688

struct metal_interrupt *
__metal_driver_cpu_timer_controller_interrupt(struct metal_cpu *cpu) {
20012ff6:	1101                	addi	sp,sp,-32
20012ff8:	ce22                	sw	s0,28(sp)
20012ffa:	1000                	addi	s0,sp,32
20012ffc:	fea42623          	sw	a0,-20(s0)
E:/GitHub/HiFive01-RevB/FS_workspace/002_LED_Blink_All/freedom-metal/src/drivers/riscv_cpu.c:690
#ifdef __METAL_DT_RISCV_CLINT0_HANDLE
    return __METAL_DT_RISCV_CLINT0_HANDLE;
20013000:	800017b7          	lui	a5,0x80001
20013004:	a7478793          	addi	a5,a5,-1420 # 80000a74 <__global_pointer$+0xfffff804>
E:/GitHub/HiFive01-RevB/FS_workspace/002_LED_Blink_All/freedom-metal/src/drivers/riscv_cpu.c:699
#else
#pragma message("There is no interrupt controller for Timer interrupt")
    return NULL;
#endif
#endif
}
20013008:	853e                	mv	a0,a5
2001300a:	4472                	lw	s0,28(sp)
2001300c:	6105                	addi	sp,sp,32
2001300e:	8082                	ret

20013010 <__metal_driver_cpu_get_timer_interrupt_id>:
__metal_driver_cpu_get_timer_interrupt_id():
E:/GitHub/HiFive01-RevB/FS_workspace/002_LED_Blink_All/freedom-metal/src/drivers/riscv_cpu.c:701

int __metal_driver_cpu_get_timer_interrupt_id(struct metal_cpu *cpu) {
20013010:	1101                	addi	sp,sp,-32
20013012:	ce22                	sw	s0,28(sp)
20013014:	1000                	addi	s0,sp,32
20013016:	fea42623          	sw	a0,-20(s0)
E:/GitHub/HiFive01-RevB/FS_workspace/002_LED_Blink_All/freedom-metal/src/drivers/riscv_cpu.c:702
    return METAL_INTERRUPT_ID_TMR;
2001301a:	479d                	li	a5,7
E:/GitHub/HiFive01-RevB/FS_workspace/002_LED_Blink_All/freedom-metal/src/drivers/riscv_cpu.c:703
}
2001301c:	853e                	mv	a0,a5
2001301e:	4472                	lw	s0,28(sp)
20013020:	6105                	addi	sp,sp,32
20013022:	8082                	ret

20013024 <__metal_driver_cpu_sw_controller_interrupt>:
__metal_driver_cpu_sw_controller_interrupt():
E:/GitHub/HiFive01-RevB/FS_workspace/002_LED_Blink_All/freedom-metal/src/drivers/riscv_cpu.c:706

struct metal_interrupt *
__metal_driver_cpu_sw_controller_interrupt(struct metal_cpu *cpu) {
20013024:	1101                	addi	sp,sp,-32
20013026:	ce22                	sw	s0,28(sp)
20013028:	1000                	addi	s0,sp,32
2001302a:	fea42623          	sw	a0,-20(s0)
E:/GitHub/HiFive01-RevB/FS_workspace/002_LED_Blink_All/freedom-metal/src/drivers/riscv_cpu.c:708
#ifdef __METAL_DT_RISCV_CLINT0_HANDLE
    return __METAL_DT_RISCV_CLINT0_HANDLE;
2001302e:	800017b7          	lui	a5,0x80001
20013032:	a7478793          	addi	a5,a5,-1420 # 80000a74 <__global_pointer$+0xfffff804>
E:/GitHub/HiFive01-RevB/FS_workspace/002_LED_Blink_All/freedom-metal/src/drivers/riscv_cpu.c:717
#else
#pragma message("There is no interrupt controller for Software interrupt")
    return NULL;
#endif
#endif
}
20013036:	853e                	mv	a0,a5
20013038:	4472                	lw	s0,28(sp)
2001303a:	6105                	addi	sp,sp,32
2001303c:	8082                	ret

2001303e <__metal_driver_cpu_get_sw_interrupt_id>:
__metal_driver_cpu_get_sw_interrupt_id():
E:/GitHub/HiFive01-RevB/FS_workspace/002_LED_Blink_All/freedom-metal/src/drivers/riscv_cpu.c:719

int __metal_driver_cpu_get_sw_interrupt_id(struct metal_cpu *cpu) {
2001303e:	1101                	addi	sp,sp,-32
20013040:	ce22                	sw	s0,28(sp)
20013042:	1000                	addi	s0,sp,32
20013044:	fea42623          	sw	a0,-20(s0)
E:/GitHub/HiFive01-RevB/FS_workspace/002_LED_Blink_All/freedom-metal/src/drivers/riscv_cpu.c:720
    return METAL_INTERRUPT_ID_SW;
20013048:	478d                	li	a5,3
E:/GitHub/HiFive01-RevB/FS_workspace/002_LED_Blink_All/freedom-metal/src/drivers/riscv_cpu.c:721
}
2001304a:	853e                	mv	a0,a5
2001304c:	4472                	lw	s0,28(sp)
2001304e:	6105                	addi	sp,sp,32
20013050:	8082                	ret

20013052 <__metal_driver_cpu_set_sw_ipi>:
__metal_driver_cpu_set_sw_ipi():
E:/GitHub/HiFive01-RevB/FS_workspace/002_LED_Blink_All/freedom-metal/src/drivers/riscv_cpu.c:723

int __metal_driver_cpu_set_sw_ipi(struct metal_cpu *cpu, int hartid) {
20013052:	7179                	addi	sp,sp,-48
20013054:	d606                	sw	ra,44(sp)
20013056:	d422                	sw	s0,40(sp)
20013058:	1800                	addi	s0,sp,48
2001305a:	fca42e23          	sw	a0,-36(s0)
2001305e:	fcb42c23          	sw	a1,-40(s0)
E:/GitHub/HiFive01-RevB/FS_workspace/002_LED_Blink_All/freedom-metal/src/drivers/riscv_cpu.c:724
    int rc = -1;
20013062:	57fd                	li	a5,-1
20013064:	fef42623          	sw	a5,-20(s0)
E:/GitHub/HiFive01-RevB/FS_workspace/002_LED_Blink_All/freedom-metal/src/drivers/riscv_cpu.c:728
    struct metal_interrupt *sw_intc;
    struct __metal_driver_riscv_cpu_intc *intc =
        (struct __metal_driver_riscv_cpu_intc *)
            __metal_driver_cpu_interrupt_controller(cpu);
20013068:	fdc42503          	lw	a0,-36(s0)
2001306c:	80bfe0ef          	jal	ra,20011876 <__metal_driver_cpu_interrupt_controller>
20013070:	fea42423          	sw	a0,-24(s0)
E:/GitHub/HiFive01-RevB/FS_workspace/002_LED_Blink_All/freedom-metal/src/drivers/riscv_cpu.c:730

    if (intc) {
20013074:	fe842783          	lw	a5,-24(s0)
20013078:	c79d                	beqz	a5,200130a6 <__metal_driver_cpu_set_sw_ipi+0x54>
E:/GitHub/HiFive01-RevB/FS_workspace/002_LED_Blink_All/freedom-metal/src/drivers/riscv_cpu.c:731
        sw_intc = intc->metal_int_table[METAL_INTERRUPT_ID_SW].sub_int;
2001307a:	fe842783          	lw	a5,-24(s0)
2001307e:	0dc7a783          	lw	a5,220(a5)
20013082:	fef42223          	sw	a5,-28(s0)
E:/GitHub/HiFive01-RevB/FS_workspace/002_LED_Blink_All/freedom-metal/src/drivers/riscv_cpu.c:732
        if (sw_intc) {
20013086:	fe442783          	lw	a5,-28(s0)
2001308a:	cf91                	beqz	a5,200130a6 <__metal_driver_cpu_set_sw_ipi+0x54>
E:/GitHub/HiFive01-RevB/FS_workspace/002_LED_Blink_All/freedom-metal/src/drivers/riscv_cpu.c:733
            rc = sw_intc->vtable->command_request(
2001308c:	fe442783          	lw	a5,-28(s0)
20013090:	439c                	lw	a5,0(a5)
20013092:	47f8                	lw	a4,76(a5)
20013094:	fd840793          	addi	a5,s0,-40
20013098:	863e                	mv	a2,a5
2001309a:	458d                	li	a1,3
2001309c:	fe442503          	lw	a0,-28(s0)
200130a0:	9702                	jalr	a4
200130a2:	fea42623          	sw	a0,-20(s0)
E:/GitHub/HiFive01-RevB/FS_workspace/002_LED_Blink_All/freedom-metal/src/drivers/riscv_cpu.c:737
                sw_intc, METAL_SOFTWARE_IPI_SET, &hartid);
        }
    }
    return rc;
200130a6:	fec42783          	lw	a5,-20(s0)
E:/GitHub/HiFive01-RevB/FS_workspace/002_LED_Blink_All/freedom-metal/src/drivers/riscv_cpu.c:738
}
200130aa:	853e                	mv	a0,a5
200130ac:	50b2                	lw	ra,44(sp)
200130ae:	5422                	lw	s0,40(sp)
200130b0:	6145                	addi	sp,sp,48
200130b2:	8082                	ret

200130b4 <__metal_driver_cpu_clear_sw_ipi>:
__metal_driver_cpu_clear_sw_ipi():
E:/GitHub/HiFive01-RevB/FS_workspace/002_LED_Blink_All/freedom-metal/src/drivers/riscv_cpu.c:740

int __metal_driver_cpu_clear_sw_ipi(struct metal_cpu *cpu, int hartid) {
200130b4:	7179                	addi	sp,sp,-48
200130b6:	d606                	sw	ra,44(sp)
200130b8:	d422                	sw	s0,40(sp)
200130ba:	1800                	addi	s0,sp,48
200130bc:	fca42e23          	sw	a0,-36(s0)
200130c0:	fcb42c23          	sw	a1,-40(s0)
E:/GitHub/HiFive01-RevB/FS_workspace/002_LED_Blink_All/freedom-metal/src/drivers/riscv_cpu.c:741
    int rc = -1;
200130c4:	57fd                	li	a5,-1
200130c6:	fef42623          	sw	a5,-20(s0)
E:/GitHub/HiFive01-RevB/FS_workspace/002_LED_Blink_All/freedom-metal/src/drivers/riscv_cpu.c:745
    struct metal_interrupt *sw_intc;
    struct __metal_driver_riscv_cpu_intc *intc =
        (struct __metal_driver_riscv_cpu_intc *)
            __metal_driver_cpu_interrupt_controller(cpu);
200130ca:	fdc42503          	lw	a0,-36(s0)
200130ce:	fa8fe0ef          	jal	ra,20011876 <__metal_driver_cpu_interrupt_controller>
200130d2:	fea42423          	sw	a0,-24(s0)
E:/GitHub/HiFive01-RevB/FS_workspace/002_LED_Blink_All/freedom-metal/src/drivers/riscv_cpu.c:747

    if (intc) {
200130d6:	fe842783          	lw	a5,-24(s0)
200130da:	c79d                	beqz	a5,20013108 <__metal_driver_cpu_clear_sw_ipi+0x54>
E:/GitHub/HiFive01-RevB/FS_workspace/002_LED_Blink_All/freedom-metal/src/drivers/riscv_cpu.c:748
        sw_intc = intc->metal_int_table[METAL_INTERRUPT_ID_SW].sub_int;
200130dc:	fe842783          	lw	a5,-24(s0)
200130e0:	0dc7a783          	lw	a5,220(a5)
200130e4:	fef42223          	sw	a5,-28(s0)
E:/GitHub/HiFive01-RevB/FS_workspace/002_LED_Blink_All/freedom-metal/src/drivers/riscv_cpu.c:749
        if (sw_intc) {
200130e8:	fe442783          	lw	a5,-28(s0)
200130ec:	cf91                	beqz	a5,20013108 <__metal_driver_cpu_clear_sw_ipi+0x54>
E:/GitHub/HiFive01-RevB/FS_workspace/002_LED_Blink_All/freedom-metal/src/drivers/riscv_cpu.c:750
            rc = sw_intc->vtable->command_request(
200130ee:	fe442783          	lw	a5,-28(s0)
200130f2:	439c                	lw	a5,0(a5)
200130f4:	47f8                	lw	a4,76(a5)
200130f6:	fd840793          	addi	a5,s0,-40
200130fa:	863e                	mv	a2,a5
200130fc:	4589                	li	a1,2
200130fe:	fe442503          	lw	a0,-28(s0)
20013102:	9702                	jalr	a4
20013104:	fea42623          	sw	a0,-20(s0)
E:/GitHub/HiFive01-RevB/FS_workspace/002_LED_Blink_All/freedom-metal/src/drivers/riscv_cpu.c:754
                sw_intc, METAL_SOFTWARE_IPI_CLEAR, &hartid);
        }
    }
    return rc;
20013108:	fec42783          	lw	a5,-20(s0)
E:/GitHub/HiFive01-RevB/FS_workspace/002_LED_Blink_All/freedom-metal/src/drivers/riscv_cpu.c:755
}
2001310c:	853e                	mv	a0,a5
2001310e:	50b2                	lw	ra,44(sp)
20013110:	5422                	lw	s0,40(sp)
20013112:	6145                	addi	sp,sp,48
20013114:	8082                	ret

20013116 <__metal_driver_cpu_get_msip>:
__metal_driver_cpu_get_msip():
E:/GitHub/HiFive01-RevB/FS_workspace/002_LED_Blink_All/freedom-metal/src/drivers/riscv_cpu.c:757

int __metal_driver_cpu_get_msip(struct metal_cpu *cpu, int hartid) {
20013116:	7179                	addi	sp,sp,-48
20013118:	d606                	sw	ra,44(sp)
2001311a:	d422                	sw	s0,40(sp)
2001311c:	1800                	addi	s0,sp,48
2001311e:	fca42e23          	sw	a0,-36(s0)
20013122:	fcb42c23          	sw	a1,-40(s0)
E:/GitHub/HiFive01-RevB/FS_workspace/002_LED_Blink_All/freedom-metal/src/drivers/riscv_cpu.c:758
    int rc = 0;
20013126:	fe042623          	sw	zero,-20(s0)
E:/GitHub/HiFive01-RevB/FS_workspace/002_LED_Blink_All/freedom-metal/src/drivers/riscv_cpu.c:762
    struct metal_interrupt *sw_intc;
    struct __metal_driver_riscv_cpu_intc *intc =
        (struct __metal_driver_riscv_cpu_intc *)
            __metal_driver_cpu_interrupt_controller(cpu);
2001312a:	fdc42503          	lw	a0,-36(s0)
2001312e:	f48fe0ef          	jal	ra,20011876 <__metal_driver_cpu_interrupt_controller>
20013132:	fea42423          	sw	a0,-24(s0)
E:/GitHub/HiFive01-RevB/FS_workspace/002_LED_Blink_All/freedom-metal/src/drivers/riscv_cpu.c:764

    if (intc) {
20013136:	fe842783          	lw	a5,-24(s0)
2001313a:	c79d                	beqz	a5,20013168 <__metal_driver_cpu_get_msip+0x52>
E:/GitHub/HiFive01-RevB/FS_workspace/002_LED_Blink_All/freedom-metal/src/drivers/riscv_cpu.c:765
        sw_intc = intc->metal_int_table[METAL_INTERRUPT_ID_SW].sub_int;
2001313c:	fe842783          	lw	a5,-24(s0)
20013140:	0dc7a783          	lw	a5,220(a5)
20013144:	fef42223          	sw	a5,-28(s0)
E:/GitHub/HiFive01-RevB/FS_workspace/002_LED_Blink_All/freedom-metal/src/drivers/riscv_cpu.c:766
        if (sw_intc) {
20013148:	fe442783          	lw	a5,-28(s0)
2001314c:	cf91                	beqz	a5,20013168 <__metal_driver_cpu_get_msip+0x52>
E:/GitHub/HiFive01-RevB/FS_workspace/002_LED_Blink_All/freedom-metal/src/drivers/riscv_cpu.c:767
            rc = sw_intc->vtable->command_request(
2001314e:	fe442783          	lw	a5,-28(s0)
20013152:	439c                	lw	a5,0(a5)
20013154:	47f8                	lw	a4,76(a5)
20013156:	fd840793          	addi	a5,s0,-40
2001315a:	863e                	mv	a2,a5
2001315c:	4591                	li	a1,4
2001315e:	fe442503          	lw	a0,-28(s0)
20013162:	9702                	jalr	a4
20013164:	fea42623          	sw	a0,-20(s0)
E:/GitHub/HiFive01-RevB/FS_workspace/002_LED_Blink_All/freedom-metal/src/drivers/riscv_cpu.c:771
                sw_intc, METAL_SOFTWARE_MSIP_GET, &hartid);
        }
    }
    return rc;
20013168:	fec42783          	lw	a5,-20(s0)
E:/GitHub/HiFive01-RevB/FS_workspace/002_LED_Blink_All/freedom-metal/src/drivers/riscv_cpu.c:772
}
2001316c:	853e                	mv	a0,a5
2001316e:	50b2                	lw	ra,44(sp)
20013170:	5422                	lw	s0,40(sp)
20013172:	6145                	addi	sp,sp,48
20013174:	8082                	ret

20013176 <__metal_driver_cpu_controller_interrupt>:
__metal_driver_cpu_controller_interrupt():
E:/GitHub/HiFive01-RevB/FS_workspace/002_LED_Blink_All/freedom-metal/src/drivers/riscv_cpu.c:775

struct metal_interrupt *
__metal_driver_cpu_controller_interrupt(struct metal_cpu *cpu) {
20013176:	1101                	addi	sp,sp,-32
20013178:	ce06                	sw	ra,28(sp)
2001317a:	cc22                	sw	s0,24(sp)
2001317c:	1000                	addi	s0,sp,32
2001317e:	fea42623          	sw	a0,-20(s0)
E:/GitHub/HiFive01-RevB/FS_workspace/002_LED_Blink_All/freedom-metal/src/drivers/riscv_cpu.c:776
    return __metal_driver_cpu_interrupt_controller(cpu);
20013182:	fec42503          	lw	a0,-20(s0)
20013186:	ef0fe0ef          	jal	ra,20011876 <__metal_driver_cpu_interrupt_controller>
2001318a:	87aa                	mv	a5,a0
E:/GitHub/HiFive01-RevB/FS_workspace/002_LED_Blink_All/freedom-metal/src/drivers/riscv_cpu.c:777
}
2001318c:	853e                	mv	a0,a5
2001318e:	40f2                	lw	ra,28(sp)
20013190:	4462                	lw	s0,24(sp)
20013192:	6105                	addi	sp,sp,32
20013194:	8082                	ret

20013196 <__metal_driver_cpu_exception_register>:
__metal_driver_cpu_exception_register():
E:/GitHub/HiFive01-RevB/FS_workspace/002_LED_Blink_All/freedom-metal/src/drivers/riscv_cpu.c:798
    }
    return -1;
}

int __metal_driver_cpu_exception_register(struct metal_cpu *cpu, int ecode,
                                          metal_exception_handler_t isr) {
20013196:	7179                	addi	sp,sp,-48
20013198:	d606                	sw	ra,44(sp)
2001319a:	d422                	sw	s0,40(sp)
2001319c:	1800                	addi	s0,sp,48
2001319e:	fca42e23          	sw	a0,-36(s0)
200131a2:	fcb42c23          	sw	a1,-40(s0)
200131a6:	fcc42a23          	sw	a2,-44(s0)
E:/GitHub/HiFive01-RevB/FS_workspace/002_LED_Blink_All/freedom-metal/src/drivers/riscv_cpu.c:801
    struct __metal_driver_riscv_cpu_intc *intc =
        (struct __metal_driver_riscv_cpu_intc *)
            __metal_driver_cpu_interrupt_controller(cpu);
200131aa:	fdc42503          	lw	a0,-36(s0)
200131ae:	ec8fe0ef          	jal	ra,20011876 <__metal_driver_cpu_interrupt_controller>
200131b2:	fea42623          	sw	a0,-20(s0)
E:/GitHub/HiFive01-RevB/FS_workspace/002_LED_Blink_All/freedom-metal/src/drivers/riscv_cpu.c:803

    if (intc) {
200131b6:	fec42783          	lw	a5,-20(s0)
200131ba:	cb99                	beqz	a5,200131d0 <__metal_driver_cpu_exception_register+0x3a>
E:/GitHub/HiFive01-RevB/FS_workspace/002_LED_Blink_All/freedom-metal/src/drivers/riscv_cpu.c:804
        return __metal_exception_register((struct metal_interrupt *)intc, ecode,
200131bc:	fd442603          	lw	a2,-44(s0)
200131c0:	fd842583          	lw	a1,-40(s0)
200131c4:	fec42503          	lw	a0,-20(s0)
200131c8:	8adff0ef          	jal	ra,20012a74 <__metal_exception_register>
200131cc:	87aa                	mv	a5,a0
200131ce:	a011                	j	200131d2 <__metal_driver_cpu_exception_register+0x3c>
E:/GitHub/HiFive01-RevB/FS_workspace/002_LED_Blink_All/freedom-metal/src/drivers/riscv_cpu.c:807
                                          isr);
    }
    return -1;
200131d0:	57fd                	li	a5,-1
E:/GitHub/HiFive01-RevB/FS_workspace/002_LED_Blink_All/freedom-metal/src/drivers/riscv_cpu.c:808
}
200131d2:	853e                	mv	a0,a5
200131d4:	50b2                	lw	ra,44(sp)
200131d6:	5422                	lw	s0,40(sp)
200131d8:	6145                	addi	sp,sp,48
200131da:	8082                	ret

200131dc <__metal_driver_cpu_get_instruction_length>:
__metal_driver_cpu_get_instruction_length():
E:/GitHub/HiFive01-RevB/FS_workspace/002_LED_Blink_All/freedom-metal/src/drivers/riscv_cpu.c:811

int __metal_driver_cpu_get_instruction_length(struct metal_cpu *cpu,
                                              uintptr_t epc) {
200131dc:	1101                	addi	sp,sp,-32
200131de:	ce22                	sw	s0,28(sp)
200131e0:	1000                	addi	s0,sp,32
200131e2:	fea42623          	sw	a0,-20(s0)
200131e6:	feb42423          	sw	a1,-24(s0)
E:/GitHub/HiFive01-RevB/FS_workspace/002_LED_Blink_All/freedom-metal/src/drivers/riscv_cpu.c:817
    /**
     * Per ISA compressed instruction has last two bits of opcode set.
     * The encoding '00' '01' '10' are used for compressed instruction.
     * Only enconding '11' isn't regarded as compressed instruction (>16b).
     */
    return ((*(unsigned short *)epc & METAL_INSN_LENGTH_MASK) ==
200131ea:	fe842783          	lw	a5,-24(s0)
200131ee:	0007d783          	lhu	a5,0(a5)
200131f2:	0037f713          	andi	a4,a5,3
E:/GitHub/HiFive01-RevB/FS_workspace/002_LED_Blink_All/freedom-metal/src/drivers/riscv_cpu.c:820
            METAL_INSN_NOT_COMPRESSED)
               ? 4
               : 2;
200131f6:	478d                	li	a5,3
200131f8:	00f71463          	bne	a4,a5,20013200 <__metal_driver_cpu_get_instruction_length+0x24>
E:/GitHub/HiFive01-RevB/FS_workspace/002_LED_Blink_All/freedom-metal/src/drivers/riscv_cpu.c:820 (discriminator 1)
200131fc:	4791                	li	a5,4
200131fe:	a011                	j	20013202 <__metal_driver_cpu_get_instruction_length+0x26>
E:/GitHub/HiFive01-RevB/FS_workspace/002_LED_Blink_All/freedom-metal/src/drivers/riscv_cpu.c:820 (discriminator 2)
20013200:	4789                	li	a5,2
E:/GitHub/HiFive01-RevB/FS_workspace/002_LED_Blink_All/freedom-metal/src/drivers/riscv_cpu.c:821 (discriminator 5)
}
20013202:	853e                	mv	a0,a5
20013204:	4472                	lw	s0,28(sp)
20013206:	6105                	addi	sp,sp,32
20013208:	8082                	ret

2001320a <__metal_driver_cpu_get_exception_pc>:
__metal_driver_cpu_get_exception_pc():
E:/GitHub/HiFive01-RevB/FS_workspace/002_LED_Blink_All/freedom-metal/src/drivers/riscv_cpu.c:823

uintptr_t __metal_driver_cpu_get_exception_pc(struct metal_cpu *cpu) {
2001320a:	7179                	addi	sp,sp,-48
2001320c:	d622                	sw	s0,44(sp)
2001320e:	1800                	addi	s0,sp,48
20013210:	fca42e23          	sw	a0,-36(s0)
E:/GitHub/HiFive01-RevB/FS_workspace/002_LED_Blink_All/freedom-metal/src/drivers/riscv_cpu.c:825
    uintptr_t mepc;
    __asm__ volatile("csrr %0, mepc" : "=r"(mepc));
20013214:	341027f3          	csrr	a5,mepc
20013218:	fef42623          	sw	a5,-20(s0)
E:/GitHub/HiFive01-RevB/FS_workspace/002_LED_Blink_All/freedom-metal/src/drivers/riscv_cpu.c:826
    return mepc;
2001321c:	fec42783          	lw	a5,-20(s0)
E:/GitHub/HiFive01-RevB/FS_workspace/002_LED_Blink_All/freedom-metal/src/drivers/riscv_cpu.c:827
}
20013220:	853e                	mv	a0,a5
20013222:	5432                	lw	s0,44(sp)
20013224:	6145                	addi	sp,sp,48
20013226:	8082                	ret

20013228 <__metal_driver_cpu_set_exception_pc>:
__metal_driver_cpu_set_exception_pc():
E:/GitHub/HiFive01-RevB/FS_workspace/002_LED_Blink_All/freedom-metal/src/drivers/riscv_cpu.c:829

int __metal_driver_cpu_set_exception_pc(struct metal_cpu *cpu, uintptr_t mepc) {
20013228:	1101                	addi	sp,sp,-32
2001322a:	ce22                	sw	s0,28(sp)
2001322c:	1000                	addi	s0,sp,32
2001322e:	fea42623          	sw	a0,-20(s0)
20013232:	feb42423          	sw	a1,-24(s0)
E:/GitHub/HiFive01-RevB/FS_workspace/002_LED_Blink_All/freedom-metal/src/drivers/riscv_cpu.c:830
    __asm__ volatile("csrw mepc, %0" ::"r"(mepc));
20013236:	fe842783          	lw	a5,-24(s0)
2001323a:	34179073          	csrw	mepc,a5
E:/GitHub/HiFive01-RevB/FS_workspace/002_LED_Blink_All/freedom-metal/src/drivers/riscv_cpu.c:831
    return 0;
2001323e:	4781                	li	a5,0
E:/GitHub/HiFive01-RevB/FS_workspace/002_LED_Blink_All/freedom-metal/src/drivers/riscv_cpu.c:832
}
20013240:	853e                	mv	a0,a5
20013242:	4472                	lw	s0,28(sp)
20013244:	6105                	addi	sp,sp,32
20013246:	8082                	ret

20013248 <__metal_driver_cpu_get_buserror>:
__metal_driver_cpu_get_buserror():
E:/GitHub/HiFive01-RevB/FS_workspace/002_LED_Blink_All/freedom-metal/src/drivers/riscv_cpu.c:834

struct metal_buserror *__metal_driver_cpu_get_buserror(struct metal_cpu *cpu) {
20013248:	1101                	addi	sp,sp,-32
2001324a:	ce06                	sw	ra,28(sp)
2001324c:	cc22                	sw	s0,24(sp)
2001324e:	1000                	addi	s0,sp,32
20013250:	fea42623          	sw	a0,-20(s0)
E:/GitHub/HiFive01-RevB/FS_workspace/002_LED_Blink_All/freedom-metal/src/drivers/riscv_cpu.c:835
    return __metal_driver_cpu_buserror(cpu);
20013254:	fec42503          	lw	a0,-20(s0)
20013258:	e4cfe0ef          	jal	ra,200118a4 <__metal_driver_cpu_buserror>
2001325c:	87aa                	mv	a5,a0
E:/GitHub/HiFive01-RevB/FS_workspace/002_LED_Blink_All/freedom-metal/src/drivers/riscv_cpu.c:836
}
2001325e:	853e                	mv	a0,a5
20013260:	40f2                	lw	ra,28(sp)
20013262:	4462                	lw	s0,24(sp)
20013264:	6105                	addi	sp,sp,32
20013266:	8082                	ret

20013268 <__metal_driver_sifive_plic0_control_base>:
__metal_driver_sifive_plic0_control_base():
E:\GitHub\HiFive01-RevB\FS_workspace\002_LED_Blink_All\bsp\build\debug/./metal/machine.h:345



/* --------------------- sifive_plic0 ------------ */
static __inline__ unsigned long __metal_driver_sifive_plic0_control_base(struct metal_interrupt *controller)
{
20013268:	1101                	addi	sp,sp,-32
2001326a:	ce22                	sw	s0,28(sp)
2001326c:	1000                	addi	s0,sp,32
2001326e:	fea42623          	sw	a0,-20(s0)
E:\GitHub\HiFive01-RevB\FS_workspace\002_LED_Blink_All\bsp\build\debug/./metal/machine.h:346
	if ((uintptr_t)controller == (uintptr_t)&__metal_dt_interrupt_controller_c000000) {
20013272:	fec42703          	lw	a4,-20(s0)
20013276:	800007b7          	lui	a5,0x80000
2001327a:	41078793          	addi	a5,a5,1040 # 80000410 <__global_pointer$+0xfffff1a0>
2001327e:	00f71563          	bne	a4,a5,20013288 <__metal_driver_sifive_plic0_control_base+0x20>
E:\GitHub\HiFive01-RevB\FS_workspace\002_LED_Blink_All\bsp\build\debug/./metal/machine.h:347
		return METAL_RISCV_PLIC0_C000000_BASE_ADDRESS;
20013282:	0c0007b7          	lui	a5,0xc000
20013286:	a011                	j	2001328a <__metal_driver_sifive_plic0_control_base+0x22>
E:\GitHub\HiFive01-RevB\FS_workspace\002_LED_Blink_All\bsp\build\debug/./metal/machine.h:350
	}
	else {
		return 0;
20013288:	4781                	li	a5,0
E:\GitHub\HiFive01-RevB\FS_workspace\002_LED_Blink_All\bsp\build\debug/./metal/machine.h:352
	}
}
2001328a:	853e                	mv	a0,a5
2001328c:	4472                	lw	s0,28(sp)
2001328e:	6105                	addi	sp,sp,32
20013290:	8082                	ret

20013292 <__metal_driver_sifive_plic0_num_interrupts>:
__metal_driver_sifive_plic0_num_interrupts():
E:\GitHub\HiFive01-RevB\FS_workspace\002_LED_Blink_All\bsp\build\debug/./metal/machine.h:365
		return 0;
	}
}

static __inline__ int __metal_driver_sifive_plic0_num_interrupts(struct metal_interrupt *controller)
{
20013292:	1101                	addi	sp,sp,-32
20013294:	ce22                	sw	s0,28(sp)
20013296:	1000                	addi	s0,sp,32
20013298:	fea42623          	sw	a0,-20(s0)
E:\GitHub\HiFive01-RevB\FS_workspace\002_LED_Blink_All\bsp\build\debug/./metal/machine.h:366
	if ((uintptr_t)controller == (uintptr_t)&__metal_dt_interrupt_controller_c000000) {
2001329c:	fec42703          	lw	a4,-20(s0)
200132a0:	800007b7          	lui	a5,0x80000
200132a4:	41078793          	addi	a5,a5,1040 # 80000410 <__global_pointer$+0xfffff1a0>
200132a8:	00f71563          	bne	a4,a5,200132b2 <__metal_driver_sifive_plic0_num_interrupts+0x20>
E:\GitHub\HiFive01-RevB\FS_workspace\002_LED_Blink_All\bsp\build\debug/./metal/machine.h:367
		return METAL_RISCV_PLIC0_C000000_RISCV_NDEV;
200132ac:	03500793          	li	a5,53
200132b0:	a011                	j	200132b4 <__metal_driver_sifive_plic0_num_interrupts+0x22>
E:\GitHub\HiFive01-RevB\FS_workspace\002_LED_Blink_All\bsp\build\debug/./metal/machine.h:370
	}
	else {
		return 0;
200132b2:	4781                	li	a5,0
E:\GitHub\HiFive01-RevB\FS_workspace\002_LED_Blink_All\bsp\build\debug/./metal/machine.h:372
	}
}
200132b4:	853e                	mv	a0,a5
200132b6:	4472                	lw	s0,28(sp)
200132b8:	6105                	addi	sp,sp,32
200132ba:	8082                	ret

200132bc <__metal_driver_sifive_plic0_max_priority>:
__metal_driver_sifive_plic0_max_priority():
E:\GitHub\HiFive01-RevB\FS_workspace\002_LED_Blink_All\bsp\build\debug/./metal/machine.h:375

static __inline__ int __metal_driver_sifive_plic0_max_priority(struct metal_interrupt *controller)
{
200132bc:	1101                	addi	sp,sp,-32
200132be:	ce22                	sw	s0,28(sp)
200132c0:	1000                	addi	s0,sp,32
200132c2:	fea42623          	sw	a0,-20(s0)
E:\GitHub\HiFive01-RevB\FS_workspace\002_LED_Blink_All\bsp\build\debug/./metal/machine.h:376
	if ((uintptr_t)controller == (uintptr_t)&__metal_dt_interrupt_controller_c000000) {
200132c6:	fec42703          	lw	a4,-20(s0)
200132ca:	800007b7          	lui	a5,0x80000
200132ce:	41078793          	addi	a5,a5,1040 # 80000410 <__global_pointer$+0xfffff1a0>
200132d2:	00f71463          	bne	a4,a5,200132da <__metal_driver_sifive_plic0_max_priority+0x1e>
E:\GitHub\HiFive01-RevB\FS_workspace\002_LED_Blink_All\bsp\build\debug/./metal/machine.h:377
		return METAL_RISCV_PLIC0_C000000_RISCV_MAX_PRIORITY;
200132d6:	479d                	li	a5,7
200132d8:	a011                	j	200132dc <__metal_driver_sifive_plic0_max_priority+0x20>
E:\GitHub\HiFive01-RevB\FS_workspace\002_LED_Blink_All\bsp\build\debug/./metal/machine.h:380
	}
	else {
		return 0;
200132da:	4781                	li	a5,0
E:\GitHub\HiFive01-RevB\FS_workspace\002_LED_Blink_All\bsp\build\debug/./metal/machine.h:382
	}
}
200132dc:	853e                	mv	a0,a5
200132de:	4472                	lw	s0,28(sp)
200132e0:	6105                	addi	sp,sp,32
200132e2:	8082                	ret

200132e4 <__metal_driver_sifive_plic0_interrupt_parents>:
__metal_driver_sifive_plic0_interrupt_parents():
E:\GitHub\HiFive01-RevB\FS_workspace\002_LED_Blink_All\bsp\build\debug/./metal/machine.h:385

static __inline__ struct metal_interrupt * __metal_driver_sifive_plic0_interrupt_parents(struct metal_interrupt *controller, int idx)
{
200132e4:	1101                	addi	sp,sp,-32
200132e6:	ce22                	sw	s0,28(sp)
200132e8:	1000                	addi	s0,sp,32
200132ea:	fea42623          	sw	a0,-20(s0)
200132ee:	feb42423          	sw	a1,-24(s0)
E:\GitHub\HiFive01-RevB\FS_workspace\002_LED_Blink_All\bsp\build\debug/./metal/machine.h:386
	if (idx == 0) {
200132f2:	fe842783          	lw	a5,-24(s0)
200132f6:	e791                	bnez	a5,20013302 <__metal_driver_sifive_plic0_interrupt_parents+0x1e>
E:\GitHub\HiFive01-RevB\FS_workspace\002_LED_Blink_All\bsp\build\debug/./metal/machine.h:387
		return (struct metal_interrupt *)&__metal_dt_cpu_0_interrupt_controller.controller;
200132f8:	800007b7          	lui	a5,0x80000
200132fc:	04078793          	addi	a5,a5,64 # 80000040 <__global_pointer$+0xffffedd0>
20013300:	a011                	j	20013304 <__metal_driver_sifive_plic0_interrupt_parents+0x20>
E:\GitHub\HiFive01-RevB\FS_workspace\002_LED_Blink_All\bsp\build\debug/./metal/machine.h:390
	}
	else {
		return NULL;
20013302:	4781                	li	a5,0
E:\GitHub\HiFive01-RevB\FS_workspace\002_LED_Blink_All\bsp\build\debug/./metal/machine.h:392
	}
}
20013304:	853e                	mv	a0,a5
20013306:	4472                	lw	s0,28(sp)
20013308:	6105                	addi	sp,sp,32
2001330a:	8082                	ret

2001330c <__metal_driver_sifive_plic0_interrupt_lines>:
__metal_driver_sifive_plic0_interrupt_lines():
E:\GitHub\HiFive01-RevB\FS_workspace\002_LED_Blink_All\bsp\build\debug/./metal/machine.h:395

static __inline__ int __metal_driver_sifive_plic0_interrupt_lines(struct metal_interrupt *controller, int idx)
{
2001330c:	1101                	addi	sp,sp,-32
2001330e:	ce22                	sw	s0,28(sp)
20013310:	1000                	addi	s0,sp,32
20013312:	fea42623          	sw	a0,-20(s0)
20013316:	feb42423          	sw	a1,-24(s0)
E:\GitHub\HiFive01-RevB\FS_workspace\002_LED_Blink_All\bsp\build\debug/./metal/machine.h:396
	if (idx == 0) {
2001331a:	fe842783          	lw	a5,-24(s0)
2001331e:	e399                	bnez	a5,20013324 <__metal_driver_sifive_plic0_interrupt_lines+0x18>
E:\GitHub\HiFive01-RevB\FS_workspace\002_LED_Blink_All\bsp\build\debug/./metal/machine.h:397
		return 11;
20013320:	47ad                	li	a5,11
20013322:	a011                	j	20013326 <__metal_driver_sifive_plic0_interrupt_lines+0x1a>
E:\GitHub\HiFive01-RevB\FS_workspace\002_LED_Blink_All\bsp\build\debug/./metal/machine.h:400
	}
	else {
		return 0;
20013324:	4781                	li	a5,0
E:\GitHub\HiFive01-RevB\FS_workspace\002_LED_Blink_All\bsp\build\debug/./metal/machine.h:402
	}
}
20013326:	853e                	mv	a0,a5
20013328:	4472                	lw	s0,28(sp)
2001332a:	6105                	addi	sp,sp,32
2001332c:	8082                	ret

2001332e <__metal_driver_sifive_plic0_context_ids>:
__metal_driver_sifive_plic0_context_ids():
E:\GitHub\HiFive01-RevB\FS_workspace\002_LED_Blink_All\bsp\build\debug/./metal/machine.h:405

static __inline__ int __metal_driver_sifive_plic0_context_ids(int hartid)
{
2001332e:	1101                	addi	sp,sp,-32
20013330:	ce22                	sw	s0,28(sp)
20013332:	1000                	addi	s0,sp,32
20013334:	fea42623          	sw	a0,-20(s0)
E:\GitHub\HiFive01-RevB\FS_workspace\002_LED_Blink_All\bsp\build\debug/./metal/machine.h:406
	if (hartid == 0) {
20013338:	fec42783          	lw	a5,-20(s0)
2001333c:	e399                	bnez	a5,20013342 <__metal_driver_sifive_plic0_context_ids+0x14>
E:\GitHub\HiFive01-RevB\FS_workspace\002_LED_Blink_All\bsp\build\debug/./metal/machine.h:407
		return 0;
2001333e:	4781                	li	a5,0
20013340:	a011                	j	20013344 <__metal_driver_sifive_plic0_context_ids+0x16>
E:\GitHub\HiFive01-RevB\FS_workspace\002_LED_Blink_All\bsp\build\debug/./metal/machine.h:410
	}
	else {
		return -1;
20013342:	57fd                	li	a5,-1
E:\GitHub\HiFive01-RevB\FS_workspace\002_LED_Blink_All\bsp\build\debug/./metal/machine.h:412
	}
}
20013344:	853e                	mv	a0,a5
20013346:	4472                	lw	s0,28(sp)
20013348:	6105                	addi	sp,sp,32
2001334a:	8082                	ret

2001334c <__metal_plic0_claim_interrupt>:
__metal_plic0_claim_interrupt():
E:/GitHub/HiFive01-RevB/FS_workspace/002_LED_Blink_All/freedom-metal/src/drivers/riscv_plic0.c:18
#include <metal/machine.h>
#include <metal/shutdown.h>

unsigned int
__metal_plic0_claim_interrupt(struct __metal_driver_riscv_plic0 *plic,
                              int context_id) {
2001334c:	7179                	addi	sp,sp,-48
2001334e:	d606                	sw	ra,44(sp)
20013350:	d422                	sw	s0,40(sp)
20013352:	1800                	addi	s0,sp,48
20013354:	fca42e23          	sw	a0,-36(s0)
20013358:	fcb42c23          	sw	a1,-40(s0)
E:/GitHub/HiFive01-RevB/FS_workspace/002_LED_Blink_All/freedom-metal/src/drivers/riscv_plic0.c:19
    unsigned long control_base = __metal_driver_sifive_plic0_control_base(
2001335c:	fdc42503          	lw	a0,-36(s0)
20013360:	3721                	jal	20013268 <__metal_driver_sifive_plic0_control_base>
20013362:	fea42623          	sw	a0,-20(s0)
E:/GitHub/HiFive01-RevB/FS_workspace/002_LED_Blink_All/freedom-metal/src/drivers/riscv_plic0.c:21
        (struct metal_interrupt *)plic);
    return __METAL_ACCESS_ONCE(
20013366:	fd842783          	lw	a5,-40(s0)
2001336a:	00c79713          	slli	a4,a5,0xc
2001336e:	fec42783          	lw	a5,-20(s0)
20013372:	973e                	add	a4,a4,a5
20013374:	002007b7          	lui	a5,0x200
20013378:	0791                	addi	a5,a5,4
2001337a:	97ba                	add	a5,a5,a4
2001337c:	439c                	lw	a5,0(a5)
E:/GitHub/HiFive01-RevB/FS_workspace/002_LED_Blink_All/freedom-metal/src/drivers/riscv_plic0.c:25
        (__metal_io_u32 *)(control_base + METAL_RISCV_PLIC0_CONTEXT_BASE +
                           (context_id * METAL_RISCV_PLIC0_CONTEXT_PER_HART) +
                           METAL_RISCV_PLIC0_CONTEXT_CLAIM));
}
2001337e:	853e                	mv	a0,a5
20013380:	50b2                	lw	ra,44(sp)
20013382:	5422                	lw	s0,40(sp)
20013384:	6145                	addi	sp,sp,48
20013386:	8082                	ret

20013388 <__metal_plic0_complete_interrupt>:
__metal_plic0_complete_interrupt():
E:/GitHub/HiFive01-RevB/FS_workspace/002_LED_Blink_All/freedom-metal/src/drivers/riscv_plic0.c:28

void __metal_plic0_complete_interrupt(struct __metal_driver_riscv_plic0 *plic,
                                      int context_id, unsigned int id) {
20013388:	7179                	addi	sp,sp,-48
2001338a:	d606                	sw	ra,44(sp)
2001338c:	d422                	sw	s0,40(sp)
2001338e:	1800                	addi	s0,sp,48
20013390:	fca42e23          	sw	a0,-36(s0)
20013394:	fcb42c23          	sw	a1,-40(s0)
20013398:	fcc42a23          	sw	a2,-44(s0)
E:/GitHub/HiFive01-RevB/FS_workspace/002_LED_Blink_All/freedom-metal/src/drivers/riscv_plic0.c:29
    unsigned long control_base = __metal_driver_sifive_plic0_control_base(
2001339c:	fdc42503          	lw	a0,-36(s0)
200133a0:	35e1                	jal	20013268 <__metal_driver_sifive_plic0_control_base>
200133a2:	fea42623          	sw	a0,-20(s0)
E:/GitHub/HiFive01-RevB/FS_workspace/002_LED_Blink_All/freedom-metal/src/drivers/riscv_plic0.c:31
        (struct metal_interrupt *)plic);
    __METAL_ACCESS_ONCE(
200133a6:	fd842783          	lw	a5,-40(s0)
200133aa:	00c79713          	slli	a4,a5,0xc
200133ae:	fec42783          	lw	a5,-20(s0)
200133b2:	973e                	add	a4,a4,a5
200133b4:	002007b7          	lui	a5,0x200
200133b8:	0791                	addi	a5,a5,4
200133ba:	97ba                	add	a5,a5,a4
200133bc:	873e                	mv	a4,a5
E:/GitHub/HiFive01-RevB/FS_workspace/002_LED_Blink_All/freedom-metal/src/drivers/riscv_plic0.c:34
        (__metal_io_u32 *)(control_base + METAL_RISCV_PLIC0_CONTEXT_BASE +
                           (context_id * METAL_RISCV_PLIC0_CONTEXT_PER_HART) +
                           METAL_RISCV_PLIC0_CONTEXT_CLAIM)) = id;
200133be:	fd442783          	lw	a5,-44(s0)
200133c2:	c31c                	sw	a5,0(a4)
E:/GitHub/HiFive01-RevB/FS_workspace/002_LED_Blink_All/freedom-metal/src/drivers/riscv_plic0.c:35
}
200133c4:	0001                	nop
200133c6:	50b2                	lw	ra,44(sp)
200133c8:	5422                	lw	s0,40(sp)
200133ca:	6145                	addi	sp,sp,48
200133cc:	8082                	ret

200133ce <__metal_plic0_set_threshold>:
__metal_plic0_set_threshold():
E:/GitHub/HiFive01-RevB/FS_workspace/002_LED_Blink_All/freedom-metal/src/drivers/riscv_plic0.c:38

int __metal_plic0_set_threshold(struct metal_interrupt *controller,
                                int context_id, unsigned int threshold) {
200133ce:	7179                	addi	sp,sp,-48
200133d0:	d606                	sw	ra,44(sp)
200133d2:	d422                	sw	s0,40(sp)
200133d4:	1800                	addi	s0,sp,48
200133d6:	fca42e23          	sw	a0,-36(s0)
200133da:	fcb42c23          	sw	a1,-40(s0)
200133de:	fcc42a23          	sw	a2,-44(s0)
E:/GitHub/HiFive01-RevB/FS_workspace/002_LED_Blink_All/freedom-metal/src/drivers/riscv_plic0.c:40
    unsigned long control_base =
        __metal_driver_sifive_plic0_control_base(controller);
200133e2:	fdc42503          	lw	a0,-36(s0)
200133e6:	3549                	jal	20013268 <__metal_driver_sifive_plic0_control_base>
200133e8:	fea42623          	sw	a0,-20(s0)
E:/GitHub/HiFive01-RevB/FS_workspace/002_LED_Blink_All/freedom-metal/src/drivers/riscv_plic0.c:41
    __METAL_ACCESS_ONCE(
200133ec:	fd842783          	lw	a5,-40(s0)
200133f0:	00c79713          	slli	a4,a5,0xc
200133f4:	fec42783          	lw	a5,-20(s0)
200133f8:	973e                	add	a4,a4,a5
200133fa:	002007b7          	lui	a5,0x200
200133fe:	97ba                	add	a5,a5,a4
20013400:	873e                	mv	a4,a5
E:/GitHub/HiFive01-RevB/FS_workspace/002_LED_Blink_All/freedom-metal/src/drivers/riscv_plic0.c:44
        (__metal_io_u32 *)(control_base + METAL_RISCV_PLIC0_CONTEXT_BASE +
                           (context_id * METAL_RISCV_PLIC0_CONTEXT_PER_HART) +
                           METAL_RISCV_PLIC0_CONTEXT_THRESHOLD)) = threshold;
20013402:	fd442783          	lw	a5,-44(s0)
20013406:	c31c                	sw	a5,0(a4)
E:/GitHub/HiFive01-RevB/FS_workspace/002_LED_Blink_All/freedom-metal/src/drivers/riscv_plic0.c:45
    return 0;
20013408:	4781                	li	a5,0
E:/GitHub/HiFive01-RevB/FS_workspace/002_LED_Blink_All/freedom-metal/src/drivers/riscv_plic0.c:46
}
2001340a:	853e                	mv	a0,a5
2001340c:	50b2                	lw	ra,44(sp)
2001340e:	5422                	lw	s0,40(sp)
20013410:	6145                	addi	sp,sp,48
20013412:	8082                	ret

20013414 <__metal_plic0_get_threshold>:
__metal_plic0_get_threshold():
E:/GitHub/HiFive01-RevB/FS_workspace/002_LED_Blink_All/freedom-metal/src/drivers/riscv_plic0.c:49

unsigned int __metal_plic0_get_threshold(struct metal_interrupt *controller,
                                         int context_id) {
20013414:	7179                	addi	sp,sp,-48
20013416:	d606                	sw	ra,44(sp)
20013418:	d422                	sw	s0,40(sp)
2001341a:	1800                	addi	s0,sp,48
2001341c:	fca42e23          	sw	a0,-36(s0)
20013420:	fcb42c23          	sw	a1,-40(s0)
E:/GitHub/HiFive01-RevB/FS_workspace/002_LED_Blink_All/freedom-metal/src/drivers/riscv_plic0.c:51
    unsigned long control_base =
        __metal_driver_sifive_plic0_control_base(controller);
20013424:	fdc42503          	lw	a0,-36(s0)
20013428:	3581                	jal	20013268 <__metal_driver_sifive_plic0_control_base>
2001342a:	fea42623          	sw	a0,-20(s0)
E:/GitHub/HiFive01-RevB/FS_workspace/002_LED_Blink_All/freedom-metal/src/drivers/riscv_plic0.c:52
    return __METAL_ACCESS_ONCE(
2001342e:	fd842783          	lw	a5,-40(s0)
20013432:	00c79713          	slli	a4,a5,0xc
20013436:	fec42783          	lw	a5,-20(s0)
2001343a:	973e                	add	a4,a4,a5
2001343c:	002007b7          	lui	a5,0x200
20013440:	97ba                	add	a5,a5,a4
20013442:	439c                	lw	a5,0(a5)
E:/GitHub/HiFive01-RevB/FS_workspace/002_LED_Blink_All/freedom-metal/src/drivers/riscv_plic0.c:56
        (__metal_io_u32 *)(control_base + METAL_RISCV_PLIC0_CONTEXT_BASE +
                           (context_id * METAL_RISCV_PLIC0_CONTEXT_PER_HART) +
                           METAL_RISCV_PLIC0_CONTEXT_THRESHOLD));
}
20013444:	853e                	mv	a0,a5
20013446:	50b2                	lw	ra,44(sp)
20013448:	5422                	lw	s0,40(sp)
2001344a:	6145                	addi	sp,sp,48
2001344c:	8082                	ret

2001344e <__metal_driver_riscv_plic0_set_priority>:
__metal_driver_riscv_plic0_set_priority():
E:/GitHub/HiFive01-RevB/FS_workspace/002_LED_Blink_All/freedom-metal/src/drivers/riscv_plic0.c:59

int __metal_driver_riscv_plic0_set_priority(struct metal_interrupt *controller,
                                            int id, unsigned int priority) {
2001344e:	7179                	addi	sp,sp,-48
20013450:	d606                	sw	ra,44(sp)
20013452:	d422                	sw	s0,40(sp)
20013454:	1800                	addi	s0,sp,48
20013456:	fca42e23          	sw	a0,-36(s0)
2001345a:	fcb42c23          	sw	a1,-40(s0)
2001345e:	fcc42a23          	sw	a2,-44(s0)
E:/GitHub/HiFive01-RevB/FS_workspace/002_LED_Blink_All/freedom-metal/src/drivers/riscv_plic0.c:60
    unsigned long control_base = __metal_driver_sifive_plic0_control_base(
20013462:	fdc42503          	lw	a0,-36(s0)
20013466:	3509                	jal	20013268 <__metal_driver_sifive_plic0_control_base>
20013468:	fea42623          	sw	a0,-20(s0)
E:/GitHub/HiFive01-RevB/FS_workspace/002_LED_Blink_All/freedom-metal/src/drivers/riscv_plic0.c:62
        (struct metal_interrupt *)controller);
    unsigned int max_priority = __metal_driver_sifive_plic0_max_priority(
2001346c:	fdc42503          	lw	a0,-36(s0)
20013470:	35b1                	jal	200132bc <__metal_driver_sifive_plic0_max_priority>
20013472:	87aa                	mv	a5,a0
20013474:	fef42423          	sw	a5,-24(s0)
E:/GitHub/HiFive01-RevB/FS_workspace/002_LED_Blink_All/freedom-metal/src/drivers/riscv_plic0.c:64
        (struct metal_interrupt *)controller);
    if ((max_priority) && (priority < max_priority)) {
20013478:	fe842783          	lw	a5,-24(s0)
2001347c:	c785                	beqz	a5,200134a4 <__metal_driver_riscv_plic0_set_priority+0x56>
E:/GitHub/HiFive01-RevB/FS_workspace/002_LED_Blink_All/freedom-metal/src/drivers/riscv_plic0.c:64 (discriminator 1)
2001347e:	fd442703          	lw	a4,-44(s0)
20013482:	fe842783          	lw	a5,-24(s0)
20013486:	00f77f63          	bgeu	a4,a5,200134a4 <__metal_driver_riscv_plic0_set_priority+0x56>
E:/GitHub/HiFive01-RevB/FS_workspace/002_LED_Blink_All/freedom-metal/src/drivers/riscv_plic0.c:65
        __METAL_ACCESS_ONCE(
2001348a:	fd842783          	lw	a5,-40(s0)
2001348e:	078a                	slli	a5,a5,0x2
20013490:	873e                	mv	a4,a5
20013492:	fec42783          	lw	a5,-20(s0)
20013496:	97ba                	add	a5,a5,a4
20013498:	873e                	mv	a4,a5
E:/GitHub/HiFive01-RevB/FS_workspace/002_LED_Blink_All/freedom-metal/src/drivers/riscv_plic0.c:67
            (__metal_io_u32 *)(control_base + METAL_RISCV_PLIC0_PRIORITY_BASE +
                               (id << METAL_PLIC_SOURCE_PRIORITY_SHIFT))) =
2001349a:	fd442783          	lw	a5,-44(s0)
2001349e:	c31c                	sw	a5,0(a4)
E:/GitHub/HiFive01-RevB/FS_workspace/002_LED_Blink_All/freedom-metal/src/drivers/riscv_plic0.c:69
            priority;
        return 0;
200134a0:	4781                	li	a5,0
200134a2:	a011                	j	200134a6 <__metal_driver_riscv_plic0_set_priority+0x58>
E:/GitHub/HiFive01-RevB/FS_workspace/002_LED_Blink_All/freedom-metal/src/drivers/riscv_plic0.c:71
    }
    return -1;
200134a4:	57fd                	li	a5,-1
E:/GitHub/HiFive01-RevB/FS_workspace/002_LED_Blink_All/freedom-metal/src/drivers/riscv_plic0.c:72
}
200134a6:	853e                	mv	a0,a5
200134a8:	50b2                	lw	ra,44(sp)
200134aa:	5422                	lw	s0,40(sp)
200134ac:	6145                	addi	sp,sp,48
200134ae:	8082                	ret

200134b0 <__metal_driver_riscv_plic0_get_priority>:
__metal_driver_riscv_plic0_get_priority():
E:/GitHub/HiFive01-RevB/FS_workspace/002_LED_Blink_All/freedom-metal/src/drivers/riscv_plic0.c:76

unsigned int
__metal_driver_riscv_plic0_get_priority(struct metal_interrupt *controller,
                                        int id) {
200134b0:	7179                	addi	sp,sp,-48
200134b2:	d606                	sw	ra,44(sp)
200134b4:	d422                	sw	s0,40(sp)
200134b6:	1800                	addi	s0,sp,48
200134b8:	fca42e23          	sw	a0,-36(s0)
200134bc:	fcb42c23          	sw	a1,-40(s0)
E:/GitHub/HiFive01-RevB/FS_workspace/002_LED_Blink_All/freedom-metal/src/drivers/riscv_plic0.c:78
    unsigned long control_base =
        __metal_driver_sifive_plic0_control_base(controller);
200134c0:	fdc42503          	lw	a0,-36(s0)
200134c4:	3355                	jal	20013268 <__metal_driver_sifive_plic0_control_base>
200134c6:	fea42623          	sw	a0,-20(s0)
E:/GitHub/HiFive01-RevB/FS_workspace/002_LED_Blink_All/freedom-metal/src/drivers/riscv_plic0.c:80

    return __METAL_ACCESS_ONCE(
200134ca:	fd842783          	lw	a5,-40(s0)
200134ce:	078a                	slli	a5,a5,0x2
200134d0:	873e                	mv	a4,a5
200134d2:	fec42783          	lw	a5,-20(s0)
200134d6:	97ba                	add	a5,a5,a4
200134d8:	439c                	lw	a5,0(a5)
E:/GitHub/HiFive01-RevB/FS_workspace/002_LED_Blink_All/freedom-metal/src/drivers/riscv_plic0.c:83
        (__metal_io_u32 *)(control_base + METAL_RISCV_PLIC0_PRIORITY_BASE +
                           (id << METAL_PLIC_SOURCE_PRIORITY_SHIFT)));
}
200134da:	853e                	mv	a0,a5
200134dc:	50b2                	lw	ra,44(sp)
200134de:	5422                	lw	s0,40(sp)
200134e0:	6145                	addi	sp,sp,48
200134e2:	8082                	ret

200134e4 <__metal_plic0_enable>:
__metal_plic0_enable():
E:/GitHub/HiFive01-RevB/FS_workspace/002_LED_Blink_All/freedom-metal/src/drivers/riscv_plic0.c:86

int __metal_plic0_enable(struct __metal_driver_riscv_plic0 *plic,
                         int context_id, int id, int enable) {
200134e4:	7179                	addi	sp,sp,-48
200134e6:	d606                	sw	ra,44(sp)
200134e8:	d422                	sw	s0,40(sp)
200134ea:	1800                	addi	s0,sp,48
200134ec:	fca42e23          	sw	a0,-36(s0)
200134f0:	fcb42c23          	sw	a1,-40(s0)
200134f4:	fcc42a23          	sw	a2,-44(s0)
200134f8:	fcd42823          	sw	a3,-48(s0)
E:/GitHub/HiFive01-RevB/FS_workspace/002_LED_Blink_All/freedom-metal/src/drivers/riscv_plic0.c:88
    unsigned int current;
    unsigned long control_base = __metal_driver_sifive_plic0_control_base(
200134fc:	fdc42503          	lw	a0,-36(s0)
20013500:	33a5                	jal	20013268 <__metal_driver_sifive_plic0_control_base>
20013502:	fea42623          	sw	a0,-20(s0)
E:/GitHub/HiFive01-RevB/FS_workspace/002_LED_Blink_All/freedom-metal/src/drivers/riscv_plic0.c:91
        (struct metal_interrupt *)plic);

    current = __METAL_ACCESS_ONCE(
20013506:	fd842783          	lw	a5,-40(s0)
2001350a:	00779713          	slli	a4,a5,0x7
2001350e:	fec42783          	lw	a5,-20(s0)
20013512:	97ba                	add	a5,a5,a4
20013514:	fd442703          	lw	a4,-44(s0)
20013518:	8715                	srai	a4,a4,0x5
2001351a:	070a                	slli	a4,a4,0x2
2001351c:	973e                	add	a4,a4,a5
2001351e:	6789                	lui	a5,0x2
20013520:	97ba                	add	a5,a5,a4
20013522:	439c                	lw	a5,0(a5)
20013524:	fef42423          	sw	a5,-24(s0)
E:/GitHub/HiFive01-RevB/FS_workspace/002_LED_Blink_All/freedom-metal/src/drivers/riscv_plic0.c:100
    __METAL_ACCESS_ONCE(
        (__metal_io_u32 *)(control_base + METAL_RISCV_PLIC0_ENABLE_BASE +
                           (context_id * METAL_RISCV_PLIC0_ENABLE_PER_HART) +
                           ((id >> METAL_PLIC_SOURCE_SHIFT) * 4))) =
        enable ? (current | (1 << (id & METAL_PLIC_SOURCE_MASK)))
               : (current & ~(1 << (id & METAL_PLIC_SOURCE_MASK)));
20013528:	fd042783          	lw	a5,-48(s0)
2001352c:	cf81                	beqz	a5,20013544 <__metal_plic0_enable+0x60>
E:/GitHub/HiFive01-RevB/FS_workspace/002_LED_Blink_All/freedom-metal/src/drivers/riscv_plic0.c:99 (discriminator 1)
        enable ? (current | (1 << (id & METAL_PLIC_SOURCE_MASK)))
2001352e:	fd442783          	lw	a5,-44(s0)
20013532:	8bfd                	andi	a5,a5,31
20013534:	4705                	li	a4,1
20013536:	00f717b3          	sll	a5,a4,a5
2001353a:	873e                	mv	a4,a5
E:/GitHub/HiFive01-RevB/FS_workspace/002_LED_Blink_All/freedom-metal/src/drivers/riscv_plic0.c:100 (discriminator 1)
               : (current & ~(1 << (id & METAL_PLIC_SOURCE_MASK)));
2001353c:	fe842783          	lw	a5,-24(s0)
20013540:	8fd9                	or	a5,a5,a4
20013542:	a829                	j	2001355c <__metal_plic0_enable+0x78>
E:/GitHub/HiFive01-RevB/FS_workspace/002_LED_Blink_All/freedom-metal/src/drivers/riscv_plic0.c:100 (discriminator 2)
20013544:	fd442783          	lw	a5,-44(s0)
20013548:	8bfd                	andi	a5,a5,31
2001354a:	4705                	li	a4,1
2001354c:	00f717b3          	sll	a5,a4,a5
20013550:	fff7c793          	not	a5,a5
20013554:	873e                	mv	a4,a5
20013556:	fe842783          	lw	a5,-24(s0)
2001355a:	8ff9                	and	a5,a5,a4
E:/GitHub/HiFive01-RevB/FS_workspace/002_LED_Blink_All/freedom-metal/src/drivers/riscv_plic0.c:95
    __METAL_ACCESS_ONCE(
2001355c:	fd842703          	lw	a4,-40(s0)
20013560:	00771693          	slli	a3,a4,0x7
20013564:	fec42703          	lw	a4,-20(s0)
20013568:	9736                	add	a4,a4,a3
2001356a:	fd442683          	lw	a3,-44(s0)
2001356e:	8695                	srai	a3,a3,0x5
20013570:	068a                	slli	a3,a3,0x2
20013572:	96ba                	add	a3,a3,a4
20013574:	6709                	lui	a4,0x2
20013576:	9736                	add	a4,a4,a3
E:/GitHub/HiFive01-RevB/FS_workspace/002_LED_Blink_All/freedom-metal/src/drivers/riscv_plic0.c:98
                           ((id >> METAL_PLIC_SOURCE_SHIFT) * 4))) =
20013578:	c31c                	sw	a5,0(a4)
E:/GitHub/HiFive01-RevB/FS_workspace/002_LED_Blink_All/freedom-metal/src/drivers/riscv_plic0.c:102

    return 0;
2001357a:	4781                	li	a5,0
E:/GitHub/HiFive01-RevB/FS_workspace/002_LED_Blink_All/freedom-metal/src/drivers/riscv_plic0.c:103
}
2001357c:	853e                	mv	a0,a5
2001357e:	50b2                	lw	ra,44(sp)
20013580:	5422                	lw	s0,40(sp)
20013582:	6145                	addi	sp,sp,48
20013584:	8082                	ret

20013586 <__metal_plic0_default_handler>:
__metal_plic0_default_handler():
E:/GitHub/HiFive01-RevB/FS_workspace/002_LED_Blink_All/freedom-metal/src/drivers/riscv_plic0.c:105

void __metal_plic0_default_handler(int id, void *priv) { metal_shutdown(300); }
20013586:	1101                	addi	sp,sp,-32
20013588:	ce06                	sw	ra,28(sp)
2001358a:	cc22                	sw	s0,24(sp)
2001358c:	1000                	addi	s0,sp,32
2001358e:	fea42623          	sw	a0,-20(s0)
20013592:	feb42423          	sw	a1,-24(s0)
20013596:	12c00513          	li	a0,300
2001359a:	587010ef          	jal	ra,20015320 <metal_shutdown>

2001359e <__metal_plic0_handler>:
__metal_plic0_handler():
E:/GitHub/HiFive01-RevB/FS_workspace/002_LED_Blink_All/freedom-metal/src/drivers/riscv_plic0.c:107

void __metal_plic0_handler(int id, void *priv) {
2001359e:	7179                	addi	sp,sp,-48
200135a0:	d606                	sw	ra,44(sp)
200135a2:	d422                	sw	s0,40(sp)
200135a4:	1800                	addi	s0,sp,48
200135a6:	fca42e23          	sw	a0,-36(s0)
200135aa:	fcb42c23          	sw	a1,-40(s0)
E:/GitHub/HiFive01-RevB/FS_workspace/002_LED_Blink_All/freedom-metal/src/drivers/riscv_plic0.c:108
    struct __metal_driver_riscv_plic0 *plic = priv;
200135ae:	fd842783          	lw	a5,-40(s0)
200135b2:	fef42623          	sw	a5,-20(s0)
E:/GitHub/HiFive01-RevB/FS_workspace/002_LED_Blink_All/freedom-metal/src/drivers/riscv_plic0.c:110
    int contextid =
        __metal_driver_sifive_plic0_context_ids(__metal_myhart_id());
200135b6:	b46fe0ef          	jal	ra,200118fc <__metal_myhart_id>
200135ba:	87aa                	mv	a5,a0
200135bc:	853e                	mv	a0,a5
200135be:	3b85                	jal	2001332e <__metal_driver_sifive_plic0_context_ids>
200135c0:	fea42423          	sw	a0,-24(s0)
E:/GitHub/HiFive01-RevB/FS_workspace/002_LED_Blink_All/freedom-metal/src/drivers/riscv_plic0.c:111
    unsigned int idx = __metal_plic0_claim_interrupt(plic, contextid);
200135c4:	fe842583          	lw	a1,-24(s0)
200135c8:	fec42503          	lw	a0,-20(s0)
200135cc:	3341                	jal	2001334c <__metal_plic0_claim_interrupt>
200135ce:	fea42223          	sw	a0,-28(s0)
E:/GitHub/HiFive01-RevB/FS_workspace/002_LED_Blink_All/freedom-metal/src/drivers/riscv_plic0.c:112
    unsigned int num_interrupts = __metal_driver_sifive_plic0_num_interrupts(
200135d2:	fec42503          	lw	a0,-20(s0)
200135d6:	3975                	jal	20013292 <__metal_driver_sifive_plic0_num_interrupts>
200135d8:	87aa                	mv	a5,a0
200135da:	fef42023          	sw	a5,-32(s0)
E:/GitHub/HiFive01-RevB/FS_workspace/002_LED_Blink_All/freedom-metal/src/drivers/riscv_plic0.c:115
        (struct metal_interrupt *)plic);

    if ((idx < num_interrupts) && (plic->metal_exint_table[idx])) {
200135de:	fe442703          	lw	a4,-28(s0)
200135e2:	fe042783          	lw	a5,-32(s0)
200135e6:	04f77263          	bgeu	a4,a5,2001362a <__metal_plic0_handler+0x8c>
E:/GitHub/HiFive01-RevB/FS_workspace/002_LED_Blink_All/freedom-metal/src/drivers/riscv_plic0.c:115 (discriminator 1)
200135ea:	fec42703          	lw	a4,-20(s0)
200135ee:	fe442783          	lw	a5,-28(s0)
200135f2:	078a                	slli	a5,a5,0x2
200135f4:	97ba                	add	a5,a5,a4
200135f6:	479c                	lw	a5,8(a5)
200135f8:	cb8d                	beqz	a5,2001362a <__metal_plic0_handler+0x8c>
E:/GitHub/HiFive01-RevB/FS_workspace/002_LED_Blink_All/freedom-metal/src/drivers/riscv_plic0.c:116
        plic->metal_exint_table[idx](idx,
200135fa:	fec42703          	lw	a4,-20(s0)
200135fe:	fe442783          	lw	a5,-28(s0)
20013602:	078a                	slli	a5,a5,0x2
20013604:	97ba                	add	a5,a5,a4
20013606:	0087a803          	lw	a6,8(a5) # 2008 <__heap_size+0x1808>
2001360a:	fe442603          	lw	a2,-28(s0)
2001360e:	fec42683          	lw	a3,-20(s0)
20013612:	fe442703          	lw	a4,-28(s0)
20013616:	87ba                	mv	a5,a4
20013618:	0786                	slli	a5,a5,0x1
2001361a:	97ba                	add	a5,a5,a4
2001361c:	078e                	slli	a5,a5,0x3
2001361e:	97b6                	add	a5,a5,a3
20013620:	0f07a783          	lw	a5,240(a5)
20013624:	85be                	mv	a1,a5
20013626:	8532                	mv	a0,a2
20013628:	9802                	jalr	a6
E:/GitHub/HiFive01-RevB/FS_workspace/002_LED_Blink_All/freedom-metal/src/drivers/riscv_plic0.c:120
                                     plic->metal_exdata_table[idx].exint_data);
    }

    __metal_plic0_complete_interrupt(plic, contextid, idx);
2001362a:	fe442603          	lw	a2,-28(s0)
2001362e:	fe842583          	lw	a1,-24(s0)
20013632:	fec42503          	lw	a0,-20(s0)
20013636:	3b89                	jal	20013388 <__metal_plic0_complete_interrupt>
E:/GitHub/HiFive01-RevB/FS_workspace/002_LED_Blink_All/freedom-metal/src/drivers/riscv_plic0.c:121
}
20013638:	0001                	nop
2001363a:	50b2                	lw	ra,44(sp)
2001363c:	5422                	lw	s0,40(sp)
2001363e:	6145                	addi	sp,sp,48
20013640:	8082                	ret

20013642 <__metal_driver_riscv_plic0_init>:
__metal_driver_riscv_plic0_init():
E:/GitHub/HiFive01-RevB/FS_workspace/002_LED_Blink_All/freedom-metal/src/drivers/riscv_plic0.c:123

void __metal_driver_riscv_plic0_init(struct metal_interrupt *controller) {
20013642:	7139                	addi	sp,sp,-64
20013644:	de06                	sw	ra,60(sp)
20013646:	dc22                	sw	s0,56(sp)
20013648:	0080                	addi	s0,sp,64
2001364a:	fca42623          	sw	a0,-52(s0)
E:/GitHub/HiFive01-RevB/FS_workspace/002_LED_Blink_All/freedom-metal/src/drivers/riscv_plic0.c:124
    struct __metal_driver_riscv_plic0 *plic = (void *)(controller);
2001364e:	fcc42783          	lw	a5,-52(s0)
20013652:	fef42223          	sw	a5,-28(s0)
E:/GitHub/HiFive01-RevB/FS_workspace/002_LED_Blink_All/freedom-metal/src/drivers/riscv_plic0.c:126

    if (!plic->init_done) {
20013656:	fe442783          	lw	a5,-28(s0)
2001365a:	43dc                	lw	a5,4(a5)
2001365c:	12079663          	bnez	a5,20013788 <__metal_driver_riscv_plic0_init+0x146>
E:/GitHub/HiFive01-RevB/FS_workspace/002_LED_Blink_All/freedom-metal/src/drivers/riscv_plic0.c:130
        int num_interrupts, line;
        struct metal_interrupt *intc;

        for (int parent = 0; parent < __METAL_PLIC_NUM_PARENTS; parent++) {
20013660:	fe042623          	sw	zero,-20(s0)
20013664:	aa11                	j	20013778 <__metal_driver_riscv_plic0_init+0x136>
E:/GitHub/HiFive01-RevB/FS_workspace/002_LED_Blink_All/freedom-metal/src/drivers/riscv_plic0.c:132
            num_interrupts =
                __metal_driver_sifive_plic0_num_interrupts(controller);
20013666:	fcc42503          	lw	a0,-52(s0)
2001366a:	3125                	jal	20013292 <__metal_driver_sifive_plic0_num_interrupts>
2001366c:	fea42023          	sw	a0,-32(s0)
E:/GitHub/HiFive01-RevB/FS_workspace/002_LED_Blink_All/freedom-metal/src/drivers/riscv_plic0.c:133
            intc = __metal_driver_sifive_plic0_interrupt_parents(controller,
20013670:	fec42583          	lw	a1,-20(s0)
20013674:	fcc42503          	lw	a0,-52(s0)
20013678:	31b5                	jal	200132e4 <__metal_driver_sifive_plic0_interrupt_parents>
2001367a:	fca42e23          	sw	a0,-36(s0)
E:/GitHub/HiFive01-RevB/FS_workspace/002_LED_Blink_All/freedom-metal/src/drivers/riscv_plic0.c:136
                                                                 parent);
            line =
                __metal_driver_sifive_plic0_interrupt_lines(controller, parent);
2001367e:	fec42583          	lw	a1,-20(s0)
20013682:	fcc42503          	lw	a0,-52(s0)
20013686:	3159                	jal	2001330c <__metal_driver_sifive_plic0_interrupt_lines>
20013688:	fca42c23          	sw	a0,-40(s0)
E:/GitHub/HiFive01-RevB/FS_workspace/002_LED_Blink_All/freedom-metal/src/drivers/riscv_plic0.c:139

            /* Initialize ist parent controller, aka cpu_intc. */
            intc->vtable->interrupt_init(intc);
2001368c:	fdc42783          	lw	a5,-36(s0)
20013690:	439c                	lw	a5,0(a5)
20013692:	439c                	lw	a5,0(a5)
20013694:	fdc42503          	lw	a0,-36(s0)
20013698:	9782                	jalr	a5
E:/GitHub/HiFive01-RevB/FS_workspace/002_LED_Blink_All/freedom-metal/src/drivers/riscv_plic0.c:141

            for (int i = 0; i < PLIC0_MAX_INTERRUPTS; i++) {
2001369a:	fe042423          	sw	zero,-24(s0)
2001369e:	a885                	j	2001370e <__metal_driver_riscv_plic0_init+0xcc>
E:/GitHub/HiFive01-RevB/FS_workspace/002_LED_Blink_All/freedom-metal/src/drivers/riscv_plic0.c:142
                __metal_plic0_enable(plic, parent, i, METAL_DISABLE);
200136a0:	4681                	li	a3,0
200136a2:	fe842603          	lw	a2,-24(s0)
200136a6:	fec42583          	lw	a1,-20(s0)
200136aa:	fe442503          	lw	a0,-28(s0)
200136ae:	3d1d                	jal	200134e4 <__metal_plic0_enable>
E:/GitHub/HiFive01-RevB/FS_workspace/002_LED_Blink_All/freedom-metal/src/drivers/riscv_plic0.c:143
                if (i < num_interrupts) {
200136b0:	fe842703          	lw	a4,-24(s0)
200136b4:	fe042783          	lw	a5,-32(s0)
200136b8:	04f75663          	bge	a4,a5,20013704 <__metal_driver_riscv_plic0_init+0xc2>
E:/GitHub/HiFive01-RevB/FS_workspace/002_LED_Blink_All/freedom-metal/src/drivers/riscv_plic0.c:144
                    __metal_driver_riscv_plic0_set_priority(controller, i, 0);
200136bc:	4601                	li	a2,0
200136be:	fe842583          	lw	a1,-24(s0)
200136c2:	fcc42503          	lw	a0,-52(s0)
200136c6:	3361                	jal	2001344e <__metal_driver_riscv_plic0_set_priority>
E:/GitHub/HiFive01-RevB/FS_workspace/002_LED_Blink_All/freedom-metal/src/drivers/riscv_plic0.c:145
                    plic->metal_exint_table[i] = NULL;
200136c8:	fe442703          	lw	a4,-28(s0)
200136cc:	fe842783          	lw	a5,-24(s0)
200136d0:	078a                	slli	a5,a5,0x2
200136d2:	97ba                	add	a5,a5,a4
200136d4:	0007a423          	sw	zero,8(a5)
E:/GitHub/HiFive01-RevB/FS_workspace/002_LED_Blink_All/freedom-metal/src/drivers/riscv_plic0.c:146
                    plic->metal_exdata_table[i].sub_int = NULL;
200136d8:	fe442683          	lw	a3,-28(s0)
200136dc:	fe842703          	lw	a4,-24(s0)
200136e0:	87ba                	mv	a5,a4
200136e2:	0786                	slli	a5,a5,0x1
200136e4:	97ba                	add	a5,a5,a4
200136e6:	078e                	slli	a5,a5,0x3
200136e8:	97b6                	add	a5,a5,a3
200136ea:	0e07a623          	sw	zero,236(a5)
E:/GitHub/HiFive01-RevB/FS_workspace/002_LED_Blink_All/freedom-metal/src/drivers/riscv_plic0.c:147
                    plic->metal_exdata_table[i].exint_data = NULL;
200136ee:	fe442683          	lw	a3,-28(s0)
200136f2:	fe842703          	lw	a4,-24(s0)
200136f6:	87ba                	mv	a5,a4
200136f8:	0786                	slli	a5,a5,0x1
200136fa:	97ba                	add	a5,a5,a4
200136fc:	078e                	slli	a5,a5,0x3
200136fe:	97b6                	add	a5,a5,a3
20013700:	0e07a823          	sw	zero,240(a5)
E:/GitHub/HiFive01-RevB/FS_workspace/002_LED_Blink_All/freedom-metal/src/drivers/riscv_plic0.c:141 (discriminator 2)
            for (int i = 0; i < PLIC0_MAX_INTERRUPTS; i++) {
20013704:	fe842783          	lw	a5,-24(s0)
20013708:	0785                	addi	a5,a5,1
2001370a:	fef42423          	sw	a5,-24(s0)
E:/GitHub/HiFive01-RevB/FS_workspace/002_LED_Blink_All/freedom-metal/src/drivers/riscv_plic0.c:141 (discriminator 1)
2001370e:	fe842703          	lw	a4,-24(s0)
20013712:	3ff00793          	li	a5,1023
20013716:	f8e7d5e3          	bge	a5,a4,200136a0 <__metal_driver_riscv_plic0_init+0x5e>
E:/GitHub/HiFive01-RevB/FS_workspace/002_LED_Blink_All/freedom-metal/src/drivers/riscv_plic0.c:151 (discriminator 2)
                }
            }

            __metal_plic0_set_threshold(controller, parent, 0);
2001371a:	4601                	li	a2,0
2001371c:	fec42583          	lw	a1,-20(s0)
20013720:	fcc42503          	lw	a0,-52(s0)
20013724:	316d                	jal	200133ce <__metal_plic0_set_threshold>
E:/GitHub/HiFive01-RevB/FS_workspace/002_LED_Blink_All/freedom-metal/src/drivers/riscv_plic0.c:154 (discriminator 2)

            /* Register plic (ext) interrupt with with parent controller */
            intc->vtable->interrupt_register(intc, line, NULL, plic);
20013726:	fdc42783          	lw	a5,-36(s0)
2001372a:	439c                	lw	a5,0(a5)
2001372c:	4fdc                	lw	a5,28(a5)
2001372e:	fe442683          	lw	a3,-28(s0)
20013732:	4601                	li	a2,0
20013734:	fd842583          	lw	a1,-40(s0)
20013738:	fdc42503          	lw	a0,-36(s0)
2001373c:	9782                	jalr	a5
E:/GitHub/HiFive01-RevB/FS_workspace/002_LED_Blink_All/freedom-metal/src/drivers/riscv_plic0.c:156 (discriminator 2)
            /* Register plic handler for dispatching its device interrupts */
            intc->vtable->interrupt_register(intc, line, __metal_plic0_handler,
2001373e:	fdc42783          	lw	a5,-36(s0)
20013742:	439c                	lw	a5,0(a5)
20013744:	4fd8                	lw	a4,28(a5)
20013746:	fe442683          	lw	a3,-28(s0)
2001374a:	200137b7          	lui	a5,0x20013
2001374e:	59e78613          	addi	a2,a5,1438 # 2001359e <__metal_plic0_handler>
20013752:	fd842583          	lw	a1,-40(s0)
20013756:	fdc42503          	lw	a0,-36(s0)
2001375a:	9702                	jalr	a4
E:/GitHub/HiFive01-RevB/FS_workspace/002_LED_Blink_All/freedom-metal/src/drivers/riscv_plic0.c:159 (discriminator 2)
                                             plic);
            /* Enable plic (ext) interrupt with with parent controller */
            intc->vtable->interrupt_enable(intc, line);
2001375c:	fdc42783          	lw	a5,-36(s0)
20013760:	439c                	lw	a5,0(a5)
20013762:	53dc                	lw	a5,36(a5)
20013764:	fd842583          	lw	a1,-40(s0)
20013768:	fdc42503          	lw	a0,-36(s0)
2001376c:	9782                	jalr	a5
E:/GitHub/HiFive01-RevB/FS_workspace/002_LED_Blink_All/freedom-metal/src/drivers/riscv_plic0.c:130 (discriminator 2)
        for (int parent = 0; parent < __METAL_PLIC_NUM_PARENTS; parent++) {
2001376e:	fec42783          	lw	a5,-20(s0)
20013772:	0785                	addi	a5,a5,1
20013774:	fef42623          	sw	a5,-20(s0)
E:/GitHub/HiFive01-RevB/FS_workspace/002_LED_Blink_All/freedom-metal/src/drivers/riscv_plic0.c:130 (discriminator 1)
20013778:	fec42783          	lw	a5,-20(s0)
2001377c:	eef055e3          	blez	a5,20013666 <__metal_driver_riscv_plic0_init+0x24>
E:/GitHub/HiFive01-RevB/FS_workspace/002_LED_Blink_All/freedom-metal/src/drivers/riscv_plic0.c:161
        }
        plic->init_done = 1;
20013780:	fe442783          	lw	a5,-28(s0)
20013784:	4705                	li	a4,1
20013786:	c3d8                	sw	a4,4(a5)
E:/GitHub/HiFive01-RevB/FS_workspace/002_LED_Blink_All/freedom-metal/src/drivers/riscv_plic0.c:163
    }
}
20013788:	0001                	nop
2001378a:	50f2                	lw	ra,60(sp)
2001378c:	5462                	lw	s0,56(sp)
2001378e:	6121                	addi	sp,sp,64
20013790:	8082                	ret

20013792 <__metal_driver_riscv_plic0_register>:
__metal_driver_riscv_plic0_register():
E:/GitHub/HiFive01-RevB/FS_workspace/002_LED_Blink_All/freedom-metal/src/drivers/riscv_plic0.c:167

int __metal_driver_riscv_plic0_register(struct metal_interrupt *controller,
                                        int id, metal_interrupt_handler_t isr,
                                        void *priv) {
20013792:	7179                	addi	sp,sp,-48
20013794:	d606                	sw	ra,44(sp)
20013796:	d422                	sw	s0,40(sp)
20013798:	1800                	addi	s0,sp,48
2001379a:	fca42e23          	sw	a0,-36(s0)
2001379e:	fcb42c23          	sw	a1,-40(s0)
200137a2:	fcc42a23          	sw	a2,-44(s0)
200137a6:	fcd42823          	sw	a3,-48(s0)
E:/GitHub/HiFive01-RevB/FS_workspace/002_LED_Blink_All/freedom-metal/src/drivers/riscv_plic0.c:168
    struct __metal_driver_riscv_plic0 *plic = (void *)(controller);
200137aa:	fdc42783          	lw	a5,-36(s0)
200137ae:	fef42623          	sw	a5,-20(s0)
E:/GitHub/HiFive01-RevB/FS_workspace/002_LED_Blink_All/freedom-metal/src/drivers/riscv_plic0.c:170

    if (id >= __metal_driver_sifive_plic0_num_interrupts(controller)) {
200137b2:	fdc42503          	lw	a0,-36(s0)
200137b6:	addff0ef          	jal	ra,20013292 <__metal_driver_sifive_plic0_num_interrupts>
200137ba:	872a                	mv	a4,a0
200137bc:	fd842783          	lw	a5,-40(s0)
200137c0:	00e7c463          	blt	a5,a4,200137c8 <__metal_driver_riscv_plic0_register+0x36>
E:/GitHub/HiFive01-RevB/FS_workspace/002_LED_Blink_All/freedom-metal/src/drivers/riscv_plic0.c:171
        return -1;
200137c4:	57fd                	li	a5,-1
200137c6:	a041                	j	20013846 <__metal_driver_riscv_plic0_register+0xb4>
E:/GitHub/HiFive01-RevB/FS_workspace/002_LED_Blink_All/freedom-metal/src/drivers/riscv_plic0.c:174
    }

    if (isr) {
200137c8:	fd442783          	lw	a5,-44(s0)
200137cc:	cf95                	beqz	a5,20013808 <__metal_driver_riscv_plic0_register+0x76>
E:/GitHub/HiFive01-RevB/FS_workspace/002_LED_Blink_All/freedom-metal/src/drivers/riscv_plic0.c:175
        __metal_driver_riscv_plic0_set_priority(controller, id, 2);
200137ce:	4609                	li	a2,2
200137d0:	fd842583          	lw	a1,-40(s0)
200137d4:	fdc42503          	lw	a0,-36(s0)
200137d8:	399d                	jal	2001344e <__metal_driver_riscv_plic0_set_priority>
E:/GitHub/HiFive01-RevB/FS_workspace/002_LED_Blink_All/freedom-metal/src/drivers/riscv_plic0.c:176
        plic->metal_exint_table[id] = isr;
200137da:	fec42703          	lw	a4,-20(s0)
200137de:	fd842783          	lw	a5,-40(s0)
200137e2:	078a                	slli	a5,a5,0x2
200137e4:	97ba                	add	a5,a5,a4
200137e6:	fd442703          	lw	a4,-44(s0)
200137ea:	c798                	sw	a4,8(a5)
E:/GitHub/HiFive01-RevB/FS_workspace/002_LED_Blink_All/freedom-metal/src/drivers/riscv_plic0.c:177
        plic->metal_exdata_table[id].exint_data = priv;
200137ec:	fec42683          	lw	a3,-20(s0)
200137f0:	fd842703          	lw	a4,-40(s0)
200137f4:	87ba                	mv	a5,a4
200137f6:	0786                	slli	a5,a5,0x1
200137f8:	97ba                	add	a5,a5,a4
200137fa:	078e                	slli	a5,a5,0x3
200137fc:	97b6                	add	a5,a5,a3
200137fe:	fd042703          	lw	a4,-48(s0)
20013802:	0ee7a823          	sw	a4,240(a5)
20013806:	a83d                	j	20013844 <__metal_driver_riscv_plic0_register+0xb2>
E:/GitHub/HiFive01-RevB/FS_workspace/002_LED_Blink_All/freedom-metal/src/drivers/riscv_plic0.c:179
    } else {
        __metal_driver_riscv_plic0_set_priority(controller, id, 1);
20013808:	4605                	li	a2,1
2001380a:	fd842583          	lw	a1,-40(s0)
2001380e:	fdc42503          	lw	a0,-36(s0)
20013812:	3935                	jal	2001344e <__metal_driver_riscv_plic0_set_priority>
E:/GitHub/HiFive01-RevB/FS_workspace/002_LED_Blink_All/freedom-metal/src/drivers/riscv_plic0.c:180
        plic->metal_exint_table[id] = __metal_plic0_default_handler;
20013814:	fec42703          	lw	a4,-20(s0)
20013818:	fd842783          	lw	a5,-40(s0)
2001381c:	078a                	slli	a5,a5,0x2
2001381e:	97ba                	add	a5,a5,a4
20013820:	20013737          	lui	a4,0x20013
20013824:	58670713          	addi	a4,a4,1414 # 20013586 <__metal_plic0_default_handler>
20013828:	c798                	sw	a4,8(a5)
E:/GitHub/HiFive01-RevB/FS_workspace/002_LED_Blink_All/freedom-metal/src/drivers/riscv_plic0.c:181
        plic->metal_exdata_table[id].sub_int = priv;
2001382a:	fec42683          	lw	a3,-20(s0)
2001382e:	fd842703          	lw	a4,-40(s0)
20013832:	87ba                	mv	a5,a4
20013834:	0786                	slli	a5,a5,0x1
20013836:	97ba                	add	a5,a5,a4
20013838:	078e                	slli	a5,a5,0x3
2001383a:	97b6                	add	a5,a5,a3
2001383c:	fd042703          	lw	a4,-48(s0)
20013840:	0ee7a623          	sw	a4,236(a5)
E:/GitHub/HiFive01-RevB/FS_workspace/002_LED_Blink_All/freedom-metal/src/drivers/riscv_plic0.c:184
    }

    return 0;
20013844:	4781                	li	a5,0
E:/GitHub/HiFive01-RevB/FS_workspace/002_LED_Blink_All/freedom-metal/src/drivers/riscv_plic0.c:185
}
20013846:	853e                	mv	a0,a5
20013848:	50b2                	lw	ra,44(sp)
2001384a:	5422                	lw	s0,40(sp)
2001384c:	6145                	addi	sp,sp,48
2001384e:	8082                	ret

20013850 <__metal_driver_riscv_plic0_enable>:
__metal_driver_riscv_plic0_enable():
E:/GitHub/HiFive01-RevB/FS_workspace/002_LED_Blink_All/freedom-metal/src/drivers/riscv_plic0.c:188

int __metal_driver_riscv_plic0_enable(struct metal_interrupt *controller,
                                      int id) {
20013850:	7179                	addi	sp,sp,-48
20013852:	d606                	sw	ra,44(sp)
20013854:	d422                	sw	s0,40(sp)
20013856:	1800                	addi	s0,sp,48
20013858:	fca42e23          	sw	a0,-36(s0)
2001385c:	fcb42c23          	sw	a1,-40(s0)
E:/GitHub/HiFive01-RevB/FS_workspace/002_LED_Blink_All/freedom-metal/src/drivers/riscv_plic0.c:189
    struct __metal_driver_riscv_plic0 *plic = (void *)(controller);
20013860:	fdc42783          	lw	a5,-36(s0)
20013864:	fef42623          	sw	a5,-20(s0)
E:/GitHub/HiFive01-RevB/FS_workspace/002_LED_Blink_All/freedom-metal/src/drivers/riscv_plic0.c:191

    if (id >= __metal_driver_sifive_plic0_num_interrupts(controller)) {
20013868:	fdc42503          	lw	a0,-36(s0)
2001386c:	a27ff0ef          	jal	ra,20013292 <__metal_driver_sifive_plic0_num_interrupts>
20013870:	872a                	mv	a4,a0
20013872:	fd842783          	lw	a5,-40(s0)
20013876:	00e7c463          	blt	a5,a4,2001387e <__metal_driver_riscv_plic0_enable+0x2e>
E:/GitHub/HiFive01-RevB/FS_workspace/002_LED_Blink_All/freedom-metal/src/drivers/riscv_plic0.c:192
        return -1;
2001387a:	57fd                	li	a5,-1
2001387c:	a821                	j	20013894 <__metal_driver_riscv_plic0_enable+0x44>
E:/GitHub/HiFive01-RevB/FS_workspace/002_LED_Blink_All/freedom-metal/src/drivers/riscv_plic0.c:195
    }

    __metal_plic0_enable(plic, __metal_myhart_id(), id, METAL_ENABLE);
2001387e:	87efe0ef          	jal	ra,200118fc <__metal_myhart_id>
20013882:	87aa                	mv	a5,a0
20013884:	4685                	li	a3,1
20013886:	fd842603          	lw	a2,-40(s0)
2001388a:	85be                	mv	a1,a5
2001388c:	fec42503          	lw	a0,-20(s0)
20013890:	3991                	jal	200134e4 <__metal_plic0_enable>
E:/GitHub/HiFive01-RevB/FS_workspace/002_LED_Blink_All/freedom-metal/src/drivers/riscv_plic0.c:196
    return 0;
20013892:	4781                	li	a5,0
E:/GitHub/HiFive01-RevB/FS_workspace/002_LED_Blink_All/freedom-metal/src/drivers/riscv_plic0.c:197
}
20013894:	853e                	mv	a0,a5
20013896:	50b2                	lw	ra,44(sp)
20013898:	5422                	lw	s0,40(sp)
2001389a:	6145                	addi	sp,sp,48
2001389c:	8082                	ret

2001389e <__metal_driver_riscv_plic0_disable>:
__metal_driver_riscv_plic0_disable():
E:/GitHub/HiFive01-RevB/FS_workspace/002_LED_Blink_All/freedom-metal/src/drivers/riscv_plic0.c:200

int __metal_driver_riscv_plic0_disable(struct metal_interrupt *controller,
                                       int id) {
2001389e:	7179                	addi	sp,sp,-48
200138a0:	d606                	sw	ra,44(sp)
200138a2:	d422                	sw	s0,40(sp)
200138a4:	1800                	addi	s0,sp,48
200138a6:	fca42e23          	sw	a0,-36(s0)
200138aa:	fcb42c23          	sw	a1,-40(s0)
E:/GitHub/HiFive01-RevB/FS_workspace/002_LED_Blink_All/freedom-metal/src/drivers/riscv_plic0.c:201
    struct __metal_driver_riscv_plic0 *plic = (void *)(controller);
200138ae:	fdc42783          	lw	a5,-36(s0)
200138b2:	fef42623          	sw	a5,-20(s0)
E:/GitHub/HiFive01-RevB/FS_workspace/002_LED_Blink_All/freedom-metal/src/drivers/riscv_plic0.c:203

    if (id >= __metal_driver_sifive_plic0_num_interrupts(controller)) {
200138b6:	fdc42503          	lw	a0,-36(s0)
200138ba:	9d9ff0ef          	jal	ra,20013292 <__metal_driver_sifive_plic0_num_interrupts>
200138be:	872a                	mv	a4,a0
200138c0:	fd842783          	lw	a5,-40(s0)
200138c4:	00e7c463          	blt	a5,a4,200138cc <__metal_driver_riscv_plic0_disable+0x2e>
E:/GitHub/HiFive01-RevB/FS_workspace/002_LED_Blink_All/freedom-metal/src/drivers/riscv_plic0.c:204
        return -1;
200138c8:	57fd                	li	a5,-1
200138ca:	a821                	j	200138e2 <__metal_driver_riscv_plic0_disable+0x44>
E:/GitHub/HiFive01-RevB/FS_workspace/002_LED_Blink_All/freedom-metal/src/drivers/riscv_plic0.c:206
    }
    __metal_plic0_enable(plic, __metal_myhart_id(), id, METAL_DISABLE);
200138cc:	830fe0ef          	jal	ra,200118fc <__metal_myhart_id>
200138d0:	87aa                	mv	a5,a0
200138d2:	4681                	li	a3,0
200138d4:	fd842603          	lw	a2,-40(s0)
200138d8:	85be                	mv	a1,a5
200138da:	fec42503          	lw	a0,-20(s0)
200138de:	3119                	jal	200134e4 <__metal_plic0_enable>
E:/GitHub/HiFive01-RevB/FS_workspace/002_LED_Blink_All/freedom-metal/src/drivers/riscv_plic0.c:207
    return 0;
200138e0:	4781                	li	a5,0
E:/GitHub/HiFive01-RevB/FS_workspace/002_LED_Blink_All/freedom-metal/src/drivers/riscv_plic0.c:208
}
200138e2:	853e                	mv	a0,a5
200138e4:	50b2                	lw	ra,44(sp)
200138e6:	5422                	lw	s0,40(sp)
200138e8:	6145                	addi	sp,sp,48
200138ea:	8082                	ret

200138ec <__metal_driver_riscv_plic0_set_threshold>:
__metal_driver_riscv_plic0_set_threshold():
E:/GitHub/HiFive01-RevB/FS_workspace/002_LED_Blink_All/freedom-metal/src/drivers/riscv_plic0.c:211

int __metal_driver_riscv_plic0_set_threshold(struct metal_interrupt *controller,
                                             unsigned int threshold) {
200138ec:	1101                	addi	sp,sp,-32
200138ee:	ce06                	sw	ra,28(sp)
200138f0:	cc22                	sw	s0,24(sp)
200138f2:	1000                	addi	s0,sp,32
200138f4:	fea42623          	sw	a0,-20(s0)
200138f8:	feb42423          	sw	a1,-24(s0)
E:/GitHub/HiFive01-RevB/FS_workspace/002_LED_Blink_All/freedom-metal/src/drivers/riscv_plic0.c:212
    return __metal_plic0_set_threshold(controller, __metal_myhart_id(),
200138fc:	800fe0ef          	jal	ra,200118fc <__metal_myhart_id>
20013900:	87aa                	mv	a5,a0
20013902:	fe842603          	lw	a2,-24(s0)
20013906:	85be                	mv	a1,a5
20013908:	fec42503          	lw	a0,-20(s0)
2001390c:	ac3ff0ef          	jal	ra,200133ce <__metal_plic0_set_threshold>
20013910:	87aa                	mv	a5,a0
E:/GitHub/HiFive01-RevB/FS_workspace/002_LED_Blink_All/freedom-metal/src/drivers/riscv_plic0.c:214
                                       threshold);
}
20013912:	853e                	mv	a0,a5
20013914:	40f2                	lw	ra,28(sp)
20013916:	4462                	lw	s0,24(sp)
20013918:	6105                	addi	sp,sp,32
2001391a:	8082                	ret

2001391c <__metal_driver_riscv_plic0_get_threshold>:
__metal_driver_riscv_plic0_get_threshold():
E:/GitHub/HiFive01-RevB/FS_workspace/002_LED_Blink_All/freedom-metal/src/drivers/riscv_plic0.c:217

unsigned int
__metal_driver_riscv_plic0_get_threshold(struct metal_interrupt *controller) {
2001391c:	1101                	addi	sp,sp,-32
2001391e:	ce06                	sw	ra,28(sp)
20013920:	cc22                	sw	s0,24(sp)
20013922:	1000                	addi	s0,sp,32
20013924:	fea42623          	sw	a0,-20(s0)
E:/GitHub/HiFive01-RevB/FS_workspace/002_LED_Blink_All/freedom-metal/src/drivers/riscv_plic0.c:218
    return __metal_plic0_get_threshold(controller, __metal_myhart_id());
20013928:	fd5fd0ef          	jal	ra,200118fc <__metal_myhart_id>
2001392c:	87aa                	mv	a5,a0
2001392e:	85be                	mv	a1,a5
20013930:	fec42503          	lw	a0,-20(s0)
20013934:	ae1ff0ef          	jal	ra,20013414 <__metal_plic0_get_threshold>
20013938:	87aa                	mv	a5,a0
E:/GitHub/HiFive01-RevB/FS_workspace/002_LED_Blink_All/freedom-metal/src/drivers/riscv_plic0.c:219
}
2001393a:	853e                	mv	a0,a5
2001393c:	40f2                	lw	ra,28(sp)
2001393e:	4462                	lw	s0,24(sp)
20013940:	6105                	addi	sp,sp,32
20013942:	8082                	ret

20013944 <__metal_driver_riscv_plic0_affinity_enable>:
__metal_driver_riscv_plic0_affinity_enable():
E:/GitHub/HiFive01-RevB/FS_workspace/002_LED_Blink_All/freedom-metal/src/drivers/riscv_plic0.c:223

metal_affinity
__metal_driver_riscv_plic0_affinity_enable(struct metal_interrupt *controller,
                                           metal_affinity bitmask, int id) {
20013944:	7179                	addi	sp,sp,-48
20013946:	d606                	sw	ra,44(sp)
20013948:	d422                	sw	s0,40(sp)
2001394a:	1800                	addi	s0,sp,48
2001394c:	fca42e23          	sw	a0,-36(s0)
20013950:	fcb42c23          	sw	a1,-40(s0)
20013954:	fcc42a23          	sw	a2,-44(s0)
E:/GitHub/HiFive01-RevB/FS_workspace/002_LED_Blink_All/freedom-metal/src/drivers/riscv_plic0.c:224
    metal_affinity ret = {0};
20013958:	fe042223          	sw	zero,-28(s0)
E:/GitHub/HiFive01-RevB/FS_workspace/002_LED_Blink_All/freedom-metal/src/drivers/riscv_plic0.c:227
    int context;

    struct __metal_driver_riscv_plic0 *plic = (void *)(controller);
2001395c:	fdc42783          	lw	a5,-36(s0)
20013960:	fef42423          	sw	a5,-24(s0)
E:/GitHub/HiFive01-RevB/FS_workspace/002_LED_Blink_All/freedom-metal/src/drivers/riscv_plic0.c:229

    if (id >= __metal_driver_sifive_plic0_num_interrupts(controller)) {
20013964:	fdc42503          	lw	a0,-36(s0)
20013968:	92bff0ef          	jal	ra,20013292 <__metal_driver_sifive_plic0_num_interrupts>
2001396c:	872a                	mv	a4,a0
2001396e:	fd442783          	lw	a5,-44(s0)
20013972:	00e7c863          	blt	a5,a4,20013982 <__metal_driver_riscv_plic0_affinity_enable+0x3e>
E:/GitHub/HiFive01-RevB/FS_workspace/002_LED_Blink_All/freedom-metal/src/drivers/riscv_plic0.c:230
        metal_affinity_set_val(ret, -1);
20013976:	57fd                	li	a5,-1
20013978:	fef42223          	sw	a5,-28(s0)
E:/GitHub/HiFive01-RevB/FS_workspace/002_LED_Blink_All/freedom-metal/src/drivers/riscv_plic0.c:231
        return ret;
2001397c:	fe442783          	lw	a5,-28(s0)
20013980:	a899                	j	200139d6 <__metal_driver_riscv_plic0_affinity_enable+0x92>
E:/GitHub/HiFive01-RevB/FS_workspace/002_LED_Blink_All/freedom-metal/src/drivers/riscv_plic0.c:234
    }

    for_each_metal_affinity(context, bitmask) {
20013982:	fe042623          	sw	zero,-20(s0)
20013986:	a099                	j	200139cc <__metal_driver_riscv_plic0_affinity_enable+0x88>
E:/GitHub/HiFive01-RevB/FS_workspace/002_LED_Blink_All/freedom-metal/src/drivers/riscv_plic0.c:235
        if (context != 0)
20013988:	fec42783          	lw	a5,-20(s0)
2001398c:	c795                	beqz	a5,200139b8 <__metal_driver_riscv_plic0_affinity_enable+0x74>
E:/GitHub/HiFive01-RevB/FS_workspace/002_LED_Blink_All/freedom-metal/src/drivers/riscv_plic0.c:236
            metal_affinity_set_bit(
2001398e:	4685                	li	a3,1
20013990:	fd442603          	lw	a2,-44(s0)
20013994:	fec42583          	lw	a1,-20(s0)
20013998:	fe842503          	lw	a0,-24(s0)
2001399c:	b49ff0ef          	jal	ra,200134e4 <__metal_plic0_enable>
200139a0:	87aa                	mv	a5,a0
200139a2:	0017f713          	andi	a4,a5,1
200139a6:	fec42783          	lw	a5,-20(s0)
200139aa:	00f71733          	sll	a4,a4,a5
200139ae:	fe442783          	lw	a5,-28(s0)
200139b2:	8fd9                	or	a5,a5,a4
200139b4:	fef42223          	sw	a5,-28(s0)
E:/GitHub/HiFive01-RevB/FS_workspace/002_LED_Blink_All/freedom-metal/src/drivers/riscv_plic0.c:234 (discriminator 2)
    for_each_metal_affinity(context, bitmask) {
200139b8:	fec42783          	lw	a5,-20(s0)
200139bc:	0785                	addi	a5,a5,1
200139be:	fef42623          	sw	a5,-20(s0)
200139c2:	fd842783          	lw	a5,-40(s0)
200139c6:	8385                	srli	a5,a5,0x1
200139c8:	fcf42c23          	sw	a5,-40(s0)
E:/GitHub/HiFive01-RevB/FS_workspace/002_LED_Blink_All/freedom-metal/src/drivers/riscv_plic0.c:234 (discriminator 1)
200139cc:	fd842783          	lw	a5,-40(s0)
200139d0:	ffc5                	bnez	a5,20013988 <__metal_driver_riscv_plic0_affinity_enable+0x44>
E:/GitHub/HiFive01-RevB/FS_workspace/002_LED_Blink_All/freedom-metal/src/drivers/riscv_plic0.c:241
                ret, context,
                __metal_plic0_enable(plic, context, id, METAL_ENABLE));
    }

    return ret;
200139d2:	fe442783          	lw	a5,-28(s0)
E:/GitHub/HiFive01-RevB/FS_workspace/002_LED_Blink_All/freedom-metal/src/drivers/riscv_plic0.c:242 (discriminator 1)
}
200139d6:	853e                	mv	a0,a5
200139d8:	50b2                	lw	ra,44(sp)
200139da:	5422                	lw	s0,40(sp)
200139dc:	6145                	addi	sp,sp,48
200139de:	8082                	ret

200139e0 <__metal_driver_riscv_plic0_affinity_disable>:
__metal_driver_riscv_plic0_affinity_disable():
E:/GitHub/HiFive01-RevB/FS_workspace/002_LED_Blink_All/freedom-metal/src/drivers/riscv_plic0.c:246

metal_affinity
__metal_driver_riscv_plic0_affinity_disable(struct metal_interrupt *controller,
                                            metal_affinity bitmask, int id) {
200139e0:	7179                	addi	sp,sp,-48
200139e2:	d606                	sw	ra,44(sp)
200139e4:	d422                	sw	s0,40(sp)
200139e6:	1800                	addi	s0,sp,48
200139e8:	fca42e23          	sw	a0,-36(s0)
200139ec:	fcb42c23          	sw	a1,-40(s0)
200139f0:	fcc42a23          	sw	a2,-44(s0)
E:/GitHub/HiFive01-RevB/FS_workspace/002_LED_Blink_All/freedom-metal/src/drivers/riscv_plic0.c:247
    metal_affinity ret = {0};
200139f4:	fe042223          	sw	zero,-28(s0)
E:/GitHub/HiFive01-RevB/FS_workspace/002_LED_Blink_All/freedom-metal/src/drivers/riscv_plic0.c:250
    int context;

    struct __metal_driver_riscv_plic0 *plic = (void *)(controller);
200139f8:	fdc42783          	lw	a5,-36(s0)
200139fc:	fef42423          	sw	a5,-24(s0)
E:/GitHub/HiFive01-RevB/FS_workspace/002_LED_Blink_All/freedom-metal/src/drivers/riscv_plic0.c:252

    if (id >= __metal_driver_sifive_plic0_num_interrupts(controller)) {
20013a00:	fdc42503          	lw	a0,-36(s0)
20013a04:	88fff0ef          	jal	ra,20013292 <__metal_driver_sifive_plic0_num_interrupts>
20013a08:	872a                	mv	a4,a0
20013a0a:	fd442783          	lw	a5,-44(s0)
20013a0e:	00e7c863          	blt	a5,a4,20013a1e <__metal_driver_riscv_plic0_affinity_disable+0x3e>
E:/GitHub/HiFive01-RevB/FS_workspace/002_LED_Blink_All/freedom-metal/src/drivers/riscv_plic0.c:253
        metal_affinity_set_val(ret, -1);
20013a12:	57fd                	li	a5,-1
20013a14:	fef42223          	sw	a5,-28(s0)
E:/GitHub/HiFive01-RevB/FS_workspace/002_LED_Blink_All/freedom-metal/src/drivers/riscv_plic0.c:254
        return ret;
20013a18:	fe442783          	lw	a5,-28(s0)
20013a1c:	a899                	j	20013a72 <__metal_driver_riscv_plic0_affinity_disable+0x92>
E:/GitHub/HiFive01-RevB/FS_workspace/002_LED_Blink_All/freedom-metal/src/drivers/riscv_plic0.c:257
    }

    for_each_metal_affinity(context, bitmask) {
20013a1e:	fe042623          	sw	zero,-20(s0)
20013a22:	a099                	j	20013a68 <__metal_driver_riscv_plic0_affinity_disable+0x88>
E:/GitHub/HiFive01-RevB/FS_workspace/002_LED_Blink_All/freedom-metal/src/drivers/riscv_plic0.c:258
        if (context != 0)
20013a24:	fec42783          	lw	a5,-20(s0)
20013a28:	c795                	beqz	a5,20013a54 <__metal_driver_riscv_plic0_affinity_disable+0x74>
E:/GitHub/HiFive01-RevB/FS_workspace/002_LED_Blink_All/freedom-metal/src/drivers/riscv_plic0.c:259
            metal_affinity_set_bit(
20013a2a:	4681                	li	a3,0
20013a2c:	fd442603          	lw	a2,-44(s0)
20013a30:	fec42583          	lw	a1,-20(s0)
20013a34:	fe842503          	lw	a0,-24(s0)
20013a38:	aadff0ef          	jal	ra,200134e4 <__metal_plic0_enable>
20013a3c:	87aa                	mv	a5,a0
20013a3e:	0017f713          	andi	a4,a5,1
20013a42:	fec42783          	lw	a5,-20(s0)
20013a46:	00f71733          	sll	a4,a4,a5
20013a4a:	fe442783          	lw	a5,-28(s0)
20013a4e:	8fd9                	or	a5,a5,a4
20013a50:	fef42223          	sw	a5,-28(s0)
E:/GitHub/HiFive01-RevB/FS_workspace/002_LED_Blink_All/freedom-metal/src/drivers/riscv_plic0.c:257 (discriminator 2)
    for_each_metal_affinity(context, bitmask) {
20013a54:	fec42783          	lw	a5,-20(s0)
20013a58:	0785                	addi	a5,a5,1
20013a5a:	fef42623          	sw	a5,-20(s0)
20013a5e:	fd842783          	lw	a5,-40(s0)
20013a62:	8385                	srli	a5,a5,0x1
20013a64:	fcf42c23          	sw	a5,-40(s0)
E:/GitHub/HiFive01-RevB/FS_workspace/002_LED_Blink_All/freedom-metal/src/drivers/riscv_plic0.c:257 (discriminator 1)
20013a68:	fd842783          	lw	a5,-40(s0)
20013a6c:	ffc5                	bnez	a5,20013a24 <__metal_driver_riscv_plic0_affinity_disable+0x44>
E:/GitHub/HiFive01-RevB/FS_workspace/002_LED_Blink_All/freedom-metal/src/drivers/riscv_plic0.c:264
                ret, context,
                __metal_plic0_enable(plic, context, id, METAL_DISABLE));
    }

    return ret;
20013a6e:	fe442783          	lw	a5,-28(s0)
E:/GitHub/HiFive01-RevB/FS_workspace/002_LED_Blink_All/freedom-metal/src/drivers/riscv_plic0.c:265 (discriminator 1)
}
20013a72:	853e                	mv	a0,a5
20013a74:	50b2                	lw	ra,44(sp)
20013a76:	5422                	lw	s0,40(sp)
20013a78:	6145                	addi	sp,sp,48
20013a7a:	8082                	ret

20013a7c <__metal_driver_riscv_plic0_affinity_set_threshold>:
__metal_driver_riscv_plic0_affinity_set_threshold():
E:/GitHub/HiFive01-RevB/FS_workspace/002_LED_Blink_All/freedom-metal/src/drivers/riscv_plic0.c:269

metal_affinity __metal_driver_riscv_plic0_affinity_set_threshold(
    struct metal_interrupt *controller, metal_affinity bitmask,
    unsigned int threshold) {
20013a7c:	7179                	addi	sp,sp,-48
20013a7e:	d606                	sw	ra,44(sp)
20013a80:	d422                	sw	s0,40(sp)
20013a82:	1800                	addi	s0,sp,48
20013a84:	fca42e23          	sw	a0,-36(s0)
20013a88:	fcb42c23          	sw	a1,-40(s0)
20013a8c:	fcc42a23          	sw	a2,-44(s0)
E:/GitHub/HiFive01-RevB/FS_workspace/002_LED_Blink_All/freedom-metal/src/drivers/riscv_plic0.c:270
    metal_affinity ret = {0};
20013a90:	fe042423          	sw	zero,-24(s0)
E:/GitHub/HiFive01-RevB/FS_workspace/002_LED_Blink_All/freedom-metal/src/drivers/riscv_plic0.c:273
    int context;

    for_each_metal_affinity(context, bitmask) {
20013a94:	fe042623          	sw	zero,-20(s0)
20013a98:	a091                	j	20013adc <__metal_driver_riscv_plic0_affinity_set_threshold+0x60>
E:/GitHub/HiFive01-RevB/FS_workspace/002_LED_Blink_All/freedom-metal/src/drivers/riscv_plic0.c:274
        if (context != 0)
20013a9a:	fec42783          	lw	a5,-20(s0)
20013a9e:	c78d                	beqz	a5,20013ac8 <__metal_driver_riscv_plic0_affinity_set_threshold+0x4c>
E:/GitHub/HiFive01-RevB/FS_workspace/002_LED_Blink_All/freedom-metal/src/drivers/riscv_plic0.c:275
            metal_affinity_set_bit(
20013aa0:	fd442603          	lw	a2,-44(s0)
20013aa4:	fec42583          	lw	a1,-20(s0)
20013aa8:	fdc42503          	lw	a0,-36(s0)
20013aac:	923ff0ef          	jal	ra,200133ce <__metal_plic0_set_threshold>
20013ab0:	87aa                	mv	a5,a0
20013ab2:	0017f713          	andi	a4,a5,1
20013ab6:	fec42783          	lw	a5,-20(s0)
20013aba:	00f71733          	sll	a4,a4,a5
20013abe:	fe842783          	lw	a5,-24(s0)
20013ac2:	8fd9                	or	a5,a5,a4
20013ac4:	fef42423          	sw	a5,-24(s0)
E:/GitHub/HiFive01-RevB/FS_workspace/002_LED_Blink_All/freedom-metal/src/drivers/riscv_plic0.c:273 (discriminator 2)
    for_each_metal_affinity(context, bitmask) {
20013ac8:	fec42783          	lw	a5,-20(s0)
20013acc:	0785                	addi	a5,a5,1
20013ace:	fef42623          	sw	a5,-20(s0)
20013ad2:	fd842783          	lw	a5,-40(s0)
20013ad6:	8385                	srli	a5,a5,0x1
20013ad8:	fcf42c23          	sw	a5,-40(s0)
E:/GitHub/HiFive01-RevB/FS_workspace/002_LED_Blink_All/freedom-metal/src/drivers/riscv_plic0.c:273 (discriminator 1)
20013adc:	fd842783          	lw	a5,-40(s0)
20013ae0:	ffcd                	bnez	a5,20013a9a <__metal_driver_riscv_plic0_affinity_set_threshold+0x1e>
E:/GitHub/HiFive01-RevB/FS_workspace/002_LED_Blink_All/freedom-metal/src/drivers/riscv_plic0.c:280
                ret, context,
                __metal_plic0_set_threshold(controller, context, threshold));
    }

    return ret;
20013ae2:	fe842783          	lw	a5,-24(s0)
E:/GitHub/HiFive01-RevB/FS_workspace/002_LED_Blink_All/freedom-metal/src/drivers/riscv_plic0.c:281
}
20013ae6:	853e                	mv	a0,a5
20013ae8:	50b2                	lw	ra,44(sp)
20013aea:	5422                	lw	s0,40(sp)
20013aec:	6145                	addi	sp,sp,48
20013aee:	8082                	ret

20013af0 <__metal_driver_riscv_plic0_affinity_get_threshold>:
__metal_driver_riscv_plic0_affinity_get_threshold():
E:/GitHub/HiFive01-RevB/FS_workspace/002_LED_Blink_All/freedom-metal/src/drivers/riscv_plic0.c:284

unsigned int __metal_driver_riscv_plic0_affinity_get_threshold(
    struct metal_interrupt *controller, int context_id) {
20013af0:	1101                	addi	sp,sp,-32
20013af2:	ce06                	sw	ra,28(sp)
20013af4:	cc22                	sw	s0,24(sp)
20013af6:	1000                	addi	s0,sp,32
20013af8:	fea42623          	sw	a0,-20(s0)
20013afc:	feb42423          	sw	a1,-24(s0)
E:/GitHub/HiFive01-RevB/FS_workspace/002_LED_Blink_All/freedom-metal/src/drivers/riscv_plic0.c:285
    __metal_plic0_get_threshold(controller, context_id);
20013b00:	fe842583          	lw	a1,-24(s0)
20013b04:	fec42503          	lw	a0,-20(s0)
20013b08:	90dff0ef          	jal	ra,20013414 <__metal_plic0_get_threshold>
E:/GitHub/HiFive01-RevB/FS_workspace/002_LED_Blink_All/freedom-metal/src/drivers/riscv_plic0.c:286
    return 0;
20013b0c:	4781                	li	a5,0
E:/GitHub/HiFive01-RevB/FS_workspace/002_LED_Blink_All/freedom-metal/src/drivers/riscv_plic0.c:287
}
20013b0e:	853e                	mv	a0,a5
20013b10:	40f2                	lw	ra,28(sp)
20013b12:	4462                	lw	s0,24(sp)
20013b14:	6105                	addi	sp,sp,32
20013b16:	8082                	ret

20013b18 <__metal_driver_sifive_fe310_g000_hfrosc_ref>:
__metal_driver_sifive_fe310_g000_hfrosc_ref():
E:\GitHub\HiFive01-RevB\FS_workspace\002_LED_Blink_All\bsp\build\debug/./metal/machine.h:1242



/* --------------------- sifive_fe310_g000_hfrosc ------------ */
static __inline__ struct metal_clock * __metal_driver_sifive_fe310_g000_hfrosc_ref(const struct metal_clock *clock)
{
20013b18:	1101                	addi	sp,sp,-32
20013b1a:	ce22                	sw	s0,28(sp)
20013b1c:	1000                	addi	s0,sp,32
20013b1e:	fea42623          	sw	a0,-20(s0)
E:\GitHub\HiFive01-RevB\FS_workspace\002_LED_Blink_All\bsp\build\debug/./metal/machine.h:1243
		return (struct metal_clock *)&__metal_dt_clock_2.clock;
20013b22:	800007b7          	lui	a5,0x80000
20013b26:	01878793          	addi	a5,a5,24 # 80000018 <__global_pointer$+0xffffeda8>
E:\GitHub\HiFive01-RevB\FS_workspace\002_LED_Blink_All\bsp\build\debug/./metal/machine.h:1244
}
20013b2a:	853e                	mv	a0,a5
20013b2c:	4472                	lw	s0,28(sp)
20013b2e:	6105                	addi	sp,sp,32
20013b30:	8082                	ret

20013b32 <__metal_driver_sifive_fe310_g000_hfrosc_config_base>:
__metal_driver_sifive_fe310_g000_hfrosc_config_base():
E:\GitHub\HiFive01-RevB\FS_workspace\002_LED_Blink_All\bsp\build\debug/./metal/machine.h:1247

static __inline__ struct __metal_driver_sifive_fe310_g000_prci * __metal_driver_sifive_fe310_g000_hfrosc_config_base(const struct metal_clock *clock)
{
20013b32:	1101                	addi	sp,sp,-32
20013b34:	ce22                	sw	s0,28(sp)
20013b36:	1000                	addi	s0,sp,32
20013b38:	fea42623          	sw	a0,-20(s0)
E:\GitHub\HiFive01-RevB\FS_workspace\002_LED_Blink_All\bsp\build\debug/./metal/machine.h:1248
		return (struct __metal_driver_sifive_fe310_g000_prci *)&__metal_dt_prci_10008000;
20013b3c:	82418793          	addi	a5,gp,-2012 # 80000a94 <__metal_dt_prci_10008000>
E:\GitHub\HiFive01-RevB\FS_workspace\002_LED_Blink_All\bsp\build\debug/./metal/machine.h:1249
}
20013b40:	853e                	mv	a0,a5
20013b42:	4472                	lw	s0,28(sp)
20013b44:	6105                	addi	sp,sp,32
20013b46:	8082                	ret

20013b48 <__metal_driver_sifive_fe310_g000_hfrosc_config_offset>:
__metal_driver_sifive_fe310_g000_hfrosc_config_offset():
E:\GitHub\HiFive01-RevB\FS_workspace\002_LED_Blink_All\bsp\build\debug/./metal/machine.h:1257
{
		return &__metal_driver_vtable_sifive_fe310_g000_prci;
}

static __inline__ long __metal_driver_sifive_fe310_g000_hfrosc_config_offset(const struct metal_clock *clock)
{
20013b48:	1101                	addi	sp,sp,-32
20013b4a:	ce22                	sw	s0,28(sp)
20013b4c:	1000                	addi	s0,sp,32
20013b4e:	fea42623          	sw	a0,-20(s0)
E:\GitHub\HiFive01-RevB\FS_workspace\002_LED_Blink_All\bsp\build\debug/./metal/machine.h:1258
		return METAL_SIFIVE_FE310_G000_PRCI_HFROSCCFG;
20013b52:	4781                	li	a5,0
E:\GitHub\HiFive01-RevB\FS_workspace\002_LED_Blink_All\bsp\build\debug/./metal/machine.h:1259
}
20013b54:	853e                	mv	a0,a5
20013b56:	4472                	lw	s0,28(sp)
20013b58:	6105                	addi	sp,sp,32
20013b5a:	8082                	ret

20013b5c <__metal_driver_sifive_fe310_g000_prci_vtable>:
__metal_driver_sifive_fe310_g000_prci_vtable():
E:\GitHub\HiFive01-RevB\FS_workspace\002_LED_Blink_All\bsp\build\debug/./metal/machine.h:1374
{
		return METAL_SIFIVE_FE310_G000_PRCI_10008000_SIZE;
}

static __inline__ const struct __metal_driver_vtable_sifive_fe310_g000_prci * __metal_driver_sifive_fe310_g000_prci_vtable( )
{
20013b5c:	1141                	addi	sp,sp,-16
20013b5e:	c622                	sw	s0,12(sp)
20013b60:	0800                	addi	s0,sp,16
E:\GitHub\HiFive01-RevB\FS_workspace\002_LED_Blink_All\bsp\build\debug/./metal/machine.h:1375
		return &__metal_driver_vtable_sifive_fe310_g000_prci;
20013b62:	200117b7          	lui	a5,0x20011
20013b66:	ea878793          	addi	a5,a5,-344 # 20010ea8 <__metal_driver_vtable_sifive_fe310_g000_prci>
E:\GitHub\HiFive01-RevB\FS_workspace\002_LED_Blink_All\bsp\build\debug/./metal/machine.h:1376
}
20013b6a:	853e                	mv	a0,a5
20013b6c:	4432                	lw	s0,12(sp)
20013b6e:	0141                	addi	sp,sp,16
20013b70:	8082                	ret

20013b72 <__metal_driver_sifive_fe310_g000_hfrosc_get_rate_hz>:
__metal_driver_sifive_fe310_g000_hfrosc_get_rate_hz():
E:/GitHub/HiFive01-RevB/FS_workspace/002_LED_Blink_All/freedom-metal/src/drivers/sifive_fe310-g000_hfrosc.c:17
#define CONFIG_TRIM 0x001F0000UL
#define CONFIG_ENABLE 0x40000000UL
#define CONFIG_READY 0x80000000UL

long __metal_driver_sifive_fe310_g000_hfrosc_get_rate_hz(
    const struct metal_clock *clock) {
20013b72:	7139                	addi	sp,sp,-64
20013b74:	de06                	sw	ra,60(sp)
20013b76:	dc22                	sw	s0,56(sp)
20013b78:	0080                	addi	s0,sp,64
20013b7a:	fca42623          	sw	a0,-52(s0)
E:/GitHub/HiFive01-RevB/FS_workspace/002_LED_Blink_All/freedom-metal/src/drivers/sifive_fe310-g000_hfrosc.c:19
    struct metal_clock *ref =
        __metal_driver_sifive_fe310_g000_hfrosc_ref(clock);
20013b7e:	fcc42503          	lw	a0,-52(s0)
20013b82:	3f59                	jal	20013b18 <__metal_driver_sifive_fe310_g000_hfrosc_ref>
20013b84:	fea42623          	sw	a0,-20(s0)
E:/GitHub/HiFive01-RevB/FS_workspace/002_LED_Blink_All/freedom-metal/src/drivers/sifive_fe310-g000_hfrosc.c:21
    long config_offset =
        __metal_driver_sifive_fe310_g000_hfrosc_config_offset(clock);
20013b88:	fcc42503          	lw	a0,-52(s0)
20013b8c:	3f75                	jal	20013b48 <__metal_driver_sifive_fe310_g000_hfrosc_config_offset>
20013b8e:	fea42423          	sw	a0,-24(s0)
E:/GitHub/HiFive01-RevB/FS_workspace/002_LED_Blink_All/freedom-metal/src/drivers/sifive_fe310-g000_hfrosc.c:23
    struct __metal_driver_sifive_fe310_g000_prci *config_base =
        __metal_driver_sifive_fe310_g000_hfrosc_config_base(clock);
20013b92:	fcc42503          	lw	a0,-52(s0)
20013b96:	3f71                	jal	20013b32 <__metal_driver_sifive_fe310_g000_hfrosc_config_base>
20013b98:	fea42223          	sw	a0,-28(s0)
E:/GitHub/HiFive01-RevB/FS_workspace/002_LED_Blink_All/freedom-metal/src/drivers/sifive_fe310-g000_hfrosc.c:25
    const struct __metal_driver_vtable_sifive_fe310_g000_prci *vtable =
        __metal_driver_sifive_fe310_g000_prci_vtable();
20013b9c:	37c1                	jal	20013b5c <__metal_driver_sifive_fe310_g000_prci_vtable>
20013b9e:	fea42023          	sw	a0,-32(s0)
E:/GitHub/HiFive01-RevB/FS_workspace/002_LED_Blink_All/freedom-metal/src/drivers/sifive_fe310-g000_hfrosc.c:26
    long cfg = vtable->get_reg(config_base, config_offset);
20013ba2:	fe042783          	lw	a5,-32(s0)
20013ba6:	439c                	lw	a5,0(a5)
20013ba8:	fe842583          	lw	a1,-24(s0)
20013bac:	fe442503          	lw	a0,-28(s0)
20013bb0:	9782                	jalr	a5
20013bb2:	fca42e23          	sw	a0,-36(s0)
E:/GitHub/HiFive01-RevB/FS_workspace/002_LED_Blink_All/freedom-metal/src/drivers/sifive_fe310-g000_hfrosc.c:28

    if ((cfg & CONFIG_ENABLE) == 0)
20013bb6:	fdc42703          	lw	a4,-36(s0)
20013bba:	400007b7          	lui	a5,0x40000
20013bbe:	8ff9                	and	a5,a5,a4
20013bc0:	e399                	bnez	a5,20013bc6 <__metal_driver_sifive_fe310_g000_hfrosc_get_rate_hz+0x54>
E:/GitHub/HiFive01-RevB/FS_workspace/002_LED_Blink_All/freedom-metal/src/drivers/sifive_fe310-g000_hfrosc.c:29
        return -1;
20013bc2:	57fd                	li	a5,-1
20013bc4:	a025                	j	20013bec <__metal_driver_sifive_fe310_g000_hfrosc_get_rate_hz+0x7a>
E:/GitHub/HiFive01-RevB/FS_workspace/002_LED_Blink_All/freedom-metal/src/drivers/sifive_fe310-g000_hfrosc.c:30
    if ((cfg & CONFIG_READY) == 0)
20013bc6:	fdc42783          	lw	a5,-36(s0)
20013bca:	0007c463          	bltz	a5,20013bd2 <__metal_driver_sifive_fe310_g000_hfrosc_get_rate_hz+0x60>
E:/GitHub/HiFive01-RevB/FS_workspace/002_LED_Blink_All/freedom-metal/src/drivers/sifive_fe310-g000_hfrosc.c:31
        return -1;
20013bce:	57fd                	li	a5,-1
20013bd0:	a831                	j	20013bec <__metal_driver_sifive_fe310_g000_hfrosc_get_rate_hz+0x7a>
E:/GitHub/HiFive01-RevB/FS_workspace/002_LED_Blink_All/freedom-metal/src/drivers/sifive_fe310-g000_hfrosc.c:32
    return metal_clock_get_rate_hz(ref) / ((cfg & CONFIG_DIVIDER) + 1);
20013bd2:	fec42503          	lw	a0,-20(s0)
20013bd6:	546010ef          	jal	ra,2001511c <metal_clock_get_rate_hz>
20013bda:	87aa                	mv	a5,a0
20013bdc:	873e                	mv	a4,a5
20013bde:	fdc42783          	lw	a5,-36(s0)
20013be2:	03f7f793          	andi	a5,a5,63
20013be6:	0785                	addi	a5,a5,1
20013be8:	02f757b3          	divu	a5,a4,a5
E:/GitHub/HiFive01-RevB/FS_workspace/002_LED_Blink_All/freedom-metal/src/drivers/sifive_fe310-g000_hfrosc.c:33
}
20013bec:	853e                	mv	a0,a5
20013bee:	50f2                	lw	ra,60(sp)
20013bf0:	5462                	lw	s0,56(sp)
20013bf2:	6121                	addi	sp,sp,64
20013bf4:	8082                	ret

20013bf6 <__metal_driver_sifive_fe310_g000_hfrosc_set_rate_hz>:
__metal_driver_sifive_fe310_g000_hfrosc_set_rate_hz():
E:/GitHub/HiFive01-RevB/FS_workspace/002_LED_Blink_All/freedom-metal/src/drivers/sifive_fe310-g000_hfrosc.c:36

long __metal_driver_sifive_fe310_g000_hfrosc_set_rate_hz(
    struct metal_clock *clock, long rate) {
20013bf6:	1101                	addi	sp,sp,-32
20013bf8:	ce06                	sw	ra,28(sp)
20013bfa:	cc22                	sw	s0,24(sp)
20013bfc:	1000                	addi	s0,sp,32
20013bfe:	fea42623          	sw	a0,-20(s0)
20013c02:	feb42423          	sw	a1,-24(s0)
E:/GitHub/HiFive01-RevB/FS_workspace/002_LED_Blink_All/freedom-metal/src/drivers/sifive_fe310-g000_hfrosc.c:37
    return __metal_driver_sifive_fe310_g000_hfrosc_get_rate_hz(clock);
20013c06:	fec42503          	lw	a0,-20(s0)
20013c0a:	37a5                	jal	20013b72 <__metal_driver_sifive_fe310_g000_hfrosc_get_rate_hz>
20013c0c:	87aa                	mv	a5,a0
E:/GitHub/HiFive01-RevB/FS_workspace/002_LED_Blink_All/freedom-metal/src/drivers/sifive_fe310-g000_hfrosc.c:38
}
20013c0e:	853e                	mv	a0,a5
20013c10:	40f2                	lw	ra,28(sp)
20013c12:	4462                	lw	s0,24(sp)
20013c14:	6105                	addi	sp,sp,32
20013c16:	8082                	ret

20013c18 <__metal_driver_sifive_fe310_g000_hfxosc_ref>:
__metal_driver_sifive_fe310_g000_hfxosc_ref():
E:\GitHub\HiFive01-RevB\FS_workspace\002_LED_Blink_All\bsp\build\debug/./metal/machine.h:1265
{
20013c18:	1101                	addi	sp,sp,-32
20013c1a:	ce22                	sw	s0,28(sp)
20013c1c:	1000                	addi	s0,sp,32
20013c1e:	fea42623          	sw	a0,-20(s0)
E:\GitHub\HiFive01-RevB\FS_workspace\002_LED_Blink_All\bsp\build\debug/./metal/machine.h:1266
		return (struct metal_clock *)&__metal_dt_clock_0.clock;
20013c22:	800007b7          	lui	a5,0x80000
20013c26:	00c78793          	addi	a5,a5,12 # 8000000c <__global_pointer$+0xffffed9c>
E:\GitHub\HiFive01-RevB\FS_workspace\002_LED_Blink_All\bsp\build\debug/./metal/machine.h:1267
}
20013c2a:	853e                	mv	a0,a5
20013c2c:	4472                	lw	s0,28(sp)
20013c2e:	6105                	addi	sp,sp,32
20013c30:	8082                	ret

20013c32 <__metal_driver_sifive_fe310_g000_hfxosc_config_base>:
__metal_driver_sifive_fe310_g000_hfxosc_config_base():
E:\GitHub\HiFive01-RevB\FS_workspace\002_LED_Blink_All\bsp\build\debug/./metal/machine.h:1270
{
20013c32:	1101                	addi	sp,sp,-32
20013c34:	ce22                	sw	s0,28(sp)
20013c36:	1000                	addi	s0,sp,32
20013c38:	fea42623          	sw	a0,-20(s0)
E:\GitHub\HiFive01-RevB\FS_workspace\002_LED_Blink_All\bsp\build\debug/./metal/machine.h:1271
		return (struct __metal_driver_sifive_fe310_g000_prci *)&__metal_dt_prci_10008000;
20013c3c:	82418793          	addi	a5,gp,-2012 # 80000a94 <__metal_dt_prci_10008000>
E:\GitHub\HiFive01-RevB\FS_workspace\002_LED_Blink_All\bsp\build\debug/./metal/machine.h:1272
}
20013c40:	853e                	mv	a0,a5
20013c42:	4472                	lw	s0,28(sp)
20013c44:	6105                	addi	sp,sp,32
20013c46:	8082                	ret

20013c48 <__metal_driver_sifive_fe310_g000_hfxosc_config_offset>:
__metal_driver_sifive_fe310_g000_hfxosc_config_offset():
E:\GitHub\HiFive01-RevB\FS_workspace\002_LED_Blink_All\bsp\build\debug/./metal/machine.h:1275
{
20013c48:	1101                	addi	sp,sp,-32
20013c4a:	ce22                	sw	s0,28(sp)
20013c4c:	1000                	addi	s0,sp,32
20013c4e:	fea42623          	sw	a0,-20(s0)
E:\GitHub\HiFive01-RevB\FS_workspace\002_LED_Blink_All\bsp\build\debug/./metal/machine.h:1276
		return METAL_SIFIVE_FE310_G000_PRCI_HFXOSCCFG;
20013c52:	4791                	li	a5,4
E:\GitHub\HiFive01-RevB\FS_workspace\002_LED_Blink_All\bsp\build\debug/./metal/machine.h:1277
}
20013c54:	853e                	mv	a0,a5
20013c56:	4472                	lw	s0,28(sp)
20013c58:	6105                	addi	sp,sp,32
20013c5a:	8082                	ret

20013c5c <__metal_driver_sifive_fe310_g000_prci_vtable>:
__metal_driver_sifive_fe310_g000_prci_vtable():
E:\GitHub\HiFive01-RevB\FS_workspace\002_LED_Blink_All\bsp\build\debug/./metal/machine.h:1374
{
20013c5c:	1141                	addi	sp,sp,-16
20013c5e:	c622                	sw	s0,12(sp)
20013c60:	0800                	addi	s0,sp,16
E:\GitHub\HiFive01-RevB\FS_workspace\002_LED_Blink_All\bsp\build\debug/./metal/machine.h:1375
		return &__metal_driver_vtable_sifive_fe310_g000_prci;
20013c62:	200117b7          	lui	a5,0x20011
20013c66:	ea878793          	addi	a5,a5,-344 # 20010ea8 <__metal_driver_vtable_sifive_fe310_g000_prci>
E:\GitHub\HiFive01-RevB\FS_workspace\002_LED_Blink_All\bsp\build\debug/./metal/machine.h:1376
}
20013c6a:	853e                	mv	a0,a5
20013c6c:	4432                	lw	s0,12(sp)
20013c6e:	0141                	addi	sp,sp,16
20013c70:	8082                	ret

20013c72 <__metal_driver_sifive_fe310_g000_hfxosc_get_rate_hz>:
__metal_driver_sifive_fe310_g000_hfxosc_get_rate_hz():
E:/GitHub/HiFive01-RevB/FS_workspace/002_LED_Blink_All/freedom-metal/src/drivers/sifive_fe310-g000_hfxosc.c:15

#define CONFIG_ENABLE 0x40000000UL
#define CONFIG_READY 0x80000000UL

long __metal_driver_sifive_fe310_g000_hfxosc_get_rate_hz(
    const struct metal_clock *clock) {
20013c72:	7139                	addi	sp,sp,-64
20013c74:	de06                	sw	ra,60(sp)
20013c76:	dc22                	sw	s0,56(sp)
20013c78:	0080                	addi	s0,sp,64
20013c7a:	fca42623          	sw	a0,-52(s0)
E:/GitHub/HiFive01-RevB/FS_workspace/002_LED_Blink_All/freedom-metal/src/drivers/sifive_fe310-g000_hfxosc.c:17
    struct metal_clock *ref =
        __metal_driver_sifive_fe310_g000_hfxosc_ref(clock);
20013c7e:	fcc42503          	lw	a0,-52(s0)
20013c82:	3f59                	jal	20013c18 <__metal_driver_sifive_fe310_g000_hfxosc_ref>
20013c84:	fea42623          	sw	a0,-20(s0)
E:/GitHub/HiFive01-RevB/FS_workspace/002_LED_Blink_All/freedom-metal/src/drivers/sifive_fe310-g000_hfxosc.c:19
    long config_offset =
        __metal_driver_sifive_fe310_g000_hfxosc_config_offset(clock);
20013c88:	fcc42503          	lw	a0,-52(s0)
20013c8c:	3f75                	jal	20013c48 <__metal_driver_sifive_fe310_g000_hfxosc_config_offset>
20013c8e:	fea42423          	sw	a0,-24(s0)
E:/GitHub/HiFive01-RevB/FS_workspace/002_LED_Blink_All/freedom-metal/src/drivers/sifive_fe310-g000_hfxosc.c:21
    struct __metal_driver_sifive_fe310_g000_prci *config_base =
        __metal_driver_sifive_fe310_g000_hfxosc_config_base(clock);
20013c92:	fcc42503          	lw	a0,-52(s0)
20013c96:	3f71                	jal	20013c32 <__metal_driver_sifive_fe310_g000_hfxosc_config_base>
20013c98:	fea42223          	sw	a0,-28(s0)
E:/GitHub/HiFive01-RevB/FS_workspace/002_LED_Blink_All/freedom-metal/src/drivers/sifive_fe310-g000_hfxosc.c:23
    const struct __metal_driver_vtable_sifive_fe310_g000_prci *vtable =
        __metal_driver_sifive_fe310_g000_prci_vtable();
20013c9c:	37c1                	jal	20013c5c <__metal_driver_sifive_fe310_g000_prci_vtable>
20013c9e:	fea42023          	sw	a0,-32(s0)
E:/GitHub/HiFive01-RevB/FS_workspace/002_LED_Blink_All/freedom-metal/src/drivers/sifive_fe310-g000_hfxosc.c:24
    long cfg = vtable->get_reg(config_base, config_offset);
20013ca2:	fe042783          	lw	a5,-32(s0)
20013ca6:	439c                	lw	a5,0(a5)
20013ca8:	fe842583          	lw	a1,-24(s0)
20013cac:	fe442503          	lw	a0,-28(s0)
20013cb0:	9782                	jalr	a5
20013cb2:	fca42e23          	sw	a0,-36(s0)
E:/GitHub/HiFive01-RevB/FS_workspace/002_LED_Blink_All/freedom-metal/src/drivers/sifive_fe310-g000_hfxosc.c:26

    if ((cfg & CONFIG_ENABLE) == 0)
20013cb6:	fdc42703          	lw	a4,-36(s0)
20013cba:	400007b7          	lui	a5,0x40000
20013cbe:	8ff9                	and	a5,a5,a4
20013cc0:	e399                	bnez	a5,20013cc6 <__metal_driver_sifive_fe310_g000_hfxosc_get_rate_hz+0x54>
E:/GitHub/HiFive01-RevB/FS_workspace/002_LED_Blink_All/freedom-metal/src/drivers/sifive_fe310-g000_hfxosc.c:27
        return -1;
20013cc2:	57fd                	li	a5,-1
20013cc4:	a821                	j	20013cdc <__metal_driver_sifive_fe310_g000_hfxosc_get_rate_hz+0x6a>
E:/GitHub/HiFive01-RevB/FS_workspace/002_LED_Blink_All/freedom-metal/src/drivers/sifive_fe310-g000_hfxosc.c:28
    if ((cfg & CONFIG_READY) == 0)
20013cc6:	fdc42783          	lw	a5,-36(s0)
20013cca:	0007c463          	bltz	a5,20013cd2 <__metal_driver_sifive_fe310_g000_hfxosc_get_rate_hz+0x60>
E:/GitHub/HiFive01-RevB/FS_workspace/002_LED_Blink_All/freedom-metal/src/drivers/sifive_fe310-g000_hfxosc.c:29
        return -1;
20013cce:	57fd                	li	a5,-1
20013cd0:	a031                	j	20013cdc <__metal_driver_sifive_fe310_g000_hfxosc_get_rate_hz+0x6a>
E:/GitHub/HiFive01-RevB/FS_workspace/002_LED_Blink_All/freedom-metal/src/drivers/sifive_fe310-g000_hfxosc.c:30
    return metal_clock_get_rate_hz(ref);
20013cd2:	fec42503          	lw	a0,-20(s0)
20013cd6:	446010ef          	jal	ra,2001511c <metal_clock_get_rate_hz>
20013cda:	87aa                	mv	a5,a0
E:/GitHub/HiFive01-RevB/FS_workspace/002_LED_Blink_All/freedom-metal/src/drivers/sifive_fe310-g000_hfxosc.c:31
}
20013cdc:	853e                	mv	a0,a5
20013cde:	50f2                	lw	ra,60(sp)
20013ce0:	5462                	lw	s0,56(sp)
20013ce2:	6121                	addi	sp,sp,64
20013ce4:	8082                	ret

20013ce6 <__metal_driver_sifive_fe310_g000_hfxosc_set_rate_hz>:
__metal_driver_sifive_fe310_g000_hfxosc_set_rate_hz():
E:/GitHub/HiFive01-RevB/FS_workspace/002_LED_Blink_All/freedom-metal/src/drivers/sifive_fe310-g000_hfxosc.c:34

long __metal_driver_sifive_fe310_g000_hfxosc_set_rate_hz(
    struct metal_clock *clock, long rate) {
20013ce6:	1101                	addi	sp,sp,-32
20013ce8:	ce06                	sw	ra,28(sp)
20013cea:	cc22                	sw	s0,24(sp)
20013cec:	1000                	addi	s0,sp,32
20013cee:	fea42623          	sw	a0,-20(s0)
20013cf2:	feb42423          	sw	a1,-24(s0)
E:/GitHub/HiFive01-RevB/FS_workspace/002_LED_Blink_All/freedom-metal/src/drivers/sifive_fe310-g000_hfxosc.c:35
    return __metal_driver_sifive_fe310_g000_hfxosc_get_rate_hz(clock);
20013cf6:	fec42503          	lw	a0,-20(s0)
20013cfa:	3fa5                	jal	20013c72 <__metal_driver_sifive_fe310_g000_hfxosc_get_rate_hz>
20013cfc:	87aa                	mv	a5,a0
E:/GitHub/HiFive01-RevB/FS_workspace/002_LED_Blink_All/freedom-metal/src/drivers/sifive_fe310-g000_hfxosc.c:36
}
20013cfe:	853e                	mv	a0,a5
20013d00:	40f2                	lw	ra,28(sp)
20013d02:	4462                	lw	s0,24(sp)
20013d04:	6105                	addi	sp,sp,32
20013d06:	8082                	ret

20013d08 <__metal_driver_sifive_fe310_g000_pll_pllsel0>:
__metal_driver_sifive_fe310_g000_pll_pllsel0():
E:\GitHub\HiFive01-RevB\FS_workspace\002_LED_Blink_All\bsp\build\debug/./metal/machine.h:1326
{
20013d08:	1101                	addi	sp,sp,-32
20013d0a:	ce22                	sw	s0,28(sp)
20013d0c:	1000                	addi	s0,sp,32
20013d0e:	fea42623          	sw	a0,-20(s0)
E:\GitHub\HiFive01-RevB\FS_workspace\002_LED_Blink_All\bsp\build\debug/./metal/machine.h:1327
		return (struct metal_clock *)&__metal_dt_clock_3.clock;
20013d12:	800017b7          	lui	a5,0x80001
20013d16:	9e878793          	addi	a5,a5,-1560 # 800009e8 <__global_pointer$+0xfffff778>
E:\GitHub\HiFive01-RevB\FS_workspace\002_LED_Blink_All\bsp\build\debug/./metal/machine.h:1328
}
20013d1a:	853e                	mv	a0,a5
20013d1c:	4472                	lw	s0,28(sp)
20013d1e:	6105                	addi	sp,sp,32
20013d20:	8082                	ret

20013d22 <__metal_driver_sifive_fe310_g000_pll_pllref>:
__metal_driver_sifive_fe310_g000_pll_pllref():
E:\GitHub\HiFive01-RevB\FS_workspace\002_LED_Blink_All\bsp\build\debug/./metal/machine.h:1331
{
20013d22:	1101                	addi	sp,sp,-32
20013d24:	ce22                	sw	s0,28(sp)
20013d26:	1000                	addi	s0,sp,32
20013d28:	fea42623          	sw	a0,-20(s0)
E:\GitHub\HiFive01-RevB\FS_workspace\002_LED_Blink_All\bsp\build\debug/./metal/machine.h:1332
		return (struct metal_clock *)&__metal_dt_clock_1.clock;
20013d2c:	800017b7          	lui	a5,0x80001
20013d30:	9f478793          	addi	a5,a5,-1548 # 800009f4 <__global_pointer$+0xfffff784>
E:\GitHub\HiFive01-RevB\FS_workspace\002_LED_Blink_All\bsp\build\debug/./metal/machine.h:1333
}
20013d34:	853e                	mv	a0,a5
20013d36:	4472                	lw	s0,28(sp)
20013d38:	6105                	addi	sp,sp,32
20013d3a:	8082                	ret

20013d3c <__metal_driver_sifive_fe310_g000_pll_divider_base>:
__metal_driver_sifive_fe310_g000_pll_divider_base():
E:\GitHub\HiFive01-RevB\FS_workspace\002_LED_Blink_All\bsp\build\debug/./metal/machine.h:1336
{
20013d3c:	1101                	addi	sp,sp,-32
20013d3e:	ce22                	sw	s0,28(sp)
20013d40:	1000                	addi	s0,sp,32
20013d42:	fea42623          	sw	a0,-20(s0)
E:\GitHub\HiFive01-RevB\FS_workspace\002_LED_Blink_All\bsp\build\debug/./metal/machine.h:1337
		return (struct __metal_driver_sifive_fe310_g000_prci *)&__metal_dt_prci_10008000;
20013d46:	82418793          	addi	a5,gp,-2012 # 80000a94 <__metal_dt_prci_10008000>
E:\GitHub\HiFive01-RevB\FS_workspace\002_LED_Blink_All\bsp\build\debug/./metal/machine.h:1338
}
20013d4a:	853e                	mv	a0,a5
20013d4c:	4472                	lw	s0,28(sp)
20013d4e:	6105                	addi	sp,sp,32
20013d50:	8082                	ret

20013d52 <__metal_driver_sifive_fe310_g000_pll_divider_offset>:
__metal_driver_sifive_fe310_g000_pll_divider_offset():
E:\GitHub\HiFive01-RevB\FS_workspace\002_LED_Blink_All\bsp\build\debug/./metal/machine.h:1341
{
20013d52:	1101                	addi	sp,sp,-32
20013d54:	ce22                	sw	s0,28(sp)
20013d56:	1000                	addi	s0,sp,32
20013d58:	fea42623          	sw	a0,-20(s0)
E:\GitHub\HiFive01-RevB\FS_workspace\002_LED_Blink_All\bsp\build\debug/./metal/machine.h:1342
		return METAL_SIFIVE_FE310_G000_PRCI_PLLOUTDIV;
20013d5c:	47b1                	li	a5,12
E:\GitHub\HiFive01-RevB\FS_workspace\002_LED_Blink_All\bsp\build\debug/./metal/machine.h:1343
}
20013d5e:	853e                	mv	a0,a5
20013d60:	4472                	lw	s0,28(sp)
20013d62:	6105                	addi	sp,sp,32
20013d64:	8082                	ret

20013d66 <__metal_driver_sifive_fe310_g000_pll_config_base>:
__metal_driver_sifive_fe310_g000_pll_config_base():
E:\GitHub\HiFive01-RevB\FS_workspace\002_LED_Blink_All\bsp\build\debug/./metal/machine.h:1346
{
20013d66:	1141                	addi	sp,sp,-16
20013d68:	c622                	sw	s0,12(sp)
20013d6a:	0800                	addi	s0,sp,16
E:\GitHub\HiFive01-RevB\FS_workspace\002_LED_Blink_All\bsp\build\debug/./metal/machine.h:1347
		return (struct __metal_driver_sifive_fe310_g000_prci *)&__metal_dt_prci_10008000;
20013d6c:	82418793          	addi	a5,gp,-2012 # 80000a94 <__metal_dt_prci_10008000>
E:\GitHub\HiFive01-RevB\FS_workspace\002_LED_Blink_All\bsp\build\debug/./metal/machine.h:1348
}
20013d70:	853e                	mv	a0,a5
20013d72:	4432                	lw	s0,12(sp)
20013d74:	0141                	addi	sp,sp,16
20013d76:	8082                	ret

20013d78 <__metal_driver_sifive_fe310_g000_pll_config_offset>:
__metal_driver_sifive_fe310_g000_pll_config_offset():
E:\GitHub\HiFive01-RevB\FS_workspace\002_LED_Blink_All\bsp\build\debug/./metal/machine.h:1351
{
20013d78:	1141                	addi	sp,sp,-16
20013d7a:	c622                	sw	s0,12(sp)
20013d7c:	0800                	addi	s0,sp,16
E:\GitHub\HiFive01-RevB\FS_workspace\002_LED_Blink_All\bsp\build\debug/./metal/machine.h:1352
		return METAL_SIFIVE_FE310_G000_PRCI_PLLCFG;
20013d7e:	47a1                	li	a5,8
E:\GitHub\HiFive01-RevB\FS_workspace\002_LED_Blink_All\bsp\build\debug/./metal/machine.h:1353
}
20013d80:	853e                	mv	a0,a5
20013d82:	4432                	lw	s0,12(sp)
20013d84:	0141                	addi	sp,sp,16
20013d86:	8082                	ret

20013d88 <__metal_driver_sifive_fe310_g000_pll_init_rate>:
__metal_driver_sifive_fe310_g000_pll_init_rate():
E:\GitHub\HiFive01-RevB\FS_workspace\002_LED_Blink_All\bsp\build\debug/./metal/machine.h:1356
{
20013d88:	1141                	addi	sp,sp,-16
20013d8a:	c622                	sw	s0,12(sp)
20013d8c:	0800                	addi	s0,sp,16
E:\GitHub\HiFive01-RevB\FS_workspace\002_LED_Blink_All\bsp\build\debug/./metal/machine.h:1357
		return 16000000;
20013d8e:	00f427b7          	lui	a5,0xf42
20013d92:	40078793          	addi	a5,a5,1024 # f42400 <__heap_size+0xf41c00>
E:\GitHub\HiFive01-RevB\FS_workspace\002_LED_Blink_All\bsp\build\debug/./metal/machine.h:1358
}
20013d96:	853e                	mv	a0,a5
20013d98:	4432                	lw	s0,12(sp)
20013d9a:	0141                	addi	sp,sp,16
20013d9c:	8082                	ret

20013d9e <__metal_driver_sifive_fe310_g000_prci_base>:
__metal_driver_sifive_fe310_g000_prci_base():
E:\GitHub\HiFive01-RevB\FS_workspace\002_LED_Blink_All\bsp\build\debug/./metal/machine.h:1364
{
20013d9e:	1141                	addi	sp,sp,-16
20013da0:	c622                	sw	s0,12(sp)
20013da2:	0800                	addi	s0,sp,16
E:\GitHub\HiFive01-RevB\FS_workspace\002_LED_Blink_All\bsp\build\debug/./metal/machine.h:1365
		return METAL_SIFIVE_FE310_G000_PRCI_10008000_BASE_ADDRESS;
20013da4:	100087b7          	lui	a5,0x10008
E:\GitHub\HiFive01-RevB\FS_workspace\002_LED_Blink_All\bsp\build\debug/./metal/machine.h:1366
}
20013da8:	853e                	mv	a0,a5
20013daa:	4432                	lw	s0,12(sp)
20013dac:	0141                	addi	sp,sp,16
20013dae:	8082                	ret

20013db0 <__metal_driver_sifive_fe310_g000_prci_vtable>:
__metal_driver_sifive_fe310_g000_prci_vtable():
E:\GitHub\HiFive01-RevB\FS_workspace\002_LED_Blink_All\bsp\build\debug/./metal/machine.h:1374
{
20013db0:	1141                	addi	sp,sp,-16
20013db2:	c622                	sw	s0,12(sp)
20013db4:	0800                	addi	s0,sp,16
E:\GitHub\HiFive01-RevB\FS_workspace\002_LED_Blink_All\bsp\build\debug/./metal/machine.h:1375
		return &__metal_driver_vtable_sifive_fe310_g000_prci;
20013db6:	200117b7          	lui	a5,0x20011
20013dba:	ea878793          	addi	a5,a5,-344 # 20010ea8 <__metal_driver_vtable_sifive_fe310_g000_prci>
E:\GitHub\HiFive01-RevB\FS_workspace\002_LED_Blink_All\bsp\build\debug/./metal/machine.h:1376
}
20013dbe:	853e                	mv	a0,a5
20013dc0:	4432                	lw	s0,12(sp)
20013dc2:	0141                	addi	sp,sp,16
20013dc4:	8082                	ret

20013dc6 <get_pll_config_freq>:
get_pll_config_freq():
E:/GitHub/HiFive01-RevB/FS_workspace/002_LED_Blink_All/freedom-metal/src/drivers/sifive_fe310-g000_pll.c:141
                                const struct pll_config_t *config) {
20013dc6:	1101                	addi	sp,sp,-32
20013dc8:	ce22                	sw	s0,28(sp)
20013dca:	1000                	addi	s0,sp,32
20013dcc:	fea42623          	sw	a0,-20(s0)
20013dd0:	feb42423          	sw	a1,-24(s0)
E:/GitHub/HiFive01-RevB/FS_workspace/002_LED_Blink_All/freedom-metal/src/drivers/sifive_fe310-g000_pll.c:142
    if (pll_input_rate < config->min_input_rate ||
20013dd4:	fe842783          	lw	a5,-24(s0)
20013dd8:	479c                	lw	a5,8(a5)
20013dda:	fec42703          	lw	a4,-20(s0)
20013dde:	00f76963          	bltu	a4,a5,20013df0 <get_pll_config_freq+0x2a>
E:/GitHub/HiFive01-RevB/FS_workspace/002_LED_Blink_All/freedom-metal/src/drivers/sifive_fe310-g000_pll.c:143 (discriminator 1)
        pll_input_rate > config->max_input_rate)
20013de2:	fe842783          	lw	a5,-24(s0)
20013de6:	47dc                	lw	a5,12(a5)
E:/GitHub/HiFive01-RevB/FS_workspace/002_LED_Blink_All/freedom-metal/src/drivers/sifive_fe310-g000_pll.c:142 (discriminator 1)
    if (pll_input_rate < config->min_input_rate ||
20013de8:	fec42703          	lw	a4,-20(s0)
20013dec:	00e7f463          	bgeu	a5,a4,20013df4 <get_pll_config_freq+0x2e>
E:/GitHub/HiFive01-RevB/FS_workspace/002_LED_Blink_All/freedom-metal/src/drivers/sifive_fe310-g000_pll.c:144
        return PLL_CONFIG_NOT_VALID;
20013df0:	57fd                	li	a5,-1
20013df2:	a829                	j	20013e0c <get_pll_config_freq+0x46>
E:/GitHub/HiFive01-RevB/FS_workspace/002_LED_Blink_All/freedom-metal/src/drivers/sifive_fe310-g000_pll.c:146
    return pll_input_rate * config->multiplier / config->divisor;
20013df4:	fe842783          	lw	a5,-24(s0)
20013df8:	4398                	lw	a4,0(a5)
20013dfa:	fec42783          	lw	a5,-20(s0)
20013dfe:	02f70733          	mul	a4,a4,a5
20013e02:	fe842783          	lw	a5,-24(s0)
20013e06:	43dc                	lw	a5,4(a5)
20013e08:	02f757b3          	divu	a5,a4,a5
E:/GitHub/HiFive01-RevB/FS_workspace/002_LED_Blink_All/freedom-metal/src/drivers/sifive_fe310-g000_pll.c:147
}
20013e0c:	853e                	mv	a0,a5
20013e0e:	4472                	lw	s0,28(sp)
20013e10:	6105                	addi	sp,sp,32
20013e12:	8082                	ret

20013e14 <__metal_driver_sifive_fe310_g000_pll_init>:
__metal_driver_sifive_fe310_g000_pll_init():
E:/GitHub/HiFive01-RevB/FS_workspace/002_LED_Blink_All/freedom-metal/src/drivers/sifive_fe310-g000_pll.c:162
    struct __metal_driver_sifive_fe310_g000_pll *pll) {
20013e14:	7139                	addi	sp,sp,-64
20013e16:	de06                	sw	ra,60(sp)
20013e18:	dc22                	sw	s0,56(sp)
20013e1a:	0080                	addi	s0,sp,64
20013e1c:	fca42623          	sw	a0,-52(s0)
E:/GitHub/HiFive01-RevB/FS_workspace/002_LED_Blink_All/freedom-metal/src/drivers/sifive_fe310-g000_pll.c:164
        __metal_driver_sifive_fe310_g000_pll_pllref(&(pll->clock));
20013e20:	fcc42783          	lw	a5,-52(s0)
20013e24:	853e                	mv	a0,a5
20013e26:	3df5                	jal	20013d22 <__metal_driver_sifive_fe310_g000_pll_pllref>
20013e28:	fea42623          	sw	a0,-20(s0)
E:/GitHub/HiFive01-RevB/FS_workspace/002_LED_Blink_All/freedom-metal/src/drivers/sifive_fe310-g000_pll.c:165
    long init_rate = __metal_driver_sifive_fe310_g000_pll_init_rate();
20013e2c:	3fb1                	jal	20013d88 <__metal_driver_sifive_fe310_g000_pll_init_rate>
20013e2e:	fea42423          	sw	a0,-24(s0)
E:/GitHub/HiFive01-RevB/FS_workspace/002_LED_Blink_All/freedom-metal/src/drivers/sifive_fe310-g000_pll.c:166
    long config_offset = __metal_driver_sifive_fe310_g000_pll_config_offset();
20013e32:	3799                	jal	20013d78 <__metal_driver_sifive_fe310_g000_pll_config_offset>
20013e34:	fea42223          	sw	a0,-28(s0)
E:/GitHub/HiFive01-RevB/FS_workspace/002_LED_Blink_All/freedom-metal/src/drivers/sifive_fe310-g000_pll.c:167
    long base = __metal_driver_sifive_fe310_g000_prci_base();
20013e38:	379d                	jal	20013d9e <__metal_driver_sifive_fe310_g000_prci_base>
20013e3a:	fea42023          	sw	a0,-32(s0)
E:/GitHub/HiFive01-RevB/FS_workspace/002_LED_Blink_All/freedom-metal/src/drivers/sifive_fe310-g000_pll.c:169
    __metal_io_u32 *pllcfg = (__metal_io_u32 *)(base + config_offset);
20013e3e:	fe042703          	lw	a4,-32(s0)
20013e42:	fe442783          	lw	a5,-28(s0)
20013e46:	97ba                	add	a5,a5,a4
20013e48:	fcf42e23          	sw	a5,-36(s0)
E:/GitHub/HiFive01-RevB/FS_workspace/002_LED_Blink_All/freedom-metal/src/drivers/sifive_fe310-g000_pll.c:173
    _metal_clock_call_all_callbacks(pll->clock._pre_rate_change_callback);
20013e4c:	fcc42783          	lw	a5,-52(s0)
20013e50:	43dc                	lw	a5,4(a5)
20013e52:	853e                	mv	a0,a5
20013e54:	286010ef          	jal	ra,200150da <_metal_clock_call_all_callbacks>
E:/GitHub/HiFive01-RevB/FS_workspace/002_LED_Blink_All/freedom-metal/src/drivers/sifive_fe310-g000_pll.c:177
    if ((__METAL_ACCESS_ONCE(pllcfg) & PLL_SEL) != 0)
20013e58:	fdc42783          	lw	a5,-36(s0)
20013e5c:	4398                	lw	a4,0(a5)
20013e5e:	67c1                	lui	a5,0x10
20013e60:	8ff9                	and	a5,a5,a4
20013e62:	cb91                	beqz	a5,20013e76 <__metal_driver_sifive_fe310_g000_pll_init+0x62>
E:/GitHub/HiFive01-RevB/FS_workspace/002_LED_Blink_All/freedom-metal/src/drivers/sifive_fe310-g000_pll.c:178
        __METAL_ACCESS_ONCE(pllcfg) &= ~(PLL_SEL);
20013e64:	fdc42783          	lw	a5,-36(s0)
20013e68:	4398                	lw	a4,0(a5)
20013e6a:	77c1                	lui	a5,0xffff0
20013e6c:	17fd                	addi	a5,a5,-1
20013e6e:	8f7d                	and	a4,a4,a5
20013e70:	fdc42783          	lw	a5,-36(s0)
20013e74:	c398                	sw	a4,0(a5)
E:/GitHub/HiFive01-RevB/FS_workspace/002_LED_Blink_All/freedom-metal/src/drivers/sifive_fe310-g000_pll.c:181
    if (pllref != NULL)
20013e76:	fec42783          	lw	a5,-20(s0)
20013e7a:	cb91                	beqz	a5,20013e8e <__metal_driver_sifive_fe310_g000_pll_init+0x7a>
E:/GitHub/HiFive01-RevB/FS_workspace/002_LED_Blink_All/freedom-metal/src/drivers/sifive_fe310-g000_pll.c:182
        __METAL_ACCESS_ONCE(pllcfg) |= PLL_REFSEL;
20013e7c:	fdc42783          	lw	a5,-36(s0)
20013e80:	4398                	lw	a4,0(a5)
20013e82:	000207b7          	lui	a5,0x20
20013e86:	8f5d                	or	a4,a4,a5
20013e88:	fdc42783          	lw	a5,-36(s0)
20013e8c:	c398                	sw	a4,0(a5)
E:/GitHub/HiFive01-RevB/FS_workspace/002_LED_Blink_All/freedom-metal/src/drivers/sifive_fe310-g000_pll.c:187
    pll->clock.vtable->set_rate_hz(&(pll->clock), init_rate);
20013e8e:	fcc42783          	lw	a5,-52(s0)
20013e92:	439c                	lw	a5,0(a5)
20013e94:	43d8                	lw	a4,4(a5)
20013e96:	fcc42783          	lw	a5,-52(s0)
20013e9a:	fe842583          	lw	a1,-24(s0)
20013e9e:	853e                	mv	a0,a5
20013ea0:	9702                	jalr	a4
E:/GitHub/HiFive01-RevB/FS_workspace/002_LED_Blink_All/freedom-metal/src/drivers/sifive_fe310-g000_pll.c:190
    _metal_clock_call_all_callbacks(pll->clock._post_rate_change_callback);
20013ea2:	fcc42783          	lw	a5,-52(s0)
20013ea6:	479c                	lw	a5,8(a5)
20013ea8:	853e                	mv	a0,a5
20013eaa:	230010ef          	jal	ra,200150da <_metal_clock_call_all_callbacks>
E:/GitHub/HiFive01-RevB/FS_workspace/002_LED_Blink_All/freedom-metal/src/drivers/sifive_fe310-g000_pll.c:191
}
20013eae:	0001                	nop
20013eb0:	50f2                	lw	ra,60(sp)
20013eb2:	5462                	lw	s0,56(sp)
20013eb4:	6121                	addi	sp,sp,64
20013eb6:	8082                	ret

20013eb8 <__metal_driver_sifive_fe310_g000_pll_get_rate_hz>:
__metal_driver_sifive_fe310_g000_pll_get_rate_hz():
E:/GitHub/HiFive01-RevB/FS_workspace/002_LED_Blink_All/freedom-metal/src/drivers/sifive_fe310-g000_pll.c:194
    const struct metal_clock *clock) {
20013eb8:	711d                	addi	sp,sp,-96
20013eba:	ce86                	sw	ra,92(sp)
20013ebc:	cca2                	sw	s0,88(sp)
20013ebe:	1080                	addi	s0,sp,96
20013ec0:	faa42623          	sw	a0,-84(s0)
E:/GitHub/HiFive01-RevB/FS_workspace/002_LED_Blink_All/freedom-metal/src/drivers/sifive_fe310-g000_pll.c:196
        __metal_driver_sifive_fe310_g000_pll_pllref(clock);
20013ec4:	fac42503          	lw	a0,-84(s0)
20013ec8:	3da9                	jal	20013d22 <__metal_driver_sifive_fe310_g000_pll_pllref>
20013eca:	fea42623          	sw	a0,-20(s0)
E:/GitHub/HiFive01-RevB/FS_workspace/002_LED_Blink_All/freedom-metal/src/drivers/sifive_fe310-g000_pll.c:198
        __metal_driver_sifive_fe310_g000_pll_pllsel0(clock);
20013ece:	fac42503          	lw	a0,-84(s0)
20013ed2:	3d1d                	jal	20013d08 <__metal_driver_sifive_fe310_g000_pll_pllsel0>
20013ed4:	fea42423          	sw	a0,-24(s0)
E:/GitHub/HiFive01-RevB/FS_workspace/002_LED_Blink_All/freedom-metal/src/drivers/sifive_fe310-g000_pll.c:200
        __metal_driver_sifive_fe310_g000_pll_config_offset(clock);
20013ed8:	fac42503          	lw	a0,-84(s0)
20013edc:	3d71                	jal	20013d78 <__metal_driver_sifive_fe310_g000_pll_config_offset>
20013ede:	fea42223          	sw	a0,-28(s0)
E:/GitHub/HiFive01-RevB/FS_workspace/002_LED_Blink_All/freedom-metal/src/drivers/sifive_fe310-g000_pll.c:202
        __metal_driver_sifive_fe310_g000_pll_config_base(clock);
20013ee2:	fac42503          	lw	a0,-84(s0)
20013ee6:	3541                	jal	20013d66 <__metal_driver_sifive_fe310_g000_pll_config_base>
20013ee8:	fea42023          	sw	a0,-32(s0)
E:/GitHub/HiFive01-RevB/FS_workspace/002_LED_Blink_All/freedom-metal/src/drivers/sifive_fe310-g000_pll.c:204
        __metal_driver_sifive_fe310_g000_pll_divider_offset(clock);
20013eec:	fac42503          	lw	a0,-84(s0)
20013ef0:	358d                	jal	20013d52 <__metal_driver_sifive_fe310_g000_pll_divider_offset>
20013ef2:	fca42e23          	sw	a0,-36(s0)
E:/GitHub/HiFive01-RevB/FS_workspace/002_LED_Blink_All/freedom-metal/src/drivers/sifive_fe310-g000_pll.c:206
        __metal_driver_sifive_fe310_g000_pll_divider_base(clock);
20013ef6:	fac42503          	lw	a0,-84(s0)
20013efa:	3589                	jal	20013d3c <__metal_driver_sifive_fe310_g000_pll_divider_base>
20013efc:	fca42c23          	sw	a0,-40(s0)
E:/GitHub/HiFive01-RevB/FS_workspace/002_LED_Blink_All/freedom-metal/src/drivers/sifive_fe310-g000_pll.c:208
        __metal_driver_sifive_fe310_g000_prci_vtable();
20013f00:	3d45                	jal	20013db0 <__metal_driver_sifive_fe310_g000_prci_vtable>
20013f02:	fca42a23          	sw	a0,-44(s0)
E:/GitHub/HiFive01-RevB/FS_workspace/002_LED_Blink_All/freedom-metal/src/drivers/sifive_fe310-g000_pll.c:210
    long cfg = vtable->get_reg(config_base, config_offset);
20013f06:	fd442783          	lw	a5,-44(s0)
20013f0a:	439c                	lw	a5,0(a5)
20013f0c:	fe442583          	lw	a1,-28(s0)
20013f10:	fe042503          	lw	a0,-32(s0)
20013f14:	9782                	jalr	a5
20013f16:	fca42823          	sw	a0,-48(s0)
E:/GitHub/HiFive01-RevB/FS_workspace/002_LED_Blink_All/freedom-metal/src/drivers/sifive_fe310-g000_pll.c:211
    long div = vtable->get_reg(divider_base, divider_offset);
20013f1a:	fd442783          	lw	a5,-44(s0)
20013f1e:	439c                	lw	a5,0(a5)
20013f20:	fdc42583          	lw	a1,-36(s0)
20013f24:	fd842503          	lw	a0,-40(s0)
20013f28:	9782                	jalr	a5
20013f2a:	fca42623          	sw	a0,-52(s0)
E:/GitHub/HiFive01-RevB/FS_workspace/002_LED_Blink_All/freedom-metal/src/drivers/sifive_fe310-g000_pll.c:215
    if (__METAL_GET_FIELD(cfg, PLL_SEL) == 0)
20013f2e:	fd042703          	lw	a4,-48(s0)
20013f32:	67c1                	lui	a5,0x10
20013f34:	8f7d                	and	a4,a4,a5
20013f36:	67c1                	lui	a5,0x10
20013f38:	00f77863          	bgeu	a4,a5,20013f48 <__metal_driver_sifive_fe310_g000_pll_get_rate_hz+0x90>
E:/GitHub/HiFive01-RevB/FS_workspace/002_LED_Blink_All/freedom-metal/src/drivers/sifive_fe310-g000_pll.c:216
        return metal_clock_get_rate_hz(pllsel0);
20013f3c:	fe842503          	lw	a0,-24(s0)
20013f40:	1dc010ef          	jal	ra,2001511c <metal_clock_get_rate_hz>
20013f44:	87aa                	mv	a5,a0
20013f46:	a8e1                	j	2001401e <__metal_driver_sifive_fe310_g000_pll_get_rate_hz+0x166>
E:/GitHub/HiFive01-RevB/FS_workspace/002_LED_Blink_All/freedom-metal/src/drivers/sifive_fe310-g000_pll.c:221
        __METAL_GET_FIELD(cfg, PLL_REFSEL) ? pllref : pllsel0);
20013f48:	fd042703          	lw	a4,-48(s0)
20013f4c:	000207b7          	lui	a5,0x20
20013f50:	8f7d                	and	a4,a4,a5
E:/GitHub/HiFive01-RevB/FS_workspace/002_LED_Blink_All/freedom-metal/src/drivers/sifive_fe310-g000_pll.c:220
    long ref_hz = metal_clock_get_rate_hz(
20013f52:	000207b7          	lui	a5,0x20
20013f56:	00f76563          	bltu	a4,a5,20013f60 <__metal_driver_sifive_fe310_g000_pll_get_rate_hz+0xa8>
E:/GitHub/HiFive01-RevB/FS_workspace/002_LED_Blink_All/freedom-metal/src/drivers/sifive_fe310-g000_pll.c:220 (discriminator 1)
20013f5a:	fec42783          	lw	a5,-20(s0)
20013f5e:	a019                	j	20013f64 <__metal_driver_sifive_fe310_g000_pll_get_rate_hz+0xac>
E:/GitHub/HiFive01-RevB/FS_workspace/002_LED_Blink_All/freedom-metal/src/drivers/sifive_fe310-g000_pll.c:220 (discriminator 2)
20013f60:	fe842783          	lw	a5,-24(s0)
E:/GitHub/HiFive01-RevB/FS_workspace/002_LED_Blink_All/freedom-metal/src/drivers/sifive_fe310-g000_pll.c:220 (discriminator 4)
20013f64:	853e                	mv	a0,a5
20013f66:	1b6010ef          	jal	ra,2001511c <metal_clock_get_rate_hz>
20013f6a:	fca42423          	sw	a0,-56(s0)
E:/GitHub/HiFive01-RevB/FS_workspace/002_LED_Blink_All/freedom-metal/src/drivers/sifive_fe310-g000_pll.c:225 (discriminator 4)
    if (__METAL_GET_FIELD(cfg, PLL_BYPASS))
20013f6e:	fd042703          	lw	a4,-48(s0)
20013f72:	000407b7          	lui	a5,0x40
20013f76:	8f7d                	and	a4,a4,a5
20013f78:	000407b7          	lui	a5,0x40
20013f7c:	00f76563          	bltu	a4,a5,20013f86 <__metal_driver_sifive_fe310_g000_pll_get_rate_hz+0xce>
E:/GitHub/HiFive01-RevB/FS_workspace/002_LED_Blink_All/freedom-metal/src/drivers/sifive_fe310-g000_pll.c:226
        return ref_hz;
20013f80:	fc842783          	lw	a5,-56(s0)
20013f84:	a869                	j	2001401e <__metal_driver_sifive_fe310_g000_pll_get_rate_hz+0x166>
E:/GitHub/HiFive01-RevB/FS_workspace/002_LED_Blink_All/freedom-metal/src/drivers/sifive_fe310-g000_pll.c:229
    long div_r = __METAL_GET_FIELD(cfg, PLL_R) + 1;
20013f86:	fd042783          	lw	a5,-48(s0)
20013f8a:	8b9d                	andi	a5,a5,7
20013f8c:	0785                	addi	a5,a5,1
20013f8e:	fcf42223          	sw	a5,-60(s0)
E:/GitHub/HiFive01-RevB/FS_workspace/002_LED_Blink_All/freedom-metal/src/drivers/sifive_fe310-g000_pll.c:230
    long mul_f = 2 * (__METAL_GET_FIELD(cfg, PLL_F) + 1);
20013f92:	fd042783          	lw	a5,-48(s0)
20013f96:	3f07f793          	andi	a5,a5,1008
20013f9a:	8391                	srli	a5,a5,0x4
20013f9c:	0785                	addi	a5,a5,1
20013f9e:	0786                	slli	a5,a5,0x1
20013fa0:	fcf42023          	sw	a5,-64(s0)
E:/GitHub/HiFive01-RevB/FS_workspace/002_LED_Blink_All/freedom-metal/src/drivers/sifive_fe310-g000_pll.c:231
    if (__METAL_GET_FIELD(cfg, PLL_Q) == 0)
20013fa4:	fd042703          	lw	a4,-48(s0)
20013fa8:	6785                	lui	a5,0x1
20013faa:	c0078793          	addi	a5,a5,-1024 # c00 <__heap_size+0x400>
20013fae:	8f7d                	and	a4,a4,a5
20013fb0:	3ff00793          	li	a5,1023
20013fb4:	00e7e463          	bltu	a5,a4,20013fbc <__metal_driver_sifive_fe310_g000_pll_get_rate_hz+0x104>
E:/GitHub/HiFive01-RevB/FS_workspace/002_LED_Blink_All/freedom-metal/src/drivers/sifive_fe310-g000_pll.c:232
        return -1;
20013fb8:	57fd                	li	a5,-1
20013fba:	a095                	j	2001401e <__metal_driver_sifive_fe310_g000_pll_get_rate_hz+0x166>
E:/GitHub/HiFive01-RevB/FS_workspace/002_LED_Blink_All/freedom-metal/src/drivers/sifive_fe310-g000_pll.c:233
    long div_q = 1 << __METAL_GET_FIELD(cfg, PLL_Q);
20013fbc:	fd042703          	lw	a4,-48(s0)
20013fc0:	6785                	lui	a5,0x1
20013fc2:	c0078793          	addi	a5,a5,-1024 # c00 <__heap_size+0x400>
20013fc6:	8ff9                	and	a5,a5,a4
20013fc8:	83a9                	srli	a5,a5,0xa
20013fca:	4705                	li	a4,1
20013fcc:	00f717b3          	sll	a5,a4,a5
20013fd0:	faf42e23          	sw	a5,-68(s0)
E:/GitHub/HiFive01-RevB/FS_workspace/002_LED_Blink_All/freedom-metal/src/drivers/sifive_fe310-g000_pll.c:238
    long pllout = (((ref_hz / div_r) * mul_f) / div_q);
20013fd4:	fc842703          	lw	a4,-56(s0)
20013fd8:	fc442783          	lw	a5,-60(s0)
20013fdc:	02f74733          	div	a4,a4,a5
20013fe0:	fc042783          	lw	a5,-64(s0)
20013fe4:	02f70733          	mul	a4,a4,a5
20013fe8:	fbc42783          	lw	a5,-68(s0)
20013fec:	02f747b3          	div	a5,a4,a5
20013ff0:	faf42c23          	sw	a5,-72(s0)
E:/GitHub/HiFive01-RevB/FS_workspace/002_LED_Blink_All/freedom-metal/src/drivers/sifive_fe310-g000_pll.c:239
    if (__METAL_GET_FIELD(div, DIV_1))
20013ff4:	fcc42783          	lw	a5,-52(s0)
20013ff8:	1007f713          	andi	a4,a5,256
20013ffc:	0ff00793          	li	a5,255
20014000:	00e7f563          	bgeu	a5,a4,2001400a <__metal_driver_sifive_fe310_g000_pll_get_rate_hz+0x152>
E:/GitHub/HiFive01-RevB/FS_workspace/002_LED_Blink_All/freedom-metal/src/drivers/sifive_fe310-g000_pll.c:240
        return pllout;
20014004:	fb842783          	lw	a5,-72(s0)
20014008:	a819                	j	2001401e <__metal_driver_sifive_fe310_g000_pll_get_rate_hz+0x166>
E:/GitHub/HiFive01-RevB/FS_workspace/002_LED_Blink_All/freedom-metal/src/drivers/sifive_fe310-g000_pll.c:242
    return pllout / (2 * (__METAL_GET_FIELD(div, DIV_DIV) + 1));
2001400a:	fb842703          	lw	a4,-72(s0)
2001400e:	fcc42783          	lw	a5,-52(s0)
20014012:	03f7f793          	andi	a5,a5,63
20014016:	0785                	addi	a5,a5,1
20014018:	0786                	slli	a5,a5,0x1
2001401a:	02f757b3          	divu	a5,a4,a5
E:/GitHub/HiFive01-RevB/FS_workspace/002_LED_Blink_All/freedom-metal/src/drivers/sifive_fe310-g000_pll.c:243
}
2001401e:	853e                	mv	a0,a5
20014020:	40f6                	lw	ra,92(sp)
20014022:	4466                	lw	s0,88(sp)
20014024:	6125                	addi	sp,sp,96
20014026:	8082                	ret

20014028 <find_closest_config>:
find_closest_config():
E:/GitHub/HiFive01-RevB/FS_workspace/002_LED_Blink_All/freedom-metal/src/drivers/sifive_fe310-g000_pll.c:253
static int find_closest_config(long ref_hz, long rate) {
20014028:	7139                	addi	sp,sp,-64
2001402a:	de06                	sw	ra,60(sp)
2001402c:	dc22                	sw	s0,56(sp)
2001402e:	0080                	addi	s0,sp,64
20014030:	fca42623          	sw	a0,-52(s0)
20014034:	fcb42423          	sw	a1,-56(s0)
E:/GitHub/HiFive01-RevB/FS_workspace/002_LED_Blink_All/freedom-metal/src/drivers/sifive_fe310-g000_pll.c:254
    int closest_index = -1;
20014038:	57fd                	li	a5,-1
2001403a:	fef42623          	sw	a5,-20(s0)
E:/GitHub/HiFive01-RevB/FS_workspace/002_LED_Blink_All/freedom-metal/src/drivers/sifive_fe310-g000_pll.c:255
    long closest_diff = LONG_MAX;
2001403e:	800007b7          	lui	a5,0x80000
20014042:	fff7c793          	not	a5,a5
20014046:	fef42423          	sw	a5,-24(s0)
E:/GitHub/HiFive01-RevB/FS_workspace/002_LED_Blink_All/freedom-metal/src/drivers/sifive_fe310-g000_pll.c:259
    for (int i = (sizeof(pll_configs) / sizeof(pll_configs[0])) - 1; i >= 0;
2001404a:	04300793          	li	a5,67
2001404e:	fef42223          	sw	a5,-28(s0)
20014052:	a0ad                	j	200140bc <find_closest_config+0x94>
E:/GitHub/HiFive01-RevB/FS_workspace/002_LED_Blink_All/freedom-metal/src/drivers/sifive_fe310-g000_pll.c:261
        long config_freq = get_pll_config_freq(ref_hz, &(pll_configs[i]));
20014054:	fcc42683          	lw	a3,-52(s0)
20014058:	fe442783          	lw	a5,-28(s0)
2001405c:	00579713          	slli	a4,a5,0x5
20014060:	200107b7          	lui	a5,0x20010
20014064:	54878793          	addi	a5,a5,1352 # 20010548 <pll_configs>
20014068:	97ba                	add	a5,a5,a4
2001406a:	85be                	mv	a1,a5
2001406c:	8536                	mv	a0,a3
2001406e:	3ba1                	jal	20013dc6 <get_pll_config_freq>
20014070:	fea42023          	sw	a0,-32(s0)
E:/GitHub/HiFive01-RevB/FS_workspace/002_LED_Blink_All/freedom-metal/src/drivers/sifive_fe310-g000_pll.c:262
        if (config_freq != PLL_CONFIG_NOT_VALID) {
20014074:	fe042703          	lw	a4,-32(s0)
20014078:	57fd                	li	a5,-1
2001407a:	02f70c63          	beq	a4,a5,200140b2 <find_closest_config+0x8a>
E:/GitHub/HiFive01-RevB/FS_workspace/002_LED_Blink_All/freedom-metal/src/drivers/sifive_fe310-g000_pll.c:263
            long freq_diff = labs(config_freq - rate);
2001407e:	fe042703          	lw	a4,-32(s0)
20014082:	fc842783          	lw	a5,-56(s0)
20014086:	8f1d                	sub	a4,a4,a5
20014088:	41f75793          	srai	a5,a4,0x1f
2001408c:	8f3d                	xor	a4,a4,a5
2001408e:	40f707b3          	sub	a5,a4,a5
20014092:	fcf42e23          	sw	a5,-36(s0)
E:/GitHub/HiFive01-RevB/FS_workspace/002_LED_Blink_All/freedom-metal/src/drivers/sifive_fe310-g000_pll.c:265
            if (freq_diff < closest_diff) {
20014096:	fdc42703          	lw	a4,-36(s0)
2001409a:	fe842783          	lw	a5,-24(s0)
2001409e:	00f75a63          	bge	a4,a5,200140b2 <find_closest_config+0x8a>
E:/GitHub/HiFive01-RevB/FS_workspace/002_LED_Blink_All/freedom-metal/src/drivers/sifive_fe310-g000_pll.c:266
                closest_index = i;
200140a2:	fe442783          	lw	a5,-28(s0)
200140a6:	fef42623          	sw	a5,-20(s0)
E:/GitHub/HiFive01-RevB/FS_workspace/002_LED_Blink_All/freedom-metal/src/drivers/sifive_fe310-g000_pll.c:267
                closest_diff = freq_diff;
200140aa:	fdc42783          	lw	a5,-36(s0)
200140ae:	fef42423          	sw	a5,-24(s0)
E:/GitHub/HiFive01-RevB/FS_workspace/002_LED_Blink_All/freedom-metal/src/drivers/sifive_fe310-g000_pll.c:260
         i--) {
200140b2:	fe442783          	lw	a5,-28(s0)
200140b6:	17fd                	addi	a5,a5,-1
200140b8:	fef42223          	sw	a5,-28(s0)
E:/GitHub/HiFive01-RevB/FS_workspace/002_LED_Blink_All/freedom-metal/src/drivers/sifive_fe310-g000_pll.c:259 (discriminator 1)
    for (int i = (sizeof(pll_configs) / sizeof(pll_configs[0])) - 1; i >= 0;
200140bc:	fe442783          	lw	a5,-28(s0)
200140c0:	f807dae3          	bgez	a5,20014054 <find_closest_config+0x2c>
E:/GitHub/HiFive01-RevB/FS_workspace/002_LED_Blink_All/freedom-metal/src/drivers/sifive_fe310-g000_pll.c:272
    return closest_index;
200140c4:	fec42783          	lw	a5,-20(s0)
E:/GitHub/HiFive01-RevB/FS_workspace/002_LED_Blink_All/freedom-metal/src/drivers/sifive_fe310-g000_pll.c:273
}
200140c8:	853e                	mv	a0,a5
200140ca:	50f2                	lw	ra,60(sp)
200140cc:	5462                	lw	s0,56(sp)
200140ce:	6121                	addi	sp,sp,64
200140d0:	8082                	ret

200140d2 <configure_pll>:
configure_pll():
E:/GitHub/HiFive01-RevB/FS_workspace/002_LED_Blink_All/freedom-metal/src/drivers/sifive_fe310-g000_pll.c:290
                          const struct pll_config_t *config) {
200140d2:	7179                	addi	sp,sp,-48
200140d4:	d606                	sw	ra,44(sp)
200140d6:	d422                	sw	s0,40(sp)
200140d8:	1800                	addi	s0,sp,48
200140da:	fca42e23          	sw	a0,-36(s0)
200140de:	fcb42c23          	sw	a1,-40(s0)
200140e2:	fcc42a23          	sw	a2,-44(s0)
E:/GitHub/HiFive01-RevB/FS_workspace/002_LED_Blink_All/freedom-metal/src/drivers/sifive_fe310-g000_pll.c:291
    __METAL_ACCESS_ONCE(pllcfg) &= ~(PLL_R);
200140e6:	fdc42783          	lw	a5,-36(s0)
200140ea:	439c                	lw	a5,0(a5)
200140ec:	ff87f713          	andi	a4,a5,-8
200140f0:	fdc42783          	lw	a5,-36(s0)
200140f4:	c398                	sw	a4,0(a5)
E:/GitHub/HiFive01-RevB/FS_workspace/002_LED_Blink_All/freedom-metal/src/drivers/sifive_fe310-g000_pll.c:292
    __METAL_ACCESS_ONCE(pllcfg) |= PLL_R_SHIFT(config->r);
200140f6:	fdc42783          	lw	a5,-36(s0)
200140fa:	4398                	lw	a4,0(a5)
200140fc:	fd442783          	lw	a5,-44(s0)
20014100:	4b9c                	lw	a5,16(a5)
20014102:	8b9d                	andi	a5,a5,7
20014104:	8f5d                	or	a4,a4,a5
20014106:	fdc42783          	lw	a5,-36(s0)
2001410a:	c398                	sw	a4,0(a5)
E:/GitHub/HiFive01-RevB/FS_workspace/002_LED_Blink_All/freedom-metal/src/drivers/sifive_fe310-g000_pll.c:294
    __METAL_ACCESS_ONCE(pllcfg) &= ~(PLL_F);
2001410c:	fdc42783          	lw	a5,-36(s0)
20014110:	439c                	lw	a5,0(a5)
20014112:	c0f7f713          	andi	a4,a5,-1009
20014116:	fdc42783          	lw	a5,-36(s0)
2001411a:	c398                	sw	a4,0(a5)
E:/GitHub/HiFive01-RevB/FS_workspace/002_LED_Blink_All/freedom-metal/src/drivers/sifive_fe310-g000_pll.c:295
    __METAL_ACCESS_ONCE(pllcfg) |= PLL_F_SHIFT(config->f);
2001411c:	fdc42783          	lw	a5,-36(s0)
20014120:	4398                	lw	a4,0(a5)
20014122:	fd442783          	lw	a5,-44(s0)
20014126:	4bdc                	lw	a5,20(a5)
20014128:	0792                	slli	a5,a5,0x4
2001412a:	3f07f793          	andi	a5,a5,1008
2001412e:	8f5d                	or	a4,a4,a5
20014130:	fdc42783          	lw	a5,-36(s0)
20014134:	c398                	sw	a4,0(a5)
E:/GitHub/HiFive01-RevB/FS_workspace/002_LED_Blink_All/freedom-metal/src/drivers/sifive_fe310-g000_pll.c:297
    __METAL_ACCESS_ONCE(pllcfg) &= ~(PLL_Q);
20014136:	fdc42783          	lw	a5,-36(s0)
2001413a:	4398                	lw	a4,0(a5)
2001413c:	77fd                	lui	a5,0xfffff
2001413e:	3ff78793          	addi	a5,a5,1023 # fffff3ff <__global_pointer$+0x7fffe18f>
20014142:	8f7d                	and	a4,a4,a5
20014144:	fdc42783          	lw	a5,-36(s0)
20014148:	c398                	sw	a4,0(a5)
E:/GitHub/HiFive01-RevB/FS_workspace/002_LED_Blink_All/freedom-metal/src/drivers/sifive_fe310-g000_pll.c:298
    __METAL_ACCESS_ONCE(pllcfg) |= PLL_Q_SHIFT(config->q);
2001414a:	fdc42783          	lw	a5,-36(s0)
2001414e:	4398                	lw	a4,0(a5)
20014150:	fd442783          	lw	a5,-44(s0)
20014154:	4f9c                	lw	a5,24(a5)
20014156:	00a79693          	slli	a3,a5,0xa
2001415a:	6785                	lui	a5,0x1
2001415c:	c0078793          	addi	a5,a5,-1024 # c00 <__heap_size+0x400>
20014160:	8ff5                	and	a5,a5,a3
20014162:	8f5d                	or	a4,a4,a5
20014164:	fdc42783          	lw	a5,-36(s0)
20014168:	c398                	sw	a4,0(a5)
E:/GitHub/HiFive01-RevB/FS_workspace/002_LED_Blink_All/freedom-metal/src/drivers/sifive_fe310-g000_pll.c:300
    if (config->d < 0) {
2001416a:	fd442783          	lw	a5,-44(s0)
2001416e:	4fdc                	lw	a5,28(a5)
20014170:	0207db63          	bgez	a5,200141a6 <configure_pll+0xd4>
E:/GitHub/HiFive01-RevB/FS_workspace/002_LED_Blink_All/freedom-metal/src/drivers/sifive_fe310-g000_pll.c:302
        __METAL_ACCESS_ONCE(plloutdiv) |= DIV_1;
20014174:	fd842783          	lw	a5,-40(s0)
20014178:	439c                	lw	a5,0(a5)
2001417a:	1007e713          	ori	a4,a5,256
2001417e:	fd842783          	lw	a5,-40(s0)
20014182:	c398                	sw	a4,0(a5)
E:/GitHub/HiFive01-RevB/FS_workspace/002_LED_Blink_All/freedom-metal/src/drivers/sifive_fe310-g000_pll.c:304
        __METAL_ACCESS_ONCE(plloutdiv) &= ~(DIV_DIV);
20014184:	fd842783          	lw	a5,-40(s0)
20014188:	439c                	lw	a5,0(a5)
2001418a:	fc07f713          	andi	a4,a5,-64
2001418e:	fd842783          	lw	a5,-40(s0)
20014192:	c398                	sw	a4,0(a5)
E:/GitHub/HiFive01-RevB/FS_workspace/002_LED_Blink_All/freedom-metal/src/drivers/sifive_fe310-g000_pll.c:305
        __METAL_ACCESS_ONCE(plloutdiv) |= PLL_DIV_SHIFT(1);
20014194:	fd842783          	lw	a5,-40(s0)
20014198:	439c                	lw	a5,0(a5)
2001419a:	0017e713          	ori	a4,a5,1
2001419e:	fd842783          	lw	a5,-40(s0)
200141a2:	c398                	sw	a4,0(a5)
200141a4:	a82d                	j	200141de <configure_pll+0x10c>
E:/GitHub/HiFive01-RevB/FS_workspace/002_LED_Blink_All/freedom-metal/src/drivers/sifive_fe310-g000_pll.c:307
        __METAL_ACCESS_ONCE(plloutdiv) &= ~(DIV_1);
200141a6:	fd842783          	lw	a5,-40(s0)
200141aa:	439c                	lw	a5,0(a5)
200141ac:	eff7f713          	andi	a4,a5,-257
200141b0:	fd842783          	lw	a5,-40(s0)
200141b4:	c398                	sw	a4,0(a5)
E:/GitHub/HiFive01-RevB/FS_workspace/002_LED_Blink_All/freedom-metal/src/drivers/sifive_fe310-g000_pll.c:309
        __METAL_ACCESS_ONCE(plloutdiv) &= ~(DIV_DIV);
200141b6:	fd842783          	lw	a5,-40(s0)
200141ba:	439c                	lw	a5,0(a5)
200141bc:	fc07f713          	andi	a4,a5,-64
200141c0:	fd842783          	lw	a5,-40(s0)
200141c4:	c398                	sw	a4,0(a5)
E:/GitHub/HiFive01-RevB/FS_workspace/002_LED_Blink_All/freedom-metal/src/drivers/sifive_fe310-g000_pll.c:310
        __METAL_ACCESS_ONCE(plloutdiv) |= PLL_DIV_SHIFT(config->d);
200141c6:	fd842783          	lw	a5,-40(s0)
200141ca:	4398                	lw	a4,0(a5)
200141cc:	fd442783          	lw	a5,-44(s0)
200141d0:	4fdc                	lw	a5,28(a5)
200141d2:	03f7f793          	andi	a5,a5,63
200141d6:	8f5d                	or	a4,a4,a5
200141d8:	fd842783          	lw	a5,-40(s0)
200141dc:	c398                	sw	a4,0(a5)
E:/GitHub/HiFive01-RevB/FS_workspace/002_LED_Blink_All/freedom-metal/src/drivers/sifive_fe310-g000_pll.c:313
    __METAL_ACCESS_ONCE(pllcfg) &= ~(PLL_BYPASS);
200141de:	fdc42783          	lw	a5,-36(s0)
200141e2:	4398                	lw	a4,0(a5)
200141e4:	fffc07b7          	lui	a5,0xfffc0
200141e8:	17fd                	addi	a5,a5,-1
200141ea:	8f7d                	and	a4,a4,a5
200141ec:	fdc42783          	lw	a5,-36(s0)
200141f0:	c398                	sw	a4,0(a5)
E:/GitHub/HiFive01-RevB/FS_workspace/002_LED_Blink_All/freedom-metal/src/drivers/sifive_fe310-g000_pll.c:318
    __metal_driver_riscv_clint0_command_request(__METAL_DT_RISCV_CLINT0_HANDLE,
200141f2:	fe040793          	addi	a5,s0,-32
200141f6:	863e                	mv	a2,a5
200141f8:	4585                	li	a1,1
200141fa:	800017b7          	lui	a5,0x80001
200141fe:	a7478513          	addi	a0,a5,-1420 # 80000a74 <__global_pointer$+0xfffff804>
20014202:	c7afd0ef          	jal	ra,2001167c <__metal_driver_riscv_clint0_command_request>
E:/GitHub/HiFive01-RevB/FS_workspace/002_LED_Blink_All/freedom-metal/src/drivers/sifive_fe310-g000_pll.c:320
    mtime_end = mtime + PLL_LOCK_WAIT_TICKS;
20014206:	fe042603          	lw	a2,-32(s0)
2001420a:	fe442683          	lw	a3,-28(s0)
2001420e:	4511                	li	a0,4
20014210:	4581                	li	a1,0
20014212:	00a60733          	add	a4,a2,a0
20014216:	883a                	mv	a6,a4
20014218:	00c83833          	sltu	a6,a6,a2
2001421c:	00b687b3          	add	a5,a3,a1
20014220:	00f806b3          	add	a3,a6,a5
20014224:	87b6                	mv	a5,a3
20014226:	fee42423          	sw	a4,-24(s0)
2001422a:	fef42623          	sw	a5,-20(s0)
E:/GitHub/HiFive01-RevB/FS_workspace/002_LED_Blink_All/freedom-metal/src/drivers/sifive_fe310-g000_pll.c:321
    while (mtime <= mtime_end) {
2001422e:	a819                	j	20014244 <configure_pll+0x172>
E:/GitHub/HiFive01-RevB/FS_workspace/002_LED_Blink_All/freedom-metal/src/drivers/sifive_fe310-g000_pll.c:322
        __metal_driver_riscv_clint0_command_request(
20014230:	fe040793          	addi	a5,s0,-32
20014234:	863e                	mv	a2,a5
20014236:	4585                	li	a1,1
20014238:	800017b7          	lui	a5,0x80001
2001423c:	a7478513          	addi	a0,a5,-1420 # 80000a74 <__global_pointer$+0xfffff804>
20014240:	c3cfd0ef          	jal	ra,2001167c <__metal_driver_riscv_clint0_command_request>
E:/GitHub/HiFive01-RevB/FS_workspace/002_LED_Blink_All/freedom-metal/src/drivers/sifive_fe310-g000_pll.c:321
    while (mtime <= mtime_end) {
20014244:	fe042703          	lw	a4,-32(s0)
20014248:	fe442783          	lw	a5,-28(s0)
2001424c:	fec42683          	lw	a3,-20(s0)
20014250:	863e                	mv	a2,a5
20014252:	00c6ec63          	bltu	a3,a2,2001426a <configure_pll+0x198>
20014256:	fec42683          	lw	a3,-20(s0)
2001425a:	863e                	mv	a2,a5
2001425c:	fcc69ae3          	bne	a3,a2,20014230 <configure_pll+0x15e>
20014260:	fe842683          	lw	a3,-24(s0)
20014264:	87ba                	mv	a5,a4
20014266:	fcf6f5e3          	bgeu	a3,a5,20014230 <configure_pll+0x15e>
E:/GitHub/HiFive01-RevB/FS_workspace/002_LED_Blink_All/freedom-metal/src/drivers/sifive_fe310-g000_pll.c:340
    while ((__METAL_ACCESS_ONCE(pllcfg) & PLL_LOCK) == 0)
2001426a:	0001                	nop
E:/GitHub/HiFive01-RevB/FS_workspace/002_LED_Blink_All/freedom-metal/src/drivers/sifive_fe310-g000_pll.c:340 (discriminator 1)
2001426c:	fdc42783          	lw	a5,-36(s0)
20014270:	439c                	lw	a5,0(a5)
20014272:	fe07dde3          	bgez	a5,2001426c <configure_pll+0x19a>
E:/GitHub/HiFive01-RevB/FS_workspace/002_LED_Blink_All/freedom-metal/src/drivers/sifive_fe310-g000_pll.c:342
}
20014276:	0001                	nop
20014278:	0001                	nop
2001427a:	50b2                	lw	ra,44(sp)
2001427c:	5422                	lw	s0,40(sp)
2001427e:	6145                	addi	sp,sp,48
20014280:	8082                	ret

20014282 <__metal_driver_sifive_fe310_g000_pll_set_rate_hz>:
__metal_driver_sifive_fe310_g000_pll_set_rate_hz():
E:/GitHub/HiFive01-RevB/FS_workspace/002_LED_Blink_All/freedom-metal/src/drivers/sifive_fe310-g000_pll.c:345
                                                      long rate) {
20014282:	715d                	addi	sp,sp,-80
20014284:	c686                	sw	ra,76(sp)
20014286:	c4a2                	sw	s0,72(sp)
20014288:	0880                	addi	s0,sp,80
2001428a:	faa42e23          	sw	a0,-68(s0)
2001428e:	fab42c23          	sw	a1,-72(s0)
E:/GitHub/HiFive01-RevB/FS_workspace/002_LED_Blink_All/freedom-metal/src/drivers/sifive_fe310-g000_pll.c:347
        __metal_driver_sifive_fe310_g000_pll_pllref(clock);
20014292:	fbc42503          	lw	a0,-68(s0)
20014296:	a8dff0ef          	jal	ra,20013d22 <__metal_driver_sifive_fe310_g000_pll_pllref>
2001429a:	fea42623          	sw	a0,-20(s0)
E:/GitHub/HiFive01-RevB/FS_workspace/002_LED_Blink_All/freedom-metal/src/drivers/sifive_fe310-g000_pll.c:349
        __metal_driver_sifive_fe310_g000_pll_pllsel0(clock);
2001429e:	fbc42503          	lw	a0,-68(s0)
200142a2:	a67ff0ef          	jal	ra,20013d08 <__metal_driver_sifive_fe310_g000_pll_pllsel0>
200142a6:	fea42423          	sw	a0,-24(s0)
E:/GitHub/HiFive01-RevB/FS_workspace/002_LED_Blink_All/freedom-metal/src/drivers/sifive_fe310-g000_pll.c:351
        __metal_driver_sifive_fe310_g000_pll_config_offset(clock);
200142aa:	fbc42503          	lw	a0,-68(s0)
200142ae:	acbff0ef          	jal	ra,20013d78 <__metal_driver_sifive_fe310_g000_pll_config_offset>
200142b2:	fea42223          	sw	a0,-28(s0)
E:/GitHub/HiFive01-RevB/FS_workspace/002_LED_Blink_All/freedom-metal/src/drivers/sifive_fe310-g000_pll.c:353
        __metal_driver_sifive_fe310_g000_pll_divider_offset(clock);
200142b6:	fbc42503          	lw	a0,-68(s0)
200142ba:	a99ff0ef          	jal	ra,20013d52 <__metal_driver_sifive_fe310_g000_pll_divider_offset>
200142be:	fea42023          	sw	a0,-32(s0)
E:/GitHub/HiFive01-RevB/FS_workspace/002_LED_Blink_All/freedom-metal/src/drivers/sifive_fe310-g000_pll.c:354
    long base = __metal_driver_sifive_fe310_g000_prci_base();
200142c2:	addff0ef          	jal	ra,20013d9e <__metal_driver_sifive_fe310_g000_prci_base>
200142c6:	fca42e23          	sw	a0,-36(s0)
E:/GitHub/HiFive01-RevB/FS_workspace/002_LED_Blink_All/freedom-metal/src/drivers/sifive_fe310-g000_pll.c:356
    __metal_io_u32 *pllcfg = (__metal_io_u32 *)(base + config_offset);
200142ca:	fdc42703          	lw	a4,-36(s0)
200142ce:	fe442783          	lw	a5,-28(s0)
200142d2:	97ba                	add	a5,a5,a4
200142d4:	fcf42c23          	sw	a5,-40(s0)
E:/GitHub/HiFive01-RevB/FS_workspace/002_LED_Blink_All/freedom-metal/src/drivers/sifive_fe310-g000_pll.c:357
    __metal_io_u32 *plloutdiv = (__metal_io_u32 *)(base + divider_offset);
200142d8:	fdc42703          	lw	a4,-36(s0)
200142dc:	fe042783          	lw	a5,-32(s0)
200142e0:	97ba                	add	a5,a5,a4
200142e2:	fcf42a23          	sw	a5,-44(s0)
E:/GitHub/HiFive01-RevB/FS_workspace/002_LED_Blink_All/freedom-metal/src/drivers/sifive_fe310-g000_pll.c:360
    if (__METAL_ACCESS_ONCE(pllcfg) & PLL_SEL)
200142e6:	fd842783          	lw	a5,-40(s0)
200142ea:	4398                	lw	a4,0(a5)
200142ec:	67c1                	lui	a5,0x10
200142ee:	8ff9                	and	a5,a5,a4
200142f0:	cb91                	beqz	a5,20014304 <__metal_driver_sifive_fe310_g000_pll_set_rate_hz+0x82>
E:/GitHub/HiFive01-RevB/FS_workspace/002_LED_Blink_All/freedom-metal/src/drivers/sifive_fe310-g000_pll.c:361
        __METAL_ACCESS_ONCE(pllcfg) &= ~(PLL_SEL);
200142f2:	fd842783          	lw	a5,-40(s0)
200142f6:	4398                	lw	a4,0(a5)
200142f8:	77c1                	lui	a5,0xffff0
200142fa:	17fd                	addi	a5,a5,-1
200142fc:	8f7d                	and	a4,a4,a5
200142fe:	fd842783          	lw	a5,-40(s0)
20014302:	c398                	sw	a4,0(a5)
E:/GitHub/HiFive01-RevB/FS_workspace/002_LED_Blink_All/freedom-metal/src/drivers/sifive_fe310-g000_pll.c:366
        __METAL_ACCESS_ONCE(pllcfg) & PLL_REFSEL ? pllref : pllsel0);
20014304:	fd842783          	lw	a5,-40(s0)
20014308:	4398                	lw	a4,0(a5)
2001430a:	000207b7          	lui	a5,0x20
2001430e:	8ff9                	and	a5,a5,a4
E:/GitHub/HiFive01-RevB/FS_workspace/002_LED_Blink_All/freedom-metal/src/drivers/sifive_fe310-g000_pll.c:365
    long ref_hz = metal_clock_get_rate_hz(
20014310:	c781                	beqz	a5,20014318 <__metal_driver_sifive_fe310_g000_pll_set_rate_hz+0x96>
E:/GitHub/HiFive01-RevB/FS_workspace/002_LED_Blink_All/freedom-metal/src/drivers/sifive_fe310-g000_pll.c:365 (discriminator 1)
20014312:	fec42783          	lw	a5,-20(s0)
20014316:	a019                	j	2001431c <__metal_driver_sifive_fe310_g000_pll_set_rate_hz+0x9a>
E:/GitHub/HiFive01-RevB/FS_workspace/002_LED_Blink_All/freedom-metal/src/drivers/sifive_fe310-g000_pll.c:365 (discriminator 2)
20014318:	fe842783          	lw	a5,-24(s0)
E:/GitHub/HiFive01-RevB/FS_workspace/002_LED_Blink_All/freedom-metal/src/drivers/sifive_fe310-g000_pll.c:365 (discriminator 4)
2001431c:	853e                	mv	a0,a5
2001431e:	5ff000ef          	jal	ra,2001511c <metal_clock_get_rate_hz>
20014322:	fca42823          	sw	a0,-48(s0)
E:/GitHub/HiFive01-RevB/FS_workspace/002_LED_Blink_All/freedom-metal/src/drivers/sifive_fe310-g000_pll.c:370 (discriminator 4)
    if ((ref_hz * 3 / 4) <= rate && (ref_hz * 5 / 4) >= rate) {
20014326:	fd042703          	lw	a4,-48(s0)
2001432a:	87ba                	mv	a5,a4
2001432c:	0786                	slli	a5,a5,0x1
2001432e:	97ba                	add	a5,a5,a4
20014330:	41f7d713          	srai	a4,a5,0x1f
20014334:	8b0d                	andi	a4,a4,3
20014336:	97ba                	add	a5,a5,a4
20014338:	8789                	srai	a5,a5,0x2
2001433a:	873e                	mv	a4,a5
2001433c:	fb842783          	lw	a5,-72(s0)
20014340:	02e7cb63          	blt	a5,a4,20014376 <__metal_driver_sifive_fe310_g000_pll_set_rate_hz+0xf4>
E:/GitHub/HiFive01-RevB/FS_workspace/002_LED_Blink_All/freedom-metal/src/drivers/sifive_fe310-g000_pll.c:370 (discriminator 1)
20014344:	fd042703          	lw	a4,-48(s0)
20014348:	87ba                	mv	a5,a4
2001434a:	078a                	slli	a5,a5,0x2
2001434c:	97ba                	add	a5,a5,a4
2001434e:	41f7d713          	srai	a4,a5,0x1f
20014352:	8b0d                	andi	a4,a4,3
20014354:	97ba                	add	a5,a5,a4
20014356:	8789                	srai	a5,a5,0x2
20014358:	873e                	mv	a4,a5
2001435a:	fb842783          	lw	a5,-72(s0)
2001435e:	00f74c63          	blt	a4,a5,20014376 <__metal_driver_sifive_fe310_g000_pll_set_rate_hz+0xf4>
E:/GitHub/HiFive01-RevB/FS_workspace/002_LED_Blink_All/freedom-metal/src/drivers/sifive_fe310-g000_pll.c:371
        __METAL_ACCESS_ONCE(pllcfg) |= PLL_BYPASS;
20014362:	fd842783          	lw	a5,-40(s0)
20014366:	4398                	lw	a4,0(a5)
20014368:	000407b7          	lui	a5,0x40
2001436c:	8f5d                	or	a4,a4,a5
2001436e:	fd842783          	lw	a5,-40(s0)
20014372:	c398                	sw	a4,0(a5)
20014374:	a0b1                	j	200143c0 <__metal_driver_sifive_fe310_g000_pll_set_rate_hz+0x13e>
E:/GitHub/HiFive01-RevB/FS_workspace/002_LED_Blink_All/freedom-metal/src/drivers/sifive_fe310-g000_pll.c:373
        int config_index = find_closest_config(ref_hz, rate);
20014376:	fb842583          	lw	a1,-72(s0)
2001437a:	fd042503          	lw	a0,-48(s0)
2001437e:	316d                	jal	20014028 <find_closest_config>
20014380:	fca42623          	sw	a0,-52(s0)
E:/GitHub/HiFive01-RevB/FS_workspace/002_LED_Blink_All/freedom-metal/src/drivers/sifive_fe310-g000_pll.c:374
        if (config_index != -1) {
20014384:	fcc42703          	lw	a4,-52(s0)
20014388:	57fd                	li	a5,-1
2001438a:	02f70263          	beq	a4,a5,200143ae <__metal_driver_sifive_fe310_g000_pll_set_rate_hz+0x12c>
E:/GitHub/HiFive01-RevB/FS_workspace/002_LED_Blink_All/freedom-metal/src/drivers/sifive_fe310-g000_pll.c:375
            configure_pll(pllcfg, plloutdiv, &(pll_configs[config_index]));
2001438e:	fcc42783          	lw	a5,-52(s0)
20014392:	00579713          	slli	a4,a5,0x5
20014396:	200107b7          	lui	a5,0x20010
2001439a:	54878793          	addi	a5,a5,1352 # 20010548 <pll_configs>
2001439e:	97ba                	add	a5,a5,a4
200143a0:	863e                	mv	a2,a5
200143a2:	fd442583          	lw	a1,-44(s0)
200143a6:	fd842503          	lw	a0,-40(s0)
200143aa:	3325                	jal	200140d2 <configure_pll>
200143ac:	a811                	j	200143c0 <__metal_driver_sifive_fe310_g000_pll_set_rate_hz+0x13e>
E:/GitHub/HiFive01-RevB/FS_workspace/002_LED_Blink_All/freedom-metal/src/drivers/sifive_fe310-g000_pll.c:378
            __METAL_ACCESS_ONCE(pllcfg) |= PLL_BYPASS;
200143ae:	fd842783          	lw	a5,-40(s0)
200143b2:	4398                	lw	a4,0(a5)
200143b4:	000407b7          	lui	a5,0x40
200143b8:	8f5d                	or	a4,a4,a5
200143ba:	fd842783          	lw	a5,-40(s0)
200143be:	c398                	sw	a4,0(a5)
E:/GitHub/HiFive01-RevB/FS_workspace/002_LED_Blink_All/freedom-metal/src/drivers/sifive_fe310-g000_pll.c:383
    __METAL_ACCESS_ONCE(pllcfg) |= PLL_SEL;
200143c0:	fd842783          	lw	a5,-40(s0)
200143c4:	4398                	lw	a4,0(a5)
200143c6:	67c1                	lui	a5,0x10
200143c8:	8f5d                	or	a4,a4,a5
200143ca:	fd842783          	lw	a5,-40(s0)
200143ce:	c398                	sw	a4,0(a5)
E:/GitHub/HiFive01-RevB/FS_workspace/002_LED_Blink_All/freedom-metal/src/drivers/sifive_fe310-g000_pll.c:385
    return __metal_driver_sifive_fe310_g000_pll_get_rate_hz(clock);
200143d0:	fbc42503          	lw	a0,-68(s0)
200143d4:	ae5ff0ef          	jal	ra,20013eb8 <__metal_driver_sifive_fe310_g000_pll_get_rate_hz>
200143d8:	87aa                	mv	a5,a0
E:/GitHub/HiFive01-RevB/FS_workspace/002_LED_Blink_All/freedom-metal/src/drivers/sifive_fe310-g000_pll.c:386
}
200143da:	853e                	mv	a0,a5
200143dc:	40b6                	lw	ra,76(sp)
200143de:	4426                	lw	s0,72(sp)
200143e0:	6161                	addi	sp,sp,80
200143e2:	8082                	ret

200143e4 <__metal_driver_sifive_fe310_g000_prci_base>:
__metal_driver_sifive_fe310_g000_prci_base():
E:\GitHub\HiFive01-RevB\FS_workspace\002_LED_Blink_All\bsp\build\debug/./metal/machine.h:1364
{
200143e4:	1141                	addi	sp,sp,-16
200143e6:	c622                	sw	s0,12(sp)
200143e8:	0800                	addi	s0,sp,16
E:\GitHub\HiFive01-RevB\FS_workspace\002_LED_Blink_All\bsp\build\debug/./metal/machine.h:1365
		return METAL_SIFIVE_FE310_G000_PRCI_10008000_BASE_ADDRESS;
200143ea:	100087b7          	lui	a5,0x10008
E:\GitHub\HiFive01-RevB\FS_workspace\002_LED_Blink_All\bsp\build\debug/./metal/machine.h:1366
}
200143ee:	853e                	mv	a0,a5
200143f0:	4432                	lw	s0,12(sp)
200143f2:	0141                	addi	sp,sp,16
200143f4:	8082                	ret

200143f6 <__metal_driver_sifive_fe310_g000_prci_get_reg>:
__metal_driver_sifive_fe310_g000_prci_get_reg():
E:/GitHub/HiFive01-RevB/FS_workspace/002_LED_Blink_All/freedom-metal/src/drivers/sifive_fe310-g000_prci.c:12

#include <metal/drivers/sifive_fe310-g000_prci.h>
#include <metal/machine.h>

long __metal_driver_sifive_fe310_g000_prci_get_reg(
    const struct __metal_driver_sifive_fe310_g000_prci *prci, long offset) {
200143f6:	7179                	addi	sp,sp,-48
200143f8:	d606                	sw	ra,44(sp)
200143fa:	d422                	sw	s0,40(sp)
200143fc:	1800                	addi	s0,sp,48
200143fe:	fca42e23          	sw	a0,-36(s0)
20014402:	fcb42c23          	sw	a1,-40(s0)
E:/GitHub/HiFive01-RevB/FS_workspace/002_LED_Blink_All/freedom-metal/src/drivers/sifive_fe310-g000_prci.c:13
    unsigned long base = __metal_driver_sifive_fe310_g000_prci_base();
20014406:	3ff9                	jal	200143e4 <__metal_driver_sifive_fe310_g000_prci_base>
20014408:	87aa                	mv	a5,a0
2001440a:	fef42623          	sw	a5,-20(s0)
E:/GitHub/HiFive01-RevB/FS_workspace/002_LED_Blink_All/freedom-metal/src/drivers/sifive_fe310-g000_prci.c:14
    return __METAL_ACCESS_ONCE((__metal_io_u32 *)(base + offset));
2001440e:	fd842703          	lw	a4,-40(s0)
20014412:	fec42783          	lw	a5,-20(s0)
20014416:	97ba                	add	a5,a5,a4
20014418:	439c                	lw	a5,0(a5)
E:/GitHub/HiFive01-RevB/FS_workspace/002_LED_Blink_All/freedom-metal/src/drivers/sifive_fe310-g000_prci.c:15
}
2001441a:	853e                	mv	a0,a5
2001441c:	50b2                	lw	ra,44(sp)
2001441e:	5422                	lw	s0,40(sp)
20014420:	6145                	addi	sp,sp,48
20014422:	8082                	ret

20014424 <__metal_driver_sifive_fe310_g000_prci_set_reg>:
__metal_driver_sifive_fe310_g000_prci_set_reg():
E:/GitHub/HiFive01-RevB/FS_workspace/002_LED_Blink_All/freedom-metal/src/drivers/sifive_fe310-g000_prci.c:19

long __metal_driver_sifive_fe310_g000_prci_set_reg(
    const struct __metal_driver_sifive_fe310_g000_prci *prci, long offset,
    long value) {
20014424:	7179                	addi	sp,sp,-48
20014426:	d606                	sw	ra,44(sp)
20014428:	d422                	sw	s0,40(sp)
2001442a:	1800                	addi	s0,sp,48
2001442c:	fca42e23          	sw	a0,-36(s0)
20014430:	fcb42c23          	sw	a1,-40(s0)
20014434:	fcc42a23          	sw	a2,-44(s0)
E:/GitHub/HiFive01-RevB/FS_workspace/002_LED_Blink_All/freedom-metal/src/drivers/sifive_fe310-g000_prci.c:20
    unsigned long base = __metal_driver_sifive_fe310_g000_prci_base();
20014438:	3775                	jal	200143e4 <__metal_driver_sifive_fe310_g000_prci_base>
2001443a:	87aa                	mv	a5,a0
2001443c:	fef42623          	sw	a5,-20(s0)
E:/GitHub/HiFive01-RevB/FS_workspace/002_LED_Blink_All/freedom-metal/src/drivers/sifive_fe310-g000_prci.c:21
    return __METAL_ACCESS_ONCE((__metal_io_u32 *)(base + offset)) = value;
20014440:	fd842703          	lw	a4,-40(s0)
20014444:	fec42783          	lw	a5,-20(s0)
20014448:	97ba                	add	a5,a5,a4
2001444a:	873e                	mv	a4,a5
2001444c:	fd442783          	lw	a5,-44(s0)
20014450:	c31c                	sw	a5,0(a4)
E:/GitHub/HiFive01-RevB/FS_workspace/002_LED_Blink_All/freedom-metal/src/drivers/sifive_fe310-g000_prci.c:22
}
20014452:	853e                	mv	a0,a5
20014454:	50b2                	lw	ra,44(sp)
20014456:	5422                	lw	s0,40(sp)
20014458:	6145                	addi	sp,sp,48
2001445a:	8082                	ret

2001445c <__metal_driver_sifive_gpio_led_gpio>:
__metal_driver_sifive_gpio_led_gpio():
E:\GitHub\HiFive01-RevB\FS_workspace\002_LED_Blink_All\bsp\build\debug/./metal/machine.h:579
{
2001445c:	1101                	addi	sp,sp,-32
2001445e:	ce22                	sw	s0,28(sp)
20014460:	1000                	addi	s0,sp,32
20014462:	fea42623          	sw	a0,-20(s0)
E:\GitHub\HiFive01-RevB\FS_workspace\002_LED_Blink_All\bsp\build\debug/./metal/machine.h:580
	if ((uintptr_t)led == (uintptr_t)&__metal_dt_led_0) {
20014466:	fec42703          	lw	a4,-20(s0)
2001446a:	81818793          	addi	a5,gp,-2024 # 80000a88 <__metal_dt_led_0>
2001446e:	00f71563          	bne	a4,a5,20014478 <__metal_driver_sifive_gpio_led_gpio+0x1c>
E:\GitHub\HiFive01-RevB\FS_workspace\002_LED_Blink_All\bsp\build\debug/./metal/machine.h:581
		return (struct metal_gpio *)&__metal_dt_gpio_10012000;
20014472:	81418793          	addi	a5,gp,-2028 # 80000a84 <__metal_dt_gpio_10012000>
20014476:	a025                	j	2001449e <__metal_driver_sifive_gpio_led_gpio+0x42>
E:\GitHub\HiFive01-RevB\FS_workspace\002_LED_Blink_All\bsp\build\debug/./metal/machine.h:583
	else if ((uintptr_t)led == (uintptr_t)&__metal_dt_led_1) {
20014478:	fec42703          	lw	a4,-20(s0)
2001447c:	81c18793          	addi	a5,gp,-2020 # 80000a8c <__metal_dt_led_1>
20014480:	00f71563          	bne	a4,a5,2001448a <__metal_driver_sifive_gpio_led_gpio+0x2e>
E:\GitHub\HiFive01-RevB\FS_workspace\002_LED_Blink_All\bsp\build\debug/./metal/machine.h:584
		return (struct metal_gpio *)&__metal_dt_gpio_10012000;
20014484:	81418793          	addi	a5,gp,-2028 # 80000a84 <__metal_dt_gpio_10012000>
20014488:	a819                	j	2001449e <__metal_driver_sifive_gpio_led_gpio+0x42>
E:\GitHub\HiFive01-RevB\FS_workspace\002_LED_Blink_All\bsp\build\debug/./metal/machine.h:586
	else if ((uintptr_t)led == (uintptr_t)&__metal_dt_led_2) {
2001448a:	fec42703          	lw	a4,-20(s0)
2001448e:	82018793          	addi	a5,gp,-2016 # 80000a90 <__metal_dt_led_2>
20014492:	00f71563          	bne	a4,a5,2001449c <__metal_driver_sifive_gpio_led_gpio+0x40>
E:\GitHub\HiFive01-RevB\FS_workspace\002_LED_Blink_All\bsp\build\debug/./metal/machine.h:587
		return (struct metal_gpio *)&__metal_dt_gpio_10012000;
20014496:	81418793          	addi	a5,gp,-2028 # 80000a84 <__metal_dt_gpio_10012000>
2001449a:	a011                	j	2001449e <__metal_driver_sifive_gpio_led_gpio+0x42>
E:\GitHub\HiFive01-RevB\FS_workspace\002_LED_Blink_All\bsp\build\debug/./metal/machine.h:590
		return NULL;
2001449c:	4781                	li	a5,0
E:\GitHub\HiFive01-RevB\FS_workspace\002_LED_Blink_All\bsp\build\debug/./metal/machine.h:592
}
2001449e:	853e                	mv	a0,a5
200144a0:	4472                	lw	s0,28(sp)
200144a2:	6105                	addi	sp,sp,32
200144a4:	8082                	ret

200144a6 <__metal_driver_sifive_gpio_led_pin>:
__metal_driver_sifive_gpio_led_pin():
E:\GitHub\HiFive01-RevB\FS_workspace\002_LED_Blink_All\bsp\build\debug/./metal/machine.h:595
{
200144a6:	1101                	addi	sp,sp,-32
200144a8:	ce22                	sw	s0,28(sp)
200144aa:	1000                	addi	s0,sp,32
200144ac:	fea42623          	sw	a0,-20(s0)
E:\GitHub\HiFive01-RevB\FS_workspace\002_LED_Blink_All\bsp\build\debug/./metal/machine.h:596
	if ((uintptr_t)led == (uintptr_t)&__metal_dt_led_0) {
200144b0:	fec42703          	lw	a4,-20(s0)
200144b4:	81818793          	addi	a5,gp,-2024 # 80000a88 <__metal_dt_led_0>
200144b8:	00f71463          	bne	a4,a5,200144c0 <__metal_driver_sifive_gpio_led_pin+0x1a>
E:\GitHub\HiFive01-RevB\FS_workspace\002_LED_Blink_All\bsp\build\debug/./metal/machine.h:597
		return 22;
200144bc:	47d9                	li	a5,22
200144be:	a015                	j	200144e2 <__metal_driver_sifive_gpio_led_pin+0x3c>
E:\GitHub\HiFive01-RevB\FS_workspace\002_LED_Blink_All\bsp\build\debug/./metal/machine.h:599
	else if ((uintptr_t)led == (uintptr_t)&__metal_dt_led_1) {
200144c0:	fec42703          	lw	a4,-20(s0)
200144c4:	81c18793          	addi	a5,gp,-2020 # 80000a8c <__metal_dt_led_1>
200144c8:	00f71463          	bne	a4,a5,200144d0 <__metal_driver_sifive_gpio_led_pin+0x2a>
E:\GitHub\HiFive01-RevB\FS_workspace\002_LED_Blink_All\bsp\build\debug/./metal/machine.h:600
		return 19;
200144cc:	47cd                	li	a5,19
200144ce:	a811                	j	200144e2 <__metal_driver_sifive_gpio_led_pin+0x3c>
E:\GitHub\HiFive01-RevB\FS_workspace\002_LED_Blink_All\bsp\build\debug/./metal/machine.h:602
	else if ((uintptr_t)led == (uintptr_t)&__metal_dt_led_2) {
200144d0:	fec42703          	lw	a4,-20(s0)
200144d4:	82018793          	addi	a5,gp,-2016 # 80000a90 <__metal_dt_led_2>
200144d8:	00f71463          	bne	a4,a5,200144e0 <__metal_driver_sifive_gpio_led_pin+0x3a>
E:\GitHub\HiFive01-RevB\FS_workspace\002_LED_Blink_All\bsp\build\debug/./metal/machine.h:603
		return 21;
200144dc:	47d5                	li	a5,21
200144de:	a011                	j	200144e2 <__metal_driver_sifive_gpio_led_pin+0x3c>
E:\GitHub\HiFive01-RevB\FS_workspace\002_LED_Blink_All\bsp\build\debug/./metal/machine.h:606
		return 0;
200144e0:	4781                	li	a5,0
E:\GitHub\HiFive01-RevB\FS_workspace\002_LED_Blink_All\bsp\build\debug/./metal/machine.h:608
}
200144e2:	853e                	mv	a0,a5
200144e4:	4472                	lw	s0,28(sp)
200144e6:	6105                	addi	sp,sp,32
200144e8:	8082                	ret

200144ea <__metal_driver_sifive_gpio_led_label>:
__metal_driver_sifive_gpio_led_label():
E:\GitHub\HiFive01-RevB\FS_workspace\002_LED_Blink_All\bsp\build\debug/./metal/machine.h:611
{
200144ea:	1101                	addi	sp,sp,-32
200144ec:	ce22                	sw	s0,28(sp)
200144ee:	1000                	addi	s0,sp,32
200144f0:	fea42623          	sw	a0,-20(s0)
E:\GitHub\HiFive01-RevB\FS_workspace\002_LED_Blink_All\bsp\build\debug/./metal/machine.h:612
	if ((uintptr_t)led == (uintptr_t)&__metal_dt_led_0) {
200144f4:	fec42703          	lw	a4,-20(s0)
200144f8:	81818793          	addi	a5,gp,-2024 # 80000a88 <__metal_dt_led_0>
200144fc:	00f71763          	bne	a4,a5,2001450a <__metal_driver_sifive_gpio_led_label+0x20>
E:\GitHub\HiFive01-RevB\FS_workspace\002_LED_Blink_All\bsp\build\debug/./metal/machine.h:613
		return "LD0red";
20014500:	200117b7          	lui	a5,0x20011
20014504:	dd478793          	addi	a5,a5,-556 # 20010dd4 <__metal_driver_vtable_sifive_fe310_g000_pll+0xc>
20014508:	a81d                	j	2001453e <__metal_driver_sifive_gpio_led_label+0x54>
E:\GitHub\HiFive01-RevB\FS_workspace\002_LED_Blink_All\bsp\build\debug/./metal/machine.h:615
	else if ((uintptr_t)led == (uintptr_t)&__metal_dt_led_1) {
2001450a:	fec42703          	lw	a4,-20(s0)
2001450e:	81c18793          	addi	a5,gp,-2020 # 80000a8c <__metal_dt_led_1>
20014512:	00f71763          	bne	a4,a5,20014520 <__metal_driver_sifive_gpio_led_label+0x36>
E:\GitHub\HiFive01-RevB\FS_workspace\002_LED_Blink_All\bsp\build\debug/./metal/machine.h:616
		return "LD0green";
20014516:	200117b7          	lui	a5,0x20011
2001451a:	ddc78793          	addi	a5,a5,-548 # 20010ddc <__metal_driver_vtable_sifive_fe310_g000_pll+0x14>
2001451e:	a005                	j	2001453e <__metal_driver_sifive_gpio_led_label+0x54>
E:\GitHub\HiFive01-RevB\FS_workspace\002_LED_Blink_All\bsp\build\debug/./metal/machine.h:618
	else if ((uintptr_t)led == (uintptr_t)&__metal_dt_led_2) {
20014520:	fec42703          	lw	a4,-20(s0)
20014524:	82018793          	addi	a5,gp,-2016 # 80000a90 <__metal_dt_led_2>
20014528:	00f71763          	bne	a4,a5,20014536 <__metal_driver_sifive_gpio_led_label+0x4c>
E:\GitHub\HiFive01-RevB\FS_workspace\002_LED_Blink_All\bsp\build\debug/./metal/machine.h:619
		return "LD0blue";
2001452c:	200117b7          	lui	a5,0x20011
20014530:	de878793          	addi	a5,a5,-536 # 20010de8 <__metal_driver_vtable_sifive_fe310_g000_pll+0x20>
20014534:	a029                	j	2001453e <__metal_driver_sifive_gpio_led_label+0x54>
E:\GitHub\HiFive01-RevB\FS_workspace\002_LED_Blink_All\bsp\build\debug/./metal/machine.h:622
		return "";
20014536:	200117b7          	lui	a5,0x20011
2001453a:	df078793          	addi	a5,a5,-528 # 20010df0 <__metal_driver_vtable_sifive_fe310_g000_pll+0x28>
E:\GitHub\HiFive01-RevB\FS_workspace\002_LED_Blink_All\bsp\build\debug/./metal/machine.h:624
}
2001453e:	853e                	mv	a0,a5
20014540:	4472                	lw	s0,28(sp)
20014542:	6105                	addi	sp,sp,32
20014544:	8082                	ret

20014546 <__metal_driver_led_exist>:
__metal_driver_led_exist():
E:/GitHub/HiFive01-RevB/FS_workspace/002_LED_Blink_All/freedom-metal/src/drivers/sifive_gpio-leds.c:13
#include <metal/drivers/sifive_gpio-leds.h>
#include <metal/gpio.h>
#include <metal/machine.h>
#include <string.h>

int __metal_driver_led_exist(struct metal_led *led, char *label) {
20014546:	1101                	addi	sp,sp,-32
20014548:	ce06                	sw	ra,28(sp)
2001454a:	cc22                	sw	s0,24(sp)
2001454c:	1000                	addi	s0,sp,32
2001454e:	fea42623          	sw	a0,-20(s0)
20014552:	feb42423          	sw	a1,-24(s0)
E:/GitHub/HiFive01-RevB/FS_workspace/002_LED_Blink_All/freedom-metal/src/drivers/sifive_gpio-leds.c:14
    if (strcmp(__metal_driver_sifive_gpio_led_label(led), label) == 0) {
20014556:	fec42503          	lw	a0,-20(s0)
2001455a:	3f41                	jal	200144ea <__metal_driver_sifive_gpio_led_label>
2001455c:	87aa                	mv	a5,a0
2001455e:	fe842583          	lw	a1,-24(s0)
20014562:	853e                	mv	a0,a5
20014564:	02e010ef          	jal	ra,20015592 <strcmp>
20014568:	87aa                	mv	a5,a0
2001456a:	e399                	bnez	a5,20014570 <__metal_driver_led_exist+0x2a>
E:/GitHub/HiFive01-RevB/FS_workspace/002_LED_Blink_All/freedom-metal/src/drivers/sifive_gpio-leds.c:15
        return 1;
2001456c:	4785                	li	a5,1
2001456e:	a011                	j	20014572 <__metal_driver_led_exist+0x2c>
E:/GitHub/HiFive01-RevB/FS_workspace/002_LED_Blink_All/freedom-metal/src/drivers/sifive_gpio-leds.c:17
    }
    return 0;
20014570:	4781                	li	a5,0
E:/GitHub/HiFive01-RevB/FS_workspace/002_LED_Blink_All/freedom-metal/src/drivers/sifive_gpio-leds.c:18
}
20014572:	853e                	mv	a0,a5
20014574:	40f2                	lw	ra,28(sp)
20014576:	4462                	lw	s0,24(sp)
20014578:	6105                	addi	sp,sp,32
2001457a:	8082                	ret

2001457c <__metal_driver_led_enable>:
__metal_driver_led_enable():
E:/GitHub/HiFive01-RevB/FS_workspace/002_LED_Blink_All/freedom-metal/src/drivers/sifive_gpio-leds.c:20

void __metal_driver_led_enable(struct metal_led *led) {
2001457c:	7179                	addi	sp,sp,-48
2001457e:	d606                	sw	ra,44(sp)
20014580:	d422                	sw	s0,40(sp)
20014582:	1800                	addi	s0,sp,48
20014584:	fca42e23          	sw	a0,-36(s0)
E:/GitHub/HiFive01-RevB/FS_workspace/002_LED_Blink_All/freedom-metal/src/drivers/sifive_gpio-leds.c:24
    int pin;
    struct metal_gpio *gpio;

    pin = __metal_driver_sifive_gpio_led_pin(led);
20014588:	fdc42503          	lw	a0,-36(s0)
2001458c:	3f29                	jal	200144a6 <__metal_driver_sifive_gpio_led_pin>
2001458e:	fea42623          	sw	a0,-20(s0)
E:/GitHub/HiFive01-RevB/FS_workspace/002_LED_Blink_All/freedom-metal/src/drivers/sifive_gpio-leds.c:25
    gpio = __metal_driver_sifive_gpio_led_gpio(led);
20014592:	fdc42503          	lw	a0,-36(s0)
20014596:	35d9                	jal	2001445c <__metal_driver_sifive_gpio_led_gpio>
20014598:	fea42423          	sw	a0,-24(s0)
E:/GitHub/HiFive01-RevB/FS_workspace/002_LED_Blink_All/freedom-metal/src/drivers/sifive_gpio-leds.c:27

    if (gpio != NULL) {
2001459c:	fe842783          	lw	a5,-24(s0)
200145a0:	cf89                	beqz	a5,200145ba <__metal_driver_led_enable+0x3e>
E:/GitHub/HiFive01-RevB/FS_workspace/002_LED_Blink_All/freedom-metal/src/drivers/sifive_gpio-leds.c:29
        /* Configure LED as output */
        metal_gpio_disable_input((struct metal_gpio *)gpio, pin);
200145a2:	fec42583          	lw	a1,-20(s0)
200145a6:	fe842503          	lw	a0,-24(s0)
200145aa:	44f000ef          	jal	ra,200151f8 <metal_gpio_disable_input>
E:/GitHub/HiFive01-RevB/FS_workspace/002_LED_Blink_All/freedom-metal/src/drivers/sifive_gpio-leds.c:30
        metal_gpio_enable_output((struct metal_gpio *)gpio, pin);
200145ae:	fec42583          	lw	a1,-20(s0)
200145b2:	fe842503          	lw	a0,-24(s0)
200145b6:	483000ef          	jal	ra,20015238 <metal_gpio_enable_output>
E:/GitHub/HiFive01-RevB/FS_workspace/002_LED_Blink_All/freedom-metal/src/drivers/sifive_gpio-leds.c:32
    }
}
200145ba:	0001                	nop
200145bc:	50b2                	lw	ra,44(sp)
200145be:	5422                	lw	s0,40(sp)
200145c0:	6145                	addi	sp,sp,48
200145c2:	8082                	ret

200145c4 <__metal_driver_led_on>:
__metal_driver_led_on():
E:/GitHub/HiFive01-RevB/FS_workspace/002_LED_Blink_All/freedom-metal/src/drivers/sifive_gpio-leds.c:34

void __metal_driver_led_on(struct metal_led *led) {
200145c4:	7179                	addi	sp,sp,-48
200145c6:	d606                	sw	ra,44(sp)
200145c8:	d422                	sw	s0,40(sp)
200145ca:	1800                	addi	s0,sp,48
200145cc:	fca42e23          	sw	a0,-36(s0)
E:/GitHub/HiFive01-RevB/FS_workspace/002_LED_Blink_All/freedom-metal/src/drivers/sifive_gpio-leds.c:38
    int pin;
    struct metal_gpio *gpio;

    pin = __metal_driver_sifive_gpio_led_pin(led);
200145d0:	fdc42503          	lw	a0,-36(s0)
200145d4:	3dc9                	jal	200144a6 <__metal_driver_sifive_gpio_led_pin>
200145d6:	fea42623          	sw	a0,-20(s0)
E:/GitHub/HiFive01-RevB/FS_workspace/002_LED_Blink_All/freedom-metal/src/drivers/sifive_gpio-leds.c:39
    gpio = __metal_driver_sifive_gpio_led_gpio(led);
200145da:	fdc42503          	lw	a0,-36(s0)
200145de:	3dbd                	jal	2001445c <__metal_driver_sifive_gpio_led_gpio>
200145e0:	fea42423          	sw	a0,-24(s0)
E:/GitHub/HiFive01-RevB/FS_workspace/002_LED_Blink_All/freedom-metal/src/drivers/sifive_gpio-leds.c:41

    if (gpio != NULL) {
200145e4:	fe842783          	lw	a5,-24(s0)
200145e8:	cb81                	beqz	a5,200145f8 <__metal_driver_led_on+0x34>
E:/GitHub/HiFive01-RevB/FS_workspace/002_LED_Blink_All/freedom-metal/src/drivers/sifive_gpio-leds.c:42
        metal_gpio_set_pin((struct metal_gpio *)gpio, pin, 1);
200145ea:	4605                	li	a2,1
200145ec:	fec42583          	lw	a1,-20(s0)
200145f0:	fe842503          	lw	a0,-24(s0)
200145f4:	485000ef          	jal	ra,20015278 <metal_gpio_set_pin>
E:/GitHub/HiFive01-RevB/FS_workspace/002_LED_Blink_All/freedom-metal/src/drivers/sifive_gpio-leds.c:44
    }
}
200145f8:	0001                	nop
200145fa:	50b2                	lw	ra,44(sp)
200145fc:	5422                	lw	s0,40(sp)
200145fe:	6145                	addi	sp,sp,48
20014600:	8082                	ret

20014602 <__metal_driver_led_off>:
__metal_driver_led_off():
E:/GitHub/HiFive01-RevB/FS_workspace/002_LED_Blink_All/freedom-metal/src/drivers/sifive_gpio-leds.c:46

void __metal_driver_led_off(struct metal_led *led) {
20014602:	7179                	addi	sp,sp,-48
20014604:	d606                	sw	ra,44(sp)
20014606:	d422                	sw	s0,40(sp)
20014608:	1800                	addi	s0,sp,48
2001460a:	fca42e23          	sw	a0,-36(s0)
E:/GitHub/HiFive01-RevB/FS_workspace/002_LED_Blink_All/freedom-metal/src/drivers/sifive_gpio-leds.c:50
    int pin;
    struct metal_gpio *gpio;

    pin = __metal_driver_sifive_gpio_led_pin(led);
2001460e:	fdc42503          	lw	a0,-36(s0)
20014612:	3d51                	jal	200144a6 <__metal_driver_sifive_gpio_led_pin>
20014614:	fea42623          	sw	a0,-20(s0)
E:/GitHub/HiFive01-RevB/FS_workspace/002_LED_Blink_All/freedom-metal/src/drivers/sifive_gpio-leds.c:51
    gpio = __metal_driver_sifive_gpio_led_gpio(led);
20014618:	fdc42503          	lw	a0,-36(s0)
2001461c:	3581                	jal	2001445c <__metal_driver_sifive_gpio_led_gpio>
2001461e:	fea42423          	sw	a0,-24(s0)
E:/GitHub/HiFive01-RevB/FS_workspace/002_LED_Blink_All/freedom-metal/src/drivers/sifive_gpio-leds.c:53

    if (gpio != NULL) {
20014622:	fe842783          	lw	a5,-24(s0)
20014626:	cb81                	beqz	a5,20014636 <__metal_driver_led_off+0x34>
E:/GitHub/HiFive01-RevB/FS_workspace/002_LED_Blink_All/freedom-metal/src/drivers/sifive_gpio-leds.c:54
        metal_gpio_set_pin((struct metal_gpio *)gpio, pin, 0);
20014628:	4601                	li	a2,0
2001462a:	fec42583          	lw	a1,-20(s0)
2001462e:	fe842503          	lw	a0,-24(s0)
20014632:	447000ef          	jal	ra,20015278 <metal_gpio_set_pin>
E:/GitHub/HiFive01-RevB/FS_workspace/002_LED_Blink_All/freedom-metal/src/drivers/sifive_gpio-leds.c:56
    }
}
20014636:	0001                	nop
20014638:	50b2                	lw	ra,44(sp)
2001463a:	5422                	lw	s0,40(sp)
2001463c:	6145                	addi	sp,sp,48
2001463e:	8082                	ret

20014640 <__metal_driver_led_toggle>:
__metal_driver_led_toggle():
E:/GitHub/HiFive01-RevB/FS_workspace/002_LED_Blink_All/freedom-metal/src/drivers/sifive_gpio-leds.c:58

void __metal_driver_led_toggle(struct metal_led *led) {
20014640:	7179                	addi	sp,sp,-48
20014642:	d606                	sw	ra,44(sp)
20014644:	d422                	sw	s0,40(sp)
20014646:	1800                	addi	s0,sp,48
20014648:	fca42e23          	sw	a0,-36(s0)
E:/GitHub/HiFive01-RevB/FS_workspace/002_LED_Blink_All/freedom-metal/src/drivers/sifive_gpio-leds.c:62
    int pin;
    struct metal_gpio *gpio;

    pin = __metal_driver_sifive_gpio_led_pin(led);
2001464c:	fdc42503          	lw	a0,-36(s0)
20014650:	3d99                	jal	200144a6 <__metal_driver_sifive_gpio_led_pin>
20014652:	fea42623          	sw	a0,-20(s0)
E:/GitHub/HiFive01-RevB/FS_workspace/002_LED_Blink_All/freedom-metal/src/drivers/sifive_gpio-leds.c:63
    gpio = __metal_driver_sifive_gpio_led_gpio(led);
20014656:	fdc42503          	lw	a0,-36(s0)
2001465a:	3509                	jal	2001445c <__metal_driver_sifive_gpio_led_gpio>
2001465c:	fea42423          	sw	a0,-24(s0)
E:/GitHub/HiFive01-RevB/FS_workspace/002_LED_Blink_All/freedom-metal/src/drivers/sifive_gpio-leds.c:65

    if (gpio != NULL) {
20014660:	fe842783          	lw	a5,-24(s0)
20014664:	c799                	beqz	a5,20014672 <__metal_driver_led_toggle+0x32>
E:/GitHub/HiFive01-RevB/FS_workspace/002_LED_Blink_All/freedom-metal/src/drivers/sifive_gpio-leds.c:66
        metal_gpio_toggle_pin((struct metal_gpio *)gpio, pin);
20014666:	fec42583          	lw	a1,-20(s0)
2001466a:	fe842503          	lw	a0,-24(s0)
2001466e:	473000ef          	jal	ra,200152e0 <metal_gpio_toggle_pin>
E:/GitHub/HiFive01-RevB/FS_workspace/002_LED_Blink_All/freedom-metal/src/drivers/sifive_gpio-leds.c:68
    }
}
20014672:	0001                	nop
20014674:	50b2                	lw	ra,44(sp)
20014676:	5422                	lw	s0,40(sp)
20014678:	6145                	addi	sp,sp,48
2001467a:	8082                	ret

2001467c <__metal_driver_sifive_gpio0_base>:
__metal_driver_sifive_gpio0_base():
E:\GitHub\HiFive01-RevB\FS_workspace\002_LED_Blink_All\bsp\build\debug/./metal/machine.h:430
{
2001467c:	1101                	addi	sp,sp,-32
2001467e:	ce22                	sw	s0,28(sp)
20014680:	1000                	addi	s0,sp,32
20014682:	fea42623          	sw	a0,-20(s0)
E:\GitHub\HiFive01-RevB\FS_workspace\002_LED_Blink_All\bsp\build\debug/./metal/machine.h:431
	if ((uintptr_t)gpio == (uintptr_t)&__metal_dt_gpio_10012000) {
20014686:	fec42703          	lw	a4,-20(s0)
2001468a:	81418793          	addi	a5,gp,-2028 # 80000a84 <__metal_dt_gpio_10012000>
2001468e:	00f71563          	bne	a4,a5,20014698 <__metal_driver_sifive_gpio0_base+0x1c>
E:\GitHub\HiFive01-RevB\FS_workspace\002_LED_Blink_All\bsp\build\debug/./metal/machine.h:432
		return METAL_SIFIVE_GPIO0_10012000_BASE_ADDRESS;
20014692:	100127b7          	lui	a5,0x10012
20014696:	a011                	j	2001469a <__metal_driver_sifive_gpio0_base+0x1e>
E:\GitHub\HiFive01-RevB\FS_workspace\002_LED_Blink_All\bsp\build\debug/./metal/machine.h:435
		return 0;
20014698:	4781                	li	a5,0
E:\GitHub\HiFive01-RevB\FS_workspace\002_LED_Blink_All\bsp\build\debug/./metal/machine.h:437
}
2001469a:	853e                	mv	a0,a5
2001469c:	4472                	lw	s0,28(sp)
2001469e:	6105                	addi	sp,sp,32
200146a0:	8082                	ret

200146a2 <__metal_driver_sifive_gpio0_interrupt_parent>:
__metal_driver_sifive_gpio0_interrupt_parent():
E:\GitHub\HiFive01-RevB\FS_workspace\002_LED_Blink_All\bsp\build\debug/./metal/machine.h:460
{
200146a2:	1101                	addi	sp,sp,-32
200146a4:	ce22                	sw	s0,28(sp)
200146a6:	1000                	addi	s0,sp,32
200146a8:	fea42623          	sw	a0,-20(s0)
E:\GitHub\HiFive01-RevB\FS_workspace\002_LED_Blink_All\bsp\build\debug/./metal/machine.h:461
	if ((uintptr_t)gpio == (uintptr_t)&__metal_dt_gpio_10012000) {
200146ac:	fec42703          	lw	a4,-20(s0)
200146b0:	81418793          	addi	a5,gp,-2028 # 80000a84 <__metal_dt_gpio_10012000>
200146b4:	00f71763          	bne	a4,a5,200146c2 <__metal_driver_sifive_gpio0_interrupt_parent+0x20>
E:\GitHub\HiFive01-RevB\FS_workspace\002_LED_Blink_All\bsp\build\debug/./metal/machine.h:462
		return (struct metal_interrupt *)&__metal_dt_interrupt_controller_c000000.controller;
200146b8:	800007b7          	lui	a5,0x80000
200146bc:	41078793          	addi	a5,a5,1040 # 80000410 <__global_pointer$+0xfffff1a0>
200146c0:	a011                	j	200146c4 <__metal_driver_sifive_gpio0_interrupt_parent+0x22>
E:\GitHub\HiFive01-RevB\FS_workspace\002_LED_Blink_All\bsp\build\debug/./metal/machine.h:465
		return 0;
200146c2:	4781                	li	a5,0
E:\GitHub\HiFive01-RevB\FS_workspace\002_LED_Blink_All\bsp\build\debug/./metal/machine.h:467
}
200146c4:	853e                	mv	a0,a5
200146c6:	4472                	lw	s0,28(sp)
200146c8:	6105                	addi	sp,sp,32
200146ca:	8082                	ret

200146cc <__metal_driver_sifive_gpio0_interrupt_lines>:
__metal_driver_sifive_gpio0_interrupt_lines():
E:\GitHub\HiFive01-RevB\FS_workspace\002_LED_Blink_All\bsp\build\debug/./metal/machine.h:470
{
200146cc:	1101                	addi	sp,sp,-32
200146ce:	ce22                	sw	s0,28(sp)
200146d0:	1000                	addi	s0,sp,32
200146d2:	fea42623          	sw	a0,-20(s0)
200146d6:	feb42423          	sw	a1,-24(s0)
E:\GitHub\HiFive01-RevB\FS_workspace\002_LED_Blink_All\bsp\build\debug/./metal/machine.h:471
	if (((uintptr_t)gpio == (uintptr_t)&__metal_dt_gpio_10012000) && (idx == 0)) {
200146da:	fec42703          	lw	a4,-20(s0)
200146de:	81418793          	addi	a5,gp,-2028 # 80000a84 <__metal_dt_gpio_10012000>
200146e2:	00f71763          	bne	a4,a5,200146f0 <__metal_driver_sifive_gpio0_interrupt_lines+0x24>
E:\GitHub\HiFive01-RevB\FS_workspace\002_LED_Blink_All\bsp\build\debug/./metal/machine.h:471 (discriminator 1)
200146e6:	fe842783          	lw	a5,-24(s0)
200146ea:	e399                	bnez	a5,200146f0 <__metal_driver_sifive_gpio0_interrupt_lines+0x24>
E:\GitHub\HiFive01-RevB\FS_workspace\002_LED_Blink_All\bsp\build\debug/./metal/machine.h:472
		return 8;
200146ec:	47a1                	li	a5,8
200146ee:	ae15                	j	20014a22 <__metal_driver_sifive_gpio0_interrupt_lines+0x356>
E:\GitHub\HiFive01-RevB\FS_workspace\002_LED_Blink_All\bsp\build\debug/./metal/machine.h:474
	else if ((((uintptr_t)gpio == (uintptr_t)&__metal_dt_gpio_10012000) && (idx == 1))) {
200146f0:	fec42703          	lw	a4,-20(s0)
200146f4:	81418793          	addi	a5,gp,-2028 # 80000a84 <__metal_dt_gpio_10012000>
200146f8:	00f71963          	bne	a4,a5,2001470a <__metal_driver_sifive_gpio0_interrupt_lines+0x3e>
E:\GitHub\HiFive01-RevB\FS_workspace\002_LED_Blink_All\bsp\build\debug/./metal/machine.h:474 (discriminator 1)
200146fc:	fe842703          	lw	a4,-24(s0)
20014700:	4785                	li	a5,1
20014702:	00f71463          	bne	a4,a5,2001470a <__metal_driver_sifive_gpio0_interrupt_lines+0x3e>
E:\GitHub\HiFive01-RevB\FS_workspace\002_LED_Blink_All\bsp\build\debug/./metal/machine.h:475
		return 9;
20014706:	47a5                	li	a5,9
20014708:	ae29                	j	20014a22 <__metal_driver_sifive_gpio0_interrupt_lines+0x356>
E:\GitHub\HiFive01-RevB\FS_workspace\002_LED_Blink_All\bsp\build\debug/./metal/machine.h:477
	else if ((((uintptr_t)gpio == (uintptr_t)&__metal_dt_gpio_10012000) && (idx == 2))) {
2001470a:	fec42703          	lw	a4,-20(s0)
2001470e:	81418793          	addi	a5,gp,-2028 # 80000a84 <__metal_dt_gpio_10012000>
20014712:	00f71963          	bne	a4,a5,20014724 <__metal_driver_sifive_gpio0_interrupt_lines+0x58>
E:\GitHub\HiFive01-RevB\FS_workspace\002_LED_Blink_All\bsp\build\debug/./metal/machine.h:477 (discriminator 1)
20014716:	fe842703          	lw	a4,-24(s0)
2001471a:	4789                	li	a5,2
2001471c:	00f71463          	bne	a4,a5,20014724 <__metal_driver_sifive_gpio0_interrupt_lines+0x58>
E:\GitHub\HiFive01-RevB\FS_workspace\002_LED_Blink_All\bsp\build\debug/./metal/machine.h:478
		return 10;
20014720:	47a9                	li	a5,10
20014722:	a601                	j	20014a22 <__metal_driver_sifive_gpio0_interrupt_lines+0x356>
E:\GitHub\HiFive01-RevB\FS_workspace\002_LED_Blink_All\bsp\build\debug/./metal/machine.h:480
	else if ((((uintptr_t)gpio == (uintptr_t)&__metal_dt_gpio_10012000) && (idx == 3))) {
20014724:	fec42703          	lw	a4,-20(s0)
20014728:	81418793          	addi	a5,gp,-2028 # 80000a84 <__metal_dt_gpio_10012000>
2001472c:	00f71963          	bne	a4,a5,2001473e <__metal_driver_sifive_gpio0_interrupt_lines+0x72>
E:\GitHub\HiFive01-RevB\FS_workspace\002_LED_Blink_All\bsp\build\debug/./metal/machine.h:480 (discriminator 1)
20014730:	fe842703          	lw	a4,-24(s0)
20014734:	478d                	li	a5,3
20014736:	00f71463          	bne	a4,a5,2001473e <__metal_driver_sifive_gpio0_interrupt_lines+0x72>
E:\GitHub\HiFive01-RevB\FS_workspace\002_LED_Blink_All\bsp\build\debug/./metal/machine.h:481
		return 11;
2001473a:	47ad                	li	a5,11
2001473c:	a4dd                	j	20014a22 <__metal_driver_sifive_gpio0_interrupt_lines+0x356>
E:\GitHub\HiFive01-RevB\FS_workspace\002_LED_Blink_All\bsp\build\debug/./metal/machine.h:483
	else if ((((uintptr_t)gpio == (uintptr_t)&__metal_dt_gpio_10012000) && (idx == 4))) {
2001473e:	fec42703          	lw	a4,-20(s0)
20014742:	81418793          	addi	a5,gp,-2028 # 80000a84 <__metal_dt_gpio_10012000>
20014746:	00f71963          	bne	a4,a5,20014758 <__metal_driver_sifive_gpio0_interrupt_lines+0x8c>
E:\GitHub\HiFive01-RevB\FS_workspace\002_LED_Blink_All\bsp\build\debug/./metal/machine.h:483 (discriminator 1)
2001474a:	fe842703          	lw	a4,-24(s0)
2001474e:	4791                	li	a5,4
20014750:	00f71463          	bne	a4,a5,20014758 <__metal_driver_sifive_gpio0_interrupt_lines+0x8c>
E:\GitHub\HiFive01-RevB\FS_workspace\002_LED_Blink_All\bsp\build\debug/./metal/machine.h:484
		return 12;
20014754:	47b1                	li	a5,12
20014756:	a4f1                	j	20014a22 <__metal_driver_sifive_gpio0_interrupt_lines+0x356>
E:\GitHub\HiFive01-RevB\FS_workspace\002_LED_Blink_All\bsp\build\debug/./metal/machine.h:486
	else if ((((uintptr_t)gpio == (uintptr_t)&__metal_dt_gpio_10012000) && (idx == 5))) {
20014758:	fec42703          	lw	a4,-20(s0)
2001475c:	81418793          	addi	a5,gp,-2028 # 80000a84 <__metal_dt_gpio_10012000>
20014760:	00f71963          	bne	a4,a5,20014772 <__metal_driver_sifive_gpio0_interrupt_lines+0xa6>
E:\GitHub\HiFive01-RevB\FS_workspace\002_LED_Blink_All\bsp\build\debug/./metal/machine.h:486 (discriminator 1)
20014764:	fe842703          	lw	a4,-24(s0)
20014768:	4795                	li	a5,5
2001476a:	00f71463          	bne	a4,a5,20014772 <__metal_driver_sifive_gpio0_interrupt_lines+0xa6>
E:\GitHub\HiFive01-RevB\FS_workspace\002_LED_Blink_All\bsp\build\debug/./metal/machine.h:487
		return 13;
2001476e:	47b5                	li	a5,13
20014770:	ac4d                	j	20014a22 <__metal_driver_sifive_gpio0_interrupt_lines+0x356>
E:\GitHub\HiFive01-RevB\FS_workspace\002_LED_Blink_All\bsp\build\debug/./metal/machine.h:489
	else if ((((uintptr_t)gpio == (uintptr_t)&__metal_dt_gpio_10012000) && (idx == 6))) {
20014772:	fec42703          	lw	a4,-20(s0)
20014776:	81418793          	addi	a5,gp,-2028 # 80000a84 <__metal_dt_gpio_10012000>
2001477a:	00f71963          	bne	a4,a5,2001478c <__metal_driver_sifive_gpio0_interrupt_lines+0xc0>
E:\GitHub\HiFive01-RevB\FS_workspace\002_LED_Blink_All\bsp\build\debug/./metal/machine.h:489 (discriminator 1)
2001477e:	fe842703          	lw	a4,-24(s0)
20014782:	4799                	li	a5,6
20014784:	00f71463          	bne	a4,a5,2001478c <__metal_driver_sifive_gpio0_interrupt_lines+0xc0>
E:\GitHub\HiFive01-RevB\FS_workspace\002_LED_Blink_All\bsp\build\debug/./metal/machine.h:490
		return 14;
20014788:	47b9                	li	a5,14
2001478a:	ac61                	j	20014a22 <__metal_driver_sifive_gpio0_interrupt_lines+0x356>
E:\GitHub\HiFive01-RevB\FS_workspace\002_LED_Blink_All\bsp\build\debug/./metal/machine.h:492
	else if ((((uintptr_t)gpio == (uintptr_t)&__metal_dt_gpio_10012000) && (idx == 7))) {
2001478c:	fec42703          	lw	a4,-20(s0)
20014790:	81418793          	addi	a5,gp,-2028 # 80000a84 <__metal_dt_gpio_10012000>
20014794:	00f71963          	bne	a4,a5,200147a6 <__metal_driver_sifive_gpio0_interrupt_lines+0xda>
E:\GitHub\HiFive01-RevB\FS_workspace\002_LED_Blink_All\bsp\build\debug/./metal/machine.h:492 (discriminator 1)
20014798:	fe842703          	lw	a4,-24(s0)
2001479c:	479d                	li	a5,7
2001479e:	00f71463          	bne	a4,a5,200147a6 <__metal_driver_sifive_gpio0_interrupt_lines+0xda>
E:\GitHub\HiFive01-RevB\FS_workspace\002_LED_Blink_All\bsp\build\debug/./metal/machine.h:493
		return 15;
200147a2:	47bd                	li	a5,15
200147a4:	acbd                	j	20014a22 <__metal_driver_sifive_gpio0_interrupt_lines+0x356>
E:\GitHub\HiFive01-RevB\FS_workspace\002_LED_Blink_All\bsp\build\debug/./metal/machine.h:495
	else if ((((uintptr_t)gpio == (uintptr_t)&__metal_dt_gpio_10012000) && (idx == 8))) {
200147a6:	fec42703          	lw	a4,-20(s0)
200147aa:	81418793          	addi	a5,gp,-2028 # 80000a84 <__metal_dt_gpio_10012000>
200147ae:	00f71963          	bne	a4,a5,200147c0 <__metal_driver_sifive_gpio0_interrupt_lines+0xf4>
E:\GitHub\HiFive01-RevB\FS_workspace\002_LED_Blink_All\bsp\build\debug/./metal/machine.h:495 (discriminator 1)
200147b2:	fe842703          	lw	a4,-24(s0)
200147b6:	47a1                	li	a5,8
200147b8:	00f71463          	bne	a4,a5,200147c0 <__metal_driver_sifive_gpio0_interrupt_lines+0xf4>
E:\GitHub\HiFive01-RevB\FS_workspace\002_LED_Blink_All\bsp\build\debug/./metal/machine.h:496
		return 16;
200147bc:	47c1                	li	a5,16
200147be:	a495                	j	20014a22 <__metal_driver_sifive_gpio0_interrupt_lines+0x356>
E:\GitHub\HiFive01-RevB\FS_workspace\002_LED_Blink_All\bsp\build\debug/./metal/machine.h:498
	else if ((((uintptr_t)gpio == (uintptr_t)&__metal_dt_gpio_10012000) && (idx == 9))) {
200147c0:	fec42703          	lw	a4,-20(s0)
200147c4:	81418793          	addi	a5,gp,-2028 # 80000a84 <__metal_dt_gpio_10012000>
200147c8:	00f71963          	bne	a4,a5,200147da <__metal_driver_sifive_gpio0_interrupt_lines+0x10e>
E:\GitHub\HiFive01-RevB\FS_workspace\002_LED_Blink_All\bsp\build\debug/./metal/machine.h:498 (discriminator 1)
200147cc:	fe842703          	lw	a4,-24(s0)
200147d0:	47a5                	li	a5,9
200147d2:	00f71463          	bne	a4,a5,200147da <__metal_driver_sifive_gpio0_interrupt_lines+0x10e>
E:\GitHub\HiFive01-RevB\FS_workspace\002_LED_Blink_All\bsp\build\debug/./metal/machine.h:499
		return 17;
200147d6:	47c5                	li	a5,17
200147d8:	a4a9                	j	20014a22 <__metal_driver_sifive_gpio0_interrupt_lines+0x356>
E:\GitHub\HiFive01-RevB\FS_workspace\002_LED_Blink_All\bsp\build\debug/./metal/machine.h:501
	else if ((((uintptr_t)gpio == (uintptr_t)&__metal_dt_gpio_10012000) && (idx == 10))) {
200147da:	fec42703          	lw	a4,-20(s0)
200147de:	81418793          	addi	a5,gp,-2028 # 80000a84 <__metal_dt_gpio_10012000>
200147e2:	00f71963          	bne	a4,a5,200147f4 <__metal_driver_sifive_gpio0_interrupt_lines+0x128>
E:\GitHub\HiFive01-RevB\FS_workspace\002_LED_Blink_All\bsp\build\debug/./metal/machine.h:501 (discriminator 1)
200147e6:	fe842703          	lw	a4,-24(s0)
200147ea:	47a9                	li	a5,10
200147ec:	00f71463          	bne	a4,a5,200147f4 <__metal_driver_sifive_gpio0_interrupt_lines+0x128>
E:\GitHub\HiFive01-RevB\FS_workspace\002_LED_Blink_All\bsp\build\debug/./metal/machine.h:502
		return 18;
200147f0:	47c9                	li	a5,18
200147f2:	ac05                	j	20014a22 <__metal_driver_sifive_gpio0_interrupt_lines+0x356>
E:\GitHub\HiFive01-RevB\FS_workspace\002_LED_Blink_All\bsp\build\debug/./metal/machine.h:504
	else if ((((uintptr_t)gpio == (uintptr_t)&__metal_dt_gpio_10012000) && (idx == 11))) {
200147f4:	fec42703          	lw	a4,-20(s0)
200147f8:	81418793          	addi	a5,gp,-2028 # 80000a84 <__metal_dt_gpio_10012000>
200147fc:	00f71963          	bne	a4,a5,2001480e <__metal_driver_sifive_gpio0_interrupt_lines+0x142>
E:\GitHub\HiFive01-RevB\FS_workspace\002_LED_Blink_All\bsp\build\debug/./metal/machine.h:504 (discriminator 1)
20014800:	fe842703          	lw	a4,-24(s0)
20014804:	47ad                	li	a5,11
20014806:	00f71463          	bne	a4,a5,2001480e <__metal_driver_sifive_gpio0_interrupt_lines+0x142>
E:\GitHub\HiFive01-RevB\FS_workspace\002_LED_Blink_All\bsp\build\debug/./metal/machine.h:505
		return 19;
2001480a:	47cd                	li	a5,19
2001480c:	ac19                	j	20014a22 <__metal_driver_sifive_gpio0_interrupt_lines+0x356>
E:\GitHub\HiFive01-RevB\FS_workspace\002_LED_Blink_All\bsp\build\debug/./metal/machine.h:507
	else if ((((uintptr_t)gpio == (uintptr_t)&__metal_dt_gpio_10012000) && (idx == 12))) {
2001480e:	fec42703          	lw	a4,-20(s0)
20014812:	81418793          	addi	a5,gp,-2028 # 80000a84 <__metal_dt_gpio_10012000>
20014816:	00f71963          	bne	a4,a5,20014828 <__metal_driver_sifive_gpio0_interrupt_lines+0x15c>
E:\GitHub\HiFive01-RevB\FS_workspace\002_LED_Blink_All\bsp\build\debug/./metal/machine.h:507 (discriminator 1)
2001481a:	fe842703          	lw	a4,-24(s0)
2001481e:	47b1                	li	a5,12
20014820:	00f71463          	bne	a4,a5,20014828 <__metal_driver_sifive_gpio0_interrupt_lines+0x15c>
E:\GitHub\HiFive01-RevB\FS_workspace\002_LED_Blink_All\bsp\build\debug/./metal/machine.h:508
		return 20;
20014824:	47d1                	li	a5,20
20014826:	aaf5                	j	20014a22 <__metal_driver_sifive_gpio0_interrupt_lines+0x356>
E:\GitHub\HiFive01-RevB\FS_workspace\002_LED_Blink_All\bsp\build\debug/./metal/machine.h:510
	else if ((((uintptr_t)gpio == (uintptr_t)&__metal_dt_gpio_10012000) && (idx == 13))) {
20014828:	fec42703          	lw	a4,-20(s0)
2001482c:	81418793          	addi	a5,gp,-2028 # 80000a84 <__metal_dt_gpio_10012000>
20014830:	00f71963          	bne	a4,a5,20014842 <__metal_driver_sifive_gpio0_interrupt_lines+0x176>
E:\GitHub\HiFive01-RevB\FS_workspace\002_LED_Blink_All\bsp\build\debug/./metal/machine.h:510 (discriminator 1)
20014834:	fe842703          	lw	a4,-24(s0)
20014838:	47b5                	li	a5,13
2001483a:	00f71463          	bne	a4,a5,20014842 <__metal_driver_sifive_gpio0_interrupt_lines+0x176>
E:\GitHub\HiFive01-RevB\FS_workspace\002_LED_Blink_All\bsp\build\debug/./metal/machine.h:511
		return 21;
2001483e:	47d5                	li	a5,21
20014840:	a2cd                	j	20014a22 <__metal_driver_sifive_gpio0_interrupt_lines+0x356>
E:\GitHub\HiFive01-RevB\FS_workspace\002_LED_Blink_All\bsp\build\debug/./metal/machine.h:513
	else if ((((uintptr_t)gpio == (uintptr_t)&__metal_dt_gpio_10012000) && (idx == 14))) {
20014842:	fec42703          	lw	a4,-20(s0)
20014846:	81418793          	addi	a5,gp,-2028 # 80000a84 <__metal_dt_gpio_10012000>
2001484a:	00f71963          	bne	a4,a5,2001485c <__metal_driver_sifive_gpio0_interrupt_lines+0x190>
E:\GitHub\HiFive01-RevB\FS_workspace\002_LED_Blink_All\bsp\build\debug/./metal/machine.h:513 (discriminator 1)
2001484e:	fe842703          	lw	a4,-24(s0)
20014852:	47b9                	li	a5,14
20014854:	00f71463          	bne	a4,a5,2001485c <__metal_driver_sifive_gpio0_interrupt_lines+0x190>
E:\GitHub\HiFive01-RevB\FS_workspace\002_LED_Blink_All\bsp\build\debug/./metal/machine.h:514
		return 22;
20014858:	47d9                	li	a5,22
2001485a:	a2e1                	j	20014a22 <__metal_driver_sifive_gpio0_interrupt_lines+0x356>
E:\GitHub\HiFive01-RevB\FS_workspace\002_LED_Blink_All\bsp\build\debug/./metal/machine.h:516
	else if ((((uintptr_t)gpio == (uintptr_t)&__metal_dt_gpio_10012000) && (idx == 15))) {
2001485c:	fec42703          	lw	a4,-20(s0)
20014860:	81418793          	addi	a5,gp,-2028 # 80000a84 <__metal_dt_gpio_10012000>
20014864:	00f71963          	bne	a4,a5,20014876 <__metal_driver_sifive_gpio0_interrupt_lines+0x1aa>
E:\GitHub\HiFive01-RevB\FS_workspace\002_LED_Blink_All\bsp\build\debug/./metal/machine.h:516 (discriminator 1)
20014868:	fe842703          	lw	a4,-24(s0)
2001486c:	47bd                	li	a5,15
2001486e:	00f71463          	bne	a4,a5,20014876 <__metal_driver_sifive_gpio0_interrupt_lines+0x1aa>
E:\GitHub\HiFive01-RevB\FS_workspace\002_LED_Blink_All\bsp\build\debug/./metal/machine.h:517
		return 23;
20014872:	47dd                	li	a5,23
20014874:	a27d                	j	20014a22 <__metal_driver_sifive_gpio0_interrupt_lines+0x356>
E:\GitHub\HiFive01-RevB\FS_workspace\002_LED_Blink_All\bsp\build\debug/./metal/machine.h:519
	else if ((((uintptr_t)gpio == (uintptr_t)&__metal_dt_gpio_10012000) && (idx == 16))) {
20014876:	fec42703          	lw	a4,-20(s0)
2001487a:	81418793          	addi	a5,gp,-2028 # 80000a84 <__metal_dt_gpio_10012000>
2001487e:	00f71963          	bne	a4,a5,20014890 <__metal_driver_sifive_gpio0_interrupt_lines+0x1c4>
E:\GitHub\HiFive01-RevB\FS_workspace\002_LED_Blink_All\bsp\build\debug/./metal/machine.h:519 (discriminator 1)
20014882:	fe842703          	lw	a4,-24(s0)
20014886:	47c1                	li	a5,16
20014888:	00f71463          	bne	a4,a5,20014890 <__metal_driver_sifive_gpio0_interrupt_lines+0x1c4>
E:\GitHub\HiFive01-RevB\FS_workspace\002_LED_Blink_All\bsp\build\debug/./metal/machine.h:520
		return 24;
2001488c:	47e1                	li	a5,24
2001488e:	aa51                	j	20014a22 <__metal_driver_sifive_gpio0_interrupt_lines+0x356>
E:\GitHub\HiFive01-RevB\FS_workspace\002_LED_Blink_All\bsp\build\debug/./metal/machine.h:522
	else if ((((uintptr_t)gpio == (uintptr_t)&__metal_dt_gpio_10012000) && (idx == 17))) {
20014890:	fec42703          	lw	a4,-20(s0)
20014894:	81418793          	addi	a5,gp,-2028 # 80000a84 <__metal_dt_gpio_10012000>
20014898:	00f71963          	bne	a4,a5,200148aa <__metal_driver_sifive_gpio0_interrupt_lines+0x1de>
E:\GitHub\HiFive01-RevB\FS_workspace\002_LED_Blink_All\bsp\build\debug/./metal/machine.h:522 (discriminator 1)
2001489c:	fe842703          	lw	a4,-24(s0)
200148a0:	47c5                	li	a5,17
200148a2:	00f71463          	bne	a4,a5,200148aa <__metal_driver_sifive_gpio0_interrupt_lines+0x1de>
E:\GitHub\HiFive01-RevB\FS_workspace\002_LED_Blink_All\bsp\build\debug/./metal/machine.h:523
		return 25;
200148a6:	47e5                	li	a5,25
200148a8:	aaad                	j	20014a22 <__metal_driver_sifive_gpio0_interrupt_lines+0x356>
E:\GitHub\HiFive01-RevB\FS_workspace\002_LED_Blink_All\bsp\build\debug/./metal/machine.h:525
	else if ((((uintptr_t)gpio == (uintptr_t)&__metal_dt_gpio_10012000) && (idx == 18))) {
200148aa:	fec42703          	lw	a4,-20(s0)
200148ae:	81418793          	addi	a5,gp,-2028 # 80000a84 <__metal_dt_gpio_10012000>
200148b2:	00f71963          	bne	a4,a5,200148c4 <__metal_driver_sifive_gpio0_interrupt_lines+0x1f8>
E:\GitHub\HiFive01-RevB\FS_workspace\002_LED_Blink_All\bsp\build\debug/./metal/machine.h:525 (discriminator 1)
200148b6:	fe842703          	lw	a4,-24(s0)
200148ba:	47c9                	li	a5,18
200148bc:	00f71463          	bne	a4,a5,200148c4 <__metal_driver_sifive_gpio0_interrupt_lines+0x1f8>
E:\GitHub\HiFive01-RevB\FS_workspace\002_LED_Blink_All\bsp\build\debug/./metal/machine.h:526
		return 26;
200148c0:	47e9                	li	a5,26
200148c2:	a285                	j	20014a22 <__metal_driver_sifive_gpio0_interrupt_lines+0x356>
E:\GitHub\HiFive01-RevB\FS_workspace\002_LED_Blink_All\bsp\build\debug/./metal/machine.h:528
	else if ((((uintptr_t)gpio == (uintptr_t)&__metal_dt_gpio_10012000) && (idx == 19))) {
200148c4:	fec42703          	lw	a4,-20(s0)
200148c8:	81418793          	addi	a5,gp,-2028 # 80000a84 <__metal_dt_gpio_10012000>
200148cc:	00f71963          	bne	a4,a5,200148de <__metal_driver_sifive_gpio0_interrupt_lines+0x212>
E:\GitHub\HiFive01-RevB\FS_workspace\002_LED_Blink_All\bsp\build\debug/./metal/machine.h:528 (discriminator 1)
200148d0:	fe842703          	lw	a4,-24(s0)
200148d4:	47cd                	li	a5,19
200148d6:	00f71463          	bne	a4,a5,200148de <__metal_driver_sifive_gpio0_interrupt_lines+0x212>
E:\GitHub\HiFive01-RevB\FS_workspace\002_LED_Blink_All\bsp\build\debug/./metal/machine.h:529
		return 27;
200148da:	47ed                	li	a5,27
200148dc:	a299                	j	20014a22 <__metal_driver_sifive_gpio0_interrupt_lines+0x356>
E:\GitHub\HiFive01-RevB\FS_workspace\002_LED_Blink_All\bsp\build\debug/./metal/machine.h:531
	else if ((((uintptr_t)gpio == (uintptr_t)&__metal_dt_gpio_10012000) && (idx == 20))) {
200148de:	fec42703          	lw	a4,-20(s0)
200148e2:	81418793          	addi	a5,gp,-2028 # 80000a84 <__metal_dt_gpio_10012000>
200148e6:	00f71963          	bne	a4,a5,200148f8 <__metal_driver_sifive_gpio0_interrupt_lines+0x22c>
E:\GitHub\HiFive01-RevB\FS_workspace\002_LED_Blink_All\bsp\build\debug/./metal/machine.h:531 (discriminator 1)
200148ea:	fe842703          	lw	a4,-24(s0)
200148ee:	47d1                	li	a5,20
200148f0:	00f71463          	bne	a4,a5,200148f8 <__metal_driver_sifive_gpio0_interrupt_lines+0x22c>
E:\GitHub\HiFive01-RevB\FS_workspace\002_LED_Blink_All\bsp\build\debug/./metal/machine.h:532
		return 28;
200148f4:	47f1                	li	a5,28
200148f6:	a235                	j	20014a22 <__metal_driver_sifive_gpio0_interrupt_lines+0x356>
E:\GitHub\HiFive01-RevB\FS_workspace\002_LED_Blink_All\bsp\build\debug/./metal/machine.h:534
	else if ((((uintptr_t)gpio == (uintptr_t)&__metal_dt_gpio_10012000) && (idx == 21))) {
200148f8:	fec42703          	lw	a4,-20(s0)
200148fc:	81418793          	addi	a5,gp,-2028 # 80000a84 <__metal_dt_gpio_10012000>
20014900:	00f71963          	bne	a4,a5,20014912 <__metal_driver_sifive_gpio0_interrupt_lines+0x246>
E:\GitHub\HiFive01-RevB\FS_workspace\002_LED_Blink_All\bsp\build\debug/./metal/machine.h:534 (discriminator 1)
20014904:	fe842703          	lw	a4,-24(s0)
20014908:	47d5                	li	a5,21
2001490a:	00f71463          	bne	a4,a5,20014912 <__metal_driver_sifive_gpio0_interrupt_lines+0x246>
E:\GitHub\HiFive01-RevB\FS_workspace\002_LED_Blink_All\bsp\build\debug/./metal/machine.h:535
		return 29;
2001490e:	47f5                	li	a5,29
20014910:	aa09                	j	20014a22 <__metal_driver_sifive_gpio0_interrupt_lines+0x356>
E:\GitHub\HiFive01-RevB\FS_workspace\002_LED_Blink_All\bsp\build\debug/./metal/machine.h:537
	else if ((((uintptr_t)gpio == (uintptr_t)&__metal_dt_gpio_10012000) && (idx == 22))) {
20014912:	fec42703          	lw	a4,-20(s0)
20014916:	81418793          	addi	a5,gp,-2028 # 80000a84 <__metal_dt_gpio_10012000>
2001491a:	00f71963          	bne	a4,a5,2001492c <__metal_driver_sifive_gpio0_interrupt_lines+0x260>
E:\GitHub\HiFive01-RevB\FS_workspace\002_LED_Blink_All\bsp\build\debug/./metal/machine.h:537 (discriminator 1)
2001491e:	fe842703          	lw	a4,-24(s0)
20014922:	47d9                	li	a5,22
20014924:	00f71463          	bne	a4,a5,2001492c <__metal_driver_sifive_gpio0_interrupt_lines+0x260>
E:\GitHub\HiFive01-RevB\FS_workspace\002_LED_Blink_All\bsp\build\debug/./metal/machine.h:538
		return 30;
20014928:	47f9                	li	a5,30
2001492a:	a8e5                	j	20014a22 <__metal_driver_sifive_gpio0_interrupt_lines+0x356>
E:\GitHub\HiFive01-RevB\FS_workspace\002_LED_Blink_All\bsp\build\debug/./metal/machine.h:540
	else if ((((uintptr_t)gpio == (uintptr_t)&__metal_dt_gpio_10012000) && (idx == 23))) {
2001492c:	fec42703          	lw	a4,-20(s0)
20014930:	81418793          	addi	a5,gp,-2028 # 80000a84 <__metal_dt_gpio_10012000>
20014934:	00f71963          	bne	a4,a5,20014946 <__metal_driver_sifive_gpio0_interrupt_lines+0x27a>
E:\GitHub\HiFive01-RevB\FS_workspace\002_LED_Blink_All\bsp\build\debug/./metal/machine.h:540 (discriminator 1)
20014938:	fe842703          	lw	a4,-24(s0)
2001493c:	47dd                	li	a5,23
2001493e:	00f71463          	bne	a4,a5,20014946 <__metal_driver_sifive_gpio0_interrupt_lines+0x27a>
E:\GitHub\HiFive01-RevB\FS_workspace\002_LED_Blink_All\bsp\build\debug/./metal/machine.h:541
		return 31;
20014942:	47fd                	li	a5,31
20014944:	a8f9                	j	20014a22 <__metal_driver_sifive_gpio0_interrupt_lines+0x356>
E:\GitHub\HiFive01-RevB\FS_workspace\002_LED_Blink_All\bsp\build\debug/./metal/machine.h:543
	else if ((((uintptr_t)gpio == (uintptr_t)&__metal_dt_gpio_10012000) && (idx == 24))) {
20014946:	fec42703          	lw	a4,-20(s0)
2001494a:	81418793          	addi	a5,gp,-2028 # 80000a84 <__metal_dt_gpio_10012000>
2001494e:	00f71a63          	bne	a4,a5,20014962 <__metal_driver_sifive_gpio0_interrupt_lines+0x296>
E:\GitHub\HiFive01-RevB\FS_workspace\002_LED_Blink_All\bsp\build\debug/./metal/machine.h:543 (discriminator 1)
20014952:	fe842703          	lw	a4,-24(s0)
20014956:	47e1                	li	a5,24
20014958:	00f71563          	bne	a4,a5,20014962 <__metal_driver_sifive_gpio0_interrupt_lines+0x296>
E:\GitHub\HiFive01-RevB\FS_workspace\002_LED_Blink_All\bsp\build\debug/./metal/machine.h:544
		return 32;
2001495c:	02000793          	li	a5,32
20014960:	a0c9                	j	20014a22 <__metal_driver_sifive_gpio0_interrupt_lines+0x356>
E:\GitHub\HiFive01-RevB\FS_workspace\002_LED_Blink_All\bsp\build\debug/./metal/machine.h:546
	else if ((((uintptr_t)gpio == (uintptr_t)&__metal_dt_gpio_10012000) && (idx == 25))) {
20014962:	fec42703          	lw	a4,-20(s0)
20014966:	81418793          	addi	a5,gp,-2028 # 80000a84 <__metal_dt_gpio_10012000>
2001496a:	00f71a63          	bne	a4,a5,2001497e <__metal_driver_sifive_gpio0_interrupt_lines+0x2b2>
E:\GitHub\HiFive01-RevB\FS_workspace\002_LED_Blink_All\bsp\build\debug/./metal/machine.h:546 (discriminator 1)
2001496e:	fe842703          	lw	a4,-24(s0)
20014972:	47e5                	li	a5,25
20014974:	00f71563          	bne	a4,a5,2001497e <__metal_driver_sifive_gpio0_interrupt_lines+0x2b2>
E:\GitHub\HiFive01-RevB\FS_workspace\002_LED_Blink_All\bsp\build\debug/./metal/machine.h:547
		return 33;
20014978:	02100793          	li	a5,33
2001497c:	a05d                	j	20014a22 <__metal_driver_sifive_gpio0_interrupt_lines+0x356>
E:\GitHub\HiFive01-RevB\FS_workspace\002_LED_Blink_All\bsp\build\debug/./metal/machine.h:549
	else if ((((uintptr_t)gpio == (uintptr_t)&__metal_dt_gpio_10012000) && (idx == 26))) {
2001497e:	fec42703          	lw	a4,-20(s0)
20014982:	81418793          	addi	a5,gp,-2028 # 80000a84 <__metal_dt_gpio_10012000>
20014986:	00f71a63          	bne	a4,a5,2001499a <__metal_driver_sifive_gpio0_interrupt_lines+0x2ce>
E:\GitHub\HiFive01-RevB\FS_workspace\002_LED_Blink_All\bsp\build\debug/./metal/machine.h:549 (discriminator 1)
2001498a:	fe842703          	lw	a4,-24(s0)
2001498e:	47e9                	li	a5,26
20014990:	00f71563          	bne	a4,a5,2001499a <__metal_driver_sifive_gpio0_interrupt_lines+0x2ce>
E:\GitHub\HiFive01-RevB\FS_workspace\002_LED_Blink_All\bsp\build\debug/./metal/machine.h:550
		return 34;
20014994:	02200793          	li	a5,34
20014998:	a069                	j	20014a22 <__metal_driver_sifive_gpio0_interrupt_lines+0x356>
E:\GitHub\HiFive01-RevB\FS_workspace\002_LED_Blink_All\bsp\build\debug/./metal/machine.h:552
	else if ((((uintptr_t)gpio == (uintptr_t)&__metal_dt_gpio_10012000) && (idx == 27))) {
2001499a:	fec42703          	lw	a4,-20(s0)
2001499e:	81418793          	addi	a5,gp,-2028 # 80000a84 <__metal_dt_gpio_10012000>
200149a2:	00f71a63          	bne	a4,a5,200149b6 <__metal_driver_sifive_gpio0_interrupt_lines+0x2ea>
E:\GitHub\HiFive01-RevB\FS_workspace\002_LED_Blink_All\bsp\build\debug/./metal/machine.h:552 (discriminator 1)
200149a6:	fe842703          	lw	a4,-24(s0)
200149aa:	47ed                	li	a5,27
200149ac:	00f71563          	bne	a4,a5,200149b6 <__metal_driver_sifive_gpio0_interrupt_lines+0x2ea>
E:\GitHub\HiFive01-RevB\FS_workspace\002_LED_Blink_All\bsp\build\debug/./metal/machine.h:553
		return 35;
200149b0:	02300793          	li	a5,35
200149b4:	a0bd                	j	20014a22 <__metal_driver_sifive_gpio0_interrupt_lines+0x356>
E:\GitHub\HiFive01-RevB\FS_workspace\002_LED_Blink_All\bsp\build\debug/./metal/machine.h:555
	else if ((((uintptr_t)gpio == (uintptr_t)&__metal_dt_gpio_10012000) && (idx == 28))) {
200149b6:	fec42703          	lw	a4,-20(s0)
200149ba:	81418793          	addi	a5,gp,-2028 # 80000a84 <__metal_dt_gpio_10012000>
200149be:	00f71a63          	bne	a4,a5,200149d2 <__metal_driver_sifive_gpio0_interrupt_lines+0x306>
E:\GitHub\HiFive01-RevB\FS_workspace\002_LED_Blink_All\bsp\build\debug/./metal/machine.h:555 (discriminator 1)
200149c2:	fe842703          	lw	a4,-24(s0)
200149c6:	47f1                	li	a5,28
200149c8:	00f71563          	bne	a4,a5,200149d2 <__metal_driver_sifive_gpio0_interrupt_lines+0x306>
E:\GitHub\HiFive01-RevB\FS_workspace\002_LED_Blink_All\bsp\build\debug/./metal/machine.h:556
		return 36;
200149cc:	02400793          	li	a5,36
200149d0:	a889                	j	20014a22 <__metal_driver_sifive_gpio0_interrupt_lines+0x356>
E:\GitHub\HiFive01-RevB\FS_workspace\002_LED_Blink_All\bsp\build\debug/./metal/machine.h:558
	else if ((((uintptr_t)gpio == (uintptr_t)&__metal_dt_gpio_10012000) && (idx == 29))) {
200149d2:	fec42703          	lw	a4,-20(s0)
200149d6:	81418793          	addi	a5,gp,-2028 # 80000a84 <__metal_dt_gpio_10012000>
200149da:	00f71963          	bne	a4,a5,200149ec <__metal_driver_sifive_gpio0_interrupt_lines+0x320>
E:\GitHub\HiFive01-RevB\FS_workspace\002_LED_Blink_All\bsp\build\debug/./metal/machine.h:558 (discriminator 1)
200149de:	fe842703          	lw	a4,-24(s0)
200149e2:	47f5                	li	a5,29
200149e4:	00f71463          	bne	a4,a5,200149ec <__metal_driver_sifive_gpio0_interrupt_lines+0x320>
E:\GitHub\HiFive01-RevB\FS_workspace\002_LED_Blink_All\bsp\build\debug/./metal/machine.h:559
		return 27;
200149e8:	47ed                	li	a5,27
200149ea:	a825                	j	20014a22 <__metal_driver_sifive_gpio0_interrupt_lines+0x356>
E:\GitHub\HiFive01-RevB\FS_workspace\002_LED_Blink_All\bsp\build\debug/./metal/machine.h:561
	else if ((((uintptr_t)gpio == (uintptr_t)&__metal_dt_gpio_10012000) && (idx == 30))) {
200149ec:	fec42703          	lw	a4,-20(s0)
200149f0:	81418793          	addi	a5,gp,-2028 # 80000a84 <__metal_dt_gpio_10012000>
200149f4:	00f71963          	bne	a4,a5,20014a06 <__metal_driver_sifive_gpio0_interrupt_lines+0x33a>
E:\GitHub\HiFive01-RevB\FS_workspace\002_LED_Blink_All\bsp\build\debug/./metal/machine.h:561 (discriminator 1)
200149f8:	fe842703          	lw	a4,-24(s0)
200149fc:	47f9                	li	a5,30
200149fe:	00f71463          	bne	a4,a5,20014a06 <__metal_driver_sifive_gpio0_interrupt_lines+0x33a>
E:\GitHub\HiFive01-RevB\FS_workspace\002_LED_Blink_All\bsp\build\debug/./metal/machine.h:562
		return 28;
20014a02:	47f1                	li	a5,28
20014a04:	a839                	j	20014a22 <__metal_driver_sifive_gpio0_interrupt_lines+0x356>
E:\GitHub\HiFive01-RevB\FS_workspace\002_LED_Blink_All\bsp\build\debug/./metal/machine.h:564
	else if ((((uintptr_t)gpio == (uintptr_t)&__metal_dt_gpio_10012000) && (idx == 31))) {
20014a06:	fec42703          	lw	a4,-20(s0)
20014a0a:	81418793          	addi	a5,gp,-2028 # 80000a84 <__metal_dt_gpio_10012000>
20014a0e:	00f71963          	bne	a4,a5,20014a20 <__metal_driver_sifive_gpio0_interrupt_lines+0x354>
E:\GitHub\HiFive01-RevB\FS_workspace\002_LED_Blink_All\bsp\build\debug/./metal/machine.h:564 (discriminator 1)
20014a12:	fe842703          	lw	a4,-24(s0)
20014a16:	47fd                	li	a5,31
20014a18:	00f71463          	bne	a4,a5,20014a20 <__metal_driver_sifive_gpio0_interrupt_lines+0x354>
E:\GitHub\HiFive01-RevB\FS_workspace\002_LED_Blink_All\bsp\build\debug/./metal/machine.h:565
		return 29;
20014a1c:	47f5                	li	a5,29
20014a1e:	a011                	j	20014a22 <__metal_driver_sifive_gpio0_interrupt_lines+0x356>
E:\GitHub\HiFive01-RevB\FS_workspace\002_LED_Blink_All\bsp\build\debug/./metal/machine.h:568
		return 0;
20014a20:	4781                	li	a5,0
E:\GitHub\HiFive01-RevB\FS_workspace\002_LED_Blink_All\bsp\build\debug/./metal/machine.h:570
}
20014a22:	853e                	mv	a0,a5
20014a24:	4472                	lw	s0,28(sp)
20014a26:	6105                	addi	sp,sp,32
20014a28:	8082                	ret

20014a2a <__metal_driver_sifive_gpio0_enable_input>:
__metal_driver_sifive_gpio0_enable_input():
E:/GitHub/HiFive01-RevB/FS_workspace/002_LED_Blink_All/freedom-metal/src/drivers/sifive_gpio0.c:13
#include <metal/drivers/sifive_gpio0.h>
#include <metal/io.h>
#include <metal/machine.h>

int __metal_driver_sifive_gpio0_enable_input(struct metal_gpio *ggpio,
                                             long source) {
20014a2a:	7179                	addi	sp,sp,-48
20014a2c:	d606                	sw	ra,44(sp)
20014a2e:	d422                	sw	s0,40(sp)
20014a30:	1800                	addi	s0,sp,48
20014a32:	fca42e23          	sw	a0,-36(s0)
20014a36:	fcb42c23          	sw	a1,-40(s0)
E:/GitHub/HiFive01-RevB/FS_workspace/002_LED_Blink_All/freedom-metal/src/drivers/sifive_gpio0.c:14
    long base = __metal_driver_sifive_gpio0_base(ggpio);
20014a3a:	fdc42503          	lw	a0,-36(s0)
20014a3e:	c3fff0ef          	jal	ra,2001467c <__metal_driver_sifive_gpio0_base>
20014a42:	87aa                	mv	a5,a0
20014a44:	fef42623          	sw	a5,-20(s0)
E:/GitHub/HiFive01-RevB/FS_workspace/002_LED_Blink_All/freedom-metal/src/drivers/sifive_gpio0.c:17

    __METAL_ACCESS_ONCE(
        (__metal_io_u32 *)(base + METAL_SIFIVE_GPIO0_INPUT_EN)) |= source;
20014a48:	fec42783          	lw	a5,-20(s0)
20014a4c:	0791                	addi	a5,a5,4
20014a4e:	4398                	lw	a4,0(a5)
20014a50:	fd842783          	lw	a5,-40(s0)
20014a54:	fec42683          	lw	a3,-20(s0)
20014a58:	0691                	addi	a3,a3,4
20014a5a:	8fd9                	or	a5,a5,a4
20014a5c:	c29c                	sw	a5,0(a3)
E:/GitHub/HiFive01-RevB/FS_workspace/002_LED_Blink_All/freedom-metal/src/drivers/sifive_gpio0.c:19

    return 0;
20014a5e:	4781                	li	a5,0
E:/GitHub/HiFive01-RevB/FS_workspace/002_LED_Blink_All/freedom-metal/src/drivers/sifive_gpio0.c:20
}
20014a60:	853e                	mv	a0,a5
20014a62:	50b2                	lw	ra,44(sp)
20014a64:	5422                	lw	s0,40(sp)
20014a66:	6145                	addi	sp,sp,48
20014a68:	8082                	ret

20014a6a <__metal_driver_sifive_gpio0_disable_input>:
__metal_driver_sifive_gpio0_disable_input():
E:/GitHub/HiFive01-RevB/FS_workspace/002_LED_Blink_All/freedom-metal/src/drivers/sifive_gpio0.c:23

int __metal_driver_sifive_gpio0_disable_input(struct metal_gpio *ggpio,
                                              long source) {
20014a6a:	7179                	addi	sp,sp,-48
20014a6c:	d606                	sw	ra,44(sp)
20014a6e:	d422                	sw	s0,40(sp)
20014a70:	1800                	addi	s0,sp,48
20014a72:	fca42e23          	sw	a0,-36(s0)
20014a76:	fcb42c23          	sw	a1,-40(s0)
E:/GitHub/HiFive01-RevB/FS_workspace/002_LED_Blink_All/freedom-metal/src/drivers/sifive_gpio0.c:24
    long base = __metal_driver_sifive_gpio0_base(ggpio);
20014a7a:	fdc42503          	lw	a0,-36(s0)
20014a7e:	bffff0ef          	jal	ra,2001467c <__metal_driver_sifive_gpio0_base>
20014a82:	87aa                	mv	a5,a0
20014a84:	fef42623          	sw	a5,-20(s0)
E:/GitHub/HiFive01-RevB/FS_workspace/002_LED_Blink_All/freedom-metal/src/drivers/sifive_gpio0.c:27

    __METAL_ACCESS_ONCE(
        (__metal_io_u32 *)(base + METAL_SIFIVE_GPIO0_INPUT_EN)) &= ~source;
20014a88:	fec42783          	lw	a5,-20(s0)
20014a8c:	0791                	addi	a5,a5,4
20014a8e:	439c                	lw	a5,0(a5)
20014a90:	fd842703          	lw	a4,-40(s0)
20014a94:	fff74713          	not	a4,a4
20014a98:	86ba                	mv	a3,a4
20014a9a:	fec42703          	lw	a4,-20(s0)
20014a9e:	0711                	addi	a4,a4,4
20014aa0:	8ff5                	and	a5,a5,a3
20014aa2:	c31c                	sw	a5,0(a4)
E:/GitHub/HiFive01-RevB/FS_workspace/002_LED_Blink_All/freedom-metal/src/drivers/sifive_gpio0.c:29

    return 0;
20014aa4:	4781                	li	a5,0
E:/GitHub/HiFive01-RevB/FS_workspace/002_LED_Blink_All/freedom-metal/src/drivers/sifive_gpio0.c:30
}
20014aa6:	853e                	mv	a0,a5
20014aa8:	50b2                	lw	ra,44(sp)
20014aaa:	5422                	lw	s0,40(sp)
20014aac:	6145                	addi	sp,sp,48
20014aae:	8082                	ret

20014ab0 <__metal_driver_sifive_gpio0_input>:
__metal_driver_sifive_gpio0_input():
E:/GitHub/HiFive01-RevB/FS_workspace/002_LED_Blink_All/freedom-metal/src/drivers/sifive_gpio0.c:32

long __metal_driver_sifive_gpio0_input(struct metal_gpio *ggpio) {
20014ab0:	7179                	addi	sp,sp,-48
20014ab2:	d606                	sw	ra,44(sp)
20014ab4:	d422                	sw	s0,40(sp)
20014ab6:	1800                	addi	s0,sp,48
20014ab8:	fca42e23          	sw	a0,-36(s0)
E:/GitHub/HiFive01-RevB/FS_workspace/002_LED_Blink_All/freedom-metal/src/drivers/sifive_gpio0.c:33
    long base = __metal_driver_sifive_gpio0_base(ggpio);
20014abc:	fdc42503          	lw	a0,-36(s0)
20014ac0:	bbdff0ef          	jal	ra,2001467c <__metal_driver_sifive_gpio0_base>
20014ac4:	87aa                	mv	a5,a0
20014ac6:	fef42623          	sw	a5,-20(s0)
E:/GitHub/HiFive01-RevB/FS_workspace/002_LED_Blink_All/freedom-metal/src/drivers/sifive_gpio0.c:35

    return __METAL_ACCESS_ONCE(
20014aca:	fec42783          	lw	a5,-20(s0)
20014ace:	439c                	lw	a5,0(a5)
E:/GitHub/HiFive01-RevB/FS_workspace/002_LED_Blink_All/freedom-metal/src/drivers/sifive_gpio0.c:37
        (__metal_io_u32 *)(base + METAL_SIFIVE_GPIO0_VALUE));
}
20014ad0:	853e                	mv	a0,a5
20014ad2:	50b2                	lw	ra,44(sp)
20014ad4:	5422                	lw	s0,40(sp)
20014ad6:	6145                	addi	sp,sp,48
20014ad8:	8082                	ret

20014ada <__metal_driver_sifive_gpio0_output>:
__metal_driver_sifive_gpio0_output():
E:/GitHub/HiFive01-RevB/FS_workspace/002_LED_Blink_All/freedom-metal/src/drivers/sifive_gpio0.c:39

long __metal_driver_sifive_gpio0_output(struct metal_gpio *ggpio) {
20014ada:	7179                	addi	sp,sp,-48
20014adc:	d606                	sw	ra,44(sp)
20014ade:	d422                	sw	s0,40(sp)
20014ae0:	1800                	addi	s0,sp,48
20014ae2:	fca42e23          	sw	a0,-36(s0)
E:/GitHub/HiFive01-RevB/FS_workspace/002_LED_Blink_All/freedom-metal/src/drivers/sifive_gpio0.c:40
    long base = __metal_driver_sifive_gpio0_base(ggpio);
20014ae6:	fdc42503          	lw	a0,-36(s0)
20014aea:	b93ff0ef          	jal	ra,2001467c <__metal_driver_sifive_gpio0_base>
20014aee:	87aa                	mv	a5,a0
20014af0:	fef42623          	sw	a5,-20(s0)
E:/GitHub/HiFive01-RevB/FS_workspace/002_LED_Blink_All/freedom-metal/src/drivers/sifive_gpio0.c:42

    return __METAL_ACCESS_ONCE(
20014af4:	fec42783          	lw	a5,-20(s0)
20014af8:	07b1                	addi	a5,a5,12
20014afa:	439c                	lw	a5,0(a5)
E:/GitHub/HiFive01-RevB/FS_workspace/002_LED_Blink_All/freedom-metal/src/drivers/sifive_gpio0.c:44
        (__metal_io_u32 *)(base + METAL_SIFIVE_GPIO0_PORT));
}
20014afc:	853e                	mv	a0,a5
20014afe:	50b2                	lw	ra,44(sp)
20014b00:	5422                	lw	s0,40(sp)
20014b02:	6145                	addi	sp,sp,48
20014b04:	8082                	ret

20014b06 <__metal_driver_sifive_gpio0_disable_output>:
__metal_driver_sifive_gpio0_disable_output():
E:/GitHub/HiFive01-RevB/FS_workspace/002_LED_Blink_All/freedom-metal/src/drivers/sifive_gpio0.c:47

int __metal_driver_sifive_gpio0_disable_output(struct metal_gpio *ggpio,
                                               long source) {
20014b06:	7179                	addi	sp,sp,-48
20014b08:	d606                	sw	ra,44(sp)
20014b0a:	d422                	sw	s0,40(sp)
20014b0c:	1800                	addi	s0,sp,48
20014b0e:	fca42e23          	sw	a0,-36(s0)
20014b12:	fcb42c23          	sw	a1,-40(s0)
E:/GitHub/HiFive01-RevB/FS_workspace/002_LED_Blink_All/freedom-metal/src/drivers/sifive_gpio0.c:48
    long base = __metal_driver_sifive_gpio0_base(ggpio);
20014b16:	fdc42503          	lw	a0,-36(s0)
20014b1a:	b63ff0ef          	jal	ra,2001467c <__metal_driver_sifive_gpio0_base>
20014b1e:	87aa                	mv	a5,a0
20014b20:	fef42623          	sw	a5,-20(s0)
E:/GitHub/HiFive01-RevB/FS_workspace/002_LED_Blink_All/freedom-metal/src/drivers/sifive_gpio0.c:51

    __METAL_ACCESS_ONCE(
        (__metal_io_u32 *)(base + METAL_SIFIVE_GPIO0_OUTPUT_EN)) &= ~source;
20014b24:	fec42783          	lw	a5,-20(s0)
20014b28:	07a1                	addi	a5,a5,8
20014b2a:	439c                	lw	a5,0(a5)
20014b2c:	fd842703          	lw	a4,-40(s0)
20014b30:	fff74713          	not	a4,a4
20014b34:	86ba                	mv	a3,a4
20014b36:	fec42703          	lw	a4,-20(s0)
20014b3a:	0721                	addi	a4,a4,8
20014b3c:	8ff5                	and	a5,a5,a3
20014b3e:	c31c                	sw	a5,0(a4)
E:/GitHub/HiFive01-RevB/FS_workspace/002_LED_Blink_All/freedom-metal/src/drivers/sifive_gpio0.c:53

    return 0;
20014b40:	4781                	li	a5,0
E:/GitHub/HiFive01-RevB/FS_workspace/002_LED_Blink_All/freedom-metal/src/drivers/sifive_gpio0.c:54
}
20014b42:	853e                	mv	a0,a5
20014b44:	50b2                	lw	ra,44(sp)
20014b46:	5422                	lw	s0,40(sp)
20014b48:	6145                	addi	sp,sp,48
20014b4a:	8082                	ret

20014b4c <__metal_driver_sifive_gpio0_enable_output>:
__metal_driver_sifive_gpio0_enable_output():
E:/GitHub/HiFive01-RevB/FS_workspace/002_LED_Blink_All/freedom-metal/src/drivers/sifive_gpio0.c:57

int __metal_driver_sifive_gpio0_enable_output(struct metal_gpio *ggpio,
                                              long source) {
20014b4c:	7179                	addi	sp,sp,-48
20014b4e:	d606                	sw	ra,44(sp)
20014b50:	d422                	sw	s0,40(sp)
20014b52:	1800                	addi	s0,sp,48
20014b54:	fca42e23          	sw	a0,-36(s0)
20014b58:	fcb42c23          	sw	a1,-40(s0)
E:/GitHub/HiFive01-RevB/FS_workspace/002_LED_Blink_All/freedom-metal/src/drivers/sifive_gpio0.c:58
    long base = __metal_driver_sifive_gpio0_base(ggpio);
20014b5c:	fdc42503          	lw	a0,-36(s0)
20014b60:	b1dff0ef          	jal	ra,2001467c <__metal_driver_sifive_gpio0_base>
20014b64:	87aa                	mv	a5,a0
20014b66:	fef42623          	sw	a5,-20(s0)
E:/GitHub/HiFive01-RevB/FS_workspace/002_LED_Blink_All/freedom-metal/src/drivers/sifive_gpio0.c:61

    __METAL_ACCESS_ONCE(
        (__metal_io_u32 *)(base + METAL_SIFIVE_GPIO0_OUTPUT_EN)) |= source;
20014b6a:	fec42783          	lw	a5,-20(s0)
20014b6e:	07a1                	addi	a5,a5,8
20014b70:	4398                	lw	a4,0(a5)
20014b72:	fd842783          	lw	a5,-40(s0)
20014b76:	fec42683          	lw	a3,-20(s0)
20014b7a:	06a1                	addi	a3,a3,8
20014b7c:	8fd9                	or	a5,a5,a4
20014b7e:	c29c                	sw	a5,0(a3)
E:/GitHub/HiFive01-RevB/FS_workspace/002_LED_Blink_All/freedom-metal/src/drivers/sifive_gpio0.c:63

    return 0;
20014b80:	4781                	li	a5,0
E:/GitHub/HiFive01-RevB/FS_workspace/002_LED_Blink_All/freedom-metal/src/drivers/sifive_gpio0.c:64
}
20014b82:	853e                	mv	a0,a5
20014b84:	50b2                	lw	ra,44(sp)
20014b86:	5422                	lw	s0,40(sp)
20014b88:	6145                	addi	sp,sp,48
20014b8a:	8082                	ret

20014b8c <__metal_driver_sifive_gpio0_output_set>:
__metal_driver_sifive_gpio0_output_set():
E:/GitHub/HiFive01-RevB/FS_workspace/002_LED_Blink_All/freedom-metal/src/drivers/sifive_gpio0.c:67

int __metal_driver_sifive_gpio0_output_set(struct metal_gpio *ggpio,
                                           long value) {
20014b8c:	7179                	addi	sp,sp,-48
20014b8e:	d606                	sw	ra,44(sp)
20014b90:	d422                	sw	s0,40(sp)
20014b92:	1800                	addi	s0,sp,48
20014b94:	fca42e23          	sw	a0,-36(s0)
20014b98:	fcb42c23          	sw	a1,-40(s0)
E:/GitHub/HiFive01-RevB/FS_workspace/002_LED_Blink_All/freedom-metal/src/drivers/sifive_gpio0.c:68
    long base = __metal_driver_sifive_gpio0_base(ggpio);
20014b9c:	fdc42503          	lw	a0,-36(s0)
20014ba0:	addff0ef          	jal	ra,2001467c <__metal_driver_sifive_gpio0_base>
20014ba4:	87aa                	mv	a5,a0
20014ba6:	fef42623          	sw	a5,-20(s0)
E:/GitHub/HiFive01-RevB/FS_workspace/002_LED_Blink_All/freedom-metal/src/drivers/sifive_gpio0.c:70

    __METAL_ACCESS_ONCE((__metal_io_u32 *)(base + METAL_SIFIVE_GPIO0_PORT)) |=
20014baa:	fec42783          	lw	a5,-20(s0)
20014bae:	07b1                	addi	a5,a5,12
20014bb0:	4398                	lw	a4,0(a5)
20014bb2:	fd842783          	lw	a5,-40(s0)
20014bb6:	fec42683          	lw	a3,-20(s0)
20014bba:	06b1                	addi	a3,a3,12
20014bbc:	8fd9                	or	a5,a5,a4
20014bbe:	c29c                	sw	a5,0(a3)
E:/GitHub/HiFive01-RevB/FS_workspace/002_LED_Blink_All/freedom-metal/src/drivers/sifive_gpio0.c:73
        value;

    return 0;
20014bc0:	4781                	li	a5,0
E:/GitHub/HiFive01-RevB/FS_workspace/002_LED_Blink_All/freedom-metal/src/drivers/sifive_gpio0.c:74
}
20014bc2:	853e                	mv	a0,a5
20014bc4:	50b2                	lw	ra,44(sp)
20014bc6:	5422                	lw	s0,40(sp)
20014bc8:	6145                	addi	sp,sp,48
20014bca:	8082                	ret

20014bcc <__metal_driver_sifive_gpio0_output_clear>:
__metal_driver_sifive_gpio0_output_clear():
E:/GitHub/HiFive01-RevB/FS_workspace/002_LED_Blink_All/freedom-metal/src/drivers/sifive_gpio0.c:77

int __metal_driver_sifive_gpio0_output_clear(struct metal_gpio *ggpio,
                                             long value) {
20014bcc:	7179                	addi	sp,sp,-48
20014bce:	d606                	sw	ra,44(sp)
20014bd0:	d422                	sw	s0,40(sp)
20014bd2:	1800                	addi	s0,sp,48
20014bd4:	fca42e23          	sw	a0,-36(s0)
20014bd8:	fcb42c23          	sw	a1,-40(s0)
E:/GitHub/HiFive01-RevB/FS_workspace/002_LED_Blink_All/freedom-metal/src/drivers/sifive_gpio0.c:78
    long base = __metal_driver_sifive_gpio0_base(ggpio);
20014bdc:	fdc42503          	lw	a0,-36(s0)
20014be0:	a9dff0ef          	jal	ra,2001467c <__metal_driver_sifive_gpio0_base>
20014be4:	87aa                	mv	a5,a0
20014be6:	fef42623          	sw	a5,-20(s0)
E:/GitHub/HiFive01-RevB/FS_workspace/002_LED_Blink_All/freedom-metal/src/drivers/sifive_gpio0.c:80

    __METAL_ACCESS_ONCE((__metal_io_u32 *)(base + METAL_SIFIVE_GPIO0_PORT)) &=
20014bea:	fec42783          	lw	a5,-20(s0)
20014bee:	07b1                	addi	a5,a5,12
20014bf0:	439c                	lw	a5,0(a5)
E:/GitHub/HiFive01-RevB/FS_workspace/002_LED_Blink_All/freedom-metal/src/drivers/sifive_gpio0.c:81
        ~value;
20014bf2:	fd842703          	lw	a4,-40(s0)
20014bf6:	fff74713          	not	a4,a4
20014bfa:	86ba                	mv	a3,a4
E:/GitHub/HiFive01-RevB/FS_workspace/002_LED_Blink_All/freedom-metal/src/drivers/sifive_gpio0.c:80
    __METAL_ACCESS_ONCE((__metal_io_u32 *)(base + METAL_SIFIVE_GPIO0_PORT)) &=
20014bfc:	fec42703          	lw	a4,-20(s0)
20014c00:	0731                	addi	a4,a4,12
20014c02:	8ff5                	and	a5,a5,a3
20014c04:	c31c                	sw	a5,0(a4)
E:/GitHub/HiFive01-RevB/FS_workspace/002_LED_Blink_All/freedom-metal/src/drivers/sifive_gpio0.c:83

    return 0;
20014c06:	4781                	li	a5,0
E:/GitHub/HiFive01-RevB/FS_workspace/002_LED_Blink_All/freedom-metal/src/drivers/sifive_gpio0.c:84
}
20014c08:	853e                	mv	a0,a5
20014c0a:	50b2                	lw	ra,44(sp)
20014c0c:	5422                	lw	s0,40(sp)
20014c0e:	6145                	addi	sp,sp,48
20014c10:	8082                	ret

20014c12 <__metal_driver_sifive_gpio0_output_toggle>:
__metal_driver_sifive_gpio0_output_toggle():
E:/GitHub/HiFive01-RevB/FS_workspace/002_LED_Blink_All/freedom-metal/src/drivers/sifive_gpio0.c:87

int __metal_driver_sifive_gpio0_output_toggle(struct metal_gpio *ggpio,
                                              long value) {
20014c12:	7179                	addi	sp,sp,-48
20014c14:	d606                	sw	ra,44(sp)
20014c16:	d422                	sw	s0,40(sp)
20014c18:	1800                	addi	s0,sp,48
20014c1a:	fca42e23          	sw	a0,-36(s0)
20014c1e:	fcb42c23          	sw	a1,-40(s0)
E:/GitHub/HiFive01-RevB/FS_workspace/002_LED_Blink_All/freedom-metal/src/drivers/sifive_gpio0.c:88
    long base = __metal_driver_sifive_gpio0_base(ggpio);
20014c22:	fdc42503          	lw	a0,-36(s0)
20014c26:	a57ff0ef          	jal	ra,2001467c <__metal_driver_sifive_gpio0_base>
20014c2a:	87aa                	mv	a5,a0
20014c2c:	fef42623          	sw	a5,-20(s0)
E:/GitHub/HiFive01-RevB/FS_workspace/002_LED_Blink_All/freedom-metal/src/drivers/sifive_gpio0.c:91

    __METAL_ACCESS_ONCE((__metal_io_u32 *)(base + METAL_SIFIVE_GPIO0_PORT)) =
        __METAL_ACCESS_ONCE(
20014c30:	fec42783          	lw	a5,-20(s0)
20014c34:	07b1                	addi	a5,a5,12
20014c36:	4398                	lw	a4,0(a5)
E:/GitHub/HiFive01-RevB/FS_workspace/002_LED_Blink_All/freedom-metal/src/drivers/sifive_gpio0.c:92
            (__metal_io_u32 *)(base + METAL_SIFIVE_GPIO0_PORT)) ^
20014c38:	fd842783          	lw	a5,-40(s0)
E:/GitHub/HiFive01-RevB/FS_workspace/002_LED_Blink_All/freedom-metal/src/drivers/sifive_gpio0.c:90
    __METAL_ACCESS_ONCE((__metal_io_u32 *)(base + METAL_SIFIVE_GPIO0_PORT)) =
20014c3c:	fec42683          	lw	a3,-20(s0)
20014c40:	06b1                	addi	a3,a3,12
E:/GitHub/HiFive01-RevB/FS_workspace/002_LED_Blink_All/freedom-metal/src/drivers/sifive_gpio0.c:92
            (__metal_io_u32 *)(base + METAL_SIFIVE_GPIO0_PORT)) ^
20014c42:	8fb9                	xor	a5,a5,a4
E:/GitHub/HiFive01-RevB/FS_workspace/002_LED_Blink_All/freedom-metal/src/drivers/sifive_gpio0.c:90
    __METAL_ACCESS_ONCE((__metal_io_u32 *)(base + METAL_SIFIVE_GPIO0_PORT)) =
20014c44:	c29c                	sw	a5,0(a3)
E:/GitHub/HiFive01-RevB/FS_workspace/002_LED_Blink_All/freedom-metal/src/drivers/sifive_gpio0.c:95
        value;

    return 0;
20014c46:	4781                	li	a5,0
E:/GitHub/HiFive01-RevB/FS_workspace/002_LED_Blink_All/freedom-metal/src/drivers/sifive_gpio0.c:96
}
20014c48:	853e                	mv	a0,a5
20014c4a:	50b2                	lw	ra,44(sp)
20014c4c:	5422                	lw	s0,40(sp)
20014c4e:	6145                	addi	sp,sp,48
20014c50:	8082                	ret

20014c52 <__metal_driver_sifive_gpio0_enable_io>:
__metal_driver_sifive_gpio0_enable_io():
E:/GitHub/HiFive01-RevB/FS_workspace/002_LED_Blink_All/freedom-metal/src/drivers/sifive_gpio0.c:99

int __metal_driver_sifive_gpio0_enable_io(struct metal_gpio *ggpio, long source,
                                          long dest) {
20014c52:	7179                	addi	sp,sp,-48
20014c54:	d606                	sw	ra,44(sp)
20014c56:	d422                	sw	s0,40(sp)
20014c58:	1800                	addi	s0,sp,48
20014c5a:	fca42e23          	sw	a0,-36(s0)
20014c5e:	fcb42c23          	sw	a1,-40(s0)
20014c62:	fcc42a23          	sw	a2,-44(s0)
E:/GitHub/HiFive01-RevB/FS_workspace/002_LED_Blink_All/freedom-metal/src/drivers/sifive_gpio0.c:100
    long base = __metal_driver_sifive_gpio0_base(ggpio);
20014c66:	fdc42503          	lw	a0,-36(s0)
20014c6a:	a13ff0ef          	jal	ra,2001467c <__metal_driver_sifive_gpio0_base>
20014c6e:	87aa                	mv	a5,a0
20014c70:	fef42623          	sw	a5,-20(s0)
E:/GitHub/HiFive01-RevB/FS_workspace/002_LED_Blink_All/freedom-metal/src/drivers/sifive_gpio0.c:103

    __METAL_ACCESS_ONCE(
        (__metal_io_u32 *)(base + METAL_SIFIVE_GPIO0_IOF_SEL)) |= source;
20014c74:	fec42783          	lw	a5,-20(s0)
20014c78:	03c78793          	addi	a5,a5,60
20014c7c:	4398                	lw	a4,0(a5)
20014c7e:	fd842783          	lw	a5,-40(s0)
20014c82:	fec42683          	lw	a3,-20(s0)
20014c86:	03c68693          	addi	a3,a3,60
20014c8a:	8fd9                	or	a5,a5,a4
20014c8c:	c29c                	sw	a5,0(a3)
E:/GitHub/HiFive01-RevB/FS_workspace/002_LED_Blink_All/freedom-metal/src/drivers/sifive_gpio0.c:104
    __METAL_ACCESS_ONCE((__metal_io_u32 *)(base + METAL_SIFIVE_GPIO0_IOF_EN)) |=
20014c8e:	fec42783          	lw	a5,-20(s0)
20014c92:	03878793          	addi	a5,a5,56
20014c96:	4398                	lw	a4,0(a5)
20014c98:	fd442783          	lw	a5,-44(s0)
20014c9c:	fec42683          	lw	a3,-20(s0)
20014ca0:	03868693          	addi	a3,a3,56
20014ca4:	8fd9                	or	a5,a5,a4
20014ca6:	c29c                	sw	a5,0(a3)
E:/GitHub/HiFive01-RevB/FS_workspace/002_LED_Blink_All/freedom-metal/src/drivers/sifive_gpio0.c:107
        dest;

    return 0;
20014ca8:	4781                	li	a5,0
E:/GitHub/HiFive01-RevB/FS_workspace/002_LED_Blink_All/freedom-metal/src/drivers/sifive_gpio0.c:108
}
20014caa:	853e                	mv	a0,a5
20014cac:	50b2                	lw	ra,44(sp)
20014cae:	5422                	lw	s0,40(sp)
20014cb0:	6145                	addi	sp,sp,48
20014cb2:	8082                	ret

20014cb4 <__metal_driver_sifive_gpio0_disable_io>:
__metal_driver_sifive_gpio0_disable_io():
E:/GitHub/HiFive01-RevB/FS_workspace/002_LED_Blink_All/freedom-metal/src/drivers/sifive_gpio0.c:111

int __metal_driver_sifive_gpio0_disable_io(struct metal_gpio *ggpio,
                                           long source) {
20014cb4:	7179                	addi	sp,sp,-48
20014cb6:	d606                	sw	ra,44(sp)
20014cb8:	d422                	sw	s0,40(sp)
20014cba:	1800                	addi	s0,sp,48
20014cbc:	fca42e23          	sw	a0,-36(s0)
20014cc0:	fcb42c23          	sw	a1,-40(s0)
E:/GitHub/HiFive01-RevB/FS_workspace/002_LED_Blink_All/freedom-metal/src/drivers/sifive_gpio0.c:112
    long base = __metal_driver_sifive_gpio0_base(ggpio);
20014cc4:	fdc42503          	lw	a0,-36(s0)
20014cc8:	9b5ff0ef          	jal	ra,2001467c <__metal_driver_sifive_gpio0_base>
20014ccc:	87aa                	mv	a5,a0
20014cce:	fef42623          	sw	a5,-20(s0)
E:/GitHub/HiFive01-RevB/FS_workspace/002_LED_Blink_All/freedom-metal/src/drivers/sifive_gpio0.c:114

    __METAL_ACCESS_ONCE((__metal_io_u32 *)(base + METAL_SIFIVE_GPIO0_IOF_EN)) &=
20014cd2:	fec42783          	lw	a5,-20(s0)
20014cd6:	03878793          	addi	a5,a5,56
20014cda:	439c                	lw	a5,0(a5)
E:/GitHub/HiFive01-RevB/FS_workspace/002_LED_Blink_All/freedom-metal/src/drivers/sifive_gpio0.c:115
        ~source;
20014cdc:	fd842703          	lw	a4,-40(s0)
20014ce0:	fff74713          	not	a4,a4
20014ce4:	86ba                	mv	a3,a4
E:/GitHub/HiFive01-RevB/FS_workspace/002_LED_Blink_All/freedom-metal/src/drivers/sifive_gpio0.c:114
    __METAL_ACCESS_ONCE((__metal_io_u32 *)(base + METAL_SIFIVE_GPIO0_IOF_EN)) &=
20014ce6:	fec42703          	lw	a4,-20(s0)
20014cea:	03870713          	addi	a4,a4,56
20014cee:	8ff5                	and	a5,a5,a3
20014cf0:	c31c                	sw	a5,0(a4)
E:/GitHub/HiFive01-RevB/FS_workspace/002_LED_Blink_All/freedom-metal/src/drivers/sifive_gpio0.c:117

    return 0;
20014cf2:	4781                	li	a5,0
E:/GitHub/HiFive01-RevB/FS_workspace/002_LED_Blink_All/freedom-metal/src/drivers/sifive_gpio0.c:118
}
20014cf4:	853e                	mv	a0,a5
20014cf6:	50b2                	lw	ra,44(sp)
20014cf8:	5422                	lw	s0,40(sp)
20014cfa:	6145                	addi	sp,sp,48
20014cfc:	8082                	ret

20014cfe <__metal_driver_sifive_gpio0_config_int>:
__metal_driver_sifive_gpio0_config_int():
E:/GitHub/HiFive01-RevB/FS_workspace/002_LED_Blink_All/freedom-metal/src/drivers/sifive_gpio0.c:121

int __metal_driver_sifive_gpio0_config_int(struct metal_gpio *ggpio,
                                           long source, int intr_type) {
20014cfe:	7179                	addi	sp,sp,-48
20014d00:	d606                	sw	ra,44(sp)
20014d02:	d422                	sw	s0,40(sp)
20014d04:	1800                	addi	s0,sp,48
20014d06:	fca42e23          	sw	a0,-36(s0)
20014d0a:	fcb42c23          	sw	a1,-40(s0)
20014d0e:	fcc42a23          	sw	a2,-44(s0)
E:/GitHub/HiFive01-RevB/FS_workspace/002_LED_Blink_All/freedom-metal/src/drivers/sifive_gpio0.c:122
    long base = __metal_driver_sifive_gpio0_base(ggpio);
20014d12:	fdc42503          	lw	a0,-36(s0)
20014d16:	967ff0ef          	jal	ra,2001467c <__metal_driver_sifive_gpio0_base>
20014d1a:	87aa                	mv	a5,a0
20014d1c:	fef42623          	sw	a5,-20(s0)
20014d20:	fd442703          	lw	a4,-44(s0)
20014d24:	479d                	li	a5,7
20014d26:	1ce7e963          	bltu	a5,a4,20014ef8 <__metal_driver_sifive_gpio0_config_int+0x1fa>
20014d2a:	fd442783          	lw	a5,-44(s0)
20014d2e:	00279713          	slli	a4,a5,0x2
20014d32:	200117b7          	lui	a5,0x20011
20014d36:	e0878793          	addi	a5,a5,-504 # 20010e08 <__metal_driver_vtable_sifive_led+0x14>
20014d3a:	97ba                	add	a5,a5,a4
20014d3c:	439c                	lw	a5,0(a5)
20014d3e:	8782                	jr	a5
E:/GitHub/HiFive01-RevB/FS_workspace/002_LED_Blink_All/freedom-metal/src/drivers/sifive_gpio0.c:127

    switch (intr_type) {
    case METAL_GPIO_INT_DISABLE:
        __METAL_ACCESS_ONCE(
            (__metal_io_u32 *)(base + METAL_SIFIVE_GPIO0_RISE_IE)) &= ~source;
20014d40:	fec42783          	lw	a5,-20(s0)
20014d44:	07e1                	addi	a5,a5,24
20014d46:	439c                	lw	a5,0(a5)
20014d48:	fd842703          	lw	a4,-40(s0)
20014d4c:	fff74713          	not	a4,a4
20014d50:	86ba                	mv	a3,a4
20014d52:	fec42703          	lw	a4,-20(s0)
20014d56:	0761                	addi	a4,a4,24
20014d58:	8ff5                	and	a5,a5,a3
20014d5a:	c31c                	sw	a5,0(a4)
E:/GitHub/HiFive01-RevB/FS_workspace/002_LED_Blink_All/freedom-metal/src/drivers/sifive_gpio0.c:129
        __METAL_ACCESS_ONCE(
            (__metal_io_u32 *)(base + METAL_SIFIVE_GPIO0_FALL_IE)) &= ~source;
20014d5c:	fec42783          	lw	a5,-20(s0)
20014d60:	02078793          	addi	a5,a5,32
20014d64:	439c                	lw	a5,0(a5)
20014d66:	fd842703          	lw	a4,-40(s0)
20014d6a:	fff74713          	not	a4,a4
20014d6e:	86ba                	mv	a3,a4
20014d70:	fec42703          	lw	a4,-20(s0)
20014d74:	02070713          	addi	a4,a4,32
20014d78:	8ff5                	and	a5,a5,a3
20014d7a:	c31c                	sw	a5,0(a4)
E:/GitHub/HiFive01-RevB/FS_workspace/002_LED_Blink_All/freedom-metal/src/drivers/sifive_gpio0.c:131
        __METAL_ACCESS_ONCE(
            (__metal_io_u32 *)(base + METAL_SIFIVE_GPIO0_HIGH_IE)) &= ~source;
20014d7c:	fec42783          	lw	a5,-20(s0)
20014d80:	02878793          	addi	a5,a5,40
20014d84:	439c                	lw	a5,0(a5)
20014d86:	fd842703          	lw	a4,-40(s0)
20014d8a:	fff74713          	not	a4,a4
20014d8e:	86ba                	mv	a3,a4
20014d90:	fec42703          	lw	a4,-20(s0)
20014d94:	02870713          	addi	a4,a4,40
20014d98:	8ff5                	and	a5,a5,a3
20014d9a:	c31c                	sw	a5,0(a4)
E:/GitHub/HiFive01-RevB/FS_workspace/002_LED_Blink_All/freedom-metal/src/drivers/sifive_gpio0.c:133
        __METAL_ACCESS_ONCE(
            (__metal_io_u32 *)(base + METAL_SIFIVE_GPIO0_LOW_IE)) &= ~source;
20014d9c:	fec42783          	lw	a5,-20(s0)
20014da0:	03078793          	addi	a5,a5,48
20014da4:	439c                	lw	a5,0(a5)
20014da6:	fd842703          	lw	a4,-40(s0)
20014daa:	fff74713          	not	a4,a4
20014dae:	86ba                	mv	a3,a4
20014db0:	fec42703          	lw	a4,-20(s0)
20014db4:	03070713          	addi	a4,a4,48
20014db8:	8ff5                	and	a5,a5,a3
20014dba:	c31c                	sw	a5,0(a4)
E:/GitHub/HiFive01-RevB/FS_workspace/002_LED_Blink_All/freedom-metal/src/drivers/sifive_gpio0.c:134
        break;
20014dbc:	aa35                	j	20014ef8 <__metal_driver_sifive_gpio0_config_int+0x1fa>
E:/GitHub/HiFive01-RevB/FS_workspace/002_LED_Blink_All/freedom-metal/src/drivers/sifive_gpio0.c:137
    case METAL_GPIO_INT_RISING:
        __METAL_ACCESS_ONCE(
            (__metal_io_u32 *)(base + METAL_SIFIVE_GPIO0_RISE_IE)) |= source;
20014dbe:	fec42783          	lw	a5,-20(s0)
20014dc2:	07e1                	addi	a5,a5,24
20014dc4:	4398                	lw	a4,0(a5)
20014dc6:	fd842783          	lw	a5,-40(s0)
20014dca:	fec42683          	lw	a3,-20(s0)
20014dce:	06e1                	addi	a3,a3,24
20014dd0:	8fd9                	or	a5,a5,a4
20014dd2:	c29c                	sw	a5,0(a3)
E:/GitHub/HiFive01-RevB/FS_workspace/002_LED_Blink_All/freedom-metal/src/drivers/sifive_gpio0.c:138
        break;
20014dd4:	a215                	j	20014ef8 <__metal_driver_sifive_gpio0_config_int+0x1fa>
E:/GitHub/HiFive01-RevB/FS_workspace/002_LED_Blink_All/freedom-metal/src/drivers/sifive_gpio0.c:141
    case METAL_GPIO_INT_FALLING:
        __METAL_ACCESS_ONCE(
            (__metal_io_u32 *)(base + METAL_SIFIVE_GPIO0_FALL_IE)) |= source;
20014dd6:	fec42783          	lw	a5,-20(s0)
20014dda:	02078793          	addi	a5,a5,32
20014dde:	4398                	lw	a4,0(a5)
20014de0:	fd842783          	lw	a5,-40(s0)
20014de4:	fec42683          	lw	a3,-20(s0)
20014de8:	02068693          	addi	a3,a3,32
20014dec:	8fd9                	or	a5,a5,a4
20014dee:	c29c                	sw	a5,0(a3)
E:/GitHub/HiFive01-RevB/FS_workspace/002_LED_Blink_All/freedom-metal/src/drivers/sifive_gpio0.c:142
        break;
20014df0:	a221                	j	20014ef8 <__metal_driver_sifive_gpio0_config_int+0x1fa>
E:/GitHub/HiFive01-RevB/FS_workspace/002_LED_Blink_All/freedom-metal/src/drivers/sifive_gpio0.c:145
    case METAL_GPIO_INT_BOTH_EDGE:
        __METAL_ACCESS_ONCE(
            (__metal_io_u32 *)(base + METAL_SIFIVE_GPIO0_RISE_IE)) |= source;
20014df2:	fec42783          	lw	a5,-20(s0)
20014df6:	07e1                	addi	a5,a5,24
20014df8:	4398                	lw	a4,0(a5)
20014dfa:	fd842783          	lw	a5,-40(s0)
20014dfe:	fec42683          	lw	a3,-20(s0)
20014e02:	06e1                	addi	a3,a3,24
20014e04:	8fd9                	or	a5,a5,a4
20014e06:	c29c                	sw	a5,0(a3)
E:/GitHub/HiFive01-RevB/FS_workspace/002_LED_Blink_All/freedom-metal/src/drivers/sifive_gpio0.c:147
        __METAL_ACCESS_ONCE(
            (__metal_io_u32 *)(base + METAL_SIFIVE_GPIO0_FALL_IE)) |= source;
20014e08:	fec42783          	lw	a5,-20(s0)
20014e0c:	02078793          	addi	a5,a5,32
20014e10:	4398                	lw	a4,0(a5)
20014e12:	fd842783          	lw	a5,-40(s0)
20014e16:	fec42683          	lw	a3,-20(s0)
20014e1a:	02068693          	addi	a3,a3,32
20014e1e:	8fd9                	or	a5,a5,a4
20014e20:	c29c                	sw	a5,0(a3)
E:/GitHub/HiFive01-RevB/FS_workspace/002_LED_Blink_All/freedom-metal/src/drivers/sifive_gpio0.c:148
        break;
20014e22:	a8d9                	j	20014ef8 <__metal_driver_sifive_gpio0_config_int+0x1fa>
E:/GitHub/HiFive01-RevB/FS_workspace/002_LED_Blink_All/freedom-metal/src/drivers/sifive_gpio0.c:151
    case METAL_GPIO_INT_HIGH:
        __METAL_ACCESS_ONCE(
            (__metal_io_u32 *)(base + METAL_SIFIVE_GPIO0_HIGH_IE)) |= source;
20014e24:	fec42783          	lw	a5,-20(s0)
20014e28:	02878793          	addi	a5,a5,40
20014e2c:	4398                	lw	a4,0(a5)
20014e2e:	fd842783          	lw	a5,-40(s0)
20014e32:	fec42683          	lw	a3,-20(s0)
20014e36:	02868693          	addi	a3,a3,40
20014e3a:	8fd9                	or	a5,a5,a4
20014e3c:	c29c                	sw	a5,0(a3)
E:/GitHub/HiFive01-RevB/FS_workspace/002_LED_Blink_All/freedom-metal/src/drivers/sifive_gpio0.c:152
        break;
20014e3e:	a86d                	j	20014ef8 <__metal_driver_sifive_gpio0_config_int+0x1fa>
E:/GitHub/HiFive01-RevB/FS_workspace/002_LED_Blink_All/freedom-metal/src/drivers/sifive_gpio0.c:155
    case METAL_GPIO_INT_LOW:
        __METAL_ACCESS_ONCE(
            (__metal_io_u32 *)(base + METAL_SIFIVE_GPIO0_LOW_IE)) |= source;
20014e40:	fec42783          	lw	a5,-20(s0)
20014e44:	03078793          	addi	a5,a5,48
20014e48:	4398                	lw	a4,0(a5)
20014e4a:	fd842783          	lw	a5,-40(s0)
20014e4e:	fec42683          	lw	a3,-20(s0)
20014e52:	03068693          	addi	a3,a3,48
20014e56:	8fd9                	or	a5,a5,a4
20014e58:	c29c                	sw	a5,0(a3)
E:/GitHub/HiFive01-RevB/FS_workspace/002_LED_Blink_All/freedom-metal/src/drivers/sifive_gpio0.c:156
        break;
20014e5a:	a879                	j	20014ef8 <__metal_driver_sifive_gpio0_config_int+0x1fa>
E:/GitHub/HiFive01-RevB/FS_workspace/002_LED_Blink_All/freedom-metal/src/drivers/sifive_gpio0.c:159
    case METAL_GPIO_INT_BOTH_LEVEL:
        __METAL_ACCESS_ONCE(
            (__metal_io_u32 *)(base + METAL_SIFIVE_GPIO0_HIGH_IE)) |= source;
20014e5c:	fec42783          	lw	a5,-20(s0)
20014e60:	02878793          	addi	a5,a5,40
20014e64:	4398                	lw	a4,0(a5)
20014e66:	fd842783          	lw	a5,-40(s0)
20014e6a:	fec42683          	lw	a3,-20(s0)
20014e6e:	02868693          	addi	a3,a3,40
20014e72:	8fd9                	or	a5,a5,a4
20014e74:	c29c                	sw	a5,0(a3)
E:/GitHub/HiFive01-RevB/FS_workspace/002_LED_Blink_All/freedom-metal/src/drivers/sifive_gpio0.c:161
        __METAL_ACCESS_ONCE(
            (__metal_io_u32 *)(base + METAL_SIFIVE_GPIO0_LOW_IE)) |= source;
20014e76:	fec42783          	lw	a5,-20(s0)
20014e7a:	03078793          	addi	a5,a5,48
20014e7e:	4398                	lw	a4,0(a5)
20014e80:	fd842783          	lw	a5,-40(s0)
20014e84:	fec42683          	lw	a3,-20(s0)
20014e88:	03068693          	addi	a3,a3,48
20014e8c:	8fd9                	or	a5,a5,a4
20014e8e:	c29c                	sw	a5,0(a3)
E:/GitHub/HiFive01-RevB/FS_workspace/002_LED_Blink_All/freedom-metal/src/drivers/sifive_gpio0.c:162
        break;
20014e90:	a0a5                	j	20014ef8 <__metal_driver_sifive_gpio0_config_int+0x1fa>
E:/GitHub/HiFive01-RevB/FS_workspace/002_LED_Blink_All/freedom-metal/src/drivers/sifive_gpio0.c:165
    case METAL_GPIO_INT_MAX:
        __METAL_ACCESS_ONCE(
            (__metal_io_u32 *)(base + METAL_SIFIVE_GPIO0_RISE_IE)) |= source;
20014e92:	fec42783          	lw	a5,-20(s0)
20014e96:	07e1                	addi	a5,a5,24
20014e98:	4398                	lw	a4,0(a5)
20014e9a:	fd842783          	lw	a5,-40(s0)
20014e9e:	fec42683          	lw	a3,-20(s0)
20014ea2:	06e1                	addi	a3,a3,24
20014ea4:	8fd9                	or	a5,a5,a4
20014ea6:	c29c                	sw	a5,0(a3)
E:/GitHub/HiFive01-RevB/FS_workspace/002_LED_Blink_All/freedom-metal/src/drivers/sifive_gpio0.c:167
        __METAL_ACCESS_ONCE(
            (__metal_io_u32 *)(base + METAL_SIFIVE_GPIO0_FALL_IE)) |= source;
20014ea8:	fec42783          	lw	a5,-20(s0)
20014eac:	02078793          	addi	a5,a5,32
20014eb0:	4398                	lw	a4,0(a5)
20014eb2:	fd842783          	lw	a5,-40(s0)
20014eb6:	fec42683          	lw	a3,-20(s0)
20014eba:	02068693          	addi	a3,a3,32
20014ebe:	8fd9                	or	a5,a5,a4
20014ec0:	c29c                	sw	a5,0(a3)
E:/GitHub/HiFive01-RevB/FS_workspace/002_LED_Blink_All/freedom-metal/src/drivers/sifive_gpio0.c:169
        __METAL_ACCESS_ONCE(
            (__metal_io_u32 *)(base + METAL_SIFIVE_GPIO0_HIGH_IE)) |= source;
20014ec2:	fec42783          	lw	a5,-20(s0)
20014ec6:	02878793          	addi	a5,a5,40
20014eca:	4398                	lw	a4,0(a5)
20014ecc:	fd842783          	lw	a5,-40(s0)
20014ed0:	fec42683          	lw	a3,-20(s0)
20014ed4:	02868693          	addi	a3,a3,40
20014ed8:	8fd9                	or	a5,a5,a4
20014eda:	c29c                	sw	a5,0(a3)
E:/GitHub/HiFive01-RevB/FS_workspace/002_LED_Blink_All/freedom-metal/src/drivers/sifive_gpio0.c:171
        __METAL_ACCESS_ONCE(
            (__metal_io_u32 *)(base + METAL_SIFIVE_GPIO0_LOW_IE)) |= source;
20014edc:	fec42783          	lw	a5,-20(s0)
20014ee0:	03078793          	addi	a5,a5,48
20014ee4:	4398                	lw	a4,0(a5)
20014ee6:	fd842783          	lw	a5,-40(s0)
20014eea:	fec42683          	lw	a3,-20(s0)
20014eee:	03068693          	addi	a3,a3,48
20014ef2:	8fd9                	or	a5,a5,a4
20014ef4:	c29c                	sw	a5,0(a3)
E:/GitHub/HiFive01-RevB/FS_workspace/002_LED_Blink_All/freedom-metal/src/drivers/sifive_gpio0.c:172
        break;
20014ef6:	0001                	nop
E:/GitHub/HiFive01-RevB/FS_workspace/002_LED_Blink_All/freedom-metal/src/drivers/sifive_gpio0.c:174
    }
    return 0;
20014ef8:	4781                	li	a5,0
E:/GitHub/HiFive01-RevB/FS_workspace/002_LED_Blink_All/freedom-metal/src/drivers/sifive_gpio0.c:175
}
20014efa:	853e                	mv	a0,a5
20014efc:	50b2                	lw	ra,44(sp)
20014efe:	5422                	lw	s0,40(sp)
20014f00:	6145                	addi	sp,sp,48
20014f02:	8082                	ret

20014f04 <__metal_driver_sifive_gpio0_clear_int>:
__metal_driver_sifive_gpio0_clear_int():
E:/GitHub/HiFive01-RevB/FS_workspace/002_LED_Blink_All/freedom-metal/src/drivers/sifive_gpio0.c:178

int __metal_driver_sifive_gpio0_clear_int(struct metal_gpio *ggpio, long source,
                                          int intr_type) {
20014f04:	7179                	addi	sp,sp,-48
20014f06:	d606                	sw	ra,44(sp)
20014f08:	d422                	sw	s0,40(sp)
20014f0a:	1800                	addi	s0,sp,48
20014f0c:	fca42e23          	sw	a0,-36(s0)
20014f10:	fcb42c23          	sw	a1,-40(s0)
20014f14:	fcc42a23          	sw	a2,-44(s0)
E:/GitHub/HiFive01-RevB/FS_workspace/002_LED_Blink_All/freedom-metal/src/drivers/sifive_gpio0.c:179
    long base = __metal_driver_sifive_gpio0_base(ggpio);
20014f18:	fdc42503          	lw	a0,-36(s0)
20014f1c:	f60ff0ef          	jal	ra,2001467c <__metal_driver_sifive_gpio0_base>
20014f20:	87aa                	mv	a5,a0
20014f22:	fef42623          	sw	a5,-20(s0)
20014f26:	fd442703          	lw	a4,-44(s0)
20014f2a:	479d                	li	a5,7
20014f2c:	14e7ea63          	bltu	a5,a4,20015080 <__metal_driver_sifive_gpio0_clear_int+0x17c>
20014f30:	fd442783          	lw	a5,-44(s0)
20014f34:	00279713          	slli	a4,a5,0x2
20014f38:	200117b7          	lui	a5,0x20011
20014f3c:	e2878793          	addi	a5,a5,-472 # 20010e28 <__metal_driver_vtable_sifive_led+0x34>
20014f40:	97ba                	add	a5,a5,a4
20014f42:	439c                	lw	a5,0(a5)
20014f44:	8782                	jr	a5
E:/GitHub/HiFive01-RevB/FS_workspace/002_LED_Blink_All/freedom-metal/src/drivers/sifive_gpio0.c:184

    switch (intr_type) {
    case METAL_GPIO_INT_RISING:
        __METAL_ACCESS_ONCE(
            (__metal_io_u32 *)(base + METAL_SIFIVE_GPIO0_RISE_IP)) |= source;
20014f46:	fec42783          	lw	a5,-20(s0)
20014f4a:	07f1                	addi	a5,a5,28
20014f4c:	4398                	lw	a4,0(a5)
20014f4e:	fd842783          	lw	a5,-40(s0)
20014f52:	fec42683          	lw	a3,-20(s0)
20014f56:	06f1                	addi	a3,a3,28
20014f58:	8fd9                	or	a5,a5,a4
20014f5a:	c29c                	sw	a5,0(a3)
E:/GitHub/HiFive01-RevB/FS_workspace/002_LED_Blink_All/freedom-metal/src/drivers/sifive_gpio0.c:185
        break;
20014f5c:	a215                	j	20015080 <__metal_driver_sifive_gpio0_clear_int+0x17c>
E:/GitHub/HiFive01-RevB/FS_workspace/002_LED_Blink_All/freedom-metal/src/drivers/sifive_gpio0.c:188
    case METAL_GPIO_INT_FALLING:
        __METAL_ACCESS_ONCE(
            (__metal_io_u32 *)(base + METAL_SIFIVE_GPIO0_FALL_IP)) |= source;
20014f5e:	fec42783          	lw	a5,-20(s0)
20014f62:	02478793          	addi	a5,a5,36
20014f66:	4398                	lw	a4,0(a5)
20014f68:	fd842783          	lw	a5,-40(s0)
20014f6c:	fec42683          	lw	a3,-20(s0)
20014f70:	02468693          	addi	a3,a3,36
20014f74:	8fd9                	or	a5,a5,a4
20014f76:	c29c                	sw	a5,0(a3)
E:/GitHub/HiFive01-RevB/FS_workspace/002_LED_Blink_All/freedom-metal/src/drivers/sifive_gpio0.c:189
        break;
20014f78:	a221                	j	20015080 <__metal_driver_sifive_gpio0_clear_int+0x17c>
E:/GitHub/HiFive01-RevB/FS_workspace/002_LED_Blink_All/freedom-metal/src/drivers/sifive_gpio0.c:192
    case METAL_GPIO_INT_BOTH_EDGE:
        __METAL_ACCESS_ONCE(
            (__metal_io_u32 *)(base + METAL_SIFIVE_GPIO0_RISE_IP)) |= source;
20014f7a:	fec42783          	lw	a5,-20(s0)
20014f7e:	07f1                	addi	a5,a5,28
20014f80:	4398                	lw	a4,0(a5)
20014f82:	fd842783          	lw	a5,-40(s0)
20014f86:	fec42683          	lw	a3,-20(s0)
20014f8a:	06f1                	addi	a3,a3,28
20014f8c:	8fd9                	or	a5,a5,a4
20014f8e:	c29c                	sw	a5,0(a3)
E:/GitHub/HiFive01-RevB/FS_workspace/002_LED_Blink_All/freedom-metal/src/drivers/sifive_gpio0.c:194
        __METAL_ACCESS_ONCE(
            (__metal_io_u32 *)(base + METAL_SIFIVE_GPIO0_FALL_IP)) |= source;
20014f90:	fec42783          	lw	a5,-20(s0)
20014f94:	02478793          	addi	a5,a5,36
20014f98:	4398                	lw	a4,0(a5)
20014f9a:	fd842783          	lw	a5,-40(s0)
20014f9e:	fec42683          	lw	a3,-20(s0)
20014fa2:	02468693          	addi	a3,a3,36
20014fa6:	8fd9                	or	a5,a5,a4
20014fa8:	c29c                	sw	a5,0(a3)
E:/GitHub/HiFive01-RevB/FS_workspace/002_LED_Blink_All/freedom-metal/src/drivers/sifive_gpio0.c:195
        break;
20014faa:	a8d9                	j	20015080 <__metal_driver_sifive_gpio0_clear_int+0x17c>
E:/GitHub/HiFive01-RevB/FS_workspace/002_LED_Blink_All/freedom-metal/src/drivers/sifive_gpio0.c:198
    case METAL_GPIO_INT_HIGH:
        __METAL_ACCESS_ONCE(
            (__metal_io_u32 *)(base + METAL_SIFIVE_GPIO0_HIGH_IP)) |= source;
20014fac:	fec42783          	lw	a5,-20(s0)
20014fb0:	02c78793          	addi	a5,a5,44
20014fb4:	4398                	lw	a4,0(a5)
20014fb6:	fd842783          	lw	a5,-40(s0)
20014fba:	fec42683          	lw	a3,-20(s0)
20014fbe:	02c68693          	addi	a3,a3,44
20014fc2:	8fd9                	or	a5,a5,a4
20014fc4:	c29c                	sw	a5,0(a3)
E:/GitHub/HiFive01-RevB/FS_workspace/002_LED_Blink_All/freedom-metal/src/drivers/sifive_gpio0.c:199
        break;
20014fc6:	a86d                	j	20015080 <__metal_driver_sifive_gpio0_clear_int+0x17c>
E:/GitHub/HiFive01-RevB/FS_workspace/002_LED_Blink_All/freedom-metal/src/drivers/sifive_gpio0.c:202
    case METAL_GPIO_INT_LOW:
        __METAL_ACCESS_ONCE(
            (__metal_io_u32 *)(base + METAL_SIFIVE_GPIO0_LOW_IP)) |= source;
20014fc8:	fec42783          	lw	a5,-20(s0)
20014fcc:	03478793          	addi	a5,a5,52
20014fd0:	4398                	lw	a4,0(a5)
20014fd2:	fd842783          	lw	a5,-40(s0)
20014fd6:	fec42683          	lw	a3,-20(s0)
20014fda:	03468693          	addi	a3,a3,52
20014fde:	8fd9                	or	a5,a5,a4
20014fe0:	c29c                	sw	a5,0(a3)
E:/GitHub/HiFive01-RevB/FS_workspace/002_LED_Blink_All/freedom-metal/src/drivers/sifive_gpio0.c:203
        break;
20014fe2:	a879                	j	20015080 <__metal_driver_sifive_gpio0_clear_int+0x17c>
E:/GitHub/HiFive01-RevB/FS_workspace/002_LED_Blink_All/freedom-metal/src/drivers/sifive_gpio0.c:206
    case METAL_GPIO_INT_BOTH_LEVEL:
        __METAL_ACCESS_ONCE(
            (__metal_io_u32 *)(base + METAL_SIFIVE_GPIO0_HIGH_IP)) |= source;
20014fe4:	fec42783          	lw	a5,-20(s0)
20014fe8:	02c78793          	addi	a5,a5,44
20014fec:	4398                	lw	a4,0(a5)
20014fee:	fd842783          	lw	a5,-40(s0)
20014ff2:	fec42683          	lw	a3,-20(s0)
20014ff6:	02c68693          	addi	a3,a3,44
20014ffa:	8fd9                	or	a5,a5,a4
20014ffc:	c29c                	sw	a5,0(a3)
E:/GitHub/HiFive01-RevB/FS_workspace/002_LED_Blink_All/freedom-metal/src/drivers/sifive_gpio0.c:208
        __METAL_ACCESS_ONCE(
            (__metal_io_u32 *)(base + METAL_SIFIVE_GPIO0_LOW_IP)) |= source;
20014ffe:	fec42783          	lw	a5,-20(s0)
20015002:	03478793          	addi	a5,a5,52
20015006:	4398                	lw	a4,0(a5)
20015008:	fd842783          	lw	a5,-40(s0)
2001500c:	fec42683          	lw	a3,-20(s0)
20015010:	03468693          	addi	a3,a3,52
20015014:	8fd9                	or	a5,a5,a4
20015016:	c29c                	sw	a5,0(a3)
E:/GitHub/HiFive01-RevB/FS_workspace/002_LED_Blink_All/freedom-metal/src/drivers/sifive_gpio0.c:209
        break;
20015018:	a0a5                	j	20015080 <__metal_driver_sifive_gpio0_clear_int+0x17c>
E:/GitHub/HiFive01-RevB/FS_workspace/002_LED_Blink_All/freedom-metal/src/drivers/sifive_gpio0.c:212
    case METAL_GPIO_INT_MAX:
        __METAL_ACCESS_ONCE(
            (__metal_io_u32 *)(base + METAL_SIFIVE_GPIO0_RISE_IP)) |= source;
2001501a:	fec42783          	lw	a5,-20(s0)
2001501e:	07f1                	addi	a5,a5,28
20015020:	4398                	lw	a4,0(a5)
20015022:	fd842783          	lw	a5,-40(s0)
20015026:	fec42683          	lw	a3,-20(s0)
2001502a:	06f1                	addi	a3,a3,28
2001502c:	8fd9                	or	a5,a5,a4
2001502e:	c29c                	sw	a5,0(a3)
E:/GitHub/HiFive01-RevB/FS_workspace/002_LED_Blink_All/freedom-metal/src/drivers/sifive_gpio0.c:214
        __METAL_ACCESS_ONCE(
            (__metal_io_u32 *)(base + METAL_SIFIVE_GPIO0_FALL_IP)) |= source;
20015030:	fec42783          	lw	a5,-20(s0)
20015034:	02478793          	addi	a5,a5,36
20015038:	4398                	lw	a4,0(a5)
2001503a:	fd842783          	lw	a5,-40(s0)
2001503e:	fec42683          	lw	a3,-20(s0)
20015042:	02468693          	addi	a3,a3,36
20015046:	8fd9                	or	a5,a5,a4
20015048:	c29c                	sw	a5,0(a3)
E:/GitHub/HiFive01-RevB/FS_workspace/002_LED_Blink_All/freedom-metal/src/drivers/sifive_gpio0.c:216
        __METAL_ACCESS_ONCE(
            (__metal_io_u32 *)(base + METAL_SIFIVE_GPIO0_HIGH_IP)) |= source;
2001504a:	fec42783          	lw	a5,-20(s0)
2001504e:	02c78793          	addi	a5,a5,44
20015052:	4398                	lw	a4,0(a5)
20015054:	fd842783          	lw	a5,-40(s0)
20015058:	fec42683          	lw	a3,-20(s0)
2001505c:	02c68693          	addi	a3,a3,44
20015060:	8fd9                	or	a5,a5,a4
20015062:	c29c                	sw	a5,0(a3)
E:/GitHub/HiFive01-RevB/FS_workspace/002_LED_Blink_All/freedom-metal/src/drivers/sifive_gpio0.c:218
        __METAL_ACCESS_ONCE(
            (__metal_io_u32 *)(base + METAL_SIFIVE_GPIO0_LOW_IP)) |= source;
20015064:	fec42783          	lw	a5,-20(s0)
20015068:	03478793          	addi	a5,a5,52
2001506c:	4398                	lw	a4,0(a5)
2001506e:	fd842783          	lw	a5,-40(s0)
20015072:	fec42683          	lw	a3,-20(s0)
20015076:	03468693          	addi	a3,a3,52
2001507a:	8fd9                	or	a5,a5,a4
2001507c:	c29c                	sw	a5,0(a3)
E:/GitHub/HiFive01-RevB/FS_workspace/002_LED_Blink_All/freedom-metal/src/drivers/sifive_gpio0.c:219
        break;
2001507e:	0001                	nop
E:/GitHub/HiFive01-RevB/FS_workspace/002_LED_Blink_All/freedom-metal/src/drivers/sifive_gpio0.c:221
    }
    return 0;
20015080:	4781                	li	a5,0
E:/GitHub/HiFive01-RevB/FS_workspace/002_LED_Blink_All/freedom-metal/src/drivers/sifive_gpio0.c:222
}
20015082:	853e                	mv	a0,a5
20015084:	50b2                	lw	ra,44(sp)
20015086:	5422                	lw	s0,40(sp)
20015088:	6145                	addi	sp,sp,48
2001508a:	8082                	ret

2001508c <__metal_driver_gpio_interrupt_controller>:
__metal_driver_gpio_interrupt_controller():
E:/GitHub/HiFive01-RevB/FS_workspace/002_LED_Blink_All/freedom-metal/src/drivers/sifive_gpio0.c:225

struct metal_interrupt *
__metal_driver_gpio_interrupt_controller(struct metal_gpio *gpio) {
2001508c:	1101                	addi	sp,sp,-32
2001508e:	ce06                	sw	ra,28(sp)
20015090:	cc22                	sw	s0,24(sp)
20015092:	1000                	addi	s0,sp,32
20015094:	fea42623          	sw	a0,-20(s0)
E:/GitHub/HiFive01-RevB/FS_workspace/002_LED_Blink_All/freedom-metal/src/drivers/sifive_gpio0.c:226
    return __metal_driver_sifive_gpio0_interrupt_parent(gpio);
20015098:	fec42503          	lw	a0,-20(s0)
2001509c:	e06ff0ef          	jal	ra,200146a2 <__metal_driver_sifive_gpio0_interrupt_parent>
200150a0:	87aa                	mv	a5,a0
E:/GitHub/HiFive01-RevB/FS_workspace/002_LED_Blink_All/freedom-metal/src/drivers/sifive_gpio0.c:227
}
200150a2:	853e                	mv	a0,a5
200150a4:	40f2                	lw	ra,28(sp)
200150a6:	4462                	lw	s0,24(sp)
200150a8:	6105                	addi	sp,sp,32
200150aa:	8082                	ret

200150ac <__metal_driver_gpio_get_interrupt_id>:
__metal_driver_gpio_get_interrupt_id():
E:/GitHub/HiFive01-RevB/FS_workspace/002_LED_Blink_All/freedom-metal/src/drivers/sifive_gpio0.c:229

int __metal_driver_gpio_get_interrupt_id(struct metal_gpio *gpio, int pin) {
200150ac:	7179                	addi	sp,sp,-48
200150ae:	d606                	sw	ra,44(sp)
200150b0:	d422                	sw	s0,40(sp)
200150b2:	1800                	addi	s0,sp,48
200150b4:	fca42e23          	sw	a0,-36(s0)
200150b8:	fcb42c23          	sw	a1,-40(s0)
E:/GitHub/HiFive01-RevB/FS_workspace/002_LED_Blink_All/freedom-metal/src/drivers/sifive_gpio0.c:231
    int irq;
    irq = __metal_driver_sifive_gpio0_interrupt_lines(gpio, pin);
200150bc:	fd842583          	lw	a1,-40(s0)
200150c0:	fdc42503          	lw	a0,-36(s0)
200150c4:	e08ff0ef          	jal	ra,200146cc <__metal_driver_sifive_gpio0_interrupt_lines>
200150c8:	fea42623          	sw	a0,-20(s0)
E:/GitHub/HiFive01-RevB/FS_workspace/002_LED_Blink_All/freedom-metal/src/drivers/sifive_gpio0.c:232
    return irq;
200150cc:	fec42783          	lw	a5,-20(s0)
E:/GitHub/HiFive01-RevB/FS_workspace/002_LED_Blink_All/freedom-metal/src/drivers/sifive_gpio0.c:233
}
200150d0:	853e                	mv	a0,a5
200150d2:	50b2                	lw	ra,44(sp)
200150d4:	5422                	lw	s0,40(sp)
200150d6:	6145                	addi	sp,sp,48
200150d8:	8082                	ret

200150da <_metal_clock_call_all_callbacks>:
_metal_clock_call_all_callbacks():
E:/GitHub/HiFive01-RevB/FS_workspace/002_LED_Blink_All/freedom-metal/metal/clock.h:50

/*!
 * @brief Call all callbacks in the linked list, if any are registered
 */
__inline__ void
_metal_clock_call_all_callbacks(const metal_clock_callback *const list) {
200150da:	7179                	addi	sp,sp,-48
200150dc:	d606                	sw	ra,44(sp)
200150de:	d422                	sw	s0,40(sp)
200150e0:	1800                	addi	s0,sp,48
200150e2:	fca42e23          	sw	a0,-36(s0)
E:/GitHub/HiFive01-RevB/FS_workspace/002_LED_Blink_All/freedom-metal/metal/clock.h:51
    const metal_clock_callback *current = list;
200150e6:	fdc42783          	lw	a5,-36(s0)
200150ea:	fef42623          	sw	a5,-20(s0)
E:/GitHub/HiFive01-RevB/FS_workspace/002_LED_Blink_All/freedom-metal/metal/clock.h:52
    while (current) {
200150ee:	a831                	j	2001510a <_metal_clock_call_all_callbacks+0x30>
E:/GitHub/HiFive01-RevB/FS_workspace/002_LED_Blink_All/freedom-metal/metal/clock.h:53
        current->callback(current->priv);
200150f0:	fec42783          	lw	a5,-20(s0)
200150f4:	4398                	lw	a4,0(a5)
200150f6:	fec42783          	lw	a5,-20(s0)
200150fa:	43dc                	lw	a5,4(a5)
200150fc:	853e                	mv	a0,a5
200150fe:	9702                	jalr	a4
E:/GitHub/HiFive01-RevB/FS_workspace/002_LED_Blink_All/freedom-metal/metal/clock.h:54
        current = current->_next;
20015100:	fec42783          	lw	a5,-20(s0)
20015104:	479c                	lw	a5,8(a5)
20015106:	fef42623          	sw	a5,-20(s0)
E:/GitHub/HiFive01-RevB/FS_workspace/002_LED_Blink_All/freedom-metal/metal/clock.h:52
    while (current) {
2001510a:	fec42783          	lw	a5,-20(s0)
2001510e:	f3ed                	bnez	a5,200150f0 <_metal_clock_call_all_callbacks+0x16>
E:/GitHub/HiFive01-RevB/FS_workspace/002_LED_Blink_All/freedom-metal/metal/clock.h:56
    }
}
20015110:	0001                	nop
20015112:	0001                	nop
20015114:	50b2                	lw	ra,44(sp)
20015116:	5422                	lw	s0,40(sp)
20015118:	6145                	addi	sp,sp,48
2001511a:	8082                	ret

2001511c <metal_clock_get_rate_hz>:
metal_clock_get_rate_hz():
E:/GitHub/HiFive01-RevB/FS_workspace/002_LED_Blink_All/freedom-metal/metal/clock.h:110
 * @brief Returns the current rate of the given clock
 *
 * @param clk The handle for the clock
 * @return The current rate of the clock in Hz
 */
__inline__ long metal_clock_get_rate_hz(const struct metal_clock *clk) {
2001511c:	1101                	addi	sp,sp,-32
2001511e:	ce06                	sw	ra,28(sp)
20015120:	cc22                	sw	s0,24(sp)
20015122:	1000                	addi	s0,sp,32
20015124:	fea42623          	sw	a0,-20(s0)
E:/GitHub/HiFive01-RevB/FS_workspace/002_LED_Blink_All/freedom-metal/metal/clock.h:111
    return clk->vtable->get_rate_hz(clk);
20015128:	fec42783          	lw	a5,-20(s0)
2001512c:	439c                	lw	a5,0(a5)
2001512e:	439c                	lw	a5,0(a5)
20015130:	fec42503          	lw	a0,-20(s0)
20015134:	9782                	jalr	a5
20015136:	87aa                	mv	a5,a0
E:/GitHub/HiFive01-RevB/FS_workspace/002_LED_Blink_All/freedom-metal/metal/clock.h:112
}
20015138:	853e                	mv	a0,a5
2001513a:	40f2                	lw	ra,28(sp)
2001513c:	4462                	lw	s0,24(sp)
2001513e:	6105                	addi	sp,sp,32
20015140:	8082                	ret

20015142 <metal_clock_set_rate_hz>:
metal_clock_set_rate_hz():
E:/GitHub/HiFive01-RevB/FS_workspace/002_LED_Blink_All/freedom-metal/metal/clock.h:128
 * could be anything!
 *
 * Prior to and after the rate change of the clock, this will call the
 * registered pre- and post-rate change callbacks.
 */
__inline__ long metal_clock_set_rate_hz(struct metal_clock *clk, long hz) {
20015142:	7179                	addi	sp,sp,-48
20015144:	d606                	sw	ra,44(sp)
20015146:	d422                	sw	s0,40(sp)
20015148:	1800                	addi	s0,sp,48
2001514a:	fca42e23          	sw	a0,-36(s0)
2001514e:	fcb42c23          	sw	a1,-40(s0)
E:/GitHub/HiFive01-RevB/FS_workspace/002_LED_Blink_All/freedom-metal/metal/clock.h:129
    _metal_clock_call_all_callbacks(clk->_pre_rate_change_callback);
20015152:	fdc42783          	lw	a5,-36(s0)
20015156:	43dc                	lw	a5,4(a5)
20015158:	853e                	mv	a0,a5
2001515a:	3741                	jal	200150da <_metal_clock_call_all_callbacks>
E:/GitHub/HiFive01-RevB/FS_workspace/002_LED_Blink_All/freedom-metal/metal/clock.h:131

    long out = clk->vtable->set_rate_hz(clk, hz);
2001515c:	fdc42783          	lw	a5,-36(s0)
20015160:	439c                	lw	a5,0(a5)
20015162:	43dc                	lw	a5,4(a5)
20015164:	fd842583          	lw	a1,-40(s0)
20015168:	fdc42503          	lw	a0,-36(s0)
2001516c:	9782                	jalr	a5
2001516e:	fea42623          	sw	a0,-20(s0)
E:/GitHub/HiFive01-RevB/FS_workspace/002_LED_Blink_All/freedom-metal/metal/clock.h:133

    _metal_clock_call_all_callbacks(clk->_post_rate_change_callback);
20015172:	fdc42783          	lw	a5,-36(s0)
20015176:	479c                	lw	a5,8(a5)
20015178:	853e                	mv	a0,a5
2001517a:	3785                	jal	200150da <_metal_clock_call_all_callbacks>
E:/GitHub/HiFive01-RevB/FS_workspace/002_LED_Blink_All/freedom-metal/metal/clock.h:135

    return out;
2001517c:	fec42783          	lw	a5,-20(s0)
E:/GitHub/HiFive01-RevB/FS_workspace/002_LED_Blink_All/freedom-metal/metal/clock.h:136
}
20015180:	853e                	mv	a0,a5
20015182:	50b2                	lw	ra,44(sp)
20015184:	5422                	lw	s0,40(sp)
20015186:	6145                	addi	sp,sp,48
20015188:	8082                	ret

2001518a <metal_cpu_interrupt_controller>:
metal_cpu_interrupt_controller():
E:/GitHub/HiFive01-RevB/FS_workspace/002_LED_Blink_All/freedom-metal/metal/cpu.h:224
 *
 * @param cpu The CPU device handle
 * @return The handle for the CPU interrupt controller
 */
__inline__ struct metal_interrupt *
metal_cpu_interrupt_controller(struct metal_cpu *cpu) {
2001518a:	1101                	addi	sp,sp,-32
2001518c:	ce06                	sw	ra,28(sp)
2001518e:	cc22                	sw	s0,24(sp)
20015190:	1000                	addi	s0,sp,32
20015192:	fea42623          	sw	a0,-20(s0)
E:/GitHub/HiFive01-RevB/FS_workspace/002_LED_Blink_All/freedom-metal/metal/cpu.h:225
    return cpu->vtable->controller_interrupt(cpu);
20015196:	fec42783          	lw	a5,-20(s0)
2001519a:	439c                	lw	a5,0(a5)
2001519c:	57dc                	lw	a5,44(a5)
2001519e:	fec42503          	lw	a0,-20(s0)
200151a2:	9782                	jalr	a5
200151a4:	87aa                	mv	a5,a0
E:/GitHub/HiFive01-RevB/FS_workspace/002_LED_Blink_All/freedom-metal/metal/cpu.h:226
}
200151a6:	853e                	mv	a0,a5
200151a8:	40f2                	lw	ra,28(sp)
200151aa:	4462                	lw	s0,24(sp)
200151ac:	6105                	addi	sp,sp,32
200151ae:	8082                	ret

200151b0 <metal_cpu_get>:
metal_cpu_get():
E:/GitHub/HiFive01-RevB/FS_workspace/002_LED_Blink_All/freedom-metal/src/cpu.c:7
/* SPDX-License-Identifier: Apache-2.0 */

#include <metal/cpu.h>
#include <metal/machine.h>

struct metal_cpu *metal_cpu_get(unsigned int hartid) {
200151b0:	1101                	addi	sp,sp,-32
200151b2:	ce22                	sw	s0,28(sp)
200151b4:	1000                	addi	s0,sp,32
200151b6:	fea42623          	sw	a0,-20(s0)
E:/GitHub/HiFive01-RevB/FS_workspace/002_LED_Blink_All/freedom-metal/src/cpu.c:8
    if (hartid < __METAL_DT_MAX_HARTS) {
200151ba:	fec42783          	lw	a5,-20(s0)
200151be:	eb99                	bnez	a5,200151d4 <metal_cpu_get+0x24>
E:/GitHub/HiFive01-RevB/FS_workspace/002_LED_Blink_All/freedom-metal/src/cpu.c:9
        return (struct metal_cpu *)__metal_cpu_table[hartid];
200151c0:	800017b7          	lui	a5,0x80001
200151c4:	fec42703          	lw	a4,-20(s0)
200151c8:	070a                	slli	a4,a4,0x2
200151ca:	a7078793          	addi	a5,a5,-1424 # 80000a70 <__global_pointer$+0xfffff800>
200151ce:	97ba                	add	a5,a5,a4
200151d0:	439c                	lw	a5,0(a5)
200151d2:	a011                	j	200151d6 <metal_cpu_get+0x26>
E:/GitHub/HiFive01-RevB/FS_workspace/002_LED_Blink_All/freedom-metal/src/cpu.c:11
    }
    return NULL;
200151d4:	4781                	li	a5,0
E:/GitHub/HiFive01-RevB/FS_workspace/002_LED_Blink_All/freedom-metal/src/cpu.c:12
}
200151d6:	853e                	mv	a0,a5
200151d8:	4472                	lw	s0,28(sp)
200151da:	6105                	addi	sp,sp,32
200151dc:	8082                	ret

200151de <metal_cpu_get_current_hartid>:
metal_cpu_get_current_hartid():
E:/GitHub/HiFive01-RevB/FS_workspace/002_LED_Blink_All/freedom-metal/src/cpu.c:14

int metal_cpu_get_current_hartid() {
200151de:	1101                	addi	sp,sp,-32
200151e0:	ce22                	sw	s0,28(sp)
200151e2:	1000                	addi	s0,sp,32
E:/GitHub/HiFive01-RevB/FS_workspace/002_LED_Blink_All/freedom-metal/src/cpu.c:17
#ifdef __riscv
    int mhartid;
    __asm__ volatile("csrr %0, mhartid" : "=r"(mhartid));
200151e4:	f14027f3          	csrr	a5,mhartid
200151e8:	fef42623          	sw	a5,-20(s0)
E:/GitHub/HiFive01-RevB/FS_workspace/002_LED_Blink_All/freedom-metal/src/cpu.c:18
    return mhartid;
200151ec:	fec42783          	lw	a5,-20(s0)
E:/GitHub/HiFive01-RevB/FS_workspace/002_LED_Blink_All/freedom-metal/src/cpu.c:20
#endif
}
200151f0:	853e                	mv	a0,a5
200151f2:	4472                	lw	s0,28(sp)
200151f4:	6105                	addi	sp,sp,32
200151f6:	8082                	ret

200151f8 <metal_gpio_disable_input>:
metal_gpio_disable_input():
E:/GitHub/HiFive01-RevB/FS_workspace/002_LED_Blink_All/freedom-metal/metal/gpio.h:79
 * @brief Disable input on a pin
 * @param gpio The handle for the GPIO interface
 * @param pin The pin number indexed from 0
 * @return 0 if the input is successfully disabled
 */
__inline__ int metal_gpio_disable_input(struct metal_gpio *gpio, int pin) {
200151f8:	1101                	addi	sp,sp,-32
200151fa:	ce06                	sw	ra,28(sp)
200151fc:	cc22                	sw	s0,24(sp)
200151fe:	1000                	addi	s0,sp,32
20015200:	fea42623          	sw	a0,-20(s0)
20015204:	feb42423          	sw	a1,-24(s0)
E:/GitHub/HiFive01-RevB/FS_workspace/002_LED_Blink_All/freedom-metal/metal/gpio.h:80
    if (!gpio) {
20015208:	fec42783          	lw	a5,-20(s0)
2001520c:	e399                	bnez	a5,20015212 <metal_gpio_disable_input+0x1a>
E:/GitHub/HiFive01-RevB/FS_workspace/002_LED_Blink_All/freedom-metal/metal/gpio.h:81
        return 1;
2001520e:	4785                	li	a5,1
20015210:	a839                	j	2001522e <metal_gpio_disable_input+0x36>
E:/GitHub/HiFive01-RevB/FS_workspace/002_LED_Blink_All/freedom-metal/metal/gpio.h:84
    }

    return gpio->vtable->disable_input(gpio, (1 << pin));
20015212:	fec42783          	lw	a5,-20(s0)
20015216:	439c                	lw	a5,0(a5)
20015218:	4394                	lw	a3,0(a5)
2001521a:	fe842783          	lw	a5,-24(s0)
2001521e:	4705                	li	a4,1
20015220:	00f717b3          	sll	a5,a4,a5
20015224:	85be                	mv	a1,a5
20015226:	fec42503          	lw	a0,-20(s0)
2001522a:	9682                	jalr	a3
2001522c:	87aa                	mv	a5,a0
E:/GitHub/HiFive01-RevB/FS_workspace/002_LED_Blink_All/freedom-metal/metal/gpio.h:85
}
2001522e:	853e                	mv	a0,a5
20015230:	40f2                	lw	ra,28(sp)
20015232:	4462                	lw	s0,24(sp)
20015234:	6105                	addi	sp,sp,32
20015236:	8082                	ret

20015238 <metal_gpio_enable_output>:
metal_gpio_enable_output():
E:/GitHub/HiFive01-RevB/FS_workspace/002_LED_Blink_All/freedom-metal/metal/gpio.h:93
 * @brief Enable output on a pin
 * @param gpio The handle for the GPIO interface
 * @param pin The pin number indexed from 0
 * @return 0 if the output is successfully enabled
 */
__inline__ int metal_gpio_enable_output(struct metal_gpio *gpio, int pin) {
20015238:	1101                	addi	sp,sp,-32
2001523a:	ce06                	sw	ra,28(sp)
2001523c:	cc22                	sw	s0,24(sp)
2001523e:	1000                	addi	s0,sp,32
20015240:	fea42623          	sw	a0,-20(s0)
20015244:	feb42423          	sw	a1,-24(s0)
E:/GitHub/HiFive01-RevB/FS_workspace/002_LED_Blink_All/freedom-metal/metal/gpio.h:94
    if (!gpio) {
20015248:	fec42783          	lw	a5,-20(s0)
2001524c:	e399                	bnez	a5,20015252 <metal_gpio_enable_output+0x1a>
E:/GitHub/HiFive01-RevB/FS_workspace/002_LED_Blink_All/freedom-metal/metal/gpio.h:95
        return 1;
2001524e:	4785                	li	a5,1
20015250:	a839                	j	2001526e <metal_gpio_enable_output+0x36>
E:/GitHub/HiFive01-RevB/FS_workspace/002_LED_Blink_All/freedom-metal/metal/gpio.h:98
    }

    return gpio->vtable->enable_output(gpio, (1 << pin));
20015252:	fec42783          	lw	a5,-20(s0)
20015256:	439c                	lw	a5,0(a5)
20015258:	4bd4                	lw	a3,20(a5)
2001525a:	fe842783          	lw	a5,-24(s0)
2001525e:	4705                	li	a4,1
20015260:	00f717b3          	sll	a5,a4,a5
20015264:	85be                	mv	a1,a5
20015266:	fec42503          	lw	a0,-20(s0)
2001526a:	9682                	jalr	a3
2001526c:	87aa                	mv	a5,a0
E:/GitHub/HiFive01-RevB/FS_workspace/002_LED_Blink_All/freedom-metal/metal/gpio.h:99
}
2001526e:	853e                	mv	a0,a5
20015270:	40f2                	lw	ra,28(sp)
20015272:	4462                	lw	s0,24(sp)
20015274:	6105                	addi	sp,sp,32
20015276:	8082                	ret

20015278 <metal_gpio_set_pin>:
metal_gpio_set_pin():
E:/GitHub/HiFive01-RevB/FS_workspace/002_LED_Blink_All/freedom-metal/metal/gpio.h:122
 * @param gpio The handle for the GPIO interface
 * @param pin The pin number indexed from 0
 * @param value The value to set the pin to
 * @return 0 if the output is successfully set
 */
__inline__ int metal_gpio_set_pin(struct metal_gpio *gpio, int pin, int value) {
20015278:	1101                	addi	sp,sp,-32
2001527a:	ce06                	sw	ra,28(sp)
2001527c:	cc22                	sw	s0,24(sp)
2001527e:	1000                	addi	s0,sp,32
20015280:	fea42623          	sw	a0,-20(s0)
20015284:	feb42423          	sw	a1,-24(s0)
20015288:	fec42223          	sw	a2,-28(s0)
E:/GitHub/HiFive01-RevB/FS_workspace/002_LED_Blink_All/freedom-metal/metal/gpio.h:123
    if (!gpio) {
2001528c:	fec42783          	lw	a5,-20(s0)
20015290:	e399                	bnez	a5,20015296 <metal_gpio_set_pin+0x1e>
E:/GitHub/HiFive01-RevB/FS_workspace/002_LED_Blink_All/freedom-metal/metal/gpio.h:124
        return 1;
20015292:	4785                	li	a5,1
20015294:	a089                	j	200152d6 <metal_gpio_set_pin+0x5e>
E:/GitHub/HiFive01-RevB/FS_workspace/002_LED_Blink_All/freedom-metal/metal/gpio.h:127
    }

    if (value == 0) {
20015296:	fe442783          	lw	a5,-28(s0)
2001529a:	e385                	bnez	a5,200152ba <metal_gpio_set_pin+0x42>
E:/GitHub/HiFive01-RevB/FS_workspace/002_LED_Blink_All/freedom-metal/metal/gpio.h:128
        return gpio->vtable->output_clear(gpio, (1 << pin));
2001529c:	fec42783          	lw	a5,-20(s0)
200152a0:	439c                	lw	a5,0(a5)
200152a2:	4fd4                	lw	a3,28(a5)
200152a4:	fe842783          	lw	a5,-24(s0)
200152a8:	4705                	li	a4,1
200152aa:	00f717b3          	sll	a5,a4,a5
200152ae:	85be                	mv	a1,a5
200152b0:	fec42503          	lw	a0,-20(s0)
200152b4:	9682                	jalr	a3
200152b6:	87aa                	mv	a5,a0
200152b8:	a839                	j	200152d6 <metal_gpio_set_pin+0x5e>
E:/GitHub/HiFive01-RevB/FS_workspace/002_LED_Blink_All/freedom-metal/metal/gpio.h:130
    } else {
        return gpio->vtable->output_set(gpio, (1 << pin));
200152ba:	fec42783          	lw	a5,-20(s0)
200152be:	439c                	lw	a5,0(a5)
200152c0:	4f94                	lw	a3,24(a5)
200152c2:	fe842783          	lw	a5,-24(s0)
200152c6:	4705                	li	a4,1
200152c8:	00f717b3          	sll	a5,a4,a5
200152cc:	85be                	mv	a1,a5
200152ce:	fec42503          	lw	a0,-20(s0)
200152d2:	9682                	jalr	a3
200152d4:	87aa                	mv	a5,a0
E:/GitHub/HiFive01-RevB/FS_workspace/002_LED_Blink_All/freedom-metal/metal/gpio.h:132
    }
}
200152d6:	853e                	mv	a0,a5
200152d8:	40f2                	lw	ra,28(sp)
200152da:	4462                	lw	s0,24(sp)
200152dc:	6105                	addi	sp,sp,32
200152de:	8082                	ret

200152e0 <metal_gpio_toggle_pin>:
metal_gpio_toggle_pin():
E:/GitHub/HiFive01-RevB/FS_workspace/002_LED_Blink_All/freedom-metal/metal/gpio.h:194
 * @brief Toggles the value of the GPIO pin
 * @param gpio The handle for the GPIO interface
 * @param pin The pin number indexed from 0
 * @return 0 if the pin is successfully toggled
 */
__inline__ int metal_gpio_toggle_pin(struct metal_gpio *gpio, int pin) {
200152e0:	1101                	addi	sp,sp,-32
200152e2:	ce06                	sw	ra,28(sp)
200152e4:	cc22                	sw	s0,24(sp)
200152e6:	1000                	addi	s0,sp,32
200152e8:	fea42623          	sw	a0,-20(s0)
200152ec:	feb42423          	sw	a1,-24(s0)
E:/GitHub/HiFive01-RevB/FS_workspace/002_LED_Blink_All/freedom-metal/metal/gpio.h:195
    if (!gpio) {
200152f0:	fec42783          	lw	a5,-20(s0)
200152f4:	e399                	bnez	a5,200152fa <metal_gpio_toggle_pin+0x1a>
E:/GitHub/HiFive01-RevB/FS_workspace/002_LED_Blink_All/freedom-metal/metal/gpio.h:196
        return 1;
200152f6:	4785                	li	a5,1
200152f8:	a839                	j	20015316 <metal_gpio_toggle_pin+0x36>
E:/GitHub/HiFive01-RevB/FS_workspace/002_LED_Blink_All/freedom-metal/metal/gpio.h:199
    }

    return gpio->vtable->output_toggle(gpio, (1 << pin));
200152fa:	fec42783          	lw	a5,-20(s0)
200152fe:	439c                	lw	a5,0(a5)
20015300:	5394                	lw	a3,32(a5)
20015302:	fe842783          	lw	a5,-24(s0)
20015306:	4705                	li	a4,1
20015308:	00f717b3          	sll	a5,a4,a5
2001530c:	85be                	mv	a1,a5
2001530e:	fec42503          	lw	a0,-20(s0)
20015312:	9682                	jalr	a3
20015314:	87aa                	mv	a5,a0
E:/GitHub/HiFive01-RevB/FS_workspace/002_LED_Blink_All/freedom-metal/metal/gpio.h:200
}
20015316:	853e                	mv	a0,a5
20015318:	40f2                	lw	ra,28(sp)
2001531a:	4462                	lw	s0,24(sp)
2001531c:	6105                	addi	sp,sp,32
2001531e:	8082                	ret

20015320 <metal_shutdown>:
metal_shutdown():
E:/GitHub/HiFive01-RevB/FS_workspace/002_LED_Blink_All/freedom-metal/src/shutdown.c:17
    __metal_shutdown_exit(__METAL_DT_SHUTDOWN_HANDLE, code);
}
#else
#pragma message(                                                               \
    "There is no defined shutdown mechanism, metal_shutdown() will spin.")
void metal_shutdown(int code) {
20015320:	1101                	addi	sp,sp,-32
20015322:	ce22                	sw	s0,28(sp)
20015324:	1000                	addi	s0,sp,32
20015326:	fea42623          	sw	a0,-20(s0)
E:/GitHub/HiFive01-RevB/FS_workspace/002_LED_Blink_All/freedom-metal/src/shutdown.c:19 (discriminator 1)
    while (1) {
        __asm__ volatile("nop");
2001532a:	0001                	nop
2001532c:	bffd                	j	2001532a <metal_shutdown+0xa>
	...

20015380 <__metal_vector_table>:
IRQ_0():
E:/GitHub/HiFive01-RevB/FS_workspace/002_LED_Blink_All/freedom-metal/src/vector.S:96
#endif
.option norvc
.global __metal_vector_table
__metal_vector_table:
IRQ_0:
        j metal_interrupt_vector_handler
20015380:	eeafc06f          	j	20011a6a <metal_interrupt_vector_handler>

20015384 <IRQ_1>:
IRQ_1():
E:/GitHub/HiFive01-RevB/FS_workspace/002_LED_Blink_All/freedom-metal/src/vector.S:98
IRQ_1:
        j metal_interrupt_vector_handler
20015384:	ee6fc06f          	j	20011a6a <metal_interrupt_vector_handler>

20015388 <IRQ_2>:
IRQ_2():
E:/GitHub/HiFive01-RevB/FS_workspace/002_LED_Blink_All/freedom-metal/src/vector.S:100
IRQ_2:
        j metal_interrupt_vector_handler
20015388:	ee2fc06f          	j	20011a6a <metal_interrupt_vector_handler>

2001538c <IRQ_3>:
IRQ_3():
E:/GitHub/HiFive01-RevB/FS_workspace/002_LED_Blink_All/freedom-metal/src/vector.S:102
IRQ_3:
        j metal_software_interrupt_vector_handler
2001538c:	f0cfc06f          	j	20011a98 <metal_software_interrupt_vector_handler>

20015390 <IRQ_4>:
IRQ_4():
E:/GitHub/HiFive01-RevB/FS_workspace/002_LED_Blink_All/freedom-metal/src/vector.S:104
IRQ_4:
        j metal_interrupt_vector_handler
20015390:	edafc06f          	j	20011a6a <metal_interrupt_vector_handler>

20015394 <IRQ_5>:
IRQ_5():
E:/GitHub/HiFive01-RevB/FS_workspace/002_LED_Blink_All/freedom-metal/src/vector.S:106
IRQ_5:
        j metal_interrupt_vector_handler
20015394:	ed6fc06f          	j	20011a6a <metal_interrupt_vector_handler>

20015398 <IRQ_6>:
IRQ_6():
E:/GitHub/HiFive01-RevB/FS_workspace/002_LED_Blink_All/freedom-metal/src/vector.S:108
IRQ_6:
        j metal_interrupt_vector_handler
20015398:	ed2fc06f          	j	20011a6a <metal_interrupt_vector_handler>

2001539c <IRQ_7>:
IRQ_7():
E:/GitHub/HiFive01-RevB/FS_workspace/002_LED_Blink_All/freedom-metal/src/vector.S:110
IRQ_7:
        j metal_timer_interrupt_vector_handler
2001539c:	ff6fc06f          	j	20011b92 <metal_timer_interrupt_vector_handler>

200153a0 <IRQ_8>:
IRQ_8():
E:/GitHub/HiFive01-RevB/FS_workspace/002_LED_Blink_All/freedom-metal/src/vector.S:112
IRQ_8:
        j metal_interrupt_vector_handler
200153a0:	ecafc06f          	j	20011a6a <metal_interrupt_vector_handler>

200153a4 <IRQ_9>:
IRQ_9():
E:/GitHub/HiFive01-RevB/FS_workspace/002_LED_Blink_All/freedom-metal/src/vector.S:114
IRQ_9:
        j metal_interrupt_vector_handler
200153a4:	ec6fc06f          	j	20011a6a <metal_interrupt_vector_handler>

200153a8 <IRQ_10>:
IRQ_10():
E:/GitHub/HiFive01-RevB/FS_workspace/002_LED_Blink_All/freedom-metal/src/vector.S:116
IRQ_10:
        j metal_interrupt_vector_handler
200153a8:	ec2fc06f          	j	20011a6a <metal_interrupt_vector_handler>

200153ac <IRQ_11>:
IRQ_11():
E:/GitHub/HiFive01-RevB/FS_workspace/002_LED_Blink_All/freedom-metal/src/vector.S:118
IRQ_11:
        j metal_interrupt_vector_handler
200153ac:	ebefc06f          	j	20011a6a <metal_interrupt_vector_handler>

200153b0 <IRQ_12>:
IRQ_12():
E:/GitHub/HiFive01-RevB/FS_workspace/002_LED_Blink_All/freedom-metal/src/vector.S:120
IRQ_12:
        j metal_interrupt_vector_handler
200153b0:	ebafc06f          	j	20011a6a <metal_interrupt_vector_handler>

200153b4 <IRQ_13>:
IRQ_13():
E:/GitHub/HiFive01-RevB/FS_workspace/002_LED_Blink_All/freedom-metal/src/vector.S:122
IRQ_13:
        j metal_interrupt_vector_handler
200153b4:	eb6fc06f          	j	20011a6a <metal_interrupt_vector_handler>

200153b8 <IRQ_14>:
IRQ_14():
E:/GitHub/HiFive01-RevB/FS_workspace/002_LED_Blink_All/freedom-metal/src/vector.S:124
IRQ_14:
        j metal_interrupt_vector_handler
200153b8:	eb2fc06f          	j	20011a6a <metal_interrupt_vector_handler>

200153bc <IRQ_15>:
IRQ_15():
E:/GitHub/HiFive01-RevB/FS_workspace/002_LED_Blink_All/freedom-metal/src/vector.S:126
IRQ_15:
        j metal_interrupt_vector_handler
200153bc:	eaefc06f          	j	20011a6a <metal_interrupt_vector_handler>

200153c0 <IRQ_LC0>:
IRQ_LC0():
E:/GitHub/HiFive01-RevB/FS_workspace/002_LED_Blink_All/freedom-metal/src/vector.S:128
IRQ_LC0:
        j metal_lc0_interrupt_vector_handler
200153c0:	b37fc06f          	j	20011ef6 <metal_lc0_interrupt_vector_handler>

200153c4 <IRQ_LC1>:
IRQ_LC1():
E:/GitHub/HiFive01-RevB/FS_workspace/002_LED_Blink_All/freedom-metal/src/vector.S:130
IRQ_LC1:
        j metal_lc1_interrupt_vector_handler
200153c4:	bc9fc06f          	j	20011f8c <metal_lc1_interrupt_vector_handler>

200153c8 <IRQ_LC2>:
IRQ_LC2():
E:/GitHub/HiFive01-RevB/FS_workspace/002_LED_Blink_All/freedom-metal/src/vector.S:132
IRQ_LC2:
        j metal_lc2_interrupt_vector_handler
200153c8:	c5bfc06f          	j	20012022 <metal_lc2_interrupt_vector_handler>

200153cc <IRQ_LC3>:
IRQ_LC3():
E:/GitHub/HiFive01-RevB/FS_workspace/002_LED_Blink_All/freedom-metal/src/vector.S:134
IRQ_LC3:
        j metal_lc3_interrupt_vector_handler
200153cc:	cedfc06f          	j	200120b8 <metal_lc3_interrupt_vector_handler>

200153d0 <IRQ_LC4>:
IRQ_LC4():
E:/GitHub/HiFive01-RevB/FS_workspace/002_LED_Blink_All/freedom-metal/src/vector.S:136
IRQ_LC4:
        j metal_lc4_interrupt_vector_handler
200153d0:	d7ffc06f          	j	2001214e <metal_lc4_interrupt_vector_handler>

200153d4 <IRQ_LC5>:
IRQ_LC5():
E:/GitHub/HiFive01-RevB/FS_workspace/002_LED_Blink_All/freedom-metal/src/vector.S:138
IRQ_LC5:
        j metal_lc5_interrupt_vector_handler
200153d4:	e11fc06f          	j	200121e4 <metal_lc5_interrupt_vector_handler>

200153d8 <IRQ_LC6>:
IRQ_LC6():
E:/GitHub/HiFive01-RevB/FS_workspace/002_LED_Blink_All/freedom-metal/src/vector.S:140
IRQ_LC6:
        j metal_lc6_interrupt_vector_handler
200153d8:	ea3fc06f          	j	2001227a <metal_lc6_interrupt_vector_handler>

200153dc <IRQ_LC7>:
IRQ_LC7():
E:/GitHub/HiFive01-RevB/FS_workspace/002_LED_Blink_All/freedom-metal/src/vector.S:142
IRQ_LC7:
        j metal_lc7_interrupt_vector_handler
200153dc:	f35fc06f          	j	20012310 <metal_lc7_interrupt_vector_handler>

200153e0 <IRQ_LC8>:
IRQ_LC8():
E:/GitHub/HiFive01-RevB/FS_workspace/002_LED_Blink_All/freedom-metal/src/vector.S:144
IRQ_LC8:
        j metal_lc8_interrupt_vector_handler
200153e0:	fc7fc06f          	j	200123a6 <metal_lc8_interrupt_vector_handler>

200153e4 <IRQ_LC9>:
IRQ_LC9():
E:/GitHub/HiFive01-RevB/FS_workspace/002_LED_Blink_All/freedom-metal/src/vector.S:146
IRQ_LC9:
        j metal_lc9_interrupt_vector_handler
200153e4:	858fd06f          	j	2001243c <metal_lc9_interrupt_vector_handler>

200153e8 <IRQ_LC10>:
IRQ_LC10():
E:/GitHub/HiFive01-RevB/FS_workspace/002_LED_Blink_All/freedom-metal/src/vector.S:148
IRQ_LC10:
        j metal_lc10_interrupt_vector_handler
200153e8:	8eafd06f          	j	200124d2 <metal_lc10_interrupt_vector_handler>

200153ec <IRQ_LC11>:
IRQ_LC11():
E:/GitHub/HiFive01-RevB/FS_workspace/002_LED_Blink_All/freedom-metal/src/vector.S:150
IRQ_LC11:
        j metal_lc11_interrupt_vector_handler
200153ec:	97cfd06f          	j	20012568 <metal_lc11_interrupt_vector_handler>

200153f0 <IRQ_LC12>:
IRQ_LC12():
E:/GitHub/HiFive01-RevB/FS_workspace/002_LED_Blink_All/freedom-metal/src/vector.S:152
IRQ_LC12:
        j metal_lc12_interrupt_vector_handler
200153f0:	a0efd06f          	j	200125fe <metal_lc12_interrupt_vector_handler>

200153f4 <IRQ_LC13>:
IRQ_LC13():
E:/GitHub/HiFive01-RevB/FS_workspace/002_LED_Blink_All/freedom-metal/src/vector.S:154
IRQ_LC13:
        j metal_lc13_interrupt_vector_handler
200153f4:	aa0fd06f          	j	20012694 <metal_lc13_interrupt_vector_handler>

200153f8 <IRQ_LC14>:
IRQ_LC14():
E:/GitHub/HiFive01-RevB/FS_workspace/002_LED_Blink_All/freedom-metal/src/vector.S:156
IRQ_LC14:
        j metal_lc14_interrupt_vector_handler
200153f8:	b32fd06f          	j	2001272a <metal_lc14_interrupt_vector_handler>

200153fc <IRQ_LC15>:
IRQ_LC15():
E:/GitHub/HiFive01-RevB/FS_workspace/002_LED_Blink_All/freedom-metal/src/vector.S:158
IRQ_LC15:
        j metal_lc15_interrupt_vector_handler
200153fc:	bc4fd06f          	j	200127c0 <metal_lc15_interrupt_vector_handler>

20015400 <__metal_driver_fixed_clock_rate>:
__metal_driver_fixed_clock_rate():
E:\GitHub\HiFive01-RevB\FS_workspace\002_LED_Blink_All\bsp\build\debug/./metal/machine.h:208
{
20015400:	1101                	addi	sp,sp,-32
20015402:	ce22                	sw	s0,28(sp)
20015404:	1000                	addi	s0,sp,32
20015406:	fea42623          	sw	a0,-20(s0)
E:\GitHub\HiFive01-RevB\FS_workspace\002_LED_Blink_All\bsp\build\debug/./metal/machine.h:209
	if ((uintptr_t)clock == (uintptr_t)&__metal_dt_clock_0) {
2001540a:	fec42703          	lw	a4,-20(s0)
2001540e:	800007b7          	lui	a5,0x80000
20015412:	00c78793          	addi	a5,a5,12 # 8000000c <__global_pointer$+0xffffed9c>
20015416:	00f71763          	bne	a4,a5,20015424 <__metal_driver_fixed_clock_rate+0x24>
E:\GitHub\HiFive01-RevB\FS_workspace\002_LED_Blink_All\bsp\build\debug/./metal/machine.h:210
		return METAL_FIXED_CLOCK_0_CLOCK_FREQUENCY;
2001541a:	00f427b7          	lui	a5,0xf42
2001541e:	40078793          	addi	a5,a5,1024 # f42400 <__heap_size+0xf41c00>
20015422:	a099                	j	20015468 <__metal_driver_fixed_clock_rate+0x68>
E:\GitHub\HiFive01-RevB\FS_workspace\002_LED_Blink_All\bsp\build\debug/./metal/machine.h:212
	else if ((uintptr_t)clock == (uintptr_t)&__metal_dt_clock_2) {
20015424:	fec42703          	lw	a4,-20(s0)
20015428:	800007b7          	lui	a5,0x80000
2001542c:	01878793          	addi	a5,a5,24 # 80000018 <__global_pointer$+0xffffeda8>
20015430:	00f71763          	bne	a4,a5,2001543e <__metal_driver_fixed_clock_rate+0x3e>
E:\GitHub\HiFive01-RevB\FS_workspace\002_LED_Blink_All\bsp\build\debug/./metal/machine.h:213
		return METAL_FIXED_CLOCK_2_CLOCK_FREQUENCY;
20015434:	044aa7b7          	lui	a5,0x44aa
20015438:	20078793          	addi	a5,a5,512 # 44aa200 <__heap_size+0x44a9a00>
2001543c:	a035                	j	20015468 <__metal_driver_fixed_clock_rate+0x68>
E:\GitHub\HiFive01-RevB\FS_workspace\002_LED_Blink_All\bsp\build\debug/./metal/machine.h:215
	else if ((uintptr_t)clock == (uintptr_t)&__metal_dt_clock_5) {
2001543e:	fec42703          	lw	a4,-20(s0)
20015442:	800007b7          	lui	a5,0x80000
20015446:	02478793          	addi	a5,a5,36 # 80000024 <__global_pointer$+0xffffedb4>
2001544a:	00f71463          	bne	a4,a5,20015452 <__metal_driver_fixed_clock_rate+0x52>
E:\GitHub\HiFive01-RevB\FS_workspace\002_LED_Blink_All\bsp\build\debug/./metal/machine.h:216
		return METAL_FIXED_CLOCK_5_CLOCK_FREQUENCY;
2001544e:	67a1                	lui	a5,0x8
20015450:	a821                	j	20015468 <__metal_driver_fixed_clock_rate+0x68>
E:\GitHub\HiFive01-RevB\FS_workspace\002_LED_Blink_All\bsp\build\debug/./metal/machine.h:218
	else if ((uintptr_t)clock == (uintptr_t)&__metal_dt_clock_6) {
20015452:	fec42703          	lw	a4,-20(s0)
20015456:	800007b7          	lui	a5,0x80000
2001545a:	03078793          	addi	a5,a5,48 # 80000030 <__global_pointer$+0xffffedc0>
2001545e:	00f71463          	bne	a4,a5,20015466 <__metal_driver_fixed_clock_rate+0x66>
E:\GitHub\HiFive01-RevB\FS_workspace\002_LED_Blink_All\bsp\build\debug/./metal/machine.h:219
		return METAL_FIXED_CLOCK_6_CLOCK_FREQUENCY;
20015462:	67a1                	lui	a5,0x8
20015464:	a011                	j	20015468 <__metal_driver_fixed_clock_rate+0x68>
E:\GitHub\HiFive01-RevB\FS_workspace\002_LED_Blink_All\bsp\build\debug/./metal/machine.h:222
		return 0;
20015466:	4781                	li	a5,0
E:\GitHub\HiFive01-RevB\FS_workspace\002_LED_Blink_All\bsp\build\debug/./metal/machine.h:224
}
20015468:	853e                	mv	a0,a5
2001546a:	4472                	lw	s0,28(sp)
2001546c:	6105                	addi	sp,sp,32
2001546e:	8082                	ret

20015470 <__metal_driver_fixed_clock_get_rate_hz>:
__metal_driver_fixed_clock_get_rate_hz():
E:/GitHub/HiFive01-RevB/FS_workspace/002_LED_Blink_All/freedom-metal/src/drivers/fixed-clock.c:12

#include <metal/drivers/fixed-clock.h>
#include <metal/machine.h>
#include <stddef.h>

long __metal_driver_fixed_clock_get_rate_hz(const struct metal_clock *gclk) {
20015470:	1101                	addi	sp,sp,-32
20015472:	ce06                	sw	ra,28(sp)
20015474:	cc22                	sw	s0,24(sp)
20015476:	1000                	addi	s0,sp,32
20015478:	fea42623          	sw	a0,-20(s0)
E:/GitHub/HiFive01-RevB/FS_workspace/002_LED_Blink_All/freedom-metal/src/drivers/fixed-clock.c:13
    return __metal_driver_fixed_clock_rate(gclk);
2001547c:	fec42503          	lw	a0,-20(s0)
20015480:	3741                	jal	20015400 <__metal_driver_fixed_clock_rate>
20015482:	87aa                	mv	a5,a0
E:/GitHub/HiFive01-RevB/FS_workspace/002_LED_Blink_All/freedom-metal/src/drivers/fixed-clock.c:14
}
20015484:	853e                	mv	a0,a5
20015486:	40f2                	lw	ra,28(sp)
20015488:	4462                	lw	s0,24(sp)
2001548a:	6105                	addi	sp,sp,32
2001548c:	8082                	ret

2001548e <__metal_driver_fixed_clock_set_rate_hz>:
__metal_driver_fixed_clock_set_rate_hz():
E:/GitHub/HiFive01-RevB/FS_workspace/002_LED_Blink_All/freedom-metal/src/drivers/fixed-clock.c:17

long __metal_driver_fixed_clock_set_rate_hz(struct metal_clock *gclk,
                                            long target_hz) {
2001548e:	1101                	addi	sp,sp,-32
20015490:	ce06                	sw	ra,28(sp)
20015492:	cc22                	sw	s0,24(sp)
20015494:	1000                	addi	s0,sp,32
20015496:	fea42623          	sw	a0,-20(s0)
2001549a:	feb42423          	sw	a1,-24(s0)
E:/GitHub/HiFive01-RevB/FS_workspace/002_LED_Blink_All/freedom-metal/src/drivers/fixed-clock.c:18
    return __metal_driver_fixed_clock_get_rate_hz(gclk);
2001549e:	fec42503          	lw	a0,-20(s0)
200154a2:	37f9                	jal	20015470 <__metal_driver_fixed_clock_get_rate_hz>
200154a4:	87aa                	mv	a5,a0
E:/GitHub/HiFive01-RevB/FS_workspace/002_LED_Blink_All/freedom-metal/src/drivers/fixed-clock.c:19
}
200154a6:	853e                	mv	a0,a5
200154a8:	40f2                	lw	ra,28(sp)
200154aa:	4462                	lw	s0,24(sp)
200154ac:	6105                	addi	sp,sp,32
200154ae:	8082                	ret

200154b0 <atexit>:
atexit():
200154b0:	85aa                	mv	a1,a0
200154b2:	4681                	li	a3,0
200154b4:	4601                	li	a2,0
200154b6:	4501                	li	a0,0
200154b8:	a429                	j	200156c2 <__register_exitproc>

200154ba <exit>:
exit():
200154ba:	1141                	addi	sp,sp,-16
200154bc:	c422                	sw	s0,8(sp)
200154be:	c606                	sw	ra,12(sp)
200154c0:	00000797          	auipc	a5,0x0
200154c4:	27e78793          	addi	a5,a5,638 # 2001573e <__call_exitprocs>
200154c8:	842a                	mv	s0,a0
200154ca:	c399                	beqz	a5,200154d0 <exit+0x16>
200154cc:	4581                	li	a1,0
200154ce:	2c85                	jal	2001573e <__call_exitprocs>
200154d0:	ffffc517          	auipc	a0,0xffffc
200154d4:	9e852503          	lw	a0,-1560(a0) # 20010eb8 <_global_impure_ptr>
200154d8:	551c                	lw	a5,40(a0)
200154da:	c391                	beqz	a5,200154de <exit+0x24>
200154dc:	9782                	jalr	a5
200154de:	8522                	mv	a0,s0
200154e0:	293d                	jal	2001591e <_exit>

200154e2 <__libc_fini_array>:
__libc_fini_array():
200154e2:	1141                	addi	sp,sp,-16
200154e4:	c422                	sw	s0,8(sp)
200154e6:	c226                	sw	s1,4(sp)
200154e8:	ffffb417          	auipc	s0,0xffffb
200154ec:	e0040413          	addi	s0,s0,-512 # 200102e8 <metal_sifive_fe310_g000_pll_init>
200154f0:	ffffb497          	auipc	s1,0xffffb
200154f4:	df848493          	addi	s1,s1,-520 # 200102e8 <metal_sifive_fe310_g000_pll_init>
200154f8:	8c05                	sub	s0,s0,s1
200154fa:	c606                	sw	ra,12(sp)
200154fc:	8409                	srai	s0,s0,0x2
200154fe:	e411                	bnez	s0,2001550a <__libc_fini_array+0x28>
20015500:	40b2                	lw	ra,12(sp)
20015502:	4422                	lw	s0,8(sp)
20015504:	4492                	lw	s1,4(sp)
20015506:	0141                	addi	sp,sp,16
20015508:	8082                	ret
2001550a:	147d                	addi	s0,s0,-1
2001550c:	00241793          	slli	a5,s0,0x2
20015510:	97a6                	add	a5,a5,s1
20015512:	439c                	lw	a5,0(a5)
20015514:	9782                	jalr	a5
20015516:	b7e5                	j	200154fe <__libc_fini_array+0x1c>

20015518 <__libc_init_array>:
__libc_init_array():
20015518:	1141                	addi	sp,sp,-16
2001551a:	c422                	sw	s0,8(sp)
2001551c:	c226                	sw	s1,4(sp)
2001551e:	ffffb417          	auipc	s0,0xffffb
20015522:	dc240413          	addi	s0,s0,-574 # 200102e0 <_metal_sifive_fe310_g000_pll_init_ptr>
20015526:	ffffb497          	auipc	s1,0xffffb
2001552a:	dba48493          	addi	s1,s1,-582 # 200102e0 <_metal_sifive_fe310_g000_pll_init_ptr>
2001552e:	8c81                	sub	s1,s1,s0
20015530:	c04a                	sw	s2,0(sp)
20015532:	c606                	sw	ra,12(sp)
20015534:	8489                	srai	s1,s1,0x2
20015536:	4901                	li	s2,0
20015538:	02991563          	bne	s2,s1,20015562 <__libc_init_array+0x4a>
2001553c:	ffffb417          	auipc	s0,0xffffb
20015540:	da440413          	addi	s0,s0,-604 # 200102e0 <_metal_sifive_fe310_g000_pll_init_ptr>
20015544:	ffffb497          	auipc	s1,0xffffb
20015548:	d9c48493          	addi	s1,s1,-612 # 200102e0 <_metal_sifive_fe310_g000_pll_init_ptr>
2001554c:	8c81                	sub	s1,s1,s0
2001554e:	8489                	srai	s1,s1,0x2
20015550:	4901                	li	s2,0
20015552:	00991d63          	bne	s2,s1,2001556c <__libc_init_array+0x54>
20015556:	40b2                	lw	ra,12(sp)
20015558:	4422                	lw	s0,8(sp)
2001555a:	4492                	lw	s1,4(sp)
2001555c:	4902                	lw	s2,0(sp)
2001555e:	0141                	addi	sp,sp,16
20015560:	8082                	ret
20015562:	401c                	lw	a5,0(s0)
20015564:	0905                	addi	s2,s2,1
20015566:	0411                	addi	s0,s0,4
20015568:	9782                	jalr	a5
2001556a:	b7f9                	j	20015538 <__libc_init_array+0x20>
2001556c:	401c                	lw	a5,0(s0)
2001556e:	0905                	addi	s2,s2,1
20015570:	0411                	addi	s0,s0,4
20015572:	9782                	jalr	a5
20015574:	bff9                	j	20015552 <__libc_init_array+0x3a>

20015576 <strcat>:
strcat():
20015576:	87aa                	mv	a5,a0
20015578:	0007c683          	lbu	a3,0(a5)
2001557c:	873e                	mv	a4,a5
2001557e:	0785                	addi	a5,a5,1
20015580:	fee5                	bnez	a3,20015578 <strcat+0x2>
20015582:	0005c783          	lbu	a5,0(a1)
20015586:	0585                	addi	a1,a1,1
20015588:	0705                	addi	a4,a4,1
2001558a:	fef70fa3          	sb	a5,-1(a4)
2001558e:	fbf5                	bnez	a5,20015582 <strcat+0xc>
20015590:	8082                	ret

20015592 <strcmp>:
strcmp():
20015592:	00b56733          	or	a4,a0,a1
20015596:	53fd                	li	t2,-1
20015598:	8b0d                	andi	a4,a4,3
2001559a:	e779                	bnez	a4,20015668 <strcmp+0xd6>
2001559c:	7f7f87b7          	lui	a5,0x7f7f8
200155a0:	f7f78793          	addi	a5,a5,-129 # 7f7f7f7f <metal_segment_data_source_start+0x5f7e2647>
200155a4:	4110                	lw	a2,0(a0)
200155a6:	4194                	lw	a3,0(a1)
200155a8:	00f672b3          	and	t0,a2,a5
200155ac:	00f66333          	or	t1,a2,a5
200155b0:	92be                	add	t0,t0,a5
200155b2:	0062e2b3          	or	t0,t0,t1
200155b6:	0c729763          	bne	t0,t2,20015684 <strcmp+0xf2>
200155ba:	06d61863          	bne	a2,a3,2001562a <strcmp+0x98>
200155be:	4150                	lw	a2,4(a0)
200155c0:	41d4                	lw	a3,4(a1)
200155c2:	00f672b3          	and	t0,a2,a5
200155c6:	00f66333          	or	t1,a2,a5
200155ca:	92be                	add	t0,t0,a5
200155cc:	0062e2b3          	or	t0,t0,t1
200155d0:	0a729863          	bne	t0,t2,20015680 <strcmp+0xee>
200155d4:	04d61b63          	bne	a2,a3,2001562a <strcmp+0x98>
200155d8:	4510                	lw	a2,8(a0)
200155da:	4594                	lw	a3,8(a1)
200155dc:	00f672b3          	and	t0,a2,a5
200155e0:	00f66333          	or	t1,a2,a5
200155e4:	92be                	add	t0,t0,a5
200155e6:	0062e2b3          	or	t0,t0,t1
200155ea:	0a729163          	bne	t0,t2,2001568c <strcmp+0xfa>
200155ee:	02d61e63          	bne	a2,a3,2001562a <strcmp+0x98>
200155f2:	4550                	lw	a2,12(a0)
200155f4:	45d4                	lw	a3,12(a1)
200155f6:	00f672b3          	and	t0,a2,a5
200155fa:	00f66333          	or	t1,a2,a5
200155fe:	92be                	add	t0,t0,a5
20015600:	0062e2b3          	or	t0,t0,t1
20015604:	08729a63          	bne	t0,t2,20015698 <strcmp+0x106>
20015608:	02d61163          	bne	a2,a3,2001562a <strcmp+0x98>
2001560c:	4910                	lw	a2,16(a0)
2001560e:	4994                	lw	a3,16(a1)
20015610:	00f672b3          	and	t0,a2,a5
20015614:	00f66333          	or	t1,a2,a5
20015618:	92be                	add	t0,t0,a5
2001561a:	0062e2b3          	or	t0,t0,t1
2001561e:	08729363          	bne	t0,t2,200156a4 <strcmp+0x112>
20015622:	0551                	addi	a0,a0,20
20015624:	05d1                	addi	a1,a1,20
20015626:	f6d60fe3          	beq	a2,a3,200155a4 <strcmp+0x12>
2001562a:	01061713          	slli	a4,a2,0x10
2001562e:	01069793          	slli	a5,a3,0x10
20015632:	00f71c63          	bne	a4,a5,2001564a <strcmp+0xb8>
20015636:	01065713          	srli	a4,a2,0x10
2001563a:	0106d793          	srli	a5,a3,0x10
2001563e:	40f70533          	sub	a0,a4,a5
20015642:	0ff57593          	zext.b	a1,a0
20015646:	e991                	bnez	a1,2001565a <strcmp+0xc8>
20015648:	8082                	ret
2001564a:	8341                	srli	a4,a4,0x10
2001564c:	83c1                	srli	a5,a5,0x10
2001564e:	40f70533          	sub	a0,a4,a5
20015652:	0ff57593          	zext.b	a1,a0
20015656:	e191                	bnez	a1,2001565a <strcmp+0xc8>
20015658:	8082                	ret
2001565a:	0ff77713          	zext.b	a4,a4
2001565e:	0ff7f793          	zext.b	a5,a5
20015662:	40f70533          	sub	a0,a4,a5
20015666:	8082                	ret
20015668:	00054603          	lbu	a2,0(a0)
2001566c:	0005c683          	lbu	a3,0(a1)
20015670:	0505                	addi	a0,a0,1
20015672:	0585                	addi	a1,a1,1
20015674:	00d61363          	bne	a2,a3,2001567a <strcmp+0xe8>
20015678:	fa65                	bnez	a2,20015668 <strcmp+0xd6>
2001567a:	40d60533          	sub	a0,a2,a3
2001567e:	8082                	ret
20015680:	0511                	addi	a0,a0,4
20015682:	0591                	addi	a1,a1,4
20015684:	fed612e3          	bne	a2,a3,20015668 <strcmp+0xd6>
20015688:	4501                	li	a0,0
2001568a:	8082                	ret
2001568c:	0521                	addi	a0,a0,8
2001568e:	05a1                	addi	a1,a1,8
20015690:	fcd61ce3          	bne	a2,a3,20015668 <strcmp+0xd6>
20015694:	4501                	li	a0,0
20015696:	8082                	ret
20015698:	0531                	addi	a0,a0,12
2001569a:	05b1                	addi	a1,a1,12
2001569c:	fcd616e3          	bne	a2,a3,20015668 <strcmp+0xd6>
200156a0:	4501                	li	a0,0
200156a2:	8082                	ret
200156a4:	0541                	addi	a0,a0,16
200156a6:	05c1                	addi	a1,a1,16
200156a8:	fcd610e3          	bne	a2,a3,20015668 <strcmp+0xd6>
200156ac:	4501                	li	a0,0
200156ae:	8082                	ret

200156b0 <strcpy>:
strcpy():
200156b0:	87aa                	mv	a5,a0
200156b2:	0005c703          	lbu	a4,0(a1)
200156b6:	0785                	addi	a5,a5,1
200156b8:	0585                	addi	a1,a1,1
200156ba:	fee78fa3          	sb	a4,-1(a5)
200156be:	fb75                	bnez	a4,200156b2 <strcpy+0x2>
200156c0:	8082                	ret

200156c2 <__register_exitproc>:
__register_exitproc():
200156c2:	88aa                	mv	a7,a0
200156c4:	5ffeb517          	auipc	a0,0x5ffeb
200156c8:	3d450513          	addi	a0,a0,980 # 80000a98 <_global_atexit>
200156cc:	411c                	lw	a5,0(a0)
200156ce:	ef91                	bnez	a5,200156ea <__register_exitproc+0x28>
200156d0:	5ffeb717          	auipc	a4,0x5ffeb
200156d4:	3d470713          	addi	a4,a4,980 # 80000aa4 <_global_atexit0>
200156d8:	c118                	sw	a4,0(a0)
200156da:	00000513          	li	a0,0
200156de:	87ba                	mv	a5,a4
200156e0:	c509                	beqz	a0,200156ea <__register_exitproc+0x28>
200156e2:	411c                	lw	a5,0(a0)
200156e4:	08f72423          	sw	a5,136(a4)
200156e8:	87ba                	mv	a5,a4
200156ea:	43d8                	lw	a4,4(a5)
200156ec:	487d                	li	a6,31
200156ee:	557d                	li	a0,-1
200156f0:	04e84663          	blt	a6,a4,2001573c <__register_exitproc+0x7a>
200156f4:	02088d63          	beqz	a7,2001572e <__register_exitproc+0x6c>
200156f8:	0887a803          	lw	a6,136(a5)
200156fc:	04080063          	beqz	a6,2001573c <__register_exitproc+0x7a>
20015700:	00271513          	slli	a0,a4,0x2
20015704:	9542                	add	a0,a0,a6
20015706:	c110                	sw	a2,0(a0)
20015708:	10082303          	lw	t1,256(a6)
2001570c:	4605                	li	a2,1
2001570e:	00e61633          	sll	a2,a2,a4
20015712:	00c36333          	or	t1,t1,a2
20015716:	10682023          	sw	t1,256(a6)
2001571a:	08d52023          	sw	a3,128(a0)
2001571e:	4689                	li	a3,2
20015720:	00d89763          	bne	a7,a3,2001572e <__register_exitproc+0x6c>
20015724:	10482683          	lw	a3,260(a6)
20015728:	8e55                	or	a2,a2,a3
2001572a:	10c82223          	sw	a2,260(a6)
2001572e:	00170693          	addi	a3,a4,1
20015732:	070a                	slli	a4,a4,0x2
20015734:	c3d4                	sw	a3,4(a5)
20015736:	97ba                	add	a5,a5,a4
20015738:	c78c                	sw	a1,8(a5)
2001573a:	4501                	li	a0,0
2001573c:	8082                	ret

2001573e <__call_exitprocs>:
__call_exitprocs():
2001573e:	7179                	addi	sp,sp,-48
20015740:	ca56                	sw	s5,20(sp)
20015742:	c85a                	sw	s6,16(sp)
20015744:	c65e                	sw	s7,12(sp)
20015746:	c462                	sw	s8,8(sp)
20015748:	d606                	sw	ra,44(sp)
2001574a:	d422                	sw	s0,40(sp)
2001574c:	d226                	sw	s1,36(sp)
2001574e:	d04a                	sw	s2,32(sp)
20015750:	ce4e                	sw	s3,28(sp)
20015752:	cc52                	sw	s4,24(sp)
20015754:	c266                	sw	s9,4(sp)
20015756:	8b2a                	mv	s6,a0
20015758:	8aae                	mv	s5,a1
2001575a:	5ffebb97          	auipc	s7,0x5ffeb
2001575e:	33eb8b93          	addi	s7,s7,830 # 80000a98 <_global_atexit>
20015762:	4c05                	li	s8,1
20015764:	000ba483          	lw	s1,0(s7)
20015768:	cc81                	beqz	s1,20015780 <__call_exitprocs+0x42>
2001576a:	40c0                	lw	s0,4(s1)
2001576c:	0884a983          	lw	s3,136(s1)
20015770:	fff40913          	addi	s2,s0,-1
20015774:	040a                	slli	s0,s0,0x2
20015776:	00898a33          	add	s4,s3,s0
2001577a:	9426                	add	s0,s0,s1
2001577c:	00095f63          	bgez	s2,2001579a <__call_exitprocs+0x5c>
20015780:	50b2                	lw	ra,44(sp)
20015782:	5422                	lw	s0,40(sp)
20015784:	5492                	lw	s1,36(sp)
20015786:	5902                	lw	s2,32(sp)
20015788:	49f2                	lw	s3,28(sp)
2001578a:	4a62                	lw	s4,24(sp)
2001578c:	4ad2                	lw	s5,20(sp)
2001578e:	4b42                	lw	s6,16(sp)
20015790:	4bb2                	lw	s7,12(sp)
20015792:	4c22                	lw	s8,8(sp)
20015794:	4c92                	lw	s9,4(sp)
20015796:	6145                	addi	sp,sp,48
20015798:	8082                	ret
2001579a:	000a8c63          	beqz	s5,200157b2 <__call_exitprocs+0x74>
2001579e:	00099663          	bnez	s3,200157aa <__call_exitprocs+0x6c>
200157a2:	197d                	addi	s2,s2,-1
200157a4:	1a71                	addi	s4,s4,-4
200157a6:	1471                	addi	s0,s0,-4
200157a8:	bfd1                	j	2001577c <__call_exitprocs+0x3e>
200157aa:	07ca2783          	lw	a5,124(s4)
200157ae:	ff579ae3          	bne	a5,s5,200157a2 <__call_exitprocs+0x64>
200157b2:	40d8                	lw	a4,4(s1)
200157b4:	405c                	lw	a5,4(s0)
200157b6:	177d                	addi	a4,a4,-1
200157b8:	03271863          	bne	a4,s2,200157e8 <__call_exitprocs+0xaa>
200157bc:	0124a223          	sw	s2,4(s1)
200157c0:	d3ed                	beqz	a5,200157a2 <__call_exitprocs+0x64>
200157c2:	0044ac83          	lw	s9,4(s1)
200157c6:	00098863          	beqz	s3,200157d6 <__call_exitprocs+0x98>
200157ca:	1009a683          	lw	a3,256(s3)
200157ce:	012c1733          	sll	a4,s8,s2
200157d2:	8ef9                	and	a3,a3,a4
200157d4:	ee89                	bnez	a3,200157ee <__call_exitprocs+0xb0>
200157d6:	9782                	jalr	a5
200157d8:	40d8                	lw	a4,4(s1)
200157da:	000ba783          	lw	a5,0(s7)
200157de:	f99713e3          	bne	a4,s9,20015764 <__call_exitprocs+0x26>
200157e2:	fcf480e3          	beq	s1,a5,200157a2 <__call_exitprocs+0x64>
200157e6:	bfbd                	j	20015764 <__call_exitprocs+0x26>
200157e8:	00042223          	sw	zero,4(s0)
200157ec:	bfd1                	j	200157c0 <__call_exitprocs+0x82>
200157ee:	1049a683          	lw	a3,260(s3)
200157f2:	ffca2583          	lw	a1,-4(s4)
200157f6:	8f75                	and	a4,a4,a3
200157f8:	e701                	bnez	a4,20015800 <__call_exitprocs+0xc2>
200157fa:	855a                	mv	a0,s6
200157fc:	9782                	jalr	a5
200157fe:	bfe9                	j	200157d8 <__call_exitprocs+0x9a>
20015800:	852e                	mv	a0,a1
20015802:	9782                	jalr	a5
20015804:	bfd1                	j	200157d8 <__call_exitprocs+0x9a>

20015806 <metal_init>:
metal_init():
E:/GitHub/HiFive01-RevB/FS_workspace/002_LED_Blink_All/freedom-metal/src/init.c:17
extern metal_constructor_t metal_constructors_start;
extern metal_constructor_t metal_constructors_end;
extern metal_destructor_t metal_destructors_start;
extern metal_destructor_t metal_destructors_end;

void metal_init(void) {
20015806:	1101                	addi	sp,sp,-32
20015808:	ce06                	sw	ra,28(sp)
2001580a:	cc22                	sw	s0,24(sp)
2001580c:	1000                	addi	s0,sp,32
E:/GitHub/HiFive01-RevB/FS_workspace/002_LED_Blink_All/freedom-metal/src/init.c:20
    /* Make sure the constructors only run once */
    static int init_done = 0;
    if (init_done) {
2001580e:	800017b7          	lui	a5,0x80001
20015812:	a9c7a783          	lw	a5,-1380(a5) # 80000a9c <__global_pointer$+0xfffff82c>
20015816:	efa9                	bnez	a5,20015870 <metal_init+0x6a>
E:/GitHub/HiFive01-RevB/FS_workspace/002_LED_Blink_All/freedom-metal/src/init.c:23
        return;
    }
    init_done = 1;
20015818:	800017b7          	lui	a5,0x80001
2001581c:	4705                	li	a4,1
2001581e:	a8e7ae23          	sw	a4,-1380(a5) # 80000a9c <__global_pointer$+0xfffff82c>
E:/GitHub/HiFive01-RevB/FS_workspace/002_LED_Blink_All/freedom-metal/src/init.c:25

    if (&metal_constructors_end <= &metal_constructors_start) {
20015822:	200107b7          	lui	a5,0x20010
20015826:	2e878713          	addi	a4,a5,744 # 200102e8 <metal_sifive_fe310_g000_pll_init>
2001582a:	200107b7          	lui	a5,0x20010
2001582e:	2e078793          	addi	a5,a5,736 # 200102e0 <_metal_sifive_fe310_g000_pll_init_ptr>
20015832:	04e7f163          	bgeu	a5,a4,20015874 <metal_init+0x6e>
E:/GitHub/HiFive01-RevB/FS_workspace/002_LED_Blink_All/freedom-metal/src/init.c:29
        return;
    }

    metal_constructor_t *funcptr = &metal_constructors_start;
20015836:	200107b7          	lui	a5,0x20010
2001583a:	2e078793          	addi	a5,a5,736 # 200102e0 <_metal_sifive_fe310_g000_pll_init_ptr>
2001583e:	fef42623          	sw	a5,-20(s0)
E:/GitHub/HiFive01-RevB/FS_workspace/002_LED_Blink_All/freedom-metal/src/init.c:30
    while (funcptr != &metal_constructors_end) {
20015842:	a831                	j	2001585e <metal_init+0x58>
E:/GitHub/HiFive01-RevB/FS_workspace/002_LED_Blink_All/freedom-metal/src/init.c:31
        metal_constructor_t func = *funcptr;
20015844:	fec42783          	lw	a5,-20(s0)
20015848:	439c                	lw	a5,0(a5)
2001584a:	fef42423          	sw	a5,-24(s0)
E:/GitHub/HiFive01-RevB/FS_workspace/002_LED_Blink_All/freedom-metal/src/init.c:33

        func();
2001584e:	fe842783          	lw	a5,-24(s0)
20015852:	9782                	jalr	a5
E:/GitHub/HiFive01-RevB/FS_workspace/002_LED_Blink_All/freedom-metal/src/init.c:35

        funcptr += 1;
20015854:	fec42783          	lw	a5,-20(s0)
20015858:	0791                	addi	a5,a5,4
2001585a:	fef42623          	sw	a5,-20(s0)
E:/GitHub/HiFive01-RevB/FS_workspace/002_LED_Blink_All/freedom-metal/src/init.c:30
    while (funcptr != &metal_constructors_end) {
2001585e:	fec42703          	lw	a4,-20(s0)
20015862:	200107b7          	lui	a5,0x20010
20015866:	2e878793          	addi	a5,a5,744 # 200102e8 <metal_sifive_fe310_g000_pll_init>
2001586a:	fcf71de3          	bne	a4,a5,20015844 <metal_init+0x3e>
2001586e:	a021                	j	20015876 <metal_init+0x70>
E:/GitHub/HiFive01-RevB/FS_workspace/002_LED_Blink_All/freedom-metal/src/init.c:21
        return;
20015870:	0001                	nop
20015872:	a011                	j	20015876 <metal_init+0x70>
E:/GitHub/HiFive01-RevB/FS_workspace/002_LED_Blink_All/freedom-metal/src/init.c:26
        return;
20015874:	0001                	nop
E:/GitHub/HiFive01-RevB/FS_workspace/002_LED_Blink_All/freedom-metal/src/init.c:37
    }
}
20015876:	40f2                	lw	ra,28(sp)
20015878:	4462                	lw	s0,24(sp)
2001587a:	6105                	addi	sp,sp,32
2001587c:	8082                	ret

2001587e <metal_fini>:
metal_fini():
E:/GitHub/HiFive01-RevB/FS_workspace/002_LED_Blink_All/freedom-metal/src/init.c:39

void metal_fini(void) {
2001587e:	1101                	addi	sp,sp,-32
20015880:	ce06                	sw	ra,28(sp)
20015882:	cc22                	sw	s0,24(sp)
20015884:	1000                	addi	s0,sp,32
E:/GitHub/HiFive01-RevB/FS_workspace/002_LED_Blink_All/freedom-metal/src/init.c:42
    /* Make sure the destructors only run once */
    static int fini_done = 0;
    if (fini_done) {
20015886:	800017b7          	lui	a5,0x80001
2001588a:	aa07a783          	lw	a5,-1376(a5) # 80000aa0 <__global_pointer$+0xfffff830>
2001588e:	efa9                	bnez	a5,200158e8 <metal_fini+0x6a>
E:/GitHub/HiFive01-RevB/FS_workspace/002_LED_Blink_All/freedom-metal/src/init.c:45
        return;
    }
    fini_done = 1;
20015890:	800017b7          	lui	a5,0x80001
20015894:	4705                	li	a4,1
20015896:	aae7a023          	sw	a4,-1376(a5) # 80000aa0 <__global_pointer$+0xfffff830>
E:/GitHub/HiFive01-RevB/FS_workspace/002_LED_Blink_All/freedom-metal/src/init.c:47

    if (&metal_destructors_end <= &metal_destructors_start) {
2001589a:	200107b7          	lui	a5,0x20010
2001589e:	2e878713          	addi	a4,a5,744 # 200102e8 <metal_sifive_fe310_g000_pll_init>
200158a2:	200107b7          	lui	a5,0x20010
200158a6:	2e878793          	addi	a5,a5,744 # 200102e8 <metal_sifive_fe310_g000_pll_init>
200158aa:	04e7f163          	bgeu	a5,a4,200158ec <metal_fini+0x6e>
E:/GitHub/HiFive01-RevB/FS_workspace/002_LED_Blink_All/freedom-metal/src/init.c:51
        return;
    }

    metal_destructor_t *funcptr = &metal_destructors_start;
200158ae:	200107b7          	lui	a5,0x20010
200158b2:	2e878793          	addi	a5,a5,744 # 200102e8 <metal_sifive_fe310_g000_pll_init>
200158b6:	fef42623          	sw	a5,-20(s0)
E:/GitHub/HiFive01-RevB/FS_workspace/002_LED_Blink_All/freedom-metal/src/init.c:52
    while (funcptr != &metal_destructors_end) {
200158ba:	a831                	j	200158d6 <metal_fini+0x58>
E:/GitHub/HiFive01-RevB/FS_workspace/002_LED_Blink_All/freedom-metal/src/init.c:53
        metal_destructor_t func = *funcptr;
200158bc:	fec42783          	lw	a5,-20(s0)
200158c0:	439c                	lw	a5,0(a5)
200158c2:	fef42423          	sw	a5,-24(s0)
E:/GitHub/HiFive01-RevB/FS_workspace/002_LED_Blink_All/freedom-metal/src/init.c:55

        func();
200158c6:	fe842783          	lw	a5,-24(s0)
200158ca:	9782                	jalr	a5
E:/GitHub/HiFive01-RevB/FS_workspace/002_LED_Blink_All/freedom-metal/src/init.c:57

        funcptr += 1;
200158cc:	fec42783          	lw	a5,-20(s0)
200158d0:	0791                	addi	a5,a5,4
200158d2:	fef42623          	sw	a5,-20(s0)
E:/GitHub/HiFive01-RevB/FS_workspace/002_LED_Blink_All/freedom-metal/src/init.c:52
    while (funcptr != &metal_destructors_end) {
200158d6:	fec42703          	lw	a4,-20(s0)
200158da:	200107b7          	lui	a5,0x20010
200158de:	2e878793          	addi	a5,a5,744 # 200102e8 <metal_sifive_fe310_g000_pll_init>
200158e2:	fcf71de3          	bne	a4,a5,200158bc <metal_fini+0x3e>
200158e6:	a021                	j	200158ee <metal_fini+0x70>
E:/GitHub/HiFive01-RevB/FS_workspace/002_LED_Blink_All/freedom-metal/src/init.c:43
        return;
200158e8:	0001                	nop
200158ea:	a011                	j	200158ee <metal_fini+0x70>
E:/GitHub/HiFive01-RevB/FS_workspace/002_LED_Blink_All/freedom-metal/src/init.c:48
        return;
200158ec:	0001                	nop
E:/GitHub/HiFive01-RevB/FS_workspace/002_LED_Blink_All/freedom-metal/src/init.c:59
    }
}
200158ee:	40f2                	lw	ra,28(sp)
200158f0:	4462                	lw	s0,24(sp)
200158f2:	6105                	addi	sp,sp,32
200158f4:	8082                	ret

200158f6 <metal_init_run>:
metal_init_run():
E:/GitHub/HiFive01-RevB/FS_workspace/002_LED_Blink_All/freedom-metal/src/init.c:69
 * in the case that users don't want the metal constructors or
 * destructors to run.
 */

void metal_init_run(void) __attribute__((weak));
void metal_init_run(void) { metal_init(); }
200158f6:	1141                	addi	sp,sp,-16
200158f8:	c606                	sw	ra,12(sp)
200158fa:	c422                	sw	s0,8(sp)
200158fc:	0800                	addi	s0,sp,16
200158fe:	3721                	jal	20015806 <metal_init>
20015900:	0001                	nop
20015902:	40b2                	lw	ra,12(sp)
20015904:	4422                	lw	s0,8(sp)
20015906:	0141                	addi	sp,sp,16
20015908:	8082                	ret

2001590a <metal_fini_run>:
metal_fini_run():
E:/GitHub/HiFive01-RevB/FS_workspace/002_LED_Blink_All/freedom-metal/src/init.c:72

void metal_fini_run(void) __attribute__((weak));
void metal_fini_run(void) { metal_fini(); }
2001590a:	1141                	addi	sp,sp,-16
2001590c:	c606                	sw	ra,12(sp)
2001590e:	c422                	sw	s0,8(sp)
20015910:	0800                	addi	s0,sp,16
20015912:	37b5                	jal	2001587e <metal_fini>
20015914:	0001                	nop
20015916:	40b2                	lw	ra,12(sp)
20015918:	4422                	lw	s0,8(sp)
2001591a:	0141                	addi	sp,sp,16
2001591c:	8082                	ret

2001591e <_exit>:
_exit():
E:/GitHub/HiFive01-RevB/FS_workspace/002_LED_Blink_All/freedom-metal/gloss/sys_exit.c:3
#include <metal/shutdown.h>

void _exit(int exit_status) {
2001591e:	1101                	addi	sp,sp,-32
20015920:	ce06                	sw	ra,28(sp)
20015922:	cc22                	sw	s0,24(sp)
20015924:	1000                	addi	s0,sp,32
20015926:	fea42623          	sw	a0,-20(s0)
E:/GitHub/HiFive01-RevB/FS_workspace/002_LED_Blink_All/freedom-metal/gloss/sys_exit.c:4
    metal_shutdown(exit_status);
2001592a:	fec42503          	lw	a0,-20(s0)
2001592e:	9f3ff0ef          	jal	ra,20015320 <metal_shutdown>
