
E:/GitHub/HiFive01-RevB/FS_workspace/sifive_hifive1_revb_sifive_welcome/src/debug/sifive-welcome.elf:     file format elf32-littleriscv
E:/GitHub/HiFive01-RevB/FS_workspace/sifive_hifive1_revb_sifive_welcome/src/debug/sifive-welcome.elf
architecture: riscv:rv32, flags 0x00000112:
EXEC_P, HAS_SYMS, D_PAGED
start address 0x20010000

Program Header:
    LOAD off    0x00001000 vaddr 0x20010000 paddr 0x20010000 align 2**12
         filesz 0x000013dc memsz 0x000013dc flags rwx
    LOAD off    0x00009000 vaddr 0x80000000 paddr 0x20017880 align 2**12
         filesz 0x00000ae0 memsz 0x00000ae0 flags rw-
     TLS off    0x00000000 vaddr 0x00000000 paddr 0x00000000 align 2**2
         filesz 0x00000000 memsz 0x00000000 flags ---
    LOAD off    0x00000ae0 vaddr 0x80000ae0 paddr 0x80000ae0 align 2**12
         filesz 0x00000000 memsz 0x00000cc0 flags rw-
    LOAD off    0x00000114 vaddr 0x00000000 paddr 0x00000000 align 2**12
         filesz 0x00000000 memsz 0x00000000 flags ---
    LOAD off    0x00002400 vaddr 0x20011400 paddr 0x20011400 align 2**12
         filesz 0x00006480 memsz 0x00006480 flags r-x
    LOAD off    0x00000114 vaddr 0x00000000 paddr 0x00000000 align 2**12
         filesz 0x00000000 memsz 0x00000000 flags ---

Sections:
Idx Name              Size      VMA       LMA       File off  Algn  Flags
  0 .init             000002dc  20010000  20010000  00001000  2**4  CONTENTS, ALLOC, LOAD, READONLY, CODE
  1 .init_array       0000000c  200102e0  200102e0  000012e0  2**3  CONTENTS, ALLOC, LOAD, DATA
  2 .ctors            0000007a  200102ec  200102ec  000012ec  2**1  CONTENTS, ALLOC, LOAD, READONLY, CODE
  3 .rodata           00001074  20010368  20010368  00001368  2**2  CONTENTS, ALLOC, LOAD, READONLY, DATA
  4 .text             00006480  20011400  20011400  00002400  2**7  CONTENTS, ALLOC, LOAD, READONLY, CODE
  5 .data             00000ae0  80000000  20017880  00009000  2**3  CONTENTS, ALLOC, LOAD, DATA
  6 .bss              000000b8  80000ae0  80000ae0  00009ae0  2**3  ALLOC
  7 .stack            00000400  80000ba0  80000ba0  00009ae0  2**4  ALLOC
  8 .heap             00000800  80000fa0  80000fa0  00009ae0  2**3  ALLOC
  9 .debug_info       000271c9  00000000  00000000  00009ae0  2**0  CONTENTS, READONLY, DEBUGGING, OCTETS
 10 .debug_abbrev     00003199  00000000  00000000  00030ca9  2**0  CONTENTS, READONLY, DEBUGGING, OCTETS
 11 .debug_aranges    00000d80  00000000  00000000  00033e48  2**3  CONTENTS, READONLY, DEBUGGING, OCTETS
 12 .debug_ranges     00000b60  00000000  00000000  00034bc8  2**3  CONTENTS, READONLY, DEBUGGING, OCTETS
 13 .debug_line       0000d121  00000000  00000000  00035728  2**0  CONTENTS, READONLY, DEBUGGING, OCTETS
 14 .debug_str        0000549a  00000000  00000000  00042849  2**0  CONTENTS, READONLY, DEBUGGING, OCTETS
 15 .comment          00000030  00000000  00000000  00047ce3  2**0  CONTENTS, READONLY
 16 .riscv.attributes 0000002f  00000000  00000000  00047d13  2**0  CONTENTS, READONLY
 17 .debug_frame      000036cc  00000000  00000000  00047d44  2**2  CONTENTS, READONLY, DEBUGGING, OCTETS
SYMBOL TABLE:
20010000 l    d  .init	00000000 .init
200102e0 l    d  .init_array	00000000 .init_array
200102ec l    d  .ctors	00000000 .ctors
20010368 l    d  .rodata	00000000 .rodata
20011400 l    d  .text	00000000 .text
80000000 l    d  .data	00000000 .data
80000ae0 l    d  .bss	00000000 .bss
80000ba0 l    d  .stack	00000000 .stack
80000fa0 l    d  .heap	00000000 .heap
00000000 l    d  .debug_info	00000000 .debug_info
00000000 l    d  .debug_abbrev	00000000 .debug_abbrev
00000000 l    d  .debug_aranges	00000000 .debug_aranges
00000000 l    d  .debug_ranges	00000000 .debug_ranges
00000000 l    d  .debug_line	00000000 .debug_line
00000000 l    d  .debug_str	00000000 .debug_str
00000000 l    d  .comment	00000000 .comment
00000000 l    d  .riscv.attributes	00000000 .riscv.attributes
00000000 l    d  .debug_frame	00000000 .debug_frame
00000000 l    df *ABS*	00000000 scrub.o
200100c0 l     F .init	00000000 __metal_memory_scrub
2001012e l       .init	00000000 skip_scrub
00000000 l    df *ABS*	00000000 synchronize_harts.c
00000000 l    df *ABS*	00000000 crt0.o
20010240 l       .init	00000000 _skip_init
200113a4 l       .rodata	00000000 argv
200113a8 l       .rodata	00000000 envp
200113ac l       .rodata	00000000 name
00000000 l    df *ABS*	00000000 sifive_fe310-g000_pll.c
20015230 l     F .text	0000001a __metal_driver_sifive_fe310_g000_pll_pllsel0
2001524a l     F .text	0000001a __metal_driver_sifive_fe310_g000_pll_pllref
20015264 l     F .text	00000016 __metal_driver_sifive_fe310_g000_pll_divider_base
2001527a l     F .text	00000014 __metal_driver_sifive_fe310_g000_pll_divider_offset
2001528e l     F .text	00000012 __metal_driver_sifive_fe310_g000_pll_config_base
200152a0 l     F .text	00000010 __metal_driver_sifive_fe310_g000_pll_config_offset
200152b0 l     F .text	00000016 __metal_driver_sifive_fe310_g000_pll_init_rate
200152c6 l     F .text	00000012 __metal_driver_sifive_fe310_g000_prci_base
200152d8 l     F .text	00000016 __metal_driver_sifive_fe310_g000_prci_vtable
20010a28 l     O .rodata	00000880 pll_configs
200152ee l     F .text	0000004e get_pll_config_freq
2001555c l     F .text	000000ac find_closest_config
20015608 l     F .text	000001b0 configure_pll
00000000 l    df *ABS*	00000000 tty.c
00000000 l    df *ABS*	00000000 sifive-welcome.c
00000000 l    df *ABS*	00000000 findfp.c
20011be2 l     F .text	00000068 std
00000000 l    df *ABS*	00000000 riscv_clint0.c
20012616 l     F .text	0000002a __metal_driver_sifive_clint0_control_base
20012640 l     F .text	00000028 __metal_driver_sifive_clint0_num_interrupts
20012668 l     F .text	0000003c __metal_driver_sifive_clint0_interrupt_parents
200126a4 l     F .text	00000030 __metal_driver_sifive_clint0_interrupt_lines
20012804 l     F .text	00000032 _get_cpu_intc
00000000 l    df *ABS*	00000000 riscv_cpu.c
20012d46 l     F .text	00000024 __metal_driver_cpu_hartid
20012d6a l     F .text	0000002a __metal_driver_cpu_timebase
20012d94 l     F .text	0000002a __metal_driver_cpu_interrupt_controller
20012dbe l     F .text	00000024 __metal_driver_cpu_buserror
00000000 l    df *ABS*	00000000 riscv_plic0.c
20014774 l     F .text	0000002a __metal_driver_sifive_plic0_control_base
2001479e l     F .text	0000002a __metal_driver_sifive_plic0_num_interrupts
200147c8 l     F .text	00000028 __metal_driver_sifive_plic0_max_priority
200147f0 l     F .text	00000028 __metal_driver_sifive_plic0_interrupt_parents
20014818 l     F .text	00000022 __metal_driver_sifive_plic0_interrupt_lines
2001483a l     F .text	0000001e __metal_driver_sifive_plic0_context_ids
00000000 l    df *ABS*	00000000 sifive_gpio-leds.c
20015996 l     F .text	0000004a __metal_driver_sifive_gpio_led_gpio
200159e0 l     F .text	00000044 __metal_driver_sifive_gpio_led_pin
20015a24 l     F .text	0000005c __metal_driver_sifive_gpio_led_label
00000000 l    df *ABS*	00000000 sifive_gpio0.c
20015bc6 l     F .text	00000026 __metal_driver_sifive_gpio0_base
20015bec l     F .text	0000002a __metal_driver_sifive_gpio0_interrupt_parent
20015c16 l     F .text	0000035e __metal_driver_sifive_gpio0_interrupt_lines
00000000 l    df *ABS*	00000000 sifive_uart0.c
20016624 l     F .text	00000040 __metal_driver_sifive_uart0_control_base
20016664 l     F .text	00000048 __metal_driver_sifive_uart0_interrupt_parent
200166ac l     F .text	0000003c __metal_driver_sifive_uart0_interrupt_line
200166e8 l     F .text	00000048 __metal_driver_sifive_uart0_clock
20016730 l     F .text	00000040 __metal_driver_sifive_uart0_pinmux
20016770 l     F .text	0000003c __metal_driver_sifive_uart0_pinmux_output_selector
200167ac l     F .text	00000040 __metal_driver_sifive_uart0_pinmux_source_selector
20016b8c l     F .text	000000da pre_rate_change_callback_func
20016c66 l     F .text	0000002e post_rate_change_callback_func
00000000 l    df *ABS*	00000000 impure.c
80000000 l     O .data	00000060 impure_data
00000000 l    df *ABS*	00000000 sifive_fe310-g000_hfrosc.c
20015040 l     F .text	0000001a __metal_driver_sifive_fe310_g000_hfrosc_ref
2001505a l     F .text	00000016 __metal_driver_sifive_fe310_g000_hfrosc_config_base
20015070 l     F .text	00000014 __metal_driver_sifive_fe310_g000_hfrosc_config_offset
20015084 l     F .text	00000016 __metal_driver_sifive_fe310_g000_prci_vtable
00000000 l    df *ABS*	00000000 sifive_fe310-g000_hfxosc.c
20015140 l     F .text	0000001a __metal_driver_sifive_fe310_g000_hfxosc_ref
2001515a l     F .text	00000016 __metal_driver_sifive_fe310_g000_hfxosc_config_base
20015170 l     F .text	00000014 __metal_driver_sifive_fe310_g000_hfxosc_config_offset
20015184 l     F .text	00000016 __metal_driver_sifive_fe310_g000_prci_vtable
00000000 l    df *ABS*	00000000 sifive_fe310-g000_prci.c
2001591e l     F .text	00000012 __metal_driver_sifive_fe310_g000_prci_base
00000000 l    df *ABS*	00000000 fixed-clock.c
20017180 l     F .text	00000070 __metal_driver_fixed_clock_rate
00000000 l    df *ABS*	00000000 puts.c
00000000 l    df *ABS*	00000000 wbuf.c
00000000 l    df *ABS*	00000000 wsetup.c
00000000 l    df *ABS*	00000000 fflush.c
00000000 l    df *ABS*	00000000 fwalk.c
00000000 l    df *ABS*	00000000 makebuf.c
00000000 l    df *ABS*	00000000 nano-mallocr.c
00000000 l    df *ABS*	00000000 nano-mallocr.c
00000000 l    df *ABS*	00000000 sbrkr.c
00000000 l    df *ABS*	00000000 stdio.c
00000000 l    df *ABS*	00000000 writer.c
00000000 l    df *ABS*	00000000 closer.c
00000000 l    df *ABS*	00000000 fstatr.c
00000000 l    df *ABS*	00000000 isattyr.c
00000000 l    df *ABS*	00000000 lseekr.c
00000000 l    df *ABS*	00000000 mlock.c
00000000 l    df *ABS*	00000000 readr.c
00000000 l    df *ABS*	00000000 cpu.c
00000000 l    df *ABS*	00000000 interrupt.c
00000000 l    df *ABS*	00000000 led.c
00000000 l    df *ABS*	00000000 clock.c
00000000 l    df *ABS*	00000000 gpio.c
00000000 l    df *ABS*	00000000 shutdown.c
00000000 l    df *ABS*	00000000 uart.c
00000000 l    df *ABS*	00000000 vector.o
20017100 l       .text	00000000 IRQ_0
20017104 l       .text	00000000 IRQ_1
20017108 l       .text	00000000 IRQ_2
2001710c l       .text	00000000 IRQ_3
20017110 l       .text	00000000 IRQ_4
20017114 l       .text	00000000 IRQ_5
20017118 l       .text	00000000 IRQ_6
2001711c l       .text	00000000 IRQ_7
20017120 l       .text	00000000 IRQ_8
20017124 l       .text	00000000 IRQ_9
20017128 l       .text	00000000 IRQ_10
2001712c l       .text	00000000 IRQ_11
20017130 l       .text	00000000 IRQ_12
20017134 l       .text	00000000 IRQ_13
20017138 l       .text	00000000 IRQ_14
2001713c l       .text	00000000 IRQ_15
20017140 l       .text	00000000 IRQ_LC0
20017144 l       .text	00000000 IRQ_LC1
20017148 l       .text	00000000 IRQ_LC2
2001714c l       .text	00000000 IRQ_LC3
20017150 l       .text	00000000 IRQ_LC4
20017154 l       .text	00000000 IRQ_LC5
20017158 l       .text	00000000 IRQ_LC6
2001715c l       .text	00000000 IRQ_LC7
20017160 l       .text	00000000 IRQ_LC8
20017164 l       .text	00000000 IRQ_LC9
20017168 l       .text	00000000 IRQ_LC10
2001716c l       .text	00000000 IRQ_LC11
20017170 l       .text	00000000 IRQ_LC12
20017174 l       .text	00000000 IRQ_LC13
20017178 l       .text	00000000 IRQ_LC14
2001717c l       .text	00000000 IRQ_LC15
00000000 l    df *ABS*	00000000 sys_close.c
00000000 l    df *ABS*	00000000 sys_fstat.c
00000000 l    df *ABS*	00000000 sys_isatty.c
00000000 l    df *ABS*	00000000 sys_lseek.c
00000000 l    df *ABS*	00000000 sys_read.c
00000000 l    df *ABS*	00000000 sys_sbrk.c
80000adc l     O .data	00000004 __brk
00000000 l    df *ABS*	00000000 sys_write.c
00000000 l    df *ABS*	00000000 atexit.c
00000000 l    df *ABS*	00000000 errno.c
00000000 l    df *ABS*	00000000 exit.c
00000000 l    df *ABS*	00000000 fini.c
00000000 l    df *ABS*	00000000 init.c
00000000 l    df *ABS*	00000000 strcat.c
00000000 l    df *ABS*	00000000 strcpy.c
00000000 l    df *ABS*	00000000 __atexit.c
80000af8 l     O .bss	0000008c _global_atexit0
00000000 l    df *ABS*	00000000 __call_atexit.c
00000000 l    df *ABS*	00000000 init.c
80000af0 l     O .bss	00000004 init_done.1
80000af4 l     O .bss	00000004 fini_done.0
00000000 l    df *ABS*	00000000 sys_exit.c
00000000 l    df *ABS*	00000000 inline.c
00000000 l    df *ABS*	00000000 
200102ec l       .init_array	00000000 metal_constructors_end
200102f0 l       .init_array	00000000 __fini_array_end
200102f0 l       .init_array	00000000 metal_destructors_end
200102f0 l       .init_array	00000000 metal_destructors_start
200102f0 l       .init_array	00000000 __fini_array_start
200102e0 l       .init_array	00000000 __init_array_end
200102e0 l       .init_array	00000000 __preinit_array_end
200102e0 l       .init_array	00000000 __init_array_start
200102e0 l       .init_array	00000000 metal_constructors_start
200102e0 l       .init_array	00000000 __preinit_array_start
20011364 g     O .rodata	00000040 __metal_driver_vtable_sifive_uart0
20015a80 g     F .text	00000036 __metal_driver_led_exist
200123c2 g     F .text	00000026 metal_cpu_timer_get_interrupt_id
200122a0 g     F .text	00000030 _isatty_r
200175d2 g     F .text	00000012 strcpy
20013652  w    F .text	00000096 metal_lc4_interrupt_vector_handler
20011788 g     F .text	000000da _puts_r
200122d0 g     F .text	00000034 _lseek_r
20016dfa g     F .text	00000026 metal_clock_get_rate_hz
20016aec g     F .text	000000a0 __metal_driver_sifive_uart0_set_baud_rate
200129dc g     F .text	00000058 __metal_driver_riscv_clint0_set_vector_mode
20016940 g     F .text	0000004a __metal_driver_sifive_uart0_set_tx_watermark
200135bc  w    F .text	00000096 metal_lc3_interrupt_vector_handler
20013e64 g     F .text	00000058 __metal_valid_interrupt_id
20016fb8 g     F .text	00000040 metal_gpio_toggle_pin
200102e4 g     O .init_array	00000004 _use_hfxosc_ptr
200142e4 g     F .text	0000001c __metal_driver_riscv_cpu_controller_get_vector_mode
800012b0 g       .data	00000000 __global_pointer$
20010342 g     F .ctors	00000024 metal_tty_init
2001239c g     F .text	00000026 metal_cpu_timer_interrupt_controller
2001255c g     F .text	00000024 metal_led_off
20016da6 g     F .text	00000054 _metal_clock_append_to_callbacks
20014894 g     F .text	00000046 __metal_plic0_complete_interrupt
200140aa g     F .text	000001e2 __metal_driver_riscv_cpu_controller_interrupt_register
200102e0 g     O .init_array	00000004 _metal_sifive_fe310_g000_pll_init_ptr
200121ce g     F .text	00000036 __sseek
20011c98 g     F .text	0000006a __sinit
200112d4 g     O .rodata	00000014 __metal_driver_vtable_sifive_led
2001186e g     F .text	000000c0 __swbuf_r
80000ae0 g       .data	00000000 __tls_base
20011c54 g     F .text	00000044 __sfmoreglue
20012306 g     F .text	00000002 __malloc_unlock
2001240e g     F .text	0000002e metal_cpu_get
20012538 g     F .text	00000024 metal_led_on
80000a48 g     O .data	00000020 __metal_dt_serial_10013000
200161fe g     F .text	0000004a __metal_driver_sifive_gpio0_disable_io
20010838 g     O .rodata	00000064 __metal_driver_vtable_riscv_clint0
80000b98 g       .bss	00000000 metal_segment_bss_target_end
200126d4 g     F .text	0000009a __metal_clint0_mtime_get
200146e8 g     F .text	0000002e __metal_driver_cpu_get_instruction_length
00000001 g       *ABS*	00000000 __metal_chicken_bit
20016a04 g     F .text	00000030 __metal_driver_sifive_uart0_get_rx_watermark
20015fb4 g     F .text	00000046 __metal_driver_sifive_gpio0_disable_input
200173d2 g     F .text	0000000a __errno
08000000 g       .rodata	00000000 metal_segment_itim_target_start
20016910 g     F .text	00000030 __metal_driver_sifive_uart0_txready
2001689e g     F .text	0000003a __metal_driver_sifive_uart0_rx_interrupt_enable
20016f10 g     F .text	00000040 metal_gpio_enable_output
20010142 g     F .init	0000000e __metal_synchronize_harts
80000ae0 g       .data	00000000 metal_segment_bss_target_start
2001276e g     F .text	00000096 __metal_driver_riscv_clint0_mtimecmp_set
2001226e g     F .text	00000032 _fstat_r
2001644e g     F .text	00000188 __metal_driver_sifive_gpio0_clear_int
80000ae8 g     O .bss	00000004 errno
200153e0 g     F .text	0000017c __metal_driver_sifive_fe310_g000_pll_get_rate_hz
00000400 g       *ABS*	00000000 __stack_size
20016e6c g     F .text	00000032 metal_clock_register_pre_rate_change_callback
20015b02 g     F .text	00000042 __metal_driver_led_on
20013940  w    F .text	00000096 metal_lc9_interrupt_vector_handler
200100cc  w    F .init	00000000 __metal_before_start
20017818  w    F .text	00000016 metal_init_run
80000a68 g     O .data	00000020 __metal_dt_serial_10023000
200109c4 g     O .rodata	00000064 __metal_driver_vtable_riscv_plic0
20010980 g     O .rodata	00000044 __metal_driver_vtable_cpu
20017060 g     F .text	0000002e metal_uart_set_baud_rate
20016c94 g     F .text	000000d0 __metal_driver_sifive_uart0_init
00000000 g       *ABS*	00000000 __metal_eccscrub_bit
80000b84 g     O .bss	00000004 cpu
20014370 g     F .text	00000070 __metal_driver_cpu_mcycle_get
200112a8 g     O .rodata	0000000c __metal_driver_vtable_sifive_fe310_g000_pll
80000fa0 g       .heap	00000000 metal_segment_heap_target_start
20011c4a g     F .text	0000000a _cleanup_r
80000ac0 g     O .data	00000008 __metal_dt_cpu_0
200138aa  w    F .text	00000096 metal_lc8_interrupt_vector_handler
200157b8 g     F .text	00000166 __metal_driver_sifive_fe310_g000_pll_set_rate_hz
20014fa4 g     F .text	00000074 __metal_driver_riscv_plic0_affinity_set_threshold
20011862 g     F .text	0000000c puts
20013b98  w    F .text	00000096 metal_lc13_interrupt_vector_handler
20016f50 g     F .text	00000068 metal_gpio_set_pin
20012f50 g     F .text	00000018 __metal_default_exception_handler
20017256 g     F .text	00000026 _fstat
20012d12 g     F .text	00000034 __metal_driver_riscv_clint0_set_interrupt
20014300 g     F .text	00000054 __metal_driver_riscv_cpu_controller_set_vector_mode
20012de2 g     F .text	00000030 __metal_driver_cpu_get
2001091c g     O .rodata	00000064 __metal_driver_vtable_riscv_cpu_intc
20012e44 g     F .text	00000018 __metal_interrupt_global_disable
20015018 g     F .text	00000028 __metal_driver_riscv_plic0_affinity_get_threshold
20012514 g     F .text	00000024 metal_led_enable
20013814  w    F .text	00000096 metal_lc7_interrupt_vector_handler
200139d6  w    F .text	00000096 metal_lc10_interrupt_vector_handler
20012120 g     F .text	00000030 _sbrk_r
20014dc4 g     F .text	00000050 __metal_driver_riscv_plic0_disable
20013f78 g     F .text	0000004e __metal_exception_register
20012580 g     F .text	00000096 metal_led_get_rgb
20017728 g     F .text	00000078 metal_init
20012308 g     F .text	00000034 _read_r
20014502 g     F .text	0000001a __metal_driver_cpu_timer_controller_interrupt
20016096 g     F .text	00000040 __metal_driver_sifive_gpio0_enable_output
80000000 g       .rodata	00000000 metal_segment_lim_target_end
20013040 g     F .text	00000068 __metal_default_sw_handler
20016e9e g     F .text	00000032 metal_clock_register_post_rate_change_callback
80000078 g     O .data	0000000c __metal_dt_clock_2
200167ec g     F .text	00000020 __metal_driver_sifive_uart0_interrupt_controller
2001727c g     F .text	00000020 _isatty
2001615c g     F .text	00000040 __metal_driver_sifive_gpio0_output_toggle
2001682c g     F .text	0000003a __metal_driver_sifive_uart0_tx_interrupt_enable
200113d4 g     O .rodata	00000008 __metal_driver_vtable_fixed_clock
200113b8 g     O .rodata	00000004 _global_impure_ptr
200130a8  w    F .text	00000092 metal_timer_interrupt_vector_handler
2001743a g     F .text	0000005e __libc_init_array
20015b44 g     F .text	00000042 __metal_driver_led_off
80000ad4 g     O .data	00000004 __metal_dt_led_2
200160d6 g     F .text	00000040 __metal_driver_sifive_gpio0_output_set
20013a6c  w    F .text	00000096 metal_lc11_interrupt_vector_handler
2001520e g     F .text	00000022 __metal_driver_sifive_fe310_g000_hfxosc_set_rate_hz
2001428c g     F .text	0000002c __metal_driver_riscv_cpu_controller_interrupt_enable
200172f0 g     F .text	0000006a _sbrk
20016050 g     F .text	00000046 __metal_driver_sifive_gpio0_disable_output
20016d64 g     F .text	00000042 _metal_clock_call_all_callbacks
200102ba g     F .init	00000002 _init
20012ea6 g     F .text	0000001a __metal_interrupt_timer_disable
20016248 g     F .text	00000206 __metal_driver_sifive_gpio0_config_int
200145c0 g     F .text	00000062 __metal_driver_cpu_clear_sw_ipi
20011328 g     O .rodata	0000003c __metal_driver_vtable_sifive_gpio0
20016866 g     F .text	00000038 __metal_driver_sifive_uart0_tx_interrupt_disable
2001619c g     F .text	00000062 __metal_driver_sifive_gpio0_enable_io
20017404 g     F .text	00000036 __libc_fini_array
80000aa0 g     O .data	0000000c __metal_dt_clock_4
200177a0 g     F .text	00000078 metal_fini
200165d6 g     F .text	00000020 __metal_driver_gpio_interrupt_controller
2001454a g     F .text	00000014 __metal_driver_cpu_get_sw_interrupt_id
20014754 g     F .text	00000020 __metal_driver_cpu_get_buserror
80000000 g       .data	00000000 metal_segment_data_target_start
20012ef8 g     F .text	0000002c __metal_interrupt_local_enable
20012cde g     F .text	00000034 __metal_driver_riscv_clint0_clear_interrupt
20017844 g     F .text	00000028 metal_tty_putc
20014a94 g     F .text	00000018 __metal_plic0_default_handler
2001735a  w    F .text	0000006e write
00000000 g       *ABS*	00000000 __tbss_size
8000006c g     O .data	0000000c __metal_dt_clock_0
20017498 g     F .text	0000001c strcat
00000800 g       *ABS*	00000000 __heap_size
20014e14 g     F .text	00000030 __metal_driver_riscv_plic0_set_threshold
2001313a g     F .text	00000016 __metal_default_beu_handler
200107d8 g     O .rodata	00000020 __sf_fake_stderr
2001233c g     F .text	0000002a metal_cpu_get_mtime
20012edc g     F .text	0000001c __metal_interrupt_external_disable
2001680c g     F .text	00000020 __metal_driver_sifive_uart0_get_interrupt_id
20014354 g     F .text	0000001c __metal_driver_riscv_cpu_controller_command_request
20013fc6 g     F .text	000000e4 __metal_driver_riscv_cpu_controller_interrupt_init
200146a2 g     F .text	00000046 __metal_driver_cpu_exception_register
20012e5c g     F .text	00000018 __metal_interrupt_software_enable
20013490  w    F .text	00000096 metal_lc1_interrupt_vector_handler
20011fa6 g     F .text	000000a2 _free_r
80000aec g     O .bss	00000004 _global_atexit
2001495a g     F .text	00000062 __metal_driver_riscv_plic0_set_priority
20013d5a g     F .text	00000058 __metal_controller_interrupt_vector_mode
20017660 g     F .text	000000c8 __call_exitprocs
80000fa0 g       .stack	00000000 _sp
200102e8 g     O .init_array	00000004 _metal_tty_init_ptr
20010150 g     F .init	00000000 _start
2001509a g     F .text	00000084 __metal_driver_sifive_fe310_g000_hfrosc_get_rate_hz
2001729c g     F .text	0000002a _lseek
20014682 g     F .text	00000020 __metal_driver_cpu_controller_interrupt
20014716 g     F .text	0000001e __metal_driver_cpu_get_exception_pc
20012ec0 g     F .text	0000001c __metal_interrupt_external_enable
200175e4 g     F .text	0000007c __register_exitproc
20016a34 g     F .text	00000042 __metal_driver_sifive_uart0_putc
20014b58 g     F .text	0000015a __metal_driver_riscv_plic0_init
20014d74 g     F .text	00000050 __metal_driver_riscv_plic0_enable
20016024 g     F .text	0000002c __metal_driver_sifive_gpio0_output
2001377e  w    F .text	00000096 metal_lc6_interrupt_vector_handler
20012e12 g     F .text	0000001a __metal_myhart_id
200165f6 g     F .text	0000002e __metal_driver_gpio_get_interrupt_id
20012fae  w    F .text	00000092 metal_software_interrupt_vector_handler
200142b8 g     F .text	0000002c __metal_driver_riscv_cpu_controller_interrupt_disable
2001223e g     F .text	00000030 _close_r
20016acc g     F .text	00000020 __metal_driver_sifive_uart0_get_baud_rate
200128be g     F .text	000000da __metal_driver_riscv_clint0_register
20016ed0 g     F .text	00000040 metal_gpio_disable_input
80000ab8 g     O .data	00000008 __metal_dt_clint_2000000
2001192e g     F .text	0000010a __swsetup_r
2001247a g     F .text	0000003e metal_interrupt_register_handler
20011d02 g     F .text	0000009c __sfp
20016e20 g     F .text	0000004c metal_clock_set_rate_hz
20012150 g     F .text	00000030 __sread
20015f74 g     F .text	00000040 __metal_driver_sifive_gpio0_enable_input
200102bc  w    F .init	00000000 secondary_main
20012f80  w    F .text	0000002e metal_interrupt_vector_handler
20012304 g     F .text	00000002 __malloc_lock
200168d8 g     F .text	00000038 __metal_driver_sifive_uart0_rx_interrupt_disable
80000b88 g     O .bss	00000004 tmr_intr
20011b7e g     F .text	00000064 _fflush_r
20014920 g     F .text	0000003a __metal_plic0_get_threshold
20015930 g     F .text	0000002e __metal_driver_sifive_fe310_g000_prci_get_reg
200107f8 g     O .rodata	00000020 __sf_fake_stdin
20013ebc g     F .text	000000bc __metal_local_interrupt_enable
20012b9e g     F .text	00000140 __metal_driver_riscv_clint0_command_request
20011efe g     F .text	000000a8 memset
200136e8  w    F .text	00000096 metal_lc5_interrupt_vector_handler
200115d8 g     F .text	000001b0 main
80000ae0 g       .data	00000000 metal_segment_data_target_end
200169ba g     F .text	0000004a __metal_driver_sifive_uart0_set_rx_watermark
200113bc g     O .rodata	00000008 __metal_driver_vtable_sifive_fe310_g000_hfrosc
2001455e g     F .text	00000062 __metal_driver_cpu_set_sw_ipi
20014622 g     F .text	00000060 __metal_driver_cpu_get_msip
20016ff8 g     F .text	0000000e metal_shutdown
08000000 g       .rodata	00000000 metal_segment_itim_target_end
20014734 g     F .text	00000020 __metal_driver_cpu_set_exception_pc
20015b86 g     F .text	00000040 __metal_driver_led_toggle
20014858 g     F .text	0000003c __metal_plic0_claim_interrupt
2001698a g     F .text	00000030 __metal_driver_sifive_uart0_get_tx_watermark
20012204 g     F .text	00000006 __sclose
80000060  w    O .data	0000000c __metal_led_table
20013b02  w    F .text	00000096 metal_lc12_interrupt_vector_handler
2001008a g     F .init	00000000 metal_mem_scrub
80000ad0 g     O .data	00000004 __metal_dt_led_1
20012048 g     F .text	000000d8 _malloc_r
200129c0 g     F .text	0000001c __metal_driver_riscv_clint0_get_vector_mode
20015ab6 g     F .text	0000004c __metal_driver_led_enable
80000ad8 g     O .data	00000004 __metal_dt_prci_10008000
200143e0 g     F .text	00000046 __metal_driver_cpu_timebase_get
20014f08 g     F .text	0000009c __metal_driver_riscv_plic0_affinity_disable
20010000 g       .init	00000000 _enter
2001243c g     F .text	0000001a metal_cpu_get_current_hartid
200174b4 g     F .text	0000011e strcmp
2001519a g     F .text	00000074 __metal_driver_sifive_fe310_g000_hfxosc_get_rate_hz
20017100 g       .text	00000000 __metal_vector_table
200113e0 g       *ABS*	00000000 metal_segment_itim_source_start
80000ab4  w    O .data	00000004 __metal_cpu_table
800000a0 g     O .data	000003d0 __metal_dt_cpu_0_interrupt_controller
200102ba g     F .init	00000002 _fini
80000000 g       .rodata	00000000 metal_segment_lim_target_start
200149bc g     F .text	00000034 __metal_driver_riscv_plic0_get_priority
20011400 g     F .text	0000012a display_banner
20010318 g     F .ctors	0000002a use_hfxosc
20012e2c g     F .text	00000018 __metal_interrupt_global_enable
200173c8 g     F .text	0000000a atexit
2001220a g     F .text	00000034 _write_r
20012e8c g     F .text	0000001a __metal_interrupt_timer_enable
2001155a g     F .text	0000007e wait_for_timer
20016a76 g     F .text	00000056 __metal_driver_sifive_uart0_getc
20012ae6 g     F .text	000000b8 __metal_driver_riscv_clint0_disable
80000ab0 g     O .data	00000004 _impure_ptr
2001448c g     F .text	00000076 __metal_driver_cpu_mtimecmp_set
20011a38 g     F .text	00000146 __sflush_r
20014e44 g     F .text	00000028 __metal_driver_riscv_plic0_get_threshold
2001533c g     F .text	000000a4 __metal_driver_sifive_fe310_g000_pll_init
80000084 g     O .data	0000000c __metal_dt_clock_5
80000b8c g     O .bss	00000004 cpu_intr
2001595e g     F .text	00000038 __metal_driver_sifive_fe310_g000_prci_set_reg
200171f0 g     F .text	00000020 __metal_driver_fixed_clock_get_rate_hz
20012a34 g     F .text	000000b2 __metal_driver_riscv_clint0_enable
20017880 g       *ABS*	00000000 metal_segment_data_source_start
20010134 g       .init	00000000 early_trap_vector
800017a0 g       .heap	00000000 metal_segment_heap_target_end
20013db2 g     F .text	000000b2 __metal_controller_interrupt_vector
80000a94 g     O .data	0000000c __metal_dt_clock_1
80000470 g     O .data	000005d8 __metal_dt_interrupt_controller_c000000
20011e08 g     F .text	0000005a __swhatbuf_r
20016116 g     F .text	00000046 __metal_driver_sifive_gpio0_output_clear
20013150 g     F .text	00000066 __metal_default_timer_handler
2001735a g     F .text	0000006e _write
20014aac g     F .text	000000ac __metal_plic0_handler
20013526  w    F .text	00000096 metal_lc2_interrupt_vector_handler
20013cc4  w    F .text	00000096 metal_lc15_interrupt_vector_handler
200123e8 g     F .text	00000026 metal_cpu_interrupt_controller
20012456 g     F .text	00000024 metal_interrupt_init
20012180 g     F .text	0000004e __swrite
20012366 g     F .text	00000036 metal_cpu_set_mtimecmp
200173dc g     F .text	00000028 exit
20011d9e g     F .text	0000006a _fwalk_reent
20017210 g     F .text	00000024 __metal_driver_fixed_clock_set_rate_hz
200113e0 g       *ABS*	00000000 metal_segment_lim_source_start
20010818 g     O .rodata	00000020 __sf_fake_stdout
80000ac8 g     O .data	00000004 __metal_dt_gpio_10012000
20012f68 g     F .text	00000018 __metal_default_interrupt_handler
200124b8 g     F .text	0000002e metal_interrupt_enable
20017032 g     F .text	0000002e metal_uart_putc
200172c6 g     F .text	0000002a _read
2001782e  w    F .text	00000016 metal_fini_run
20015ffa g     F .text	0000002a __metal_driver_sifive_gpio0_input
20013200 g     F .text	00000180 __metal_exception_handler
200133fa  w    F .text	00000096 metal_lc0_interrupt_vector_handler
2001786c g     F .text	00000014 _exit
2001152a g     F .text	00000030 timer_isr
20014426 g     F .text	00000066 __metal_driver_cpu_mtime_get
20011e62 g     F .text	0000009c __smakebuf_r
20012998 g     F .text	00000028 __metal_driver_riscv_clint0_vector_register
80000ae4 g     O .bss	00000004 __malloc_sbrk_start
80000b90 g     O .bss	00000004 timer_isr_flag
20013c2e  w    F .text	00000096 metal_lc14_interrupt_vector_handler
200113c4 g     O .rodata	00000008 __metal_driver_vtable_sifive_fe310_g000_hfxosc
20012836 g     F .text	00000088 __metal_driver_riscv_clint0_init
80000ae0 g     O .bss	00000004 __malloc_free_list
200102ec g     F .ctors	0000002c metal_sifive_fe310_g000_pll_init
80000b94 g     O .bss	00000004 tmr_id
2001451c g     F .text	00000014 __metal_driver_cpu_get_timer_interrupt_id
200149f0 g     F .text	000000a4 __metal_plic0_enable
20010088  w      .init	00000000 __register_frame_info
2001511e g     F .text	00000022 __metal_driver_sifive_fe310_g000_hfrosc_set_rate_hz
20014530 g     F .text	0000001a __metal_driver_cpu_sw_controller_interrupt
20012f24 g     F .text	0000002c __metal_interrupt_local_disable
20012e74 g     F .text	00000018 __metal_interrupt_software_disable
20017006 g     F .text	0000002c metal_uart_init
80000a88 g     O .data	0000000c __metal_dt_clock_3
80000090 g     O .data	0000000c __metal_dt_clock_6
200148da g     F .text	00000046 __metal_plic0_set_threshold
80000acc g     O .data	00000004 __metal_dt_led_0
20014e6c g     F .text	0000009c __metal_driver_riscv_plic0_affinity_enable
20017234 g     F .text	00000022 _close
200113cc g     O .rodata	00000008 __metal_driver_vtable_sifive_fe310_g000_prci
00000000 g       *ABS*	00000000 __metal_boot_hart
20014cb2 g     F .text	000000c2 __metal_driver_riscv_plic0_register
200124e6 g     F .text	0000002e metal_interrupt_disable



Disassembly of section .init:

20010000 <_enter>:
_enter():
E:/GitHub/HiFive01-RevB/FS_workspace/sifive_hifive1_revb_sifive_welcome/freedom-metal/src/entry.S:24
     * it's not valid to obtain the address of any symbol without GP
     * configured.  The C environment might go ahead and do this again, but
     * that's safe as it's a fixed register. */
.option push
.option norelax
    la gp, __global_pointer$
20010000:	5fff1197          	auipc	gp,0x5fff1
20010004:	2b018193          	addi	gp,gp,688 # 800012b0 <__global_pointer$>
E:/GitHub/HiFive01-RevB/FS_workspace/sifive_hifive1_revb_sifive_welcome/freedom-metal/src/entry.S:28
.option pop

    /* trap over the chicken bit register clearing, aloe & fe310 dont have it */
    la t0, 1f
20010008:	00000297          	auipc	t0,0x0
2001000c:	01828293          	addi	t0,t0,24 # 20010020 <_enter+0x20>
E:/GitHub/HiFive01-RevB/FS_workspace/sifive_hifive1_revb_sifive_welcome/freedom-metal/src/entry.S:29
    csrw mtvec, t0
20010010:	30529073          	csrw	mtvec,t0
E:/GitHub/HiFive01-RevB/FS_workspace/sifive_hifive1_revb_sifive_welcome/freedom-metal/src/entry.S:31
    /* chicken bit is enable if core are sifive series. */
    la t0, __metal_chicken_bit
20010014:	00100293          	li	t0,1
E:/GitHub/HiFive01-RevB/FS_workspace/sifive_hifive1_revb_sifive_welcome/freedom-metal/src/entry.S:32
    beqz t0, 1f
20010018:	00028463          	beqz	t0,20010020 <_enter+0x20>
E:/GitHub/HiFive01-RevB/FS_workspace/sifive_hifive1_revb_sifive_welcome/freedom-metal/src/entry.S:34
    /* If set, always clear the feature disable register for all cores series */
    csrwi 0x7C1, 0
2001001c:	7c105073          	csrwi	0x7c1,0
E:/GitHub/HiFive01-RevB/FS_workspace/sifive_hifive1_revb_sifive_welcome/freedom-metal/src/entry.S:39
.align 4
1:
    /* Set up a simple trap vector to catch anything that goes wrong early in
     * the boot process. */
    la t0, early_trap_vector
20010020:	00000297          	auipc	t0,0x0
20010024:	11428293          	addi	t0,t0,276 # 20010134 <early_trap_vector>
E:/GitHub/HiFive01-RevB/FS_workspace/sifive_hifive1_revb_sifive_welcome/freedom-metal/src/entry.S:40
    csrw mtvec, t0
20010028:	30529073          	csrw	mtvec,t0
E:/GitHub/HiFive01-RevB/FS_workspace/sifive_hifive1_revb_sifive_welcome/freedom-metal/src/entry.S:48
     * C, so here we set up a C environment. First we set up a stack pointer,
     * which is left as a weak reference in order to allow initialization
     * routines that do not need a stack to be set up to transparently be
     * called. */
    .weak __metal_stack_pointer
    la sp, __metal_stack_pointer
2001002c:	00000113          	li	sp,0
E:/GitHub/HiFive01-RevB/FS_workspace/sifive_hifive1_revb_sifive_welcome/freedom-metal/src/entry.S:55
   /* The METAL is designed for a bare-metal environment and therefore is expected
    * to define its own stack pointer. We also align the stack pointer here
    * because the only RISC-V ABI that's currently defined, mandates 16-byte
    * stack alignment. */

    bne sp, zero, 1f
20010030:	00011463          	bnez	sp,20010038 <_enter+0x38>
E:/GitHub/HiFive01-RevB/FS_workspace/sifive_hifive1_revb_sifive_welcome/freedom-metal/src/entry.S:56
    la sp, _sp
20010034:	cf018113          	addi	sp,gp,-784 # 80000fa0 <_sp>
E:/GitHub/HiFive01-RevB/FS_workspace/sifive_hifive1_revb_sifive_welcome/freedom-metal/src/entry.S:59
1:
    /* Increment by hartid number of stack sizes */
    csrr a0, mhartid
20010038:	f1402573          	csrr	a0,mhartid
E:/GitHub/HiFive01-RevB/FS_workspace/sifive_hifive1_revb_sifive_welcome/freedom-metal/src/entry.S:60
    li t0, 0
2001003c:	4281                	li	t0,0
E:/GitHub/HiFive01-RevB/FS_workspace/sifive_hifive1_revb_sifive_welcome/freedom-metal/src/entry.S:61
    la t1, __stack_size
2001003e:	40000313          	li	t1,1024
E:/GitHub/HiFive01-RevB/FS_workspace/sifive_hifive1_revb_sifive_welcome/freedom-metal/src/entry.S:63
1:
    andi sp, sp, -16
20010042:	ff017113          	andi	sp,sp,-16
E:/GitHub/HiFive01-RevB/FS_workspace/sifive_hifive1_revb_sifive_welcome/freedom-metal/src/entry.S:64
    beq t0, a0, 1f
20010046:	00a28563          	beq	t0,a0,20010050 <_enter+0x50>
E:/GitHub/HiFive01-RevB/FS_workspace/sifive_hifive1_revb_sifive_welcome/freedom-metal/src/entry.S:65
    add sp, sp, t1
2001004a:	911a                	add	sp,sp,t1
E:/GitHub/HiFive01-RevB/FS_workspace/sifive_hifive1_revb_sifive_welcome/freedom-metal/src/entry.S:66
    addi t0, t0, 1
2001004c:	0285                	addi	t0,t0,1
E:/GitHub/HiFive01-RevB/FS_workspace/sifive_hifive1_revb_sifive_welcome/freedom-metal/src/entry.S:67
    j 1b
2001004e:	bfd5                	j	20010042 <_enter+0x42>
E:/GitHub/HiFive01-RevB/FS_workspace/sifive_hifive1_revb_sifive_welcome/freedom-metal/src/entry.S:76
     * just skip over the call entirely.   Note that __metal_initialize isn't
     * actually a full C function, as it doesn't end up with the .bss or .data
     * segments having been initialized.  This is done to avoid putting a
     * burden on systems that can be initialized without having a C environment
     * set up. */
    la ra, __metal_before_start
20010050:	00000097          	auipc	ra,0x0
20010054:	07c08093          	addi	ra,ra,124 # 200100cc <__metal_before_start>
E:/GitHub/HiFive01-RevB/FS_workspace/sifive_hifive1_revb_sifive_welcome/freedom-metal/src/entry.S:77
    beqz ra, 1f
20010058:	00008363          	beqz	ra,2001005e <_enter+0x5e>
E:/GitHub/HiFive01-RevB/FS_workspace/sifive_hifive1_revb_sifive_welcome/freedom-metal/src/entry.S:78
    jalr ra
2001005c:	9082                	jalr	ra
E:/GitHub/HiFive01-RevB/FS_workspace/sifive_hifive1_revb_sifive_welcome/freedom-metal/src/entry.S:84
1:

    /* At this point we can enter the C runtime's startup file.  The arguments
     * to this function are designed to match those provided to the SEE, just
     * so we don't have to write another ABI. */
    csrr a0, mhartid
2001005e:	f1402573          	csrr	a0,mhartid
E:/GitHub/HiFive01-RevB/FS_workspace/sifive_hifive1_revb_sifive_welcome/freedom-metal/src/entry.S:85
    li a1, 0
20010062:	4581                	li	a1,0
E:/GitHub/HiFive01-RevB/FS_workspace/sifive_hifive1_revb_sifive_welcome/freedom-metal/src/entry.S:86
    li a2, 0
20010064:	4601                	li	a2,0
E:/GitHub/HiFive01-RevB/FS_workspace/sifive_hifive1_revb_sifive_welcome/freedom-metal/src/entry.S:87
    call _start
20010066:	20ed                	jal	20010150 <_start>
E:/GitHub/HiFive01-RevB/FS_workspace/sifive_hifive1_revb_sifive_welcome/freedom-metal/src/entry.S:92

    /* If we've made it back here then there's probably something wrong.  We
     * allow the METAL to register a handler here. */
    .weak __metal_after_main
    la ra, __metal_after_main
20010068:	00000093          	li	ra,0
E:/GitHub/HiFive01-RevB/FS_workspace/sifive_hifive1_revb_sifive_welcome/freedom-metal/src/entry.S:93
    beqz ra, 1f
2001006c:	00008363          	beqz	ra,20010072 <_enter+0x72>
E:/GitHub/HiFive01-RevB/FS_workspace/sifive_hifive1_revb_sifive_welcome/freedom-metal/src/entry.S:94
    jalr ra
20010070:	9082                	jalr	ra
E:/GitHub/HiFive01-RevB/FS_workspace/sifive_hifive1_revb_sifive_welcome/freedom-metal/src/entry.S:99
1:

    /* If that handler returns then there's not a whole lot we can do.  Just
     * try to make some noise. */
     la t0, 1f
20010072:	00000297          	auipc	t0,0x0
20010076:	00c28293          	addi	t0,t0,12 # 2001007e <_enter+0x7e>
E:/GitHub/HiFive01-RevB/FS_workspace/sifive_hifive1_revb_sifive_welcome/freedom-metal/src/entry.S:100
     csrw mtvec, t0
2001007a:	30529073          	csrw	mtvec,t0
E:/GitHub/HiFive01-RevB/FS_workspace/sifive_hifive1_revb_sifive_welcome/freedom-metal/src/entry.S:102
1:
     lw t1, 0(x0)
2001007e:	00002303          	lw	t1,0(zero) # 0 <__metal_boot_hart>
E:/GitHub/HiFive01-RevB/FS_workspace/sifive_hifive1_revb_sifive_welcome/freedom-metal/src/entry.S:103
     j 1b
20010082:	bff5                	j	2001007e <_enter+0x7e>
20010084:	0000                	unimp
	...

20010088 <__register_frame_info>:
__register_frame_info():
E:/GitHub/HiFive01-RevB/FS_workspace/sifive_hifive1_revb_sifive_welcome/freedom-metal/src/entry.S:117
.weak __register_frame_info
.global __register_frame_info
.section .text.metal.init.__register_frame_info
__register_frame_info:
    .cfi_startproc
    ret
20010088:	8082                	ret

2001008a <metal_mem_scrub>:
metal_mem_scrub():
E:/GitHub/HiFive01-RevB/FS_workspace/sifive_hifive1_revb_sifive_welcome/freedom-metal/src/scrub.S:24
.type metal_mem_scrub, @function
metal_mem_scrub:

    /* Disable machine interrupts,
    restore previous mstatus value at exit */
    li      a3, 8
2001008a:	46a1                	li	a3,8
E:/GitHub/HiFive01-RevB/FS_workspace/sifive_hifive1_revb_sifive_welcome/freedom-metal/src/scrub.S:25
    csrrc   t1, mstatus, a3
2001008c:	3006b373          	csrrc	t1,mstatus,a3
E:/GitHub/HiFive01-RevB/FS_workspace/sifive_hifive1_revb_sifive_welcome/freedom-metal/src/scrub.S:28

#if __riscv_xlen == 32
    addi    t0, x0, 4
20010090:	4291                	li	t0,4
E:/GitHub/HiFive01-RevB/FS_workspace/sifive_hifive1_revb_sifive_welcome/freedom-metal/src/scrub.S:30
1:
    blt     a1, t0, 2f
20010092:	0055c563          	blt	a1,t0,2001009c <metal_mem_scrub+0x12>
E:/GitHub/HiFive01-RevB/FS_workspace/sifive_hifive1_revb_sifive_welcome/freedom-metal/src/scrub.S:31
    andi    a2, a0, 3
20010096:	00357613          	andi	a2,a0,3
E:/GitHub/HiFive01-RevB/FS_workspace/sifive_hifive1_revb_sifive_welcome/freedom-metal/src/scrub.S:32
    beqz    a2, 3f
2001009a:	ca11                	beqz	a2,200100ae <metal_mem_scrub+0x24>
E:/GitHub/HiFive01-RevB/FS_workspace/sifive_hifive1_revb_sifive_welcome/freedom-metal/src/scrub.S:34
2:
    sb      x0, 0(a0)
2001009c:	00050023          	sb	zero,0(a0)
E:/GitHub/HiFive01-RevB/FS_workspace/sifive_hifive1_revb_sifive_welcome/freedom-metal/src/scrub.S:35
    addi    a0, a0, 1
200100a0:	0505                	addi	a0,a0,1
E:/GitHub/HiFive01-RevB/FS_workspace/sifive_hifive1_revb_sifive_welcome/freedom-metal/src/scrub.S:36
    addi    a1, a1, -1
200100a2:	15fd                	addi	a1,a1,-1
E:/GitHub/HiFive01-RevB/FS_workspace/sifive_hifive1_revb_sifive_welcome/freedom-metal/src/scrub.S:37
    bgtz    a1, 1b
200100a4:	feb047e3          	bgtz	a1,20010092 <metal_mem_scrub+0x8>
E:/GitHub/HiFive01-RevB/FS_workspace/sifive_hifive1_revb_sifive_welcome/freedom-metal/src/scrub.S:38
    csrw    mstatus, t1
200100a8:	30031073          	csrw	mstatus,t1
E:/GitHub/HiFive01-RevB/FS_workspace/sifive_hifive1_revb_sifive_welcome/freedom-metal/src/scrub.S:39
    ret
200100ac:	8082                	ret
E:/GitHub/HiFive01-RevB/FS_workspace/sifive_hifive1_revb_sifive_welcome/freedom-metal/src/scrub.S:41
3:
    sw      x0, 0(a0)
200100ae:	00052023          	sw	zero,0(a0)
E:/GitHub/HiFive01-RevB/FS_workspace/sifive_hifive1_revb_sifive_welcome/freedom-metal/src/scrub.S:42
    addi    a0, a0, 4
200100b2:	0511                	addi	a0,a0,4
E:/GitHub/HiFive01-RevB/FS_workspace/sifive_hifive1_revb_sifive_welcome/freedom-metal/src/scrub.S:43
    addi    a1, a1, -4
200100b4:	15f1                	addi	a1,a1,-4
E:/GitHub/HiFive01-RevB/FS_workspace/sifive_hifive1_revb_sifive_welcome/freedom-metal/src/scrub.S:44
    bgtz    a1, 1b
200100b6:	fcb04ee3          	bgtz	a1,20010092 <metal_mem_scrub+0x8>
E:/GitHub/HiFive01-RevB/FS_workspace/sifive_hifive1_revb_sifive_welcome/freedom-metal/src/scrub.S:45
    csrw    mstatus, t1
200100ba:	30031073          	csrw	mstatus,t1
E:/GitHub/HiFive01-RevB/FS_workspace/sifive_hifive1_revb_sifive_welcome/freedom-metal/src/scrub.S:46
    ret
200100be:	8082                	ret

200100c0 <__metal_memory_scrub>:
__metal_memory_scrub():
E:/GitHub/HiFive01-RevB/FS_workspace/sifive_hifive1_revb_sifive_welcome/freedom-metal/src/scrub.S:74
.type __metal_memory_scrub, @function
__metal_memory_scrub:
/* Zero out specified memory regions */
1:
#if __riscv_xlen == 32
    sw      x0, 0(t1)
200100c0:	00032023          	sw	zero,0(t1)
E:/GitHub/HiFive01-RevB/FS_workspace/sifive_hifive1_revb_sifive_welcome/freedom-metal/src/scrub.S:75
    addi    t1, t1, 4
200100c4:	0311                	addi	t1,t1,4
E:/GitHub/HiFive01-RevB/FS_workspace/sifive_hifive1_revb_sifive_welcome/freedom-metal/src/scrub.S:76
    blt     t1, t2, 1b
200100c6:	fe734de3          	blt	t1,t2,200100c0 <__metal_memory_scrub>
E:/GitHub/HiFive01-RevB/FS_workspace/sifive_hifive1_revb_sifive_welcome/freedom-metal/src/scrub.S:82
#else
    sd      x0, 0(t1)
    addi    t1, t1, 8
    blt     t1, t2, 1b
#endif
    ret
200100ca:	8082                	ret

200100cc <__metal_before_start>:
__metal_before_start():
E:/GitHub/HiFive01-RevB/FS_workspace/sifive_hifive1_revb_sifive_welcome/freedom-metal/src/scrub.S:94
.weak __metal_before_start
.global __metal_before_start
.type __metal_before_start, @function
__metal_before_start:
    /* Save caller ra */
    mv      s0, ra
200100cc:	8406                	mv	s0,ra
E:/GitHub/HiFive01-RevB/FS_workspace/sifive_hifive1_revb_sifive_welcome/freedom-metal/src/scrub.S:96

    la      t0, __metal_eccscrub_bit
200100ce:	dfff0297          	auipc	t0,0xdfff0
200100d2:	f3228293          	addi	t0,t0,-206 # 0 <__metal_boot_hart>
E:/GitHub/HiFive01-RevB/FS_workspace/sifive_hifive1_revb_sifive_welcome/freedom-metal/src/scrub.S:97
    beqz    t0, skip_scrub
200100d6:	04028c63          	beqz	t0,2001012e <skip_scrub>
E:/GitHub/HiFive01-RevB/FS_workspace/sifive_hifive1_revb_sifive_welcome/freedom-metal/src/scrub.S:99

    la      t0, __metal_boot_hart
200100da:	dfff0297          	auipc	t0,0xdfff0
200100de:	f2628293          	addi	t0,t0,-218 # 0 <__metal_boot_hart>
E:/GitHub/HiFive01-RevB/FS_workspace/sifive_hifive1_revb_sifive_welcome/freedom-metal/src/scrub.S:100
    csrr    a5, mhartid
200100e2:	f14027f3          	csrr	a5,mhartid
E:/GitHub/HiFive01-RevB/FS_workspace/sifive_hifive1_revb_sifive_welcome/freedom-metal/src/scrub.S:103

    /* Disable machine interrupts to be safe */
    li      a3, 8
200100e6:	46a1                	li	a3,8
E:/GitHub/HiFive01-RevB/FS_workspace/sifive_hifive1_revb_sifive_welcome/freedom-metal/src/scrub.S:104
    csrc    mstatus, a3
200100e8:	3006b073          	csrc	mstatus,a3
E:/GitHub/HiFive01-RevB/FS_workspace/sifive_hifive1_revb_sifive_welcome/freedom-metal/src/scrub.S:107

    /* Zero out per hart stack */
    mv      t1, sp
200100ec:	830a                	mv	t1,sp
E:/GitHub/HiFive01-RevB/FS_workspace/sifive_hifive1_revb_sifive_welcome/freedom-metal/src/scrub.S:108
    la      t2, __stack_size
200100ee:	dfff0397          	auipc	t2,0xdfff0
200100f2:	31238393          	addi	t2,t2,786 # 400 <__stack_size>
E:/GitHub/HiFive01-RevB/FS_workspace/sifive_hifive1_revb_sifive_welcome/freedom-metal/src/scrub.S:109
    add     t2, t2, sp
200100f6:	938a                	add	t2,t2,sp
E:/GitHub/HiFive01-RevB/FS_workspace/sifive_hifive1_revb_sifive_welcome/freedom-metal/src/scrub.S:110
    beq     t1, t2, 1f
200100f8:	00730363          	beq	t1,t2,200100fe <__metal_before_start+0x32>
E:/GitHub/HiFive01-RevB/FS_workspace/sifive_hifive1_revb_sifive_welcome/freedom-metal/src/scrub.S:111
    jal     __metal_memory_scrub
200100fc:	37d1                	jal	200100c0 <__metal_memory_scrub>
E:/GitHub/HiFive01-RevB/FS_workspace/sifive_hifive1_revb_sifive_welcome/freedom-metal/src/scrub.S:113
1:
    bne     a5, t0, skip_scrub
200100fe:	02579863          	bne	a5,t0,2001012e <skip_scrub>
E:/GitHub/HiFive01-RevB/FS_workspace/sifive_hifive1_revb_sifive_welcome/freedom-metal/src/scrub.S:116

    /* Zero out data segment */
    la      t1, metal_segment_data_target_start
20010102:	5fff0317          	auipc	t1,0x5fff0
20010106:	efe30313          	addi	t1,t1,-258 # 80000000 <impure_data>
E:/GitHub/HiFive01-RevB/FS_workspace/sifive_hifive1_revb_sifive_welcome/freedom-metal/src/scrub.S:117
    la      t2, metal_segment_data_target_end
2001010a:	5fff1397          	auipc	t2,0x5fff1
2001010e:	9d638393          	addi	t2,t2,-1578 # 80000ae0 <__malloc_free_list>
E:/GitHub/HiFive01-RevB/FS_workspace/sifive_hifive1_revb_sifive_welcome/freedom-metal/src/scrub.S:118
    beq     t1, t2, 1f
20010112:	00730363          	beq	t1,t2,20010118 <__metal_before_start+0x4c>
E:/GitHub/HiFive01-RevB/FS_workspace/sifive_hifive1_revb_sifive_welcome/freedom-metal/src/scrub.S:119
    jal     __metal_memory_scrub
20010116:	376d                	jal	200100c0 <__metal_memory_scrub>
E:/GitHub/HiFive01-RevB/FS_workspace/sifive_hifive1_revb_sifive_welcome/freedom-metal/src/scrub.S:122
1:
    /* Zero out itim memory */
    la      t1, metal_segment_itim_target_start
20010118:	e7ff0317          	auipc	t1,0xe7ff0
2001011c:	ee830313          	addi	t1,t1,-280 # 8000000 <metal_segment_itim_target_end>
E:/GitHub/HiFive01-RevB/FS_workspace/sifive_hifive1_revb_sifive_welcome/freedom-metal/src/scrub.S:123
    la      t2, metal_segment_itim_target_end
20010120:	e7ff0397          	auipc	t2,0xe7ff0
20010124:	ee038393          	addi	t2,t2,-288 # 8000000 <metal_segment_itim_target_end>
E:/GitHub/HiFive01-RevB/FS_workspace/sifive_hifive1_revb_sifive_welcome/freedom-metal/src/scrub.S:124
    beq     t1, t2, skip_scrub
20010128:	00730363          	beq	t1,t2,2001012e <skip_scrub>
E:/GitHub/HiFive01-RevB/FS_workspace/sifive_hifive1_revb_sifive_welcome/freedom-metal/src/scrub.S:125
    jal     __metal_memory_scrub
2001012c:	3f51                	jal	200100c0 <__metal_memory_scrub>

2001012e <skip_scrub>:
skip_scrub():
E:/GitHub/HiFive01-RevB/FS_workspace/sifive_hifive1_revb_sifive_welcome/freedom-metal/src/scrub.S:129

skip_scrub:
    /* Restore caller ra */
    mv      ra, s0
2001012e:	80a2                	mv	ra,s0
E:/GitHub/HiFive01-RevB/FS_workspace/sifive_hifive1_revb_sifive_welcome/freedom-metal/src/scrub.S:130
    ret
20010130:	8082                	ret
	...

20010134 <early_trap_vector>:
early_trap_vector():
E:/GitHub/HiFive01-RevB/FS_workspace/sifive_hifive1_revb_sifive_welcome/freedom-metal/src/trap.S:64
.section .text.metal.init.trapvec
.global early_trap_vector
.align 2
early_trap_vector:
    .cfi_startproc
    csrr t0, mcause
20010134:	342022f3          	csrr	t0,mcause
E:/GitHub/HiFive01-RevB/FS_workspace/sifive_hifive1_revb_sifive_welcome/freedom-metal/src/trap.S:65
    csrr t1, mepc
20010138:	34102373          	csrr	t1,mepc
E:/GitHub/HiFive01-RevB/FS_workspace/sifive_hifive1_revb_sifive_welcome/freedom-metal/src/trap.S:66
    csrr t2, mtval
2001013c:	343023f3          	csrr	t2,mtval
E:/GitHub/HiFive01-RevB/FS_workspace/sifive_hifive1_revb_sifive_welcome/freedom-metal/src/trap.S:67
    j early_trap_vector
20010140:	bfd5                	j	20010134 <early_trap_vector>

20010142 <__metal_synchronize_harts>:
__metal_synchronize_harts():
E:/GitHub/HiFive01-RevB/FS_workspace/sifive_hifive1_revb_sifive_welcome/freedom-metal/src/synchronize_harts.c:19
/*
 * _synchronize_harts() is called by crt0.S to cause harts > 0 to wait for
 * hart 0 to finish copying the datat section, zeroing the BSS, and running
 * the libc contstructors.
 */
__attribute__((section(".init"))) void __metal_synchronize_harts() {
20010142:	1141                	addi	sp,sp,-16
20010144:	c622                	sw	s0,12(sp)
20010146:	0800                	addi	s0,sp,16
E:/GitHub/HiFive01-RevB/FS_workspace/sifive_hifive1_revb_sifive_welcome/freedom-metal/src/synchronize_harts.c:66
        while (METAL_MSIP(msip_base, hart) == 1)
            ;
    }

#endif /* __METAL_DT_MAX_HARTS > 1 */
}
20010148:	0001                	nop
2001014a:	4432                	lw	s0,12(sp)
2001014c:	0141                	addi	sp,sp,16
2001014e:	8082                	ret

20010150 <_start>:
_start():
E:/GitHub/HiFive01-RevB/FS_workspace/sifive_hifive1_revb_sifive_welcome/freedom-metal/gloss/crt0.S:36
.cfi_startproc
.cfi_undefined ra

  /* This is a bit funky: it's not usually sane for _start to return, but in
   * this case we actually want to in order to signal an error to the METAL. */
  mv s0, ra
20010150:	8406                	mv	s0,ra
E:/GitHub/HiFive01-RevB/FS_workspace/sifive_hifive1_revb_sifive_welcome/freedom-metal/gloss/crt0.S:44
   * safely perform any access that may be relaxed without GP being set.  This
   * is done with relaxation disabled to avoid relaxing the address calculation
   * to just "addi gp, gp, 0". */
.option push
.option norelax
  la gp, __global_pointer$
20010152:	5fff1197          	auipc	gp,0x5fff1
20010156:	15e18193          	addi	gp,gp,350 # 800012b0 <__global_pointer$>
E:/GitHub/HiFive01-RevB/FS_workspace/sifive_hifive1_revb_sifive_welcome/freedom-metal/gloss/crt0.S:50
.option pop

  /* Stack pointer is expected to be initialized before _start */

  /* If we're not hart 0, skip the initialization work */
  la t0, __metal_boot_hart
2001015a:	00000293          	li	t0,0
E:/GitHub/HiFive01-RevB/FS_workspace/sifive_hifive1_revb_sifive_welcome/freedom-metal/gloss/crt0.S:51
  bne a0, t0, _skip_init
2001015e:	0e551163          	bne	a0,t0,20010240 <_skip_init>
E:/GitHub/HiFive01-RevB/FS_workspace/sifive_hifive1_revb_sifive_welcome/freedom-metal/gloss/crt0.S:60
   * boot and then need to get relocated into a non-persistant writable memory
   * before C code can execute.  If this is the case we do so here.  This step
   * is optional: if the METAL provides an environment in which this relocation
   * is not necessary then it must simply set metal_segment_data_source_start to
   * be equal to metal_segment_data_target_start. */
  la t0, metal_segment_data_source_start
20010162:	00007297          	auipc	t0,0x7
20010166:	71e28293          	addi	t0,t0,1822 # 20017880 <metal_segment_data_source_start>
E:/GitHub/HiFive01-RevB/FS_workspace/sifive_hifive1_revb_sifive_welcome/freedom-metal/gloss/crt0.S:61
  la t1, metal_segment_data_target_start
2001016a:	5fff0317          	auipc	t1,0x5fff0
2001016e:	e9630313          	addi	t1,t1,-362 # 80000000 <impure_data>
E:/GitHub/HiFive01-RevB/FS_workspace/sifive_hifive1_revb_sifive_welcome/freedom-metal/gloss/crt0.S:62
  la t2, metal_segment_data_target_end
20010172:	5fff1397          	auipc	t2,0x5fff1
20010176:	96e38393          	addi	t2,t2,-1682 # 80000ae0 <__malloc_free_list>
E:/GitHub/HiFive01-RevB/FS_workspace/sifive_hifive1_revb_sifive_welcome/freedom-metal/gloss/crt0.S:64

  beq t0, t1, 2f
2001017a:	00628c63          	beq	t0,t1,20010192 <_start+0x42>
E:/GitHub/HiFive01-RevB/FS_workspace/sifive_hifive1_revb_sifive_welcome/freedom-metal/gloss/crt0.S:65
  bge t1, t2, 2f
2001017e:	00735a63          	bge	t1,t2,20010192 <_start+0x42>
E:/GitHub/HiFive01-RevB/FS_workspace/sifive_hifive1_revb_sifive_welcome/freedom-metal/gloss/crt0.S:69

1:
#if __riscv_xlen == 32
  lw   a0, 0(t0)
20010182:	0002a503          	lw	a0,0(t0)
E:/GitHub/HiFive01-RevB/FS_workspace/sifive_hifive1_revb_sifive_welcome/freedom-metal/gloss/crt0.S:70
  addi t0, t0, 4
20010186:	0291                	addi	t0,t0,4
E:/GitHub/HiFive01-RevB/FS_workspace/sifive_hifive1_revb_sifive_welcome/freedom-metal/gloss/crt0.S:71
  sw   a0, 0(t1)
20010188:	00a32023          	sw	a0,0(t1)
E:/GitHub/HiFive01-RevB/FS_workspace/sifive_hifive1_revb_sifive_welcome/freedom-metal/gloss/crt0.S:72
  addi t1, t1, 4
2001018c:	0311                	addi	t1,t1,4
E:/GitHub/HiFive01-RevB/FS_workspace/sifive_hifive1_revb_sifive_welcome/freedom-metal/gloss/crt0.S:73
  blt  t1, t2, 1b
2001018e:	fe734ae3          	blt	t1,t2,20010182 <_start+0x32>
E:/GitHub/HiFive01-RevB/FS_workspace/sifive_hifive1_revb_sifive_welcome/freedom-metal/gloss/crt0.S:84
  blt  t1, t2, 1b
#endif
2:

  /* Copy the ITIM section */
  la t0, metal_segment_itim_source_start
20010192:	00001297          	auipc	t0,0x1
20010196:	24e28293          	addi	t0,t0,590 # 200113e0 <metal_segment_itim_source_start>
E:/GitHub/HiFive01-RevB/FS_workspace/sifive_hifive1_revb_sifive_welcome/freedom-metal/gloss/crt0.S:85
  la t1, metal_segment_itim_target_start
2001019a:	e7ff0317          	auipc	t1,0xe7ff0
2001019e:	e6630313          	addi	t1,t1,-410 # 8000000 <metal_segment_itim_target_end>
E:/GitHub/HiFive01-RevB/FS_workspace/sifive_hifive1_revb_sifive_welcome/freedom-metal/gloss/crt0.S:86
  la t2, metal_segment_itim_target_end
200101a2:	e7ff0397          	auipc	t2,0xe7ff0
200101a6:	e5e38393          	addi	t2,t2,-418 # 8000000 <metal_segment_itim_target_end>
E:/GitHub/HiFive01-RevB/FS_workspace/sifive_hifive1_revb_sifive_welcome/freedom-metal/gloss/crt0.S:88

  beq t0, t1, 2f
200101aa:	00628c63          	beq	t0,t1,200101c2 <_start+0x72>
E:/GitHub/HiFive01-RevB/FS_workspace/sifive_hifive1_revb_sifive_welcome/freedom-metal/gloss/crt0.S:89
  bge t1, t2, 2f
200101ae:	00735a63          	bge	t1,t2,200101c2 <_start+0x72>
E:/GitHub/HiFive01-RevB/FS_workspace/sifive_hifive1_revb_sifive_welcome/freedom-metal/gloss/crt0.S:93

1:
#if __riscv_xlen == 32
  lw   a0, 0(t0)
200101b2:	0002a503          	lw	a0,0(t0)
E:/GitHub/HiFive01-RevB/FS_workspace/sifive_hifive1_revb_sifive_welcome/freedom-metal/gloss/crt0.S:94
  addi t0, t0, 4
200101b6:	0291                	addi	t0,t0,4
E:/GitHub/HiFive01-RevB/FS_workspace/sifive_hifive1_revb_sifive_welcome/freedom-metal/gloss/crt0.S:95
  sw   a0, 0(t1)
200101b8:	00a32023          	sw	a0,0(t1)
E:/GitHub/HiFive01-RevB/FS_workspace/sifive_hifive1_revb_sifive_welcome/freedom-metal/gloss/crt0.S:96
  addi t1, t1, 4
200101bc:	0311                	addi	t1,t1,4
E:/GitHub/HiFive01-RevB/FS_workspace/sifive_hifive1_revb_sifive_welcome/freedom-metal/gloss/crt0.S:97
  blt  t1, t2, 1b
200101be:	fe734ae3          	blt	t1,t2,200101b2 <_start+0x62>
E:/GitHub/HiFive01-RevB/FS_workspace/sifive_hifive1_revb_sifive_welcome/freedom-metal/gloss/crt0.S:109
#endif
2:

  /* Fence all subsequent instruction fetches until after the ITIM writes
     complete */
  fence.i
200101c2:	0000100f          	fence.i
E:/GitHub/HiFive01-RevB/FS_workspace/sifive_hifive1_revb_sifive_welcome/freedom-metal/gloss/crt0.S:114

2:

  /* Copy the LIM section */
  la t0, metal_segment_lim_source_start
200101c6:	00001297          	auipc	t0,0x1
200101ca:	21a28293          	addi	t0,t0,538 # 200113e0 <metal_segment_itim_source_start>
E:/GitHub/HiFive01-RevB/FS_workspace/sifive_hifive1_revb_sifive_welcome/freedom-metal/gloss/crt0.S:115
  la t1, metal_segment_lim_target_start
200101ce:	5fff0317          	auipc	t1,0x5fff0
200101d2:	e3230313          	addi	t1,t1,-462 # 80000000 <impure_data>
E:/GitHub/HiFive01-RevB/FS_workspace/sifive_hifive1_revb_sifive_welcome/freedom-metal/gloss/crt0.S:116
  la t2, metal_segment_lim_target_end
200101d6:	5fff0397          	auipc	t2,0x5fff0
200101da:	e2a38393          	addi	t2,t2,-470 # 80000000 <impure_data>
E:/GitHub/HiFive01-RevB/FS_workspace/sifive_hifive1_revb_sifive_welcome/freedom-metal/gloss/crt0.S:118

  beq t0, t1, 2f
200101de:	00628c63          	beq	t0,t1,200101f6 <_start+0xa6>
E:/GitHub/HiFive01-RevB/FS_workspace/sifive_hifive1_revb_sifive_welcome/freedom-metal/gloss/crt0.S:119
  bge t1, t2, 2f
200101e2:	00735a63          	bge	t1,t2,200101f6 <_start+0xa6>
E:/GitHub/HiFive01-RevB/FS_workspace/sifive_hifive1_revb_sifive_welcome/freedom-metal/gloss/crt0.S:123

1:
#if __riscv_xlen == 32
  lw   a0, 0(t0)
200101e6:	0002a503          	lw	a0,0(t0)
E:/GitHub/HiFive01-RevB/FS_workspace/sifive_hifive1_revb_sifive_welcome/freedom-metal/gloss/crt0.S:124
  addi t0, t0, 4
200101ea:	0291                	addi	t0,t0,4
E:/GitHub/HiFive01-RevB/FS_workspace/sifive_hifive1_revb_sifive_welcome/freedom-metal/gloss/crt0.S:125
  sw   a0, 0(t1)
200101ec:	00a32023          	sw	a0,0(t1)
E:/GitHub/HiFive01-RevB/FS_workspace/sifive_hifive1_revb_sifive_welcome/freedom-metal/gloss/crt0.S:126
  addi t1, t1, 4
200101f0:	0311                	addi	t1,t1,4
E:/GitHub/HiFive01-RevB/FS_workspace/sifive_hifive1_revb_sifive_welcome/freedom-metal/gloss/crt0.S:127
  blt  t1, t2, 1b
200101f2:	fe734ae3          	blt	t1,t2,200101e6 <_start+0x96>
E:/GitHub/HiFive01-RevB/FS_workspace/sifive_hifive1_revb_sifive_welcome/freedom-metal/gloss/crt0.S:139
#endif
2:

  /* Fence all subsequent instruction fetches until after the LIM writes
     complete */
  fence.i
200101f6:	0000100f          	fence.i
E:/GitHub/HiFive01-RevB/FS_workspace/sifive_hifive1_revb_sifive_welcome/freedom-metal/gloss/crt0.S:142

  /* Zero the BSS segment. */
  la t1, metal_segment_bss_target_start
200101fa:	5fff1317          	auipc	t1,0x5fff1
200101fe:	8e630313          	addi	t1,t1,-1818 # 80000ae0 <__malloc_free_list>
E:/GitHub/HiFive01-RevB/FS_workspace/sifive_hifive1_revb_sifive_welcome/freedom-metal/gloss/crt0.S:143
  la t2, metal_segment_bss_target_end
20010202:	8e818393          	addi	t2,gp,-1816 # 80000b98 <metal_segment_bss_target_end>
E:/GitHub/HiFive01-RevB/FS_workspace/sifive_hifive1_revb_sifive_welcome/freedom-metal/gloss/crt0.S:145

  bge t1, t2, 2f
20010206:	00735763          	bge	t1,t2,20010214 <_start+0xc4>
E:/GitHub/HiFive01-RevB/FS_workspace/sifive_hifive1_revb_sifive_welcome/freedom-metal/gloss/crt0.S:149

1:
#if __riscv_xlen == 32
  sw   x0, 0(t1)
2001020a:	00032023          	sw	zero,0(t1)
E:/GitHub/HiFive01-RevB/FS_workspace/sifive_hifive1_revb_sifive_welcome/freedom-metal/gloss/crt0.S:150
  addi t1, t1, 4
2001020e:	0311                	addi	t1,t1,4
E:/GitHub/HiFive01-RevB/FS_workspace/sifive_hifive1_revb_sifive_welcome/freedom-metal/gloss/crt0.S:151
  blt  t1, t2, 1b
20010210:	fe734de3          	blt	t1,t2,2001020a <_start+0xba>
E:/GitHub/HiFive01-RevB/FS_workspace/sifive_hifive1_revb_sifive_welcome/freedom-metal/gloss/crt0.S:161
#endif
2:

  /* Set TLS pointer */
  .weak __tls_base	
  la tp, __tls_base
20010214:	5fff1217          	auipc	tp,0x5fff1
20010218:	8cc20213          	addi	tp,tp,-1844 # 80000ae0 <__malloc_free_list>
E:/GitHub/HiFive01-RevB/FS_workspace/sifive_hifive1_revb_sifive_welcome/freedom-metal/gloss/crt0.S:166

  /* At this point we're in an environment that can execute C code.  The first
   * thing to do is to make the callback to the parent environment if it's been
   * requested to do so. */
  beqz a2, 1f
2001021c:	c211                	beqz	a2,20010220 <_start+0xd0>
E:/GitHub/HiFive01-RevB/FS_workspace/sifive_hifive1_revb_sifive_welcome/freedom-metal/gloss/crt0.S:167
  jalr a2
2001021e:	9602                	jalr	a2
E:/GitHub/HiFive01-RevB/FS_workspace/sifive_hifive1_revb_sifive_welcome/freedom-metal/gloss/crt0.S:171
1:

  /* The RISC-V port only uses new-style constructors and destructors. */
  la a0, __libc_fini_array
20010220:	00007517          	auipc	a0,0x7
20010224:	1e450513          	addi	a0,a0,484 # 20017404 <__libc_fini_array>
E:/GitHub/HiFive01-RevB/FS_workspace/sifive_hifive1_revb_sifive_welcome/freedom-metal/gloss/crt0.S:172
  call atexit
20010228:	1a0070ef          	jal	ra,200173c8 <atexit>
E:/GitHub/HiFive01-RevB/FS_workspace/sifive_hifive1_revb_sifive_welcome/freedom-metal/gloss/crt0.S:173
  call __libc_init_array
2001022c:	20e070ef          	jal	ra,2001743a <__libc_init_array>
E:/GitHub/HiFive01-RevB/FS_workspace/sifive_hifive1_revb_sifive_welcome/freedom-metal/gloss/crt0.S:177

  /* Register metal_fini_run as a destructor and call metal_init_run to
   * run and setup Metal constructors */
  la a0, metal_fini_run
20010230:	00007517          	auipc	a0,0x7
20010234:	5fe50513          	addi	a0,a0,1534 # 2001782e <metal_fini_run>
E:/GitHub/HiFive01-RevB/FS_workspace/sifive_hifive1_revb_sifive_welcome/freedom-metal/gloss/crt0.S:178
  call atexit
20010238:	190070ef          	jal	ra,200173c8 <atexit>
E:/GitHub/HiFive01-RevB/FS_workspace/sifive_hifive1_revb_sifive_welcome/freedom-metal/gloss/crt0.S:179
  call metal_init_run
2001023c:	5dc070ef          	jal	ra,20017818 <metal_init_run>

20010240 <_skip_init>:
_skip_init():
E:/GitHub/HiFive01-RevB/FS_workspace/sifive_hifive1_revb_sifive_welcome/freedom-metal/gloss/crt0.S:185

_skip_init:

  /* Synchronize harts so that secondary harts wait until hart 0 finishes
     initializing */
  call __metal_synchronize_harts
20010240:	3709                	jal	20010142 <__metal_synchronize_harts>
E:/GitHub/HiFive01-RevB/FS_workspace/sifive_hifive1_revb_sifive_welcome/freedom-metal/gloss/crt0.S:188

  /* Disable and clear all interrupt sources */
  li   a3, -1
20010242:	56fd                	li	a3,-1
E:/GitHub/HiFive01-RevB/FS_workspace/sifive_hifive1_revb_sifive_welcome/freedom-metal/gloss/crt0.S:189
  csrc mie, a3
20010244:	3046b073          	csrc	mie,a3
E:/GitHub/HiFive01-RevB/FS_workspace/sifive_hifive1_revb_sifive_welcome/freedom-metal/gloss/crt0.S:190
  csrc mip, a3
20010248:	3446b073          	csrc	mip,a3
E:/GitHub/HiFive01-RevB/FS_workspace/sifive_hifive1_revb_sifive_welcome/freedom-metal/gloss/crt0.S:194

  /* The delegation CSRs exist if user mode interrupts (N extension) or
   * supervisor mode (S extension) are supported */
  csrr a5, misa
2001024c:	301027f3          	csrr	a5,misa
E:/GitHub/HiFive01-RevB/FS_workspace/sifive_hifive1_revb_sifive_welcome/freedom-metal/gloss/crt0.S:195
  lui  a4, 0x42
20010250:	00042737          	lui	a4,0x42
E:/GitHub/HiFive01-RevB/FS_workspace/sifive_hifive1_revb_sifive_welcome/freedom-metal/gloss/crt0.S:196
  and  a4, a4, a5
20010254:	8f7d                	and	a4,a4,a5
E:/GitHub/HiFive01-RevB/FS_workspace/sifive_hifive1_revb_sifive_welcome/freedom-metal/gloss/crt0.S:197
  beqz a4, 1f
20010256:	c709                	beqz	a4,20010260 <_skip_init+0x20>
E:/GitHub/HiFive01-RevB/FS_workspace/sifive_hifive1_revb_sifive_welcome/freedom-metal/gloss/crt0.S:198
  csrc mideleg, a3
20010258:	3036b073          	csrc	mideleg,a3
E:/GitHub/HiFive01-RevB/FS_workspace/sifive_hifive1_revb_sifive_welcome/freedom-metal/gloss/crt0.S:199
  csrc medeleg, a3
2001025c:	3026b073          	csrc	medeleg,a3
E:/GitHub/HiFive01-RevB/FS_workspace/sifive_hifive1_revb_sifive_welcome/freedom-metal/gloss/crt0.S:203
1:

  /* The satp CSR exists if supervisor mode (S extension) is supported */
  lui  a4, 0x40
20010260:	00040737          	lui	a4,0x40
E:/GitHub/HiFive01-RevB/FS_workspace/sifive_hifive1_revb_sifive_welcome/freedom-metal/gloss/crt0.S:204
  and  a4, a4, a5
20010264:	8f7d                	and	a4,a4,a5
E:/GitHub/HiFive01-RevB/FS_workspace/sifive_hifive1_revb_sifive_welcome/freedom-metal/gloss/crt0.S:205
  beqz a4, 1f
20010266:	c319                	beqz	a4,2001026c <_skip_init+0x2c>
E:/GitHub/HiFive01-RevB/FS_workspace/sifive_hifive1_revb_sifive_welcome/freedom-metal/gloss/crt0.S:206
  csrc satp, a3
20010268:	1806b073          	csrc	satp,a3
E:/GitHub/HiFive01-RevB/FS_workspace/sifive_hifive1_revb_sifive_welcome/freedom-metal/gloss/crt0.S:210
1:

  /* Check RISC-V isa and enable FS bits if Floating Point architecture. */
  li   a4, 0x10028
2001026c:	6741                	lui	a4,0x10
2001026e:	02870713          	addi	a4,a4,40 # 10028 <__heap_size+0xf828>
E:/GitHub/HiFive01-RevB/FS_workspace/sifive_hifive1_revb_sifive_welcome/freedom-metal/gloss/crt0.S:211
  and  a5, a5, a4
20010272:	8ff9                	and	a5,a5,a4
E:/GitHub/HiFive01-RevB/FS_workspace/sifive_hifive1_revb_sifive_welcome/freedom-metal/gloss/crt0.S:212
  beqz a5, 1f
20010274:	cb89                	beqz	a5,20010286 <_skip_init+0x46>
E:/GitHub/HiFive01-RevB/FS_workspace/sifive_hifive1_revb_sifive_welcome/freedom-metal/gloss/crt0.S:213
  csrr a5, mstatus
20010276:	300027f3          	csrr	a5,mstatus
E:/GitHub/HiFive01-RevB/FS_workspace/sifive_hifive1_revb_sifive_welcome/freedom-metal/gloss/crt0.S:214
  lui  a4, 0x2
2001027a:	6709                	lui	a4,0x2
E:/GitHub/HiFive01-RevB/FS_workspace/sifive_hifive1_revb_sifive_welcome/freedom-metal/gloss/crt0.S:215
  or   a5, a5, a4
2001027c:	8fd9                	or	a5,a5,a4
E:/GitHub/HiFive01-RevB/FS_workspace/sifive_hifive1_revb_sifive_welcome/freedom-metal/gloss/crt0.S:216
  csrw mstatus, a5
2001027e:	30079073          	csrw	mstatus,a5
E:/GitHub/HiFive01-RevB/FS_workspace/sifive_hifive1_revb_sifive_welcome/freedom-metal/gloss/crt0.S:217
  csrwi fcsr, 0
20010282:	00305073          	csrwi	fcsr,0
E:/GitHub/HiFive01-RevB/FS_workspace/sifive_hifive1_revb_sifive_welcome/freedom-metal/gloss/crt0.S:221
1:

  /* Check for vector extension support and enable it if found */
  csrr a5, misa
20010286:	301027f3          	csrr	a5,misa
E:/GitHub/HiFive01-RevB/FS_workspace/sifive_hifive1_revb_sifive_welcome/freedom-metal/gloss/crt0.S:222
  li a4, 0x200000
2001028a:	00200737          	lui	a4,0x200
E:/GitHub/HiFive01-RevB/FS_workspace/sifive_hifive1_revb_sifive_welcome/freedom-metal/gloss/crt0.S:223
  and a5, a5, a4
2001028e:	8ff9                	and	a5,a5,a4
E:/GitHub/HiFive01-RevB/FS_workspace/sifive_hifive1_revb_sifive_welcome/freedom-metal/gloss/crt0.S:224
  beqz a5, 1f
20010290:	c799                	beqz	a5,2001029e <_skip_init+0x5e>
E:/GitHub/HiFive01-RevB/FS_workspace/sifive_hifive1_revb_sifive_welcome/freedom-metal/gloss/crt0.S:225
  csrr a5, mstatus
20010292:	300027f3          	csrr	a5,mstatus
E:/GitHub/HiFive01-RevB/FS_workspace/sifive_hifive1_revb_sifive_welcome/freedom-metal/gloss/crt0.S:226
  ori a5, a5, 0x200
20010296:	2007e793          	ori	a5,a5,512
E:/GitHub/HiFive01-RevB/FS_workspace/sifive_hifive1_revb_sifive_welcome/freedom-metal/gloss/crt0.S:227
  csrw mstatus, a5
2001029a:	30079073          	csrw	mstatus,a5
E:/GitHub/HiFive01-RevB/FS_workspace/sifive_hifive1_revb_sifive_welcome/freedom-metal/gloss/crt0.S:233
1:

  /* This is a C runtime, so main() is defined to have some arguments.  Since
   * there's nothing sane the METAL can pass we don't bother with that but
   * instead just setup as close to a NOP as we can. */
  li a0, 1     /* argc=1 */
2001029e:	4505                	li	a0,1
E:/GitHub/HiFive01-RevB/FS_workspace/sifive_hifive1_revb_sifive_welcome/freedom-metal/gloss/crt0.S:234
  la a1, argv  /* argv = {"libgloss", NULL} */
200102a0:	00001597          	auipc	a1,0x1
200102a4:	10458593          	addi	a1,a1,260 # 200113a4 <argv>
E:/GitHub/HiFive01-RevB/FS_workspace/sifive_hifive1_revb_sifive_welcome/freedom-metal/gloss/crt0.S:235
  la a2, envp  /* envp = {NULL} */
200102a8:	00001617          	auipc	a2,0x1
200102ac:	10060613          	addi	a2,a2,256 # 200113a8 <envp>
E:/GitHub/HiFive01-RevB/FS_workspace/sifive_hifive1_revb_sifive_welcome/freedom-metal/gloss/crt0.S:236
  call secondary_main
200102b0:	2031                	jal	200102bc <secondary_main>
E:/GitHub/HiFive01-RevB/FS_workspace/sifive_hifive1_revb_sifive_welcome/freedom-metal/gloss/crt0.S:242

  /* Call exit to handle libc's cleanup routines.  Under normal contains this
   * shouldn't even get called, but I'm still not using a tail call here
   * because returning to the METAL is the right thing to do in pathological
   * situations. */
  call exit
200102b2:	12a070ef          	jal	ra,200173dc <exit>
E:/GitHub/HiFive01-RevB/FS_workspace/sifive_hifive1_revb_sifive_welcome/freedom-metal/gloss/crt0.S:247

  /* And here's where we return.  Again, it's a bit odd but the METAL defines
   * this as a bad idea (ie, as opposed to leaving it undefined) and at this
   * point it's really the only thing left to do. */
  mv ra, s0
200102b6:	80a2                	mv	ra,s0
E:/GitHub/HiFive01-RevB/FS_workspace/sifive_hifive1_revb_sifive_welcome/freedom-metal/gloss/crt0.S:248
  ret
200102b8:	8082                	ret

200102ba <_fini>:
_init():
E:/GitHub/HiFive01-RevB/FS_workspace/sifive_hifive1_revb_sifive_welcome/freedom-metal/gloss/crt0.S:260
.type   _init, @function
.global _fini
.type   _fini, @function
_init:
_fini:
  ret
200102ba:	8082                	ret

200102bc <secondary_main>:
secondary_main():
E:/GitHub/HiFive01-RevB/FS_workspace/sifive_hifive1_revb_sifive_welcome/freedom-metal/gloss/crt0.S:271
.weak   secondary_main
.global secondary_main
.type   secondary_main, @function

secondary_main:
  addi sp, sp, -16
200102bc:	1141                	addi	sp,sp,-16
E:/GitHub/HiFive01-RevB/FS_workspace/sifive_hifive1_revb_sifive_welcome/freedom-metal/gloss/crt0.S:273
#if __riscv_xlen == 32
  sw ra, 4(sp)
200102be:	c206                	sw	ra,4(sp)
E:/GitHub/HiFive01-RevB/FS_workspace/sifive_hifive1_revb_sifive_welcome/freedom-metal/gloss/crt0.S:277
#else
  sd ra, 8(sp)
#endif
  csrr t0, mhartid
200102c0:	f14022f3          	csrr	t0,mhartid
E:/GitHub/HiFive01-RevB/FS_workspace/sifive_hifive1_revb_sifive_welcome/freedom-metal/gloss/crt0.S:278
  la t1, __metal_boot_hart
200102c4:	00000313          	li	t1,0
E:/GitHub/HiFive01-RevB/FS_workspace/sifive_hifive1_revb_sifive_welcome/freedom-metal/gloss/crt0.S:279
  beq t0, t1, 2f
200102c8:	00628563          	beq	t0,t1,200102d2 <secondary_main+0x16>
E:/GitHub/HiFive01-RevB/FS_workspace/sifive_hifive1_revb_sifive_welcome/freedom-metal/gloss/crt0.S:281
1:
  wfi
200102cc:	10500073          	wfi
E:/GitHub/HiFive01-RevB/FS_workspace/sifive_hifive1_revb_sifive_welcome/freedom-metal/gloss/crt0.S:282
  j 1b
200102d0:	bff5                	j	200102cc <secondary_main+0x10>
E:/GitHub/HiFive01-RevB/FS_workspace/sifive_hifive1_revb_sifive_welcome/freedom-metal/gloss/crt0.S:284
2:
  call main
200102d2:	306010ef          	jal	ra,200115d8 <main>
E:/GitHub/HiFive01-RevB/FS_workspace/sifive_hifive1_revb_sifive_welcome/freedom-metal/gloss/crt0.S:286
#if __riscv_xlen == 32
  lw ra, 4(sp)
200102d6:	4092                	lw	ra,4(sp)
E:/GitHub/HiFive01-RevB/FS_workspace/sifive_hifive1_revb_sifive_welcome/freedom-metal/gloss/crt0.S:290
#else
  ld ra, 8(sp)
#endif
  addi sp, sp, 16
200102d8:	0141                	addi	sp,sp,16
E:/GitHub/HiFive01-RevB/FS_workspace/sifive_hifive1_revb_sifive_welcome/freedom-metal/gloss/crt0.S:291
  ret
200102da:	8082                	ret

Disassembly of section .ctors:

200102ec <metal_sifive_fe310_g000_pll_init>:
metal_sifive_fe310_g000_pll_init():
E:/GitHub/HiFive01-RevB/FS_workspace/sifive_hifive1_revb_sifive_welcome/freedom-metal/src/drivers/sifive_fe310-g000_pll.c:151
    return pll_input_rate * config->multiplier / config->divisor;
}

#ifdef __METAL_DT_SIFIVE_FE310_G000_PLL_HANDLE

METAL_CONSTRUCTOR(metal_sifive_fe310_g000_pll_init) {
200102ec:	1101                	addi	sp,sp,-32
200102ee:	ce06                	sw	ra,28(sp)
200102f0:	cc22                	sw	s0,24(sp)
200102f2:	1000                	addi	s0,sp,32
E:/GitHub/HiFive01-RevB/FS_workspace/sifive_hifive1_revb_sifive_welcome/freedom-metal/src/drivers/sifive_fe310-g000_pll.c:152
    long init_rate = __metal_driver_sifive_fe310_g000_pll_init_rate();
200102f4:	7bd040ef          	jal	ra,200152b0 <__metal_driver_sifive_fe310_g000_pll_init_rate>
200102f8:	fea42623          	sw	a0,-20(s0)
E:/GitHub/HiFive01-RevB/FS_workspace/sifive_hifive1_revb_sifive_welcome/freedom-metal/src/drivers/sifive_fe310-g000_pll.c:154
    /* If the PLL init_rate is zero, don't initialize the PLL */
    if (init_rate != 0)
200102fc:	fec42783          	lw	a5,-20(s0)
20010300:	c799                	beqz	a5,2001030e <__fini_array_end+0x1e>
E:/GitHub/HiFive01-RevB/FS_workspace/sifive_hifive1_revb_sifive_welcome/freedom-metal/src/drivers/sifive_fe310-g000_pll.c:155
        __metal_driver_sifive_fe310_g000_pll_init(
20010302:	800017b7          	lui	a5,0x80001
20010306:	aa078513          	addi	a0,a5,-1376 # 80000aa0 <metal_segment_heap_target_end+0xfffff300>
2001030a:	032050ef          	jal	ra,2001533c <__metal_driver_sifive_fe310_g000_pll_init>
E:/GitHub/HiFive01-RevB/FS_workspace/sifive_hifive1_revb_sifive_welcome/freedom-metal/src/drivers/sifive_fe310-g000_pll.c:157
            __METAL_DT_SIFIVE_FE310_G000_PLL_HANDLE);
}
2001030e:	0001                	nop
20010310:	40f2                	lw	ra,28(sp)
20010312:	4462                	lw	s0,24(sp)
20010314:	6105                	addi	sp,sp,32
20010316:	8082                	ret

20010318 <use_hfxosc>:
use_hfxosc():
E:/GitHub/HiFive01-RevB/FS_workspace/sifive_hifive1_revb_sifive_welcome/freedom-metal/src/drivers/sifive_fe310-g000_pll.c:389

    return __metal_driver_sifive_fe310_g000_pll_get_rate_hz(clock);
}

#ifdef __METAL_DT_SIFIVE_FE310_G000_PLL_HANDLE
METAL_CONSTRUCTOR(use_hfxosc) {
20010318:	1101                	addi	sp,sp,-32
2001031a:	ce06                	sw	ra,28(sp)
2001031c:	cc22                	sw	s0,24(sp)
2001031e:	1000                	addi	s0,sp,32
E:/GitHub/HiFive01-RevB/FS_workspace/sifive_hifive1_revb_sifive_welcome/freedom-metal/src/drivers/sifive_fe310-g000_pll.c:390
    long init_rate = __metal_driver_sifive_fe310_g000_pll_init_rate();
20010320:	791040ef          	jal	ra,200152b0 <__metal_driver_sifive_fe310_g000_pll_init_rate>
20010324:	fea42623          	sw	a0,-20(s0)
E:/GitHub/HiFive01-RevB/FS_workspace/sifive_hifive1_revb_sifive_welcome/freedom-metal/src/drivers/sifive_fe310-g000_pll.c:391
    metal_clock_set_rate_hz(&__METAL_DT_SIFIVE_FE310_G000_PLL_HANDLE->clock,
20010328:	fec42583          	lw	a1,-20(s0)
2001032c:	800017b7          	lui	a5,0x80001
20010330:	aa078513          	addi	a0,a5,-1376 # 80000aa0 <metal_segment_heap_target_end+0xfffff300>
20010334:	2ed060ef          	jal	ra,20016e20 <metal_clock_set_rate_hz>
E:/GitHub/HiFive01-RevB/FS_workspace/sifive_hifive1_revb_sifive_welcome/freedom-metal/src/drivers/sifive_fe310-g000_pll.c:393
                            init_rate);
}
20010338:	0001                	nop
2001033a:	40f2                	lw	ra,28(sp)
2001033c:	4462                	lw	s0,24(sp)
2001033e:	6105                	addi	sp,sp,32
20010340:	8082                	ret

20010342 <metal_tty_init>:
metal_tty_init():
E:/GitHub/HiFive01-RevB/FS_workspace/sifive_hifive1_revb_sifive_welcome/freedom-metal/src/tty.c:28

#ifndef __METAL_DT_STDOUT_UART_BAUD
#define __METAL_DT_STDOUT_UART_BAUD 115200
#endif

METAL_CONSTRUCTOR(metal_tty_init) {
20010342:	1141                	addi	sp,sp,-16
20010344:	c606                	sw	ra,12(sp)
20010346:	c422                	sw	s0,8(sp)
20010348:	0800                	addi	s0,sp,16
E:/GitHub/HiFive01-RevB/FS_workspace/sifive_hifive1_revb_sifive_welcome/freedom-metal/src/tty.c:29
    metal_uart_init(__METAL_DT_STDOUT_UART_HANDLE, __METAL_DT_STDOUT_UART_BAUD);
2001034a:	67f1                	lui	a5,0x1c
2001034c:	20078593          	addi	a1,a5,512 # 1c200 <__heap_size+0x1ba00>
20010350:	800017b7          	lui	a5,0x80001
20010354:	a4878513          	addi	a0,a5,-1464 # 80000a48 <metal_segment_heap_target_end+0xfffff2a8>
20010358:	4af060ef          	jal	ra,20017006 <metal_uart_init>
E:/GitHub/HiFive01-RevB/FS_workspace/sifive_hifive1_revb_sifive_welcome/freedom-metal/src/tty.c:30
}
2001035c:	0001                	nop
2001035e:	40b2                	lw	ra,12(sp)
20010360:	4422                	lw	s0,8(sp)
20010362:	0141                	addi	sp,sp,16
20010364:	8082                	ret

Disassembly of section .text:

20011400 <display_banner>:
display_banner():
E:\GitHub\HiFive01-RevB\FS_workspace\sifive_hifive1_revb_sifive_welcome\src/sifive-welcome.c:17
struct metal_cpu *cpu;
struct metal_interrupt *cpu_intr, *tmr_intr;
int tmr_id;
volatile uint32_t timer_isr_flag;

void display_banner (void) {
20011400:	1141                	addi	sp,sp,-16
20011402:	c606                	sw	ra,12(sp)
20011404:	c422                	sw	s0,8(sp)
20011406:	0800                	addi	s0,sp,16
E:\GitHub\HiFive01-RevB\FS_workspace\sifive_hifive1_revb_sifive_welcome\src/sifive-welcome.c:19

    printf("\r\n");
20011408:	200107b7          	lui	a5,0x20010
2001140c:	36878513          	addi	a0,a5,872 # 20010368 <metal_tty_init+0x26>
20011410:	2989                	jal	20011862 <puts>
E:\GitHub\HiFive01-RevB\FS_workspace\sifive_hifive1_revb_sifive_welcome\src/sifive-welcome.c:20
    printf("\r\n");
20011412:	200107b7          	lui	a5,0x20010
20011416:	36878513          	addi	a0,a5,872 # 20010368 <metal_tty_init+0x26>
2001141a:	21a1                	jal	20011862 <puts>
E:\GitHub\HiFive01-RevB\FS_workspace\sifive_hifive1_revb_sifive_welcome\src/sifive-welcome.c:21
    printf("                  SIFIVE, INC.\r\n");
2001141c:	200107b7          	lui	a5,0x20010
20011420:	36c78513          	addi	a0,a5,876 # 2001036c <metal_tty_init+0x2a>
20011424:	293d                	jal	20011862 <puts>
E:\GitHub\HiFive01-RevB\FS_workspace\sifive_hifive1_revb_sifive_welcome\src/sifive-welcome.c:22
    printf("\r\n");
20011426:	200107b7          	lui	a5,0x20010
2001142a:	36878513          	addi	a0,a5,872 # 20010368 <metal_tty_init+0x26>
2001142e:	2915                	jal	20011862 <puts>
E:\GitHub\HiFive01-RevB\FS_workspace\sifive_hifive1_revb_sifive_welcome\src/sifive-welcome.c:23
    printf("           5555555555555555555555555\r\n");
20011430:	200107b7          	lui	a5,0x20010
20011434:	38c78513          	addi	a0,a5,908 # 2001038c <metal_tty_init+0x4a>
20011438:	212d                	jal	20011862 <puts>
E:\GitHub\HiFive01-RevB\FS_workspace\sifive_hifive1_revb_sifive_welcome\src/sifive-welcome.c:24
    printf("          5555                   5555\r\n");
2001143a:	200107b7          	lui	a5,0x20010
2001143e:	3b478513          	addi	a0,a5,948 # 200103b4 <metal_tty_init+0x72>
20011442:	2105                	jal	20011862 <puts>
E:\GitHub\HiFive01-RevB\FS_workspace\sifive_hifive1_revb_sifive_welcome\src/sifive-welcome.c:25
    printf("         5555                     5555\r\n");
20011444:	200107b7          	lui	a5,0x20010
20011448:	3dc78513          	addi	a0,a5,988 # 200103dc <metal_tty_init+0x9a>
2001144c:	2919                	jal	20011862 <puts>
E:\GitHub\HiFive01-RevB\FS_workspace\sifive_hifive1_revb_sifive_welcome\src/sifive-welcome.c:26
    printf("        5555                       5555\r\n");
2001144e:	200107b7          	lui	a5,0x20010
20011452:	40478513          	addi	a0,a5,1028 # 20010404 <metal_tty_init+0xc2>
20011456:	2131                	jal	20011862 <puts>
E:\GitHub\HiFive01-RevB\FS_workspace\sifive_hifive1_revb_sifive_welcome\src/sifive-welcome.c:27
    printf("       5555       5555555555555555555555\r\n");
20011458:	200107b7          	lui	a5,0x20010
2001145c:	43078513          	addi	a0,a5,1072 # 20010430 <metal_tty_init+0xee>
20011460:	2109                	jal	20011862 <puts>
E:\GitHub\HiFive01-RevB\FS_workspace\sifive_hifive1_revb_sifive_welcome\src/sifive-welcome.c:28
    printf("      5555       555555555555555555555555\r\n");
20011462:	200107b7          	lui	a5,0x20010
20011466:	45c78513          	addi	a0,a5,1116 # 2001045c <metal_tty_init+0x11a>
2001146a:	2ee5                	jal	20011862 <puts>
E:\GitHub\HiFive01-RevB\FS_workspace\sifive_hifive1_revb_sifive_welcome\src/sifive-welcome.c:29
    printf("     5555                             5555\r\n");
2001146c:	200107b7          	lui	a5,0x20010
20011470:	48878513          	addi	a0,a5,1160 # 20010488 <metal_tty_init+0x146>
20011474:	26fd                	jal	20011862 <puts>
E:\GitHub\HiFive01-RevB\FS_workspace\sifive_hifive1_revb_sifive_welcome\src/sifive-welcome.c:30
    printf("    5555                               5555\r\n");
20011476:	200107b7          	lui	a5,0x20010
2001147a:	4b478513          	addi	a0,a5,1204 # 200104b4 <metal_tty_init+0x172>
2001147e:	26d5                	jal	20011862 <puts>
E:\GitHub\HiFive01-RevB\FS_workspace\sifive_hifive1_revb_sifive_welcome\src/sifive-welcome.c:31
    printf("   5555                                 5555\r\n");
20011480:	200107b7          	lui	a5,0x20010
20011484:	4e478513          	addi	a0,a5,1252 # 200104e4 <metal_tty_init+0x1a2>
20011488:	2ee9                	jal	20011862 <puts>
E:\GitHub\HiFive01-RevB\FS_workspace\sifive_hifive1_revb_sifive_welcome\src/sifive-welcome.c:32
    printf("  5555555555555555555555555555          55555\r\n");
2001148a:	200107b7          	lui	a5,0x20010
2001148e:	51478513          	addi	a0,a5,1300 # 20010514 <metal_tty_init+0x1d2>
20011492:	2ec1                	jal	20011862 <puts>
E:\GitHub\HiFive01-RevB\FS_workspace\sifive_hifive1_revb_sifive_welcome\src/sifive-welcome.c:33
    printf("   55555           555555555           55555\r\n");
20011494:	200107b7          	lui	a5,0x20010
20011498:	54478513          	addi	a0,a5,1348 # 20010544 <metal_tty_init+0x202>
2001149c:	26d9                	jal	20011862 <puts>
E:\GitHub\HiFive01-RevB\FS_workspace\sifive_hifive1_revb_sifive_welcome\src/sifive-welcome.c:34
    printf("     55555           55555           55555\r\n");
2001149e:	200107b7          	lui	a5,0x20010
200114a2:	57478513          	addi	a0,a5,1396 # 20010574 <metal_tty_init+0x232>
200114a6:	2e75                	jal	20011862 <puts>
E:\GitHub\HiFive01-RevB\FS_workspace\sifive_hifive1_revb_sifive_welcome\src/sifive-welcome.c:35
    printf("       55555           5           55555\r\n");
200114a8:	200107b7          	lui	a5,0x20010
200114ac:	5a078513          	addi	a0,a5,1440 # 200105a0 <metal_tty_init+0x25e>
200114b0:	2e4d                	jal	20011862 <puts>
E:\GitHub\HiFive01-RevB\FS_workspace\sifive_hifive1_revb_sifive_welcome\src/sifive-welcome.c:36
    printf("         55555                   55555\r\n");
200114b2:	200107b7          	lui	a5,0x20010
200114b6:	5cc78513          	addi	a0,a5,1484 # 200105cc <metal_tty_init+0x28a>
200114ba:	2665                	jal	20011862 <puts>
E:\GitHub\HiFive01-RevB\FS_workspace\sifive_hifive1_revb_sifive_welcome\src/sifive-welcome.c:37
    printf("           55555               55555\r\n");
200114bc:	200107b7          	lui	a5,0x20010
200114c0:	5f478513          	addi	a0,a5,1524 # 200105f4 <metal_tty_init+0x2b2>
200114c4:	2e79                	jal	20011862 <puts>
E:\GitHub\HiFive01-RevB\FS_workspace\sifive_hifive1_revb_sifive_welcome\src/sifive-welcome.c:38
    printf("             55555           55555\r\n");
200114c6:	200107b7          	lui	a5,0x20010
200114ca:	61c78513          	addi	a0,a5,1564 # 2001061c <metal_tty_init+0x2da>
200114ce:	2e51                	jal	20011862 <puts>
E:\GitHub\HiFive01-RevB\FS_workspace\sifive_hifive1_revb_sifive_welcome\src/sifive-welcome.c:39
    printf("               55555       55555\r\n");
200114d0:	200107b7          	lui	a5,0x20010
200114d4:	64078513          	addi	a0,a5,1600 # 20010640 <metal_tty_init+0x2fe>
200114d8:	2669                	jal	20011862 <puts>
E:\GitHub\HiFive01-RevB\FS_workspace\sifive_hifive1_revb_sifive_welcome\src/sifive-welcome.c:40
    printf("                 55555   55555\r\n");
200114da:	200107b7          	lui	a5,0x20010
200114de:	66478513          	addi	a0,a5,1636 # 20010664 <metal_tty_init+0x322>
200114e2:	2641                	jal	20011862 <puts>
E:\GitHub\HiFive01-RevB\FS_workspace\sifive_hifive1_revb_sifive_welcome\src/sifive-welcome.c:41
    printf("                   555555555\r\n");
200114e4:	200107b7          	lui	a5,0x20010
200114e8:	68478513          	addi	a0,a5,1668 # 20010684 <metal_tty_init+0x342>
200114ec:	2e9d                	jal	20011862 <puts>
E:\GitHub\HiFive01-RevB\FS_workspace\sifive_hifive1_revb_sifive_welcome\src/sifive-welcome.c:42
    printf("                     55555\r\n");
200114ee:	200107b7          	lui	a5,0x20010
200114f2:	6a478513          	addi	a0,a5,1700 # 200106a4 <metal_tty_init+0x362>
200114f6:	26b5                	jal	20011862 <puts>
E:\GitHub\HiFive01-RevB\FS_workspace\sifive_hifive1_revb_sifive_welcome\src/sifive-welcome.c:43
    printf("                       5\r\n");
200114f8:	200107b7          	lui	a5,0x20010
200114fc:	6c078513          	addi	a0,a5,1728 # 200106c0 <metal_tty_init+0x37e>
20011500:	268d                	jal	20011862 <puts>
E:\GitHub\HiFive01-RevB\FS_workspace\sifive_hifive1_revb_sifive_welcome\src/sifive-welcome.c:44
    printf("\r\n");
20011502:	200107b7          	lui	a5,0x20010
20011506:	36878513          	addi	a0,a5,872 # 20010368 <metal_tty_init+0x26>
2001150a:	2ea1                	jal	20011862 <puts>
E:\GitHub\HiFive01-RevB\FS_workspace\sifive_hifive1_revb_sifive_welcome\src/sifive-welcome.c:46

    printf("\r\n");
2001150c:	200107b7          	lui	a5,0x20010
20011510:	36878513          	addi	a0,a5,872 # 20010368 <metal_tty_init+0x26>
20011514:	26b9                	jal	20011862 <puts>
E:\GitHub\HiFive01-RevB\FS_workspace\sifive_hifive1_revb_sifive_welcome\src/sifive-welcome.c:47
    printf("               Welcome to SiFive!\r\n");
20011516:	200107b7          	lui	a5,0x20010
2001151a:	6dc78513          	addi	a0,a5,1756 # 200106dc <metal_tty_init+0x39a>
2001151e:	2691                	jal	20011862 <puts>
E:\GitHub\HiFive01-RevB\FS_workspace\sifive_hifive1_revb_sifive_welcome\src/sifive-welcome.c:49

}
20011520:	0001                	nop
20011522:	40b2                	lw	ra,12(sp)
20011524:	4422                	lw	s0,8(sp)
20011526:	0141                	addi	sp,sp,16
20011528:	8082                	ret

2001152a <timer_isr>:
timer_isr():
E:\GitHub\HiFive01-RevB\FS_workspace\sifive_hifive1_revb_sifive_welcome\src/sifive-welcome.c:51

void timer_isr (int id, void *data) {
2001152a:	1101                	addi	sp,sp,-32
2001152c:	ce06                	sw	ra,28(sp)
2001152e:	cc22                	sw	s0,24(sp)
20011530:	1000                	addi	s0,sp,32
20011532:	fea42623          	sw	a0,-20(s0)
20011536:	feb42423          	sw	a1,-24(s0)
E:\GitHub\HiFive01-RevB\FS_workspace\sifive_hifive1_revb_sifive_welcome\src/sifive-welcome.c:54

    // Disable Timer interrupt
    metal_interrupt_disable(tmr_intr, tmr_id);
2001153a:	8d81a703          	lw	a4,-1832(gp) # 80000b88 <tmr_intr>
2001153e:	8e41a783          	lw	a5,-1820(gp) # 80000b94 <tmr_id>
20011542:	85be                	mv	a1,a5
20011544:	853a                	mv	a0,a4
20011546:	7a1000ef          	jal	ra,200124e6 <metal_interrupt_disable>
E:\GitHub\HiFive01-RevB\FS_workspace\sifive_hifive1_revb_sifive_welcome\src/sifive-welcome.c:57

    // Flag showing we hit timer isr
    timer_isr_flag = 1;
2001154a:	4705                	li	a4,1
2001154c:	8ee1a023          	sw	a4,-1824(gp) # 80000b90 <timer_isr_flag>
E:\GitHub\HiFive01-RevB\FS_workspace\sifive_hifive1_revb_sifive_welcome\src/sifive-welcome.c:58
}
20011550:	0001                	nop
20011552:	40f2                	lw	ra,28(sp)
20011554:	4462                	lw	s0,24(sp)
20011556:	6105                	addi	sp,sp,32
20011558:	8082                	ret

2001155a <wait_for_timer>:
wait_for_timer():
E:\GitHub\HiFive01-RevB\FS_workspace\sifive_hifive1_revb_sifive_welcome\src/sifive-welcome.c:60

void wait_for_timer(struct metal_led *which_led) {
2001155a:	1101                	addi	sp,sp,-32
2001155c:	ce06                	sw	ra,28(sp)
2001155e:	cc22                	sw	s0,24(sp)
20011560:	ca26                	sw	s1,20(sp)
20011562:	1000                	addi	s0,sp,32
20011564:	fea42623          	sw	a0,-20(s0)
E:\GitHub\HiFive01-RevB\FS_workspace\sifive_hifive1_revb_sifive_welcome\src/sifive-welcome.c:63

    // clear global timer isr flag
    timer_isr_flag = 0;
20011568:	8e01a023          	sw	zero,-1824(gp) # 80000b90 <timer_isr_flag>
E:\GitHub\HiFive01-RevB\FS_workspace\sifive_hifive1_revb_sifive_welcome\src/sifive-welcome.c:66

    // Turn on desired LED
    metal_led_on(which_led);
2001156c:	fec42503          	lw	a0,-20(s0)
20011570:	7c9000ef          	jal	ra,20012538 <metal_led_on>
E:\GitHub\HiFive01-RevB\FS_workspace\sifive_hifive1_revb_sifive_welcome\src/sifive-welcome.c:69

    // Set timer
    metal_cpu_set_mtimecmp(cpu, metal_cpu_get_mtime(cpu) + RTC_FREQ);
20011574:	8d41a483          	lw	s1,-1836(gp) # 80000b84 <cpu>
20011578:	8d41a783          	lw	a5,-1836(gp) # 80000b84 <cpu>
2001157c:	853e                	mv	a0,a5
2001157e:	5bf000ef          	jal	ra,2001233c <metal_cpu_get_mtime>
20011582:	862a                	mv	a2,a0
20011584:	86ae                	mv	a3,a1
20011586:	6521                	lui	a0,0x8
20011588:	4581                	li	a1,0
2001158a:	00a60733          	add	a4,a2,a0
2001158e:	883a                	mv	a6,a4
20011590:	00c83833          	sltu	a6,a6,a2
20011594:	00b687b3          	add	a5,a3,a1
20011598:	00f806b3          	add	a3,a6,a5
2001159c:	87b6                	mv	a5,a3
2001159e:	85ba                	mv	a1,a4
200115a0:	863e                	mv	a2,a5
200115a2:	8526                	mv	a0,s1
200115a4:	5c3000ef          	jal	ra,20012366 <metal_cpu_set_mtimecmp>
E:\GitHub\HiFive01-RevB\FS_workspace\sifive_hifive1_revb_sifive_welcome\src/sifive-welcome.c:72

    // Enable Timer interrupt
    metal_interrupt_enable(tmr_intr, tmr_id);
200115a8:	8d81a703          	lw	a4,-1832(gp) # 80000b88 <tmr_intr>
200115ac:	8e41a783          	lw	a5,-1820(gp) # 80000b94 <tmr_id>
200115b0:	85be                	mv	a1,a5
200115b2:	853a                	mv	a0,a4
200115b4:	705000ef          	jal	ra,200124b8 <metal_interrupt_enable>
E:\GitHub\HiFive01-RevB\FS_workspace\sifive_hifive1_revb_sifive_welcome\src/sifive-welcome.c:75

    // wait till timer triggers and isr is hit
    while (timer_isr_flag == 0){};
200115b8:	0001                	nop
E:\GitHub\HiFive01-RevB\FS_workspace\sifive_hifive1_revb_sifive_welcome\src/sifive-welcome.c:75 (discriminator 1)
200115ba:	8e01a783          	lw	a5,-1824(gp) # 80000b90 <timer_isr_flag>
200115be:	dff5                	beqz	a5,200115ba <wait_for_timer+0x60>
E:\GitHub\HiFive01-RevB\FS_workspace\sifive_hifive1_revb_sifive_welcome\src/sifive-welcome.c:77

    timer_isr_flag = 0;
200115c0:	8e01a023          	sw	zero,-1824(gp) # 80000b90 <timer_isr_flag>
E:\GitHub\HiFive01-RevB\FS_workspace\sifive_hifive1_revb_sifive_welcome\src/sifive-welcome.c:80

    // Turn off this LED
    metal_led_off(which_led);
200115c4:	fec42503          	lw	a0,-20(s0)
200115c8:	795000ef          	jal	ra,2001255c <metal_led_off>
E:\GitHub\HiFive01-RevB\FS_workspace\sifive_hifive1_revb_sifive_welcome\src/sifive-welcome.c:81
}
200115cc:	0001                	nop
200115ce:	40f2                	lw	ra,28(sp)
200115d0:	4462                	lw	s0,24(sp)
200115d2:	44d2                	lw	s1,20(sp)
200115d4:	6105                	addi	sp,sp,32
200115d6:	8082                	ret

200115d8 <main>:
main():
E:\GitHub\HiFive01-RevB\FS_workspace\sifive_hifive1_revb_sifive_welcome\src/sifive-welcome.c:84

int main (void)
{
200115d8:	1101                	addi	sp,sp,-32
200115da:	ce06                	sw	ra,28(sp)
200115dc:	cc22                	sw	s0,24(sp)
200115de:	1000                	addi	s0,sp,32
E:\GitHub\HiFive01-RevB\FS_workspace\sifive_hifive1_revb_sifive_welcome\src/sifive-welcome.c:89
    int rc;
    struct metal_led *led0_red, *led0_green, *led0_blue;

    // This demo will toggle LEDs colors so we define them here
    led0_red = metal_led_get_rgb("LD0", "red");
200115e0:	200107b7          	lui	a5,0x20010
200115e4:	70078593          	addi	a1,a5,1792 # 20010700 <metal_tty_init+0x3be>
200115e8:	200107b7          	lui	a5,0x20010
200115ec:	70478513          	addi	a0,a5,1796 # 20010704 <metal_tty_init+0x3c2>
200115f0:	791000ef          	jal	ra,20012580 <metal_led_get_rgb>
200115f4:	fea42623          	sw	a0,-20(s0)
E:\GitHub\HiFive01-RevB\FS_workspace\sifive_hifive1_revb_sifive_welcome\src/sifive-welcome.c:90
    led0_green = metal_led_get_rgb("LD0", "green");
200115f8:	200107b7          	lui	a5,0x20010
200115fc:	70878593          	addi	a1,a5,1800 # 20010708 <metal_tty_init+0x3c6>
20011600:	200107b7          	lui	a5,0x20010
20011604:	70478513          	addi	a0,a5,1796 # 20010704 <metal_tty_init+0x3c2>
20011608:	779000ef          	jal	ra,20012580 <metal_led_get_rgb>
2001160c:	fea42423          	sw	a0,-24(s0)
E:\GitHub\HiFive01-RevB\FS_workspace\sifive_hifive1_revb_sifive_welcome\src/sifive-welcome.c:91
    led0_blue = metal_led_get_rgb("LD0", "blue");
20011610:	200107b7          	lui	a5,0x20010
20011614:	71078593          	addi	a1,a5,1808 # 20010710 <metal_tty_init+0x3ce>
20011618:	200107b7          	lui	a5,0x20010
2001161c:	70478513          	addi	a0,a5,1796 # 20010704 <metal_tty_init+0x3c2>
20011620:	761000ef          	jal	ra,20012580 <metal_led_get_rgb>
20011624:	fea42223          	sw	a0,-28(s0)
E:\GitHub\HiFive01-RevB\FS_workspace\sifive_hifive1_revb_sifive_welcome\src/sifive-welcome.c:92
    if ((led0_red == NULL) || (led0_green == NULL) || (led0_blue == NULL)) {
20011628:	fec42783          	lw	a5,-20(s0)
2001162c:	c799                	beqz	a5,2001163a <main+0x62>
E:\GitHub\HiFive01-RevB\FS_workspace\sifive_hifive1_revb_sifive_welcome\src/sifive-welcome.c:92 (discriminator 1)
2001162e:	fe842783          	lw	a5,-24(s0)
20011632:	c781                	beqz	a5,2001163a <main+0x62>
E:\GitHub\HiFive01-RevB\FS_workspace\sifive_hifive1_revb_sifive_welcome\src/sifive-welcome.c:92 (discriminator 2)
20011634:	fe442783          	lw	a5,-28(s0)
20011638:	eb81                	bnez	a5,20011648 <main+0x70>
E:\GitHub\HiFive01-RevB\FS_workspace\sifive_hifive1_revb_sifive_welcome\src/sifive-welcome.c:93
        printf("At least one of LEDs is null.\n");
2001163a:	200107b7          	lui	a5,0x20010
2001163e:	71878513          	addi	a0,a5,1816 # 20010718 <metal_tty_init+0x3d6>
20011642:	2405                	jal	20011862 <puts>
E:\GitHub\HiFive01-RevB\FS_workspace\sifive_hifive1_revb_sifive_welcome\src/sifive-welcome.c:94
        return 1;
20011644:	4785                	li	a5,1
20011646:	aa25                	j	2001177e <main+0x1a6>
E:\GitHub\HiFive01-RevB\FS_workspace\sifive_hifive1_revb_sifive_welcome\src/sifive-welcome.c:98
    }

    // Enable each LED
    metal_led_enable(led0_red);
20011648:	fec42503          	lw	a0,-20(s0)
2001164c:	6c9000ef          	jal	ra,20012514 <metal_led_enable>
E:\GitHub\HiFive01-RevB\FS_workspace\sifive_hifive1_revb_sifive_welcome\src/sifive-welcome.c:99
    metal_led_enable(led0_green);
20011650:	fe842503          	lw	a0,-24(s0)
20011654:	6c1000ef          	jal	ra,20012514 <metal_led_enable>
E:\GitHub\HiFive01-RevB\FS_workspace\sifive_hifive1_revb_sifive_welcome\src/sifive-welcome.c:100
    metal_led_enable(led0_blue);
20011658:	fe442503          	lw	a0,-28(s0)
2001165c:	6b9000ef          	jal	ra,20012514 <metal_led_enable>
E:\GitHub\HiFive01-RevB\FS_workspace\sifive_hifive1_revb_sifive_welcome\src/sifive-welcome.c:103

    // All Off
    metal_led_off(led0_red);
20011660:	fec42503          	lw	a0,-20(s0)
20011664:	6f9000ef          	jal	ra,2001255c <metal_led_off>
E:\GitHub\HiFive01-RevB\FS_workspace\sifive_hifive1_revb_sifive_welcome\src/sifive-welcome.c:104
    metal_led_off(led0_green);
20011668:	fe842503          	lw	a0,-24(s0)
2001166c:	6f1000ef          	jal	ra,2001255c <metal_led_off>
E:\GitHub\HiFive01-RevB\FS_workspace\sifive_hifive1_revb_sifive_welcome\src/sifive-welcome.c:105
    metal_led_off(led0_blue);
20011670:	fe442503          	lw	a0,-28(s0)
20011674:	6e9000ef          	jal	ra,2001255c <metal_led_off>
E:\GitHub\HiFive01-RevB\FS_workspace\sifive_hifive1_revb_sifive_welcome\src/sifive-welcome.c:108

    // Lets get the CPU and and its interrupt
    cpu = metal_cpu_get(metal_cpu_get_current_hartid());
20011678:	5c5000ef          	jal	ra,2001243c <metal_cpu_get_current_hartid>
2001167c:	87aa                	mv	a5,a0
2001167e:	853e                	mv	a0,a5
20011680:	58f000ef          	jal	ra,2001240e <metal_cpu_get>
20011684:	872a                	mv	a4,a0
20011686:	8ce1aa23          	sw	a4,-1836(gp) # 80000b84 <cpu>
E:\GitHub\HiFive01-RevB\FS_workspace\sifive_hifive1_revb_sifive_welcome\src/sifive-welcome.c:109
    if (cpu == NULL) {
2001168a:	8d41a783          	lw	a5,-1836(gp) # 80000b84 <cpu>
2001168e:	eb81                	bnez	a5,2001169e <main+0xc6>
E:\GitHub\HiFive01-RevB\FS_workspace\sifive_hifive1_revb_sifive_welcome\src/sifive-welcome.c:110
        printf("CPU null.\n");
20011690:	200107b7          	lui	a5,0x20010
20011694:	73878513          	addi	a0,a5,1848 # 20010738 <metal_tty_init+0x3f6>
20011698:	22e9                	jal	20011862 <puts>
E:\GitHub\HiFive01-RevB\FS_workspace\sifive_hifive1_revb_sifive_welcome\src/sifive-welcome.c:111
        return 2;
2001169a:	4789                	li	a5,2
2001169c:	a0cd                	j	2001177e <main+0x1a6>
E:\GitHub\HiFive01-RevB\FS_workspace\sifive_hifive1_revb_sifive_welcome\src/sifive-welcome.c:113
    }
    cpu_intr = metal_cpu_interrupt_controller(cpu);
2001169e:	8d41a783          	lw	a5,-1836(gp) # 80000b84 <cpu>
200116a2:	853e                	mv	a0,a5
200116a4:	545000ef          	jal	ra,200123e8 <metal_cpu_interrupt_controller>
200116a8:	872a                	mv	a4,a0
200116aa:	8ce1ae23          	sw	a4,-1828(gp) # 80000b8c <cpu_intr>
E:\GitHub\HiFive01-RevB\FS_workspace\sifive_hifive1_revb_sifive_welcome\src/sifive-welcome.c:114
    if (cpu_intr == NULL) {
200116ae:	8dc1a783          	lw	a5,-1828(gp) # 80000b8c <cpu_intr>
200116b2:	eb81                	bnez	a5,200116c2 <main+0xea>
E:\GitHub\HiFive01-RevB\FS_workspace\sifive_hifive1_revb_sifive_welcome\src/sifive-welcome.c:115
        printf("CPU interrupt controller is null.\n");
200116b4:	200107b7          	lui	a5,0x20010
200116b8:	74478513          	addi	a0,a5,1860 # 20010744 <metal_tty_init+0x402>
200116bc:	225d                	jal	20011862 <puts>
E:\GitHub\HiFive01-RevB\FS_workspace\sifive_hifive1_revb_sifive_welcome\src/sifive-welcome.c:116
        return 3;
200116be:	478d                	li	a5,3
200116c0:	a87d                	j	2001177e <main+0x1a6>
E:\GitHub\HiFive01-RevB\FS_workspace\sifive_hifive1_revb_sifive_welcome\src/sifive-welcome.c:118
    }
    metal_interrupt_init(cpu_intr);
200116c2:	8dc1a783          	lw	a5,-1828(gp) # 80000b8c <cpu_intr>
200116c6:	853e                	mv	a0,a5
200116c8:	58f000ef          	jal	ra,20012456 <metal_interrupt_init>
E:\GitHub\HiFive01-RevB\FS_workspace\sifive_hifive1_revb_sifive_welcome\src/sifive-welcome.c:121

    // display welcome banner
    display_banner();
200116cc:	3b15                	jal	20011400 <display_banner>
E:\GitHub\HiFive01-RevB\FS_workspace\sifive_hifive1_revb_sifive_welcome\src/sifive-welcome.c:124

    // Setup Timer and its interrupt so we can toggle LEDs on 1s cadence
    tmr_intr = metal_cpu_timer_interrupt_controller(cpu);
200116ce:	8d41a783          	lw	a5,-1836(gp) # 80000b84 <cpu>
200116d2:	853e                	mv	a0,a5
200116d4:	4c9000ef          	jal	ra,2001239c <metal_cpu_timer_interrupt_controller>
200116d8:	872a                	mv	a4,a0
200116da:	8ce1ac23          	sw	a4,-1832(gp) # 80000b88 <tmr_intr>
E:\GitHub\HiFive01-RevB\FS_workspace\sifive_hifive1_revb_sifive_welcome\src/sifive-welcome.c:125
    if (tmr_intr == NULL) {
200116de:	8d81a783          	lw	a5,-1832(gp) # 80000b88 <tmr_intr>
200116e2:	eb81                	bnez	a5,200116f2 <main+0x11a>
E:\GitHub\HiFive01-RevB\FS_workspace\sifive_hifive1_revb_sifive_welcome\src/sifive-welcome.c:126
        printf("TIMER interrupt controller is  null.\n");
200116e4:	200107b7          	lui	a5,0x20010
200116e8:	76878513          	addi	a0,a5,1896 # 20010768 <metal_tty_init+0x426>
200116ec:	2a9d                	jal	20011862 <puts>
E:\GitHub\HiFive01-RevB\FS_workspace\sifive_hifive1_revb_sifive_welcome\src/sifive-welcome.c:127
        return 4;
200116ee:	4791                	li	a5,4
200116f0:	a079                	j	2001177e <main+0x1a6>
E:\GitHub\HiFive01-RevB\FS_workspace\sifive_hifive1_revb_sifive_welcome\src/sifive-welcome.c:129
    }
    metal_interrupt_init(tmr_intr);
200116f2:	8d81a783          	lw	a5,-1832(gp) # 80000b88 <tmr_intr>
200116f6:	853e                	mv	a0,a5
200116f8:	55f000ef          	jal	ra,20012456 <metal_interrupt_init>
E:\GitHub\HiFive01-RevB\FS_workspace\sifive_hifive1_revb_sifive_welcome\src/sifive-welcome.c:130
    tmr_id = metal_cpu_timer_get_interrupt_id(cpu);
200116fc:	8d41a783          	lw	a5,-1836(gp) # 80000b84 <cpu>
20011700:	853e                	mv	a0,a5
20011702:	4c1000ef          	jal	ra,200123c2 <metal_cpu_timer_get_interrupt_id>
20011706:	872a                	mv	a4,a0
20011708:	8ee1a223          	sw	a4,-1820(gp) # 80000b94 <tmr_id>
E:\GitHub\HiFive01-RevB\FS_workspace\sifive_hifive1_revb_sifive_welcome\src/sifive-welcome.c:131
    rc = metal_interrupt_register_handler(tmr_intr, tmr_id, timer_isr, cpu);
2001170c:	8d81a703          	lw	a4,-1832(gp) # 80000b88 <tmr_intr>
20011710:	8e41a583          	lw	a1,-1820(gp) # 80000b94 <tmr_id>
20011714:	8d41a783          	lw	a5,-1836(gp) # 80000b84 <cpu>
20011718:	86be                	mv	a3,a5
2001171a:	200117b7          	lui	a5,0x20011
2001171e:	52a78613          	addi	a2,a5,1322 # 2001152a <timer_isr>
20011722:	853a                	mv	a0,a4
20011724:	557000ef          	jal	ra,2001247a <metal_interrupt_register_handler>
20011728:	fea42023          	sw	a0,-32(s0)
E:\GitHub\HiFive01-RevB\FS_workspace\sifive_hifive1_revb_sifive_welcome\src/sifive-welcome.c:132
    if (rc < 0) {
2001172c:	fe042783          	lw	a5,-32(s0)
20011730:	0007dc63          	bgez	a5,20011748 <main+0x170>
E:\GitHub\HiFive01-RevB\FS_workspace\sifive_hifive1_revb_sifive_welcome\src/sifive-welcome.c:133
        printf("TIMER interrupt handler registration failed\n");
20011734:	200107b7          	lui	a5,0x20010
20011738:	79078513          	addi	a0,a5,1936 # 20010790 <metal_tty_init+0x44e>
2001173c:	221d                	jal	20011862 <puts>
E:\GitHub\HiFive01-RevB\FS_workspace\sifive_hifive1_revb_sifive_welcome\src/sifive-welcome.c:134
        return (rc * -1);
2001173e:	fe042783          	lw	a5,-32(s0)
20011742:	40f007b3          	neg	a5,a5
20011746:	a825                	j	2001177e <main+0x1a6>
E:\GitHub\HiFive01-RevB\FS_workspace\sifive_hifive1_revb_sifive_welcome\src/sifive-welcome.c:138
    }

    // Lastly CPU interrupt
    if (metal_interrupt_enable(cpu_intr, 0) == -1) {
20011748:	8dc1a783          	lw	a5,-1828(gp) # 80000b8c <cpu_intr>
2001174c:	4581                	li	a1,0
2001174e:	853e                	mv	a0,a5
20011750:	569000ef          	jal	ra,200124b8 <metal_interrupt_enable>
20011754:	872a                	mv	a4,a0
20011756:	57fd                	li	a5,-1
20011758:	00f71963          	bne	a4,a5,2001176a <main+0x192>
E:\GitHub\HiFive01-RevB\FS_workspace\sifive_hifive1_revb_sifive_welcome\src/sifive-welcome.c:139
        printf("CPU interrupt enable failed\n");
2001175c:	200107b7          	lui	a5,0x20010
20011760:	7bc78513          	addi	a0,a5,1980 # 200107bc <metal_tty_init+0x47a>
20011764:	28fd                	jal	20011862 <puts>
E:\GitHub\HiFive01-RevB\FS_workspace\sifive_hifive1_revb_sifive_welcome\src/sifive-welcome.c:140
        return 6;
20011766:	4799                	li	a5,6
20011768:	a819                	j	2001177e <main+0x1a6>
E:\GitHub\HiFive01-RevB\FS_workspace\sifive_hifive1_revb_sifive_welcome\src/sifive-welcome.c:147 (discriminator 1)

    // Red -> Green -> Blue, repeat
    while (1) {

        // Turn on RED
        wait_for_timer(led0_red);
2001176a:	fec42503          	lw	a0,-20(s0)
2001176e:	33f5                	jal	2001155a <wait_for_timer>
E:\GitHub\HiFive01-RevB\FS_workspace\sifive_hifive1_revb_sifive_welcome\src/sifive-welcome.c:150 (discriminator 1)

        // Turn on Green
        wait_for_timer(led0_green);
20011770:	fe842503          	lw	a0,-24(s0)
20011774:	33dd                	jal	2001155a <wait_for_timer>
E:\GitHub\HiFive01-RevB\FS_workspace\sifive_hifive1_revb_sifive_welcome\src/sifive-welcome.c:153 (discriminator 1)

        // Turn on Blue
        wait_for_timer(led0_blue);
20011776:	fe442503          	lw	a0,-28(s0)
2001177a:	33c5                	jal	2001155a <wait_for_timer>
E:\GitHub\HiFive01-RevB\FS_workspace\sifive_hifive1_revb_sifive_welcome\src/sifive-welcome.c:147 (discriminator 1)
        wait_for_timer(led0_red);
2001177c:	b7fd                	j	2001176a <main+0x192>
E:\GitHub\HiFive01-RevB\FS_workspace\sifive_hifive1_revb_sifive_welcome\src/sifive-welcome.c:158
    }

    // return
    return 0;
}
2001177e:	853e                	mv	a0,a5
20011780:	40f2                	lw	ra,28(sp)
20011782:	4462                	lw	s0,24(sp)
20011784:	6105                	addi	sp,sp,32
20011786:	8082                	ret

20011788 <_puts_r>:
_puts_r():
20011788:	1101                	addi	sp,sp,-32
2001178a:	ca26                	sw	s1,20(sp)
2001178c:	c84a                	sw	s2,16(sp)
2001178e:	ce06                	sw	ra,28(sp)
20011790:	cc22                	sw	s0,24(sp)
20011792:	c64e                	sw	s3,12(sp)
20011794:	c452                	sw	s4,8(sp)
20011796:	84aa                	mv	s1,a0
20011798:	892e                	mv	s2,a1
2001179a:	c501                	beqz	a0,200117a2 <_puts_r+0x1a>
2001179c:	4d1c                	lw	a5,24(a0)
2001179e:	e391                	bnez	a5,200117a2 <_puts_r+0x1a>
200117a0:	29e5                	jal	20011c98 <__sinit>
200117a2:	4c9c                	lw	a5,24(s1)
200117a4:	4480                	lw	s0,8(s1)
200117a6:	e399                	bnez	a5,200117ac <_puts_r+0x24>
200117a8:	8526                	mv	a0,s1
200117aa:	21fd                	jal	20011c98 <__sinit>
200117ac:	fffff797          	auipc	a5,0xfffff
200117b0:	04c78793          	addi	a5,a5,76 # 200107f8 <__sf_fake_stdin>
200117b4:	02f41c63          	bne	s0,a5,200117ec <_puts_r+0x64>
200117b8:	40c0                	lw	s0,4(s1)
200117ba:	00c45783          	lhu	a5,12(s0)
200117be:	8ba1                	andi	a5,a5,8
200117c0:	c7b1                	beqz	a5,2001180c <_puts_r+0x84>
200117c2:	481c                	lw	a5,16(s0)
200117c4:	c7a1                	beqz	a5,2001180c <_puts_r+0x84>
200117c6:	59fd                	li	s3,-1
200117c8:	4a29                	li	s4,10
200117ca:	441c                	lw	a5,8(s0)
200117cc:	00094583          	lbu	a1,0(s2)
200117d0:	17fd                	addi	a5,a5,-1
200117d2:	e9b1                	bnez	a1,20011826 <_puts_r+0x9e>
200117d4:	c41c                	sw	a5,8(s0)
200117d6:	0607de63          	bgez	a5,20011852 <_puts_r+0xca>
200117da:	8622                	mv	a2,s0
200117dc:	45a9                	li	a1,10
200117de:	8526                	mv	a0,s1
200117e0:	2079                	jal	2001186e <__swbuf_r>
200117e2:	57fd                	li	a5,-1
200117e4:	02f50863          	beq	a0,a5,20011814 <_puts_r+0x8c>
200117e8:	4529                	li	a0,10
200117ea:	a035                	j	20011816 <_puts_r+0x8e>
200117ec:	fffff797          	auipc	a5,0xfffff
200117f0:	02c78793          	addi	a5,a5,44 # 20010818 <__sf_fake_stdout>
200117f4:	00f41463          	bne	s0,a5,200117fc <_puts_r+0x74>
200117f8:	4480                	lw	s0,8(s1)
200117fa:	b7c1                	j	200117ba <_puts_r+0x32>
200117fc:	fffff797          	auipc	a5,0xfffff
20011800:	fdc78793          	addi	a5,a5,-36 # 200107d8 <__sf_fake_stderr>
20011804:	faf41be3          	bne	s0,a5,200117ba <_puts_r+0x32>
20011808:	44c0                	lw	s0,12(s1)
2001180a:	bf45                	j	200117ba <_puts_r+0x32>
2001180c:	85a2                	mv	a1,s0
2001180e:	8526                	mv	a0,s1
20011810:	2a39                	jal	2001192e <__swsetup_r>
20011812:	d955                	beqz	a0,200117c6 <_puts_r+0x3e>
20011814:	557d                	li	a0,-1
20011816:	40f2                	lw	ra,28(sp)
20011818:	4462                	lw	s0,24(sp)
2001181a:	44d2                	lw	s1,20(sp)
2001181c:	4942                	lw	s2,16(sp)
2001181e:	49b2                	lw	s3,12(sp)
20011820:	4a22                	lw	s4,8(sp)
20011822:	6105                	addi	sp,sp,32
20011824:	8082                	ret
20011826:	c41c                	sw	a5,8(s0)
20011828:	0905                	addi	s2,s2,1
2001182a:	0007d763          	bgez	a5,20011838 <_puts_r+0xb0>
2001182e:	4c18                	lw	a4,24(s0)
20011830:	00e7cb63          	blt	a5,a4,20011846 <_puts_r+0xbe>
20011834:	01458963          	beq	a1,s4,20011846 <_puts_r+0xbe>
20011838:	401c                	lw	a5,0(s0)
2001183a:	00178713          	addi	a4,a5,1
2001183e:	c018                	sw	a4,0(s0)
20011840:	00b78023          	sb	a1,0(a5)
20011844:	b759                	j	200117ca <_puts_r+0x42>
20011846:	8622                	mv	a2,s0
20011848:	8526                	mv	a0,s1
2001184a:	2015                	jal	2001186e <__swbuf_r>
2001184c:	f7351fe3          	bne	a0,s3,200117ca <_puts_r+0x42>
20011850:	b7d1                	j	20011814 <_puts_r+0x8c>
20011852:	401c                	lw	a5,0(s0)
20011854:	00178713          	addi	a4,a5,1
20011858:	c018                	sw	a4,0(s0)
2001185a:	4729                	li	a4,10
2001185c:	00e78023          	sb	a4,0(a5)
20011860:	b761                	j	200117e8 <_puts_r+0x60>

20011862 <puts>:
puts():
20011862:	85aa                	mv	a1,a0
20011864:	5ffef517          	auipc	a0,0x5ffef
20011868:	24c52503          	lw	a0,588(a0) # 80000ab0 <_impure_ptr>
2001186c:	bf31                	j	20011788 <_puts_r>

2001186e <__swbuf_r>:
__swbuf_r():
2001186e:	1101                	addi	sp,sp,-32
20011870:	cc22                	sw	s0,24(sp)
20011872:	ca26                	sw	s1,20(sp)
20011874:	c84a                	sw	s2,16(sp)
20011876:	ce06                	sw	ra,28(sp)
20011878:	c64e                	sw	s3,12(sp)
2001187a:	84aa                	mv	s1,a0
2001187c:	892e                	mv	s2,a1
2001187e:	8432                	mv	s0,a2
20011880:	c501                	beqz	a0,20011888 <__swbuf_r+0x1a>
20011882:	4d1c                	lw	a5,24(a0)
20011884:	e391                	bnez	a5,20011888 <__swbuf_r+0x1a>
20011886:	2909                	jal	20011c98 <__sinit>
20011888:	fffff797          	auipc	a5,0xfffff
2001188c:	f7078793          	addi	a5,a5,-144 # 200107f8 <__sf_fake_stdin>
20011890:	06f41963          	bne	s0,a5,20011902 <__swbuf_r+0x94>
20011894:	40c0                	lw	s0,4(s1)
20011896:	4c1c                	lw	a5,24(s0)
20011898:	c41c                	sw	a5,8(s0)
2001189a:	00c45783          	lhu	a5,12(s0)
2001189e:	8ba1                	andi	a5,a5,8
200118a0:	c3c9                	beqz	a5,20011922 <__swbuf_r+0xb4>
200118a2:	481c                	lw	a5,16(s0)
200118a4:	cfbd                	beqz	a5,20011922 <__swbuf_r+0xb4>
200118a6:	481c                	lw	a5,16(s0)
200118a8:	4008                	lw	a0,0(s0)
200118aa:	0ff97993          	zext.b	s3,s2
200118ae:	0ff97913          	zext.b	s2,s2
200118b2:	8d1d                	sub	a0,a0,a5
200118b4:	485c                	lw	a5,20(s0)
200118b6:	00f54663          	blt	a0,a5,200118c2 <__swbuf_r+0x54>
200118ba:	85a2                	mv	a1,s0
200118bc:	8526                	mv	a0,s1
200118be:	24c1                	jal	20011b7e <_fflush_r>
200118c0:	e52d                	bnez	a0,2001192a <__swbuf_r+0xbc>
200118c2:	441c                	lw	a5,8(s0)
200118c4:	0505                	addi	a0,a0,1
200118c6:	17fd                	addi	a5,a5,-1
200118c8:	c41c                	sw	a5,8(s0)
200118ca:	401c                	lw	a5,0(s0)
200118cc:	00178713          	addi	a4,a5,1
200118d0:	c018                	sw	a4,0(s0)
200118d2:	01378023          	sb	s3,0(a5)
200118d6:	485c                	lw	a5,20(s0)
200118d8:	00a78963          	beq	a5,a0,200118ea <__swbuf_r+0x7c>
200118dc:	00c45783          	lhu	a5,12(s0)
200118e0:	8b85                	andi	a5,a5,1
200118e2:	cb81                	beqz	a5,200118f2 <__swbuf_r+0x84>
200118e4:	47a9                	li	a5,10
200118e6:	00f91663          	bne	s2,a5,200118f2 <__swbuf_r+0x84>
200118ea:	85a2                	mv	a1,s0
200118ec:	8526                	mv	a0,s1
200118ee:	2c41                	jal	20011b7e <_fflush_r>
200118f0:	ed0d                	bnez	a0,2001192a <__swbuf_r+0xbc>
200118f2:	40f2                	lw	ra,28(sp)
200118f4:	4462                	lw	s0,24(sp)
200118f6:	44d2                	lw	s1,20(sp)
200118f8:	49b2                	lw	s3,12(sp)
200118fa:	854a                	mv	a0,s2
200118fc:	4942                	lw	s2,16(sp)
200118fe:	6105                	addi	sp,sp,32
20011900:	8082                	ret
20011902:	fffff797          	auipc	a5,0xfffff
20011906:	f1678793          	addi	a5,a5,-234 # 20010818 <__sf_fake_stdout>
2001190a:	00f41463          	bne	s0,a5,20011912 <__swbuf_r+0xa4>
2001190e:	4480                	lw	s0,8(s1)
20011910:	b759                	j	20011896 <__swbuf_r+0x28>
20011912:	fffff797          	auipc	a5,0xfffff
20011916:	ec678793          	addi	a5,a5,-314 # 200107d8 <__sf_fake_stderr>
2001191a:	f6f41ee3          	bne	s0,a5,20011896 <__swbuf_r+0x28>
2001191e:	44c0                	lw	s0,12(s1)
20011920:	bf9d                	j	20011896 <__swbuf_r+0x28>
20011922:	85a2                	mv	a1,s0
20011924:	8526                	mv	a0,s1
20011926:	2021                	jal	2001192e <__swsetup_r>
20011928:	dd3d                	beqz	a0,200118a6 <__swbuf_r+0x38>
2001192a:	597d                	li	s2,-1
2001192c:	b7d9                	j	200118f2 <__swbuf_r+0x84>

2001192e <__swsetup_r>:
__swsetup_r():
2001192e:	1141                	addi	sp,sp,-16
20011930:	c422                	sw	s0,8(sp)
20011932:	c226                	sw	s1,4(sp)
20011934:	c04a                	sw	s2,0(sp)
20011936:	c606                	sw	ra,12(sp)
20011938:	5ffef497          	auipc	s1,0x5ffef
2001193c:	1784a483          	lw	s1,376(s1) # 80000ab0 <_impure_ptr>
20011940:	892a                	mv	s2,a0
20011942:	842e                	mv	s0,a1
20011944:	c489                	beqz	s1,2001194e <__swsetup_r+0x20>
20011946:	4c9c                	lw	a5,24(s1)
20011948:	e399                	bnez	a5,2001194e <__swsetup_r+0x20>
2001194a:	8526                	mv	a0,s1
2001194c:	26b1                	jal	20011c98 <__sinit>
2001194e:	fffff797          	auipc	a5,0xfffff
20011952:	eaa78793          	addi	a5,a5,-342 # 200107f8 <__sf_fake_stdin>
20011956:	02f41763          	bne	s0,a5,20011984 <__swsetup_r+0x56>
2001195a:	40c0                	lw	s0,4(s1)
2001195c:	00c41783          	lh	a5,12(s0)
20011960:	01079713          	slli	a4,a5,0x10
20011964:	0087f693          	andi	a3,a5,8
20011968:	8341                	srli	a4,a4,0x10
2001196a:	eaad                	bnez	a3,200119dc <__swsetup_r+0xae>
2001196c:	01077693          	andi	a3,a4,16
20011970:	ea95                	bnez	a3,200119a4 <__swsetup_r+0x76>
20011972:	4725                	li	a4,9
20011974:	00e92023          	sw	a4,0(s2)
20011978:	0407e793          	ori	a5,a5,64
2001197c:	00f41623          	sh	a5,12(s0)
20011980:	557d                	li	a0,-1
20011982:	a871                	j	20011a1e <__swsetup_r+0xf0>
20011984:	fffff797          	auipc	a5,0xfffff
20011988:	e9478793          	addi	a5,a5,-364 # 20010818 <__sf_fake_stdout>
2001198c:	00f41463          	bne	s0,a5,20011994 <__swsetup_r+0x66>
20011990:	4480                	lw	s0,8(s1)
20011992:	b7e9                	j	2001195c <__swsetup_r+0x2e>
20011994:	fffff797          	auipc	a5,0xfffff
20011998:	e4478793          	addi	a5,a5,-444 # 200107d8 <__sf_fake_stderr>
2001199c:	fcf410e3          	bne	s0,a5,2001195c <__swsetup_r+0x2e>
200119a0:	44c0                	lw	s0,12(s1)
200119a2:	bf6d                	j	2001195c <__swsetup_r+0x2e>
200119a4:	8b11                	andi	a4,a4,4
200119a6:	c70d                	beqz	a4,200119d0 <__swsetup_r+0xa2>
200119a8:	584c                	lw	a1,52(s0)
200119aa:	c989                	beqz	a1,200119bc <__swsetup_r+0x8e>
200119ac:	04440793          	addi	a5,s0,68
200119b0:	00f58463          	beq	a1,a5,200119b8 <__swsetup_r+0x8a>
200119b4:	854a                	mv	a0,s2
200119b6:	2bc5                	jal	20011fa6 <_free_r>
200119b8:	02042a23          	sw	zero,52(s0)
200119bc:	00c45783          	lhu	a5,12(s0)
200119c0:	00042223          	sw	zero,4(s0)
200119c4:	fdb7f793          	andi	a5,a5,-37
200119c8:	00f41623          	sh	a5,12(s0)
200119cc:	481c                	lw	a5,16(s0)
200119ce:	c01c                	sw	a5,0(s0)
200119d0:	00c45783          	lhu	a5,12(s0)
200119d4:	0087e793          	ori	a5,a5,8
200119d8:	00f41623          	sh	a5,12(s0)
200119dc:	481c                	lw	a5,16(s0)
200119de:	ef81                	bnez	a5,200119f6 <__swsetup_r+0xc8>
200119e0:	00c45783          	lhu	a5,12(s0)
200119e4:	20000713          	li	a4,512
200119e8:	2807f793          	andi	a5,a5,640
200119ec:	00e78563          	beq	a5,a4,200119f6 <__swsetup_r+0xc8>
200119f0:	85a2                	mv	a1,s0
200119f2:	854a                	mv	a0,s2
200119f4:	21bd                	jal	20011e62 <__smakebuf_r>
200119f6:	00c41783          	lh	a5,12(s0)
200119fa:	01079713          	slli	a4,a5,0x10
200119fe:	0017f693          	andi	a3,a5,1
20011a02:	8341                	srli	a4,a4,0x10
20011a04:	c29d                	beqz	a3,20011a2a <__swsetup_r+0xfc>
20011a06:	4854                	lw	a3,20(s0)
20011a08:	00042423          	sw	zero,8(s0)
20011a0c:	40d006b3          	neg	a3,a3
20011a10:	cc14                	sw	a3,24(s0)
20011a12:	4814                	lw	a3,16(s0)
20011a14:	4501                	li	a0,0
20011a16:	e681                	bnez	a3,20011a1e <__swsetup_r+0xf0>
20011a18:	08077713          	andi	a4,a4,128
20011a1c:	ff31                	bnez	a4,20011978 <__swsetup_r+0x4a>
20011a1e:	40b2                	lw	ra,12(sp)
20011a20:	4422                	lw	s0,8(sp)
20011a22:	4492                	lw	s1,4(sp)
20011a24:	4902                	lw	s2,0(sp)
20011a26:	0141                	addi	sp,sp,16
20011a28:	8082                	ret
20011a2a:	00277693          	andi	a3,a4,2
20011a2e:	4601                	li	a2,0
20011a30:	e291                	bnez	a3,20011a34 <__swsetup_r+0x106>
20011a32:	4850                	lw	a2,20(s0)
20011a34:	c410                	sw	a2,8(s0)
20011a36:	bff1                	j	20011a12 <__swsetup_r+0xe4>

20011a38 <__sflush_r>:
__sflush_r():
20011a38:	00c5d783          	lhu	a5,12(a1)
20011a3c:	1101                	addi	sp,sp,-32
20011a3e:	cc22                	sw	s0,24(sp)
20011a40:	ca26                	sw	s1,20(sp)
20011a42:	ce06                	sw	ra,28(sp)
20011a44:	c84a                	sw	s2,16(sp)
20011a46:	c64e                	sw	s3,12(sp)
20011a48:	0087f713          	andi	a4,a5,8
20011a4c:	84aa                	mv	s1,a0
20011a4e:	842e                	mv	s0,a1
20011a50:	e375                	bnez	a4,20011b34 <__sflush_r+0xfc>
20011a52:	41d8                	lw	a4,4(a1)
20011a54:	00e04763          	bgtz	a4,20011a62 <__sflush_r+0x2a>
20011a58:	41b8                	lw	a4,64(a1)
20011a5a:	00e04463          	bgtz	a4,20011a62 <__sflush_r+0x2a>
20011a5e:	4501                	li	a0,0
20011a60:	a875                	j	20011b1c <__sflush_r+0xe4>
20011a62:	5458                	lw	a4,44(s0)
20011a64:	df6d                	beqz	a4,20011a5e <__sflush_r+0x26>
20011a66:	6685                	lui	a3,0x1
20011a68:	0004a903          	lw	s2,0(s1)
20011a6c:	8ff5                	and	a5,a5,a3
20011a6e:	0004a023          	sw	zero,0(s1)
20011a72:	cfa5                	beqz	a5,20011aea <__sflush_r+0xb2>
20011a74:	4868                	lw	a0,84(s0)
20011a76:	00c45783          	lhu	a5,12(s0)
20011a7a:	8b91                	andi	a5,a5,4
20011a7c:	c799                	beqz	a5,20011a8a <__sflush_r+0x52>
20011a7e:	405c                	lw	a5,4(s0)
20011a80:	8d1d                	sub	a0,a0,a5
20011a82:	585c                	lw	a5,52(s0)
20011a84:	c399                	beqz	a5,20011a8a <__sflush_r+0x52>
20011a86:	403c                	lw	a5,64(s0)
20011a88:	8d1d                	sub	a0,a0,a5
20011a8a:	545c                	lw	a5,44(s0)
20011a8c:	500c                	lw	a1,32(s0)
20011a8e:	862a                	mv	a2,a0
20011a90:	4681                	li	a3,0
20011a92:	8526                	mv	a0,s1
20011a94:	9782                	jalr	a5
20011a96:	57fd                	li	a5,-1
20011a98:	00c45703          	lhu	a4,12(s0)
20011a9c:	00f51d63          	bne	a0,a5,20011ab6 <__sflush_r+0x7e>
20011aa0:	4094                	lw	a3,0(s1)
20011aa2:	47f5                	li	a5,29
20011aa4:	08d7e363          	bltu	a5,a3,20011b2a <__sflush_r+0xf2>
20011aa8:	204007b7          	lui	a5,0x20400
20011aac:	0785                	addi	a5,a5,1
20011aae:	00d7d7b3          	srl	a5,a5,a3
20011ab2:	8b85                	andi	a5,a5,1
20011ab4:	cbbd                	beqz	a5,20011b2a <__sflush_r+0xf2>
20011ab6:	481c                	lw	a5,16(s0)
20011ab8:	00042223          	sw	zero,4(s0)
20011abc:	c01c                	sw	a5,0(s0)
20011abe:	6785                	lui	a5,0x1
20011ac0:	8f7d                	and	a4,a4,a5
20011ac2:	c719                	beqz	a4,20011ad0 <__sflush_r+0x98>
20011ac4:	57fd                	li	a5,-1
20011ac6:	00f51463          	bne	a0,a5,20011ace <__sflush_r+0x96>
20011aca:	409c                	lw	a5,0(s1)
20011acc:	e391                	bnez	a5,20011ad0 <__sflush_r+0x98>
20011ace:	c868                	sw	a0,84(s0)
20011ad0:	584c                	lw	a1,52(s0)
20011ad2:	0124a023          	sw	s2,0(s1)
20011ad6:	d5c1                	beqz	a1,20011a5e <__sflush_r+0x26>
20011ad8:	04440793          	addi	a5,s0,68
20011adc:	00f58463          	beq	a1,a5,20011ae4 <__sflush_r+0xac>
20011ae0:	8526                	mv	a0,s1
20011ae2:	21d1                	jal	20011fa6 <_free_r>
20011ae4:	02042a23          	sw	zero,52(s0)
20011ae8:	bf9d                	j	20011a5e <__sflush_r+0x26>
20011aea:	500c                	lw	a1,32(s0)
20011aec:	4685                	li	a3,1
20011aee:	4601                	li	a2,0
20011af0:	8526                	mv	a0,s1
20011af2:	9702                	jalr	a4
20011af4:	57fd                	li	a5,-1
20011af6:	f8f510e3          	bne	a0,a5,20011a76 <__sflush_r+0x3e>
20011afa:	409c                	lw	a5,0(s1)
20011afc:	dfad                	beqz	a5,20011a76 <__sflush_r+0x3e>
20011afe:	4775                	li	a4,29
20011b00:	00e78563          	beq	a5,a4,20011b0a <__sflush_r+0xd2>
20011b04:	4759                	li	a4,22
20011b06:	00e79563          	bne	a5,a4,20011b10 <__sflush_r+0xd8>
20011b0a:	0124a023          	sw	s2,0(s1)
20011b0e:	bf81                	j	20011a5e <__sflush_r+0x26>
20011b10:	00c45783          	lhu	a5,12(s0)
20011b14:	0407e793          	ori	a5,a5,64
20011b18:	00f41623          	sh	a5,12(s0)
20011b1c:	40f2                	lw	ra,28(sp)
20011b1e:	4462                	lw	s0,24(sp)
20011b20:	44d2                	lw	s1,20(sp)
20011b22:	4942                	lw	s2,16(sp)
20011b24:	49b2                	lw	s3,12(sp)
20011b26:	6105                	addi	sp,sp,32
20011b28:	8082                	ret
20011b2a:	04076713          	ori	a4,a4,64
20011b2e:	00e41623          	sh	a4,12(s0)
20011b32:	b7ed                	j	20011b1c <__sflush_r+0xe4>
20011b34:	0105a983          	lw	s3,16(a1)
20011b38:	f20983e3          	beqz	s3,20011a5e <__sflush_r+0x26>
20011b3c:	0005a903          	lw	s2,0(a1)
20011b40:	8b8d                	andi	a5,a5,3
20011b42:	0135a023          	sw	s3,0(a1)
20011b46:	41390933          	sub	s2,s2,s3
20011b4a:	4701                	li	a4,0
20011b4c:	e391                	bnez	a5,20011b50 <__sflush_r+0x118>
20011b4e:	49d8                	lw	a4,20(a1)
20011b50:	c418                	sw	a4,8(s0)
20011b52:	f12056e3          	blez	s2,20011a5e <__sflush_r+0x26>
20011b56:	541c                	lw	a5,40(s0)
20011b58:	500c                	lw	a1,32(s0)
20011b5a:	86ca                	mv	a3,s2
20011b5c:	864e                	mv	a2,s3
20011b5e:	8526                	mv	a0,s1
20011b60:	9782                	jalr	a5
20011b62:	00a04a63          	bgtz	a0,20011b76 <__sflush_r+0x13e>
20011b66:	00c45783          	lhu	a5,12(s0)
20011b6a:	557d                	li	a0,-1
20011b6c:	0407e793          	ori	a5,a5,64
20011b70:	00f41623          	sh	a5,12(s0)
20011b74:	b765                	j	20011b1c <__sflush_r+0xe4>
20011b76:	99aa                	add	s3,s3,a0
20011b78:	40a90933          	sub	s2,s2,a0
20011b7c:	bfd9                	j	20011b52 <__sflush_r+0x11a>

20011b7e <_fflush_r>:
_fflush_r():
20011b7e:	499c                	lw	a5,16(a1)
20011b80:	cfb9                	beqz	a5,20011bde <_fflush_r+0x60>
20011b82:	1101                	addi	sp,sp,-32
20011b84:	cc22                	sw	s0,24(sp)
20011b86:	ce06                	sw	ra,28(sp)
20011b88:	842a                	mv	s0,a0
20011b8a:	c511                	beqz	a0,20011b96 <_fflush_r+0x18>
20011b8c:	4d1c                	lw	a5,24(a0)
20011b8e:	e781                	bnez	a5,20011b96 <_fflush_r+0x18>
20011b90:	c62e                	sw	a1,12(sp)
20011b92:	2219                	jal	20011c98 <__sinit>
20011b94:	45b2                	lw	a1,12(sp)
20011b96:	fffff797          	auipc	a5,0xfffff
20011b9a:	c6278793          	addi	a5,a5,-926 # 200107f8 <__sf_fake_stdin>
20011b9e:	00f59b63          	bne	a1,a5,20011bb4 <_fflush_r+0x36>
20011ba2:	404c                	lw	a1,4(s0)
20011ba4:	00c59783          	lh	a5,12(a1)
20011ba8:	c795                	beqz	a5,20011bd4 <_fflush_r+0x56>
20011baa:	8522                	mv	a0,s0
20011bac:	4462                	lw	s0,24(sp)
20011bae:	40f2                	lw	ra,28(sp)
20011bb0:	6105                	addi	sp,sp,32
20011bb2:	b559                	j	20011a38 <__sflush_r>
20011bb4:	fffff797          	auipc	a5,0xfffff
20011bb8:	c6478793          	addi	a5,a5,-924 # 20010818 <__sf_fake_stdout>
20011bbc:	00f59463          	bne	a1,a5,20011bc4 <_fflush_r+0x46>
20011bc0:	440c                	lw	a1,8(s0)
20011bc2:	b7cd                	j	20011ba4 <_fflush_r+0x26>
20011bc4:	fffff797          	auipc	a5,0xfffff
20011bc8:	c1478793          	addi	a5,a5,-1004 # 200107d8 <__sf_fake_stderr>
20011bcc:	fcf59ce3          	bne	a1,a5,20011ba4 <_fflush_r+0x26>
20011bd0:	444c                	lw	a1,12(s0)
20011bd2:	bfc9                	j	20011ba4 <_fflush_r+0x26>
20011bd4:	40f2                	lw	ra,28(sp)
20011bd6:	4462                	lw	s0,24(sp)
20011bd8:	4501                	li	a0,0
20011bda:	6105                	addi	sp,sp,32
20011bdc:	8082                	ret
20011bde:	4501                	li	a0,0
20011be0:	8082                	ret

20011be2 <std>:
std():
20011be2:	1141                	addi	sp,sp,-16
20011be4:	c422                	sw	s0,8(sp)
20011be6:	c606                	sw	ra,12(sp)
20011be8:	842a                	mv	s0,a0
20011bea:	00b51623          	sh	a1,12(a0)
20011bee:	00c51723          	sh	a2,14(a0)
20011bf2:	00052023          	sw	zero,0(a0)
20011bf6:	00052223          	sw	zero,4(a0)
20011bfa:	00052423          	sw	zero,8(a0)
20011bfe:	06052223          	sw	zero,100(a0)
20011c02:	00052823          	sw	zero,16(a0)
20011c06:	00052a23          	sw	zero,20(a0)
20011c0a:	00052c23          	sw	zero,24(a0)
20011c0e:	4621                	li	a2,8
20011c10:	4581                	li	a1,0
20011c12:	05c50513          	addi	a0,a0,92
20011c16:	24e5                	jal	20011efe <memset>
20011c18:	00000797          	auipc	a5,0x0
20011c1c:	53878793          	addi	a5,a5,1336 # 20012150 <__sread>
20011c20:	d05c                	sw	a5,36(s0)
20011c22:	00000797          	auipc	a5,0x0
20011c26:	55e78793          	addi	a5,a5,1374 # 20012180 <__swrite>
20011c2a:	d41c                	sw	a5,40(s0)
20011c2c:	00000797          	auipc	a5,0x0
20011c30:	5a278793          	addi	a5,a5,1442 # 200121ce <__sseek>
20011c34:	d45c                	sw	a5,44(s0)
20011c36:	00000797          	auipc	a5,0x0
20011c3a:	5ce78793          	addi	a5,a5,1486 # 20012204 <__sclose>
20011c3e:	40b2                	lw	ra,12(sp)
20011c40:	d000                	sw	s0,32(s0)
20011c42:	d81c                	sw	a5,48(s0)
20011c44:	4422                	lw	s0,8(sp)
20011c46:	0141                	addi	sp,sp,16
20011c48:	8082                	ret

20011c4a <_cleanup_r>:
_cleanup_r():
20011c4a:	00000597          	auipc	a1,0x0
20011c4e:	f3458593          	addi	a1,a1,-204 # 20011b7e <_fflush_r>
20011c52:	a2b1                	j	20011d9e <_fwalk_reent>

20011c54 <__sfmoreglue>:
__sfmoreglue():
20011c54:	1141                	addi	sp,sp,-16
20011c56:	c226                	sw	s1,4(sp)
20011c58:	06800613          	li	a2,104
20011c5c:	fff58493          	addi	s1,a1,-1
20011c60:	02c484b3          	mul	s1,s1,a2
20011c64:	c04a                	sw	s2,0(sp)
20011c66:	892e                	mv	s2,a1
20011c68:	c422                	sw	s0,8(sp)
20011c6a:	c606                	sw	ra,12(sp)
20011c6c:	07448593          	addi	a1,s1,116
20011c70:	2ee1                	jal	20012048 <_malloc_r>
20011c72:	842a                	mv	s0,a0
20011c74:	c919                	beqz	a0,20011c8a <__sfmoreglue+0x36>
20011c76:	00052023          	sw	zero,0(a0)
20011c7a:	01252223          	sw	s2,4(a0)
20011c7e:	0531                	addi	a0,a0,12
20011c80:	c408                	sw	a0,8(s0)
20011c82:	06848613          	addi	a2,s1,104
20011c86:	4581                	li	a1,0
20011c88:	2c9d                	jal	20011efe <memset>
20011c8a:	40b2                	lw	ra,12(sp)
20011c8c:	8522                	mv	a0,s0
20011c8e:	4422                	lw	s0,8(sp)
20011c90:	4492                	lw	s1,4(sp)
20011c92:	4902                	lw	s2,0(sp)
20011c94:	0141                	addi	sp,sp,16
20011c96:	8082                	ret

20011c98 <__sinit>:
__sinit():
20011c98:	4d1c                	lw	a5,24(a0)
20011c9a:	e3bd                	bnez	a5,20011d00 <__sinit+0x68>
20011c9c:	1141                	addi	sp,sp,-16
20011c9e:	c422                	sw	s0,8(sp)
20011ca0:	c606                	sw	ra,12(sp)
20011ca2:	00000797          	auipc	a5,0x0
20011ca6:	fa878793          	addi	a5,a5,-88 # 20011c4a <_cleanup_r>
20011caa:	d51c                	sw	a5,40(a0)
20011cac:	04052423          	sw	zero,72(a0)
20011cb0:	04052623          	sw	zero,76(a0)
20011cb4:	04052823          	sw	zero,80(a0)
20011cb8:	fffff797          	auipc	a5,0xfffff
20011cbc:	7007a783          	lw	a5,1792(a5) # 200113b8 <_global_impure_ptr>
20011cc0:	842a                	mv	s0,a0
20011cc2:	00f51463          	bne	a0,a5,20011cca <__sinit+0x32>
20011cc6:	4785                	li	a5,1
20011cc8:	cd1c                	sw	a5,24(a0)
20011cca:	8522                	mv	a0,s0
20011ccc:	281d                	jal	20011d02 <__sfp>
20011cce:	c048                	sw	a0,4(s0)
20011cd0:	8522                	mv	a0,s0
20011cd2:	2805                	jal	20011d02 <__sfp>
20011cd4:	c408                	sw	a0,8(s0)
20011cd6:	8522                	mv	a0,s0
20011cd8:	202d                	jal	20011d02 <__sfp>
20011cda:	c448                	sw	a0,12(s0)
20011cdc:	4048                	lw	a0,4(s0)
20011cde:	4601                	li	a2,0
20011ce0:	4591                	li	a1,4
20011ce2:	3701                	jal	20011be2 <std>
20011ce4:	4408                	lw	a0,8(s0)
20011ce6:	4605                	li	a2,1
20011ce8:	45a5                	li	a1,9
20011cea:	3de5                	jal	20011be2 <std>
20011cec:	4448                	lw	a0,12(s0)
20011cee:	4609                	li	a2,2
20011cf0:	45c9                	li	a1,18
20011cf2:	3dc5                	jal	20011be2 <std>
20011cf4:	4785                	li	a5,1
20011cf6:	40b2                	lw	ra,12(sp)
20011cf8:	cc1c                	sw	a5,24(s0)
20011cfa:	4422                	lw	s0,8(sp)
20011cfc:	0141                	addi	sp,sp,16
20011cfe:	8082                	ret
20011d00:	8082                	ret

20011d02 <__sfp>:
__sfp():
20011d02:	1141                	addi	sp,sp,-16
20011d04:	c226                	sw	s1,4(sp)
20011d06:	fffff497          	auipc	s1,0xfffff
20011d0a:	6b24a483          	lw	s1,1714(s1) # 200113b8 <_global_impure_ptr>
20011d0e:	4c9c                	lw	a5,24(s1)
20011d10:	c04a                	sw	s2,0(sp)
20011d12:	c606                	sw	ra,12(sp)
20011d14:	c422                	sw	s0,8(sp)
20011d16:	892a                	mv	s2,a0
20011d18:	e399                	bnez	a5,20011d1e <__sfp+0x1c>
20011d1a:	8526                	mv	a0,s1
20011d1c:	3fb5                	jal	20011c98 <__sinit>
20011d1e:	04848493          	addi	s1,s1,72
20011d22:	4480                	lw	s0,8(s1)
20011d24:	40dc                	lw	a5,4(s1)
20011d26:	17fd                	addi	a5,a5,-1
20011d28:	0007d663          	bgez	a5,20011d34 <__sfp+0x32>
20011d2c:	409c                	lw	a5,0(s1)
20011d2e:	cfb1                	beqz	a5,20011d8a <__sfp+0x88>
20011d30:	4084                	lw	s1,0(s1)
20011d32:	bfc5                	j	20011d22 <__sfp+0x20>
20011d34:	00c41703          	lh	a4,12(s0)
20011d38:	e731                	bnez	a4,20011d84 <__sfp+0x82>
20011d3a:	77c1                	lui	a5,0xffff0
20011d3c:	0785                	addi	a5,a5,1
20011d3e:	06042223          	sw	zero,100(s0)
20011d42:	00042023          	sw	zero,0(s0)
20011d46:	00042223          	sw	zero,4(s0)
20011d4a:	00042423          	sw	zero,8(s0)
20011d4e:	c45c                	sw	a5,12(s0)
20011d50:	00042823          	sw	zero,16(s0)
20011d54:	00042a23          	sw	zero,20(s0)
20011d58:	00042c23          	sw	zero,24(s0)
20011d5c:	4621                	li	a2,8
20011d5e:	4581                	li	a1,0
20011d60:	05c40513          	addi	a0,s0,92
20011d64:	2a69                	jal	20011efe <memset>
20011d66:	02042a23          	sw	zero,52(s0)
20011d6a:	02042c23          	sw	zero,56(s0)
20011d6e:	04042423          	sw	zero,72(s0)
20011d72:	04042623          	sw	zero,76(s0)
20011d76:	40b2                	lw	ra,12(sp)
20011d78:	8522                	mv	a0,s0
20011d7a:	4422                	lw	s0,8(sp)
20011d7c:	4492                	lw	s1,4(sp)
20011d7e:	4902                	lw	s2,0(sp)
20011d80:	0141                	addi	sp,sp,16
20011d82:	8082                	ret
20011d84:	06840413          	addi	s0,s0,104
20011d88:	bf79                	j	20011d26 <__sfp+0x24>
20011d8a:	4591                	li	a1,4
20011d8c:	854a                	mv	a0,s2
20011d8e:	35d9                	jal	20011c54 <__sfmoreglue>
20011d90:	c088                	sw	a0,0(s1)
20011d92:	842a                	mv	s0,a0
20011d94:	fd51                	bnez	a0,20011d30 <__sfp+0x2e>
20011d96:	47b1                	li	a5,12
20011d98:	00f92023          	sw	a5,0(s2)
20011d9c:	bfe9                	j	20011d76 <__sfp+0x74>

20011d9e <_fwalk_reent>:
_fwalk_reent():
20011d9e:	7179                	addi	sp,sp,-48
20011da0:	d422                	sw	s0,40(sp)
20011da2:	d04a                	sw	s2,32(sp)
20011da4:	ce4e                	sw	s3,28(sp)
20011da6:	cc52                	sw	s4,24(sp)
20011da8:	c85a                	sw	s6,16(sp)
20011daa:	c65e                	sw	s7,12(sp)
20011dac:	d606                	sw	ra,44(sp)
20011dae:	d226                	sw	s1,36(sp)
20011db0:	ca56                	sw	s5,20(sp)
20011db2:	892a                	mv	s2,a0
20011db4:	8a2e                	mv	s4,a1
20011db6:	04850413          	addi	s0,a0,72
20011dba:	4981                	li	s3,0
20011dbc:	4b05                	li	s6,1
20011dbe:	5bfd                	li	s7,-1
20011dc0:	4404                	lw	s1,8(s0)
20011dc2:	00442a83          	lw	s5,4(s0)
20011dc6:	1afd                	addi	s5,s5,-1
20011dc8:	020ad063          	bgez	s5,20011de8 <_fwalk_reent+0x4a>
20011dcc:	4000                	lw	s0,0(s0)
20011dce:	f86d                	bnez	s0,20011dc0 <_fwalk_reent+0x22>
20011dd0:	50b2                	lw	ra,44(sp)
20011dd2:	5422                	lw	s0,40(sp)
20011dd4:	5492                	lw	s1,36(sp)
20011dd6:	5902                	lw	s2,32(sp)
20011dd8:	4a62                	lw	s4,24(sp)
20011dda:	4ad2                	lw	s5,20(sp)
20011ddc:	4b42                	lw	s6,16(sp)
20011dde:	4bb2                	lw	s7,12(sp)
20011de0:	854e                	mv	a0,s3
20011de2:	49f2                	lw	s3,28(sp)
20011de4:	6145                	addi	sp,sp,48
20011de6:	8082                	ret
20011de8:	00c4d783          	lhu	a5,12(s1)
20011dec:	00fb7b63          	bgeu	s6,a5,20011e02 <_fwalk_reent+0x64>
20011df0:	00e49783          	lh	a5,14(s1)
20011df4:	01778763          	beq	a5,s7,20011e02 <_fwalk_reent+0x64>
20011df8:	85a6                	mv	a1,s1
20011dfa:	854a                	mv	a0,s2
20011dfc:	9a02                	jalr	s4
20011dfe:	00a9e9b3          	or	s3,s3,a0
20011e02:	06848493          	addi	s1,s1,104
20011e06:	b7c1                	j	20011dc6 <_fwalk_reent+0x28>

20011e08 <__swhatbuf_r>:
__swhatbuf_r():
20011e08:	7159                	addi	sp,sp,-112
20011e0a:	d0ca                	sw	s2,96(sp)
20011e0c:	892e                	mv	s2,a1
20011e0e:	00e59583          	lh	a1,14(a1)
20011e12:	d4a2                	sw	s0,104(sp)
20011e14:	d2a6                	sw	s1,100(sp)
20011e16:	d686                	sw	ra,108(sp)
20011e18:	8432                	mv	s0,a2
20011e1a:	84b6                	mv	s1,a3
20011e1c:	0005dc63          	bgez	a1,20011e34 <__swhatbuf_r+0x2c>
20011e20:	00c91783          	lh	a5,12(s2)
20011e24:	0004a023          	sw	zero,0(s1)
20011e28:	0807f793          	andi	a5,a5,128
20011e2c:	e38d                	bnez	a5,20011e4e <__swhatbuf_r+0x46>
20011e2e:	40000793          	li	a5,1024
20011e32:	a005                	j	20011e52 <__swhatbuf_r+0x4a>
20011e34:	0030                	addi	a2,sp,8
20011e36:	2925                	jal	2001226e <_fstat_r>
20011e38:	fe0544e3          	bltz	a0,20011e20 <__swhatbuf_r+0x18>
20011e3c:	4732                	lw	a4,12(sp)
20011e3e:	67bd                	lui	a5,0xf
20011e40:	8ff9                	and	a5,a5,a4
20011e42:	7779                	lui	a4,0xffffe
20011e44:	97ba                	add	a5,a5,a4
20011e46:	0017b793          	seqz	a5,a5
20011e4a:	c09c                	sw	a5,0(s1)
20011e4c:	b7cd                	j	20011e2e <__swhatbuf_r+0x26>
20011e4e:	04000793          	li	a5,64
20011e52:	50b6                	lw	ra,108(sp)
20011e54:	c01c                	sw	a5,0(s0)
20011e56:	5426                	lw	s0,104(sp)
20011e58:	5496                	lw	s1,100(sp)
20011e5a:	5906                	lw	s2,96(sp)
20011e5c:	4501                	li	a0,0
20011e5e:	6165                	addi	sp,sp,112
20011e60:	8082                	ret

20011e62 <__smakebuf_r>:
__smakebuf_r():
20011e62:	00c5d783          	lhu	a5,12(a1)
20011e66:	1101                	addi	sp,sp,-32
20011e68:	cc22                	sw	s0,24(sp)
20011e6a:	ce06                	sw	ra,28(sp)
20011e6c:	ca26                	sw	s1,20(sp)
20011e6e:	c84a                	sw	s2,16(sp)
20011e70:	8b89                	andi	a5,a5,2
20011e72:	842e                	mv	s0,a1
20011e74:	cf89                	beqz	a5,20011e8e <__smakebuf_r+0x2c>
20011e76:	04740793          	addi	a5,s0,71
20011e7a:	c01c                	sw	a5,0(s0)
20011e7c:	c81c                	sw	a5,16(s0)
20011e7e:	4785                	li	a5,1
20011e80:	c85c                	sw	a5,20(s0)
20011e82:	40f2                	lw	ra,28(sp)
20011e84:	4462                	lw	s0,24(sp)
20011e86:	44d2                	lw	s1,20(sp)
20011e88:	4942                	lw	s2,16(sp)
20011e8a:	6105                	addi	sp,sp,32
20011e8c:	8082                	ret
20011e8e:	0074                	addi	a3,sp,12
20011e90:	0030                	addi	a2,sp,8
20011e92:	892a                	mv	s2,a0
20011e94:	3f95                	jal	20011e08 <__swhatbuf_r>
20011e96:	45a2                	lw	a1,8(sp)
20011e98:	84aa                	mv	s1,a0
20011e9a:	854a                	mv	a0,s2
20011e9c:	2275                	jal	20012048 <_malloc_r>
20011e9e:	ed01                	bnez	a0,20011eb6 <__smakebuf_r+0x54>
20011ea0:	00c41783          	lh	a5,12(s0)
20011ea4:	2007f713          	andi	a4,a5,512
20011ea8:	ff69                	bnez	a4,20011e82 <__smakebuf_r+0x20>
20011eaa:	9bf1                	andi	a5,a5,-4
20011eac:	0027e793          	ori	a5,a5,2
20011eb0:	00f41623          	sh	a5,12(s0)
20011eb4:	b7c9                	j	20011e76 <__smakebuf_r+0x14>
20011eb6:	00000797          	auipc	a5,0x0
20011eba:	d9478793          	addi	a5,a5,-620 # 20011c4a <_cleanup_r>
20011ebe:	02f92423          	sw	a5,40(s2)
20011ec2:	00c45783          	lhu	a5,12(s0)
20011ec6:	c008                	sw	a0,0(s0)
20011ec8:	c808                	sw	a0,16(s0)
20011eca:	0807e793          	ori	a5,a5,128
20011ece:	00f41623          	sh	a5,12(s0)
20011ed2:	47a2                	lw	a5,8(sp)
20011ed4:	c85c                	sw	a5,20(s0)
20011ed6:	47b2                	lw	a5,12(sp)
20011ed8:	cf89                	beqz	a5,20011ef2 <__smakebuf_r+0x90>
20011eda:	00e41583          	lh	a1,14(s0)
20011ede:	854a                	mv	a0,s2
20011ee0:	26c1                	jal	200122a0 <_isatty_r>
20011ee2:	c901                	beqz	a0,20011ef2 <__smakebuf_r+0x90>
20011ee4:	00c45783          	lhu	a5,12(s0)
20011ee8:	9bf1                	andi	a5,a5,-4
20011eea:	0017e793          	ori	a5,a5,1
20011eee:	00f41623          	sh	a5,12(s0)
20011ef2:	00c45503          	lhu	a0,12(s0)
20011ef6:	8cc9                	or	s1,s1,a0
20011ef8:	00941623          	sh	s1,12(s0)
20011efc:	b759                	j	20011e82 <__smakebuf_r+0x20>

20011efe <memset>:
memset():
20011efe:	433d                	li	t1,15
20011f00:	872a                	mv	a4,a0
20011f02:	02c37363          	bgeu	t1,a2,20011f28 <memset+0x2a>
20011f06:	00f77793          	andi	a5,a4,15
20011f0a:	efbd                	bnez	a5,20011f88 <memset+0x8a>
20011f0c:	e5ad                	bnez	a1,20011f76 <memset+0x78>
20011f0e:	ff067693          	andi	a3,a2,-16
20011f12:	8a3d                	andi	a2,a2,15
20011f14:	96ba                	add	a3,a3,a4
20011f16:	c30c                	sw	a1,0(a4)
20011f18:	c34c                	sw	a1,4(a4)
20011f1a:	c70c                	sw	a1,8(a4)
20011f1c:	c74c                	sw	a1,12(a4)
20011f1e:	0741                	addi	a4,a4,16
20011f20:	fed76be3          	bltu	a4,a3,20011f16 <memset+0x18>
20011f24:	e211                	bnez	a2,20011f28 <memset+0x2a>
20011f26:	8082                	ret
20011f28:	40c306b3          	sub	a3,t1,a2
20011f2c:	068a                	slli	a3,a3,0x2
20011f2e:	00000297          	auipc	t0,0x0
20011f32:	9696                	add	a3,a3,t0
20011f34:	00a68067          	jr	10(a3) # 100a <__heap_size+0x80a>
20011f38:	00b70723          	sb	a1,14(a4) # ffffe00e <metal_segment_heap_target_end+0x7fffc86e>
20011f3c:	00b706a3          	sb	a1,13(a4)
20011f40:	00b70623          	sb	a1,12(a4)
20011f44:	00b705a3          	sb	a1,11(a4)
20011f48:	00b70523          	sb	a1,10(a4)
20011f4c:	00b704a3          	sb	a1,9(a4)
20011f50:	00b70423          	sb	a1,8(a4)
20011f54:	00b703a3          	sb	a1,7(a4)
20011f58:	00b70323          	sb	a1,6(a4)
20011f5c:	00b702a3          	sb	a1,5(a4)
20011f60:	00b70223          	sb	a1,4(a4)
20011f64:	00b701a3          	sb	a1,3(a4)
20011f68:	00b70123          	sb	a1,2(a4)
20011f6c:	00b700a3          	sb	a1,1(a4)
20011f70:	00b70023          	sb	a1,0(a4)
20011f74:	8082                	ret
20011f76:	0ff5f593          	zext.b	a1,a1
20011f7a:	00859693          	slli	a3,a1,0x8
20011f7e:	8dd5                	or	a1,a1,a3
20011f80:	01059693          	slli	a3,a1,0x10
20011f84:	8dd5                	or	a1,a1,a3
20011f86:	b761                	j	20011f0e <memset+0x10>
20011f88:	00279693          	slli	a3,a5,0x2
20011f8c:	00000297          	auipc	t0,0x0
20011f90:	9696                	add	a3,a3,t0
20011f92:	8286                	mv	t0,ra
20011f94:	fa8680e7          	jalr	-88(a3)
20011f98:	8096                	mv	ra,t0
20011f9a:	17c1                	addi	a5,a5,-16
20011f9c:	8f1d                	sub	a4,a4,a5
20011f9e:	963e                	add	a2,a2,a5
20011fa0:	f8c374e3          	bgeu	t1,a2,20011f28 <memset+0x2a>
20011fa4:	b7a5                	j	20011f0c <memset+0xe>

20011fa6 <_free_r>:
_free_r():
20011fa6:	c1c5                	beqz	a1,20012046 <_free_r+0xa0>
20011fa8:	ffc5a783          	lw	a5,-4(a1)
20011fac:	1101                	addi	sp,sp,-32
20011fae:	cc22                	sw	s0,24(sp)
20011fb0:	ce06                	sw	ra,28(sp)
20011fb2:	ffc58413          	addi	s0,a1,-4
20011fb6:	0007d363          	bgez	a5,20011fbc <_free_r+0x16>
20011fba:	943e                	add	s0,s0,a5
20011fbc:	c62a                	sw	a0,12(sp)
20011fbe:	2699                	jal	20012304 <__malloc_lock>
20011fc0:	5ffef717          	auipc	a4,0x5ffef
20011fc4:	b2070713          	addi	a4,a4,-1248 # 80000ae0 <__malloc_free_list>
20011fc8:	431c                	lw	a5,0(a4)
20011fca:	4532                	lw	a0,12(sp)
20011fcc:	eb81                	bnez	a5,20011fdc <_free_r+0x36>
20011fce:	00042223          	sw	zero,4(s0)
20011fd2:	c300                	sw	s0,0(a4)
20011fd4:	4462                	lw	s0,24(sp)
20011fd6:	40f2                	lw	ra,28(sp)
20011fd8:	6105                	addi	sp,sp,32
20011fda:	a635                	j	20012306 <__malloc_unlock>
20011fdc:	00f47d63          	bgeu	s0,a5,20011ff6 <_free_r+0x50>
20011fe0:	4010                	lw	a2,0(s0)
20011fe2:	00c406b3          	add	a3,s0,a2
20011fe6:	00d79663          	bne	a5,a3,20011ff2 <_free_r+0x4c>
20011fea:	4394                	lw	a3,0(a5)
20011fec:	43dc                	lw	a5,4(a5)
20011fee:	96b2                	add	a3,a3,a2
20011ff0:	c014                	sw	a3,0(s0)
20011ff2:	c05c                	sw	a5,4(s0)
20011ff4:	bff9                	j	20011fd2 <_free_r+0x2c>
20011ff6:	873e                	mv	a4,a5
20011ff8:	43dc                	lw	a5,4(a5)
20011ffa:	c399                	beqz	a5,20012000 <_free_r+0x5a>
20011ffc:	fef47de3          	bgeu	s0,a5,20011ff6 <_free_r+0x50>
20012000:	4314                	lw	a3,0(a4)
20012002:	00d70633          	add	a2,a4,a3
20012006:	00861f63          	bne	a2,s0,20012024 <_free_r+0x7e>
2001200a:	4010                	lw	a2,0(s0)
2001200c:	96b2                	add	a3,a3,a2
2001200e:	c314                	sw	a3,0(a4)
20012010:	00d70633          	add	a2,a4,a3
20012014:	fcc790e3          	bne	a5,a2,20011fd4 <_free_r+0x2e>
20012018:	4390                	lw	a2,0(a5)
2001201a:	43dc                	lw	a5,4(a5)
2001201c:	96b2                	add	a3,a3,a2
2001201e:	c314                	sw	a3,0(a4)
20012020:	c35c                	sw	a5,4(a4)
20012022:	bf4d                	j	20011fd4 <_free_r+0x2e>
20012024:	00c47563          	bgeu	s0,a2,2001202e <_free_r+0x88>
20012028:	47b1                	li	a5,12
2001202a:	c11c                	sw	a5,0(a0)
2001202c:	b765                	j	20011fd4 <_free_r+0x2e>
2001202e:	4010                	lw	a2,0(s0)
20012030:	00c406b3          	add	a3,s0,a2
20012034:	00d79663          	bne	a5,a3,20012040 <_free_r+0x9a>
20012038:	4394                	lw	a3,0(a5)
2001203a:	43dc                	lw	a5,4(a5)
2001203c:	96b2                	add	a3,a3,a2
2001203e:	c014                	sw	a3,0(s0)
20012040:	c05c                	sw	a5,4(s0)
20012042:	c340                	sw	s0,4(a4)
20012044:	bf41                	j	20011fd4 <_free_r+0x2e>
20012046:	8082                	ret

20012048 <_malloc_r>:
_malloc_r():
20012048:	1101                	addi	sp,sp,-32
2001204a:	ca26                	sw	s1,20(sp)
2001204c:	00358493          	addi	s1,a1,3
20012050:	98f1                	andi	s1,s1,-4
20012052:	c84a                	sw	s2,16(sp)
20012054:	ce06                	sw	ra,28(sp)
20012056:	cc22                	sw	s0,24(sp)
20012058:	c64e                	sw	s3,12(sp)
2001205a:	04a1                	addi	s1,s1,8
2001205c:	47b1                	li	a5,12
2001205e:	892a                	mv	s2,a0
20012060:	04f4f463          	bgeu	s1,a5,200120a8 <_malloc_r+0x60>
20012064:	44b1                	li	s1,12
20012066:	04b4e363          	bltu	s1,a1,200120ac <_malloc_r+0x64>
2001206a:	854a                	mv	a0,s2
2001206c:	2c61                	jal	20012304 <__malloc_lock>
2001206e:	5ffef697          	auipc	a3,0x5ffef
20012072:	a7268693          	addi	a3,a3,-1422 # 80000ae0 <__malloc_free_list>
20012076:	4298                	lw	a4,0(a3)
20012078:	843a                	mv	s0,a4
2001207a:	e421                	bnez	s0,200120c2 <_malloc_r+0x7a>
2001207c:	5ffef417          	auipc	s0,0x5ffef
20012080:	a6840413          	addi	s0,s0,-1432 # 80000ae4 <__malloc_sbrk_start>
20012084:	401c                	lw	a5,0(s0)
20012086:	e789                	bnez	a5,20012090 <_malloc_r+0x48>
20012088:	4581                	li	a1,0
2001208a:	854a                	mv	a0,s2
2001208c:	2851                	jal	20012120 <_sbrk_r>
2001208e:	c008                	sw	a0,0(s0)
20012090:	85a6                	mv	a1,s1
20012092:	854a                	mv	a0,s2
20012094:	2071                	jal	20012120 <_sbrk_r>
20012096:	59fd                	li	s3,-1
20012098:	07351863          	bne	a0,s3,20012108 <_malloc_r+0xc0>
2001209c:	47b1                	li	a5,12
2001209e:	00f92023          	sw	a5,0(s2)
200120a2:	854a                	mv	a0,s2
200120a4:	248d                	jal	20012306 <__malloc_unlock>
200120a6:	a031                	j	200120b2 <_malloc_r+0x6a>
200120a8:	fa04dfe3          	bgez	s1,20012066 <_malloc_r+0x1e>
200120ac:	47b1                	li	a5,12
200120ae:	00f92023          	sw	a5,0(s2)
200120b2:	4501                	li	a0,0
200120b4:	40f2                	lw	ra,28(sp)
200120b6:	4462                	lw	s0,24(sp)
200120b8:	44d2                	lw	s1,20(sp)
200120ba:	4942                	lw	s2,16(sp)
200120bc:	49b2                	lw	s3,12(sp)
200120be:	6105                	addi	sp,sp,32
200120c0:	8082                	ret
200120c2:	401c                	lw	a5,0(s0)
200120c4:	8f85                	sub	a5,a5,s1
200120c6:	0207ce63          	bltz	a5,20012102 <_malloc_r+0xba>
200120ca:	462d                	li	a2,11
200120cc:	00f67663          	bgeu	a2,a5,200120d8 <_malloc_r+0x90>
200120d0:	c01c                	sw	a5,0(s0)
200120d2:	943e                	add	s0,s0,a5
200120d4:	c004                	sw	s1,0(s0)
200120d6:	a029                	j	200120e0 <_malloc_r+0x98>
200120d8:	405c                	lw	a5,4(s0)
200120da:	02871263          	bne	a4,s0,200120fe <_malloc_r+0xb6>
200120de:	c29c                	sw	a5,0(a3)
200120e0:	854a                	mv	a0,s2
200120e2:	2415                	jal	20012306 <__malloc_unlock>
200120e4:	00b40513          	addi	a0,s0,11
200120e8:	00440793          	addi	a5,s0,4
200120ec:	9961                	andi	a0,a0,-8
200120ee:	40f50733          	sub	a4,a0,a5
200120f2:	fcf501e3          	beq	a0,a5,200120b4 <_malloc_r+0x6c>
200120f6:	943a                	add	s0,s0,a4
200120f8:	8f89                	sub	a5,a5,a0
200120fa:	c01c                	sw	a5,0(s0)
200120fc:	bf65                	j	200120b4 <_malloc_r+0x6c>
200120fe:	c35c                	sw	a5,4(a4)
20012100:	b7c5                	j	200120e0 <_malloc_r+0x98>
20012102:	8722                	mv	a4,s0
20012104:	4040                	lw	s0,4(s0)
20012106:	bf95                	j	2001207a <_malloc_r+0x32>
20012108:	00350413          	addi	s0,a0,3
2001210c:	9871                	andi	s0,s0,-4
2001210e:	fc8503e3          	beq	a0,s0,200120d4 <_malloc_r+0x8c>
20012112:	40a405b3          	sub	a1,s0,a0
20012116:	854a                	mv	a0,s2
20012118:	2021                	jal	20012120 <_sbrk_r>
2001211a:	fb351de3          	bne	a0,s3,200120d4 <_malloc_r+0x8c>
2001211e:	bfbd                	j	2001209c <_malloc_r+0x54>

20012120 <_sbrk_r>:
_sbrk_r():
20012120:	1141                	addi	sp,sp,-16
20012122:	c422                	sw	s0,8(sp)
20012124:	842a                	mv	s0,a0
20012126:	852e                	mv	a0,a1
20012128:	5ffef797          	auipc	a5,0x5ffef
2001212c:	9c07a023          	sw	zero,-1600(a5) # 80000ae8 <errno>
20012130:	c606                	sw	ra,12(sp)
20012132:	1be050ef          	jal	ra,200172f0 <_sbrk>
20012136:	57fd                	li	a5,-1
20012138:	00f51863          	bne	a0,a5,20012148 <_sbrk_r+0x28>
2001213c:	5ffef797          	auipc	a5,0x5ffef
20012140:	9ac7a783          	lw	a5,-1620(a5) # 80000ae8 <errno>
20012144:	c391                	beqz	a5,20012148 <_sbrk_r+0x28>
20012146:	c01c                	sw	a5,0(s0)
20012148:	40b2                	lw	ra,12(sp)
2001214a:	4422                	lw	s0,8(sp)
2001214c:	0141                	addi	sp,sp,16
2001214e:	8082                	ret

20012150 <__sread>:
__sread():
20012150:	1141                	addi	sp,sp,-16
20012152:	c422                	sw	s0,8(sp)
20012154:	842e                	mv	s0,a1
20012156:	00e59583          	lh	a1,14(a1)
2001215a:	c606                	sw	ra,12(sp)
2001215c:	2275                	jal	20012308 <_read_r>
2001215e:	00054963          	bltz	a0,20012170 <__sread+0x20>
20012162:	487c                	lw	a5,84(s0)
20012164:	97aa                	add	a5,a5,a0
20012166:	c87c                	sw	a5,84(s0)
20012168:	40b2                	lw	ra,12(sp)
2001216a:	4422                	lw	s0,8(sp)
2001216c:	0141                	addi	sp,sp,16
2001216e:	8082                	ret
20012170:	00c45783          	lhu	a5,12(s0)
20012174:	777d                	lui	a4,0xfffff
20012176:	177d                	addi	a4,a4,-1
20012178:	8ff9                	and	a5,a5,a4
2001217a:	00f41623          	sh	a5,12(s0)
2001217e:	b7ed                	j	20012168 <__sread+0x18>

20012180 <__swrite>:
__swrite():
20012180:	00c5d783          	lhu	a5,12(a1)
20012184:	1101                	addi	sp,sp,-32
20012186:	cc22                	sw	s0,24(sp)
20012188:	ca26                	sw	s1,20(sp)
2001218a:	c84a                	sw	s2,16(sp)
2001218c:	c64e                	sw	s3,12(sp)
2001218e:	ce06                	sw	ra,28(sp)
20012190:	1007f793          	andi	a5,a5,256
20012194:	84aa                	mv	s1,a0
20012196:	842e                	mv	s0,a1
20012198:	8932                	mv	s2,a2
2001219a:	89b6                	mv	s3,a3
2001219c:	c791                	beqz	a5,200121a8 <__swrite+0x28>
2001219e:	00e59583          	lh	a1,14(a1)
200121a2:	4689                	li	a3,2
200121a4:	4601                	li	a2,0
200121a6:	222d                	jal	200122d0 <_lseek_r>
200121a8:	00c45783          	lhu	a5,12(s0)
200121ac:	777d                	lui	a4,0xfffff
200121ae:	177d                	addi	a4,a4,-1
200121b0:	8ff9                	and	a5,a5,a4
200121b2:	00e41583          	lh	a1,14(s0)
200121b6:	00f41623          	sh	a5,12(s0)
200121ba:	4462                	lw	s0,24(sp)
200121bc:	40f2                	lw	ra,28(sp)
200121be:	86ce                	mv	a3,s3
200121c0:	864a                	mv	a2,s2
200121c2:	49b2                	lw	s3,12(sp)
200121c4:	4942                	lw	s2,16(sp)
200121c6:	8526                	mv	a0,s1
200121c8:	44d2                	lw	s1,20(sp)
200121ca:	6105                	addi	sp,sp,32
200121cc:	a83d                	j	2001220a <_write_r>

200121ce <__sseek>:
__sseek():
200121ce:	1141                	addi	sp,sp,-16
200121d0:	c422                	sw	s0,8(sp)
200121d2:	842e                	mv	s0,a1
200121d4:	00e59583          	lh	a1,14(a1)
200121d8:	c606                	sw	ra,12(sp)
200121da:	28dd                	jal	200122d0 <_lseek_r>
200121dc:	57fd                	li	a5,-1
200121de:	00c45703          	lhu	a4,12(s0)
200121e2:	00f51b63          	bne	a0,a5,200121f8 <__sseek+0x2a>
200121e6:	77fd                	lui	a5,0xfffff
200121e8:	17fd                	addi	a5,a5,-1
200121ea:	8ff9                	and	a5,a5,a4
200121ec:	00f41623          	sh	a5,12(s0)
200121f0:	40b2                	lw	ra,12(sp)
200121f2:	4422                	lw	s0,8(sp)
200121f4:	0141                	addi	sp,sp,16
200121f6:	8082                	ret
200121f8:	6785                	lui	a5,0x1
200121fa:	8fd9                	or	a5,a5,a4
200121fc:	00f41623          	sh	a5,12(s0)
20012200:	c868                	sw	a0,84(s0)
20012202:	b7fd                	j	200121f0 <__sseek+0x22>

20012204 <__sclose>:
__sclose():
20012204:	00e59583          	lh	a1,14(a1)
20012208:	a81d                	j	2001223e <_close_r>

2001220a <_write_r>:
_write_r():
2001220a:	1141                	addi	sp,sp,-16
2001220c:	c422                	sw	s0,8(sp)
2001220e:	842a                	mv	s0,a0
20012210:	852e                	mv	a0,a1
20012212:	85b2                	mv	a1,a2
20012214:	8636                	mv	a2,a3
20012216:	5ffef797          	auipc	a5,0x5ffef
2001221a:	8c07a923          	sw	zero,-1838(a5) # 80000ae8 <errno>
2001221e:	c606                	sw	ra,12(sp)
20012220:	13a050ef          	jal	ra,2001735a <_write>
20012224:	57fd                	li	a5,-1
20012226:	00f51863          	bne	a0,a5,20012236 <_write_r+0x2c>
2001222a:	5ffef797          	auipc	a5,0x5ffef
2001222e:	8be7a783          	lw	a5,-1858(a5) # 80000ae8 <errno>
20012232:	c391                	beqz	a5,20012236 <_write_r+0x2c>
20012234:	c01c                	sw	a5,0(s0)
20012236:	40b2                	lw	ra,12(sp)
20012238:	4422                	lw	s0,8(sp)
2001223a:	0141                	addi	sp,sp,16
2001223c:	8082                	ret

2001223e <_close_r>:
_close_r():
2001223e:	1141                	addi	sp,sp,-16
20012240:	c422                	sw	s0,8(sp)
20012242:	842a                	mv	s0,a0
20012244:	852e                	mv	a0,a1
20012246:	5ffef797          	auipc	a5,0x5ffef
2001224a:	8a07a123          	sw	zero,-1886(a5) # 80000ae8 <errno>
2001224e:	c606                	sw	ra,12(sp)
20012250:	7e5040ef          	jal	ra,20017234 <_close>
20012254:	57fd                	li	a5,-1
20012256:	00f51863          	bne	a0,a5,20012266 <_close_r+0x28>
2001225a:	5ffef797          	auipc	a5,0x5ffef
2001225e:	88e7a783          	lw	a5,-1906(a5) # 80000ae8 <errno>
20012262:	c391                	beqz	a5,20012266 <_close_r+0x28>
20012264:	c01c                	sw	a5,0(s0)
20012266:	40b2                	lw	ra,12(sp)
20012268:	4422                	lw	s0,8(sp)
2001226a:	0141                	addi	sp,sp,16
2001226c:	8082                	ret

2001226e <_fstat_r>:
_fstat_r():
2001226e:	1141                	addi	sp,sp,-16
20012270:	c422                	sw	s0,8(sp)
20012272:	842a                	mv	s0,a0
20012274:	852e                	mv	a0,a1
20012276:	85b2                	mv	a1,a2
20012278:	5ffef797          	auipc	a5,0x5ffef
2001227c:	8607a823          	sw	zero,-1936(a5) # 80000ae8 <errno>
20012280:	c606                	sw	ra,12(sp)
20012282:	7d5040ef          	jal	ra,20017256 <_fstat>
20012286:	57fd                	li	a5,-1
20012288:	00f51863          	bne	a0,a5,20012298 <_fstat_r+0x2a>
2001228c:	5ffef797          	auipc	a5,0x5ffef
20012290:	85c7a783          	lw	a5,-1956(a5) # 80000ae8 <errno>
20012294:	c391                	beqz	a5,20012298 <_fstat_r+0x2a>
20012296:	c01c                	sw	a5,0(s0)
20012298:	40b2                	lw	ra,12(sp)
2001229a:	4422                	lw	s0,8(sp)
2001229c:	0141                	addi	sp,sp,16
2001229e:	8082                	ret

200122a0 <_isatty_r>:
_isatty_r():
200122a0:	1141                	addi	sp,sp,-16
200122a2:	c422                	sw	s0,8(sp)
200122a4:	842a                	mv	s0,a0
200122a6:	852e                	mv	a0,a1
200122a8:	5ffef797          	auipc	a5,0x5ffef
200122ac:	8407a023          	sw	zero,-1984(a5) # 80000ae8 <errno>
200122b0:	c606                	sw	ra,12(sp)
200122b2:	7cb040ef          	jal	ra,2001727c <_isatty>
200122b6:	57fd                	li	a5,-1
200122b8:	00f51863          	bne	a0,a5,200122c8 <_isatty_r+0x28>
200122bc:	5ffef797          	auipc	a5,0x5ffef
200122c0:	82c7a783          	lw	a5,-2004(a5) # 80000ae8 <errno>
200122c4:	c391                	beqz	a5,200122c8 <_isatty_r+0x28>
200122c6:	c01c                	sw	a5,0(s0)
200122c8:	40b2                	lw	ra,12(sp)
200122ca:	4422                	lw	s0,8(sp)
200122cc:	0141                	addi	sp,sp,16
200122ce:	8082                	ret

200122d0 <_lseek_r>:
_lseek_r():
200122d0:	1141                	addi	sp,sp,-16
200122d2:	c422                	sw	s0,8(sp)
200122d4:	842a                	mv	s0,a0
200122d6:	852e                	mv	a0,a1
200122d8:	85b2                	mv	a1,a2
200122da:	8636                	mv	a2,a3
200122dc:	5ffef797          	auipc	a5,0x5ffef
200122e0:	8007a623          	sw	zero,-2036(a5) # 80000ae8 <errno>
200122e4:	c606                	sw	ra,12(sp)
200122e6:	7b7040ef          	jal	ra,2001729c <_lseek>
200122ea:	57fd                	li	a5,-1
200122ec:	00f51863          	bne	a0,a5,200122fc <_lseek_r+0x2c>
200122f0:	5ffee797          	auipc	a5,0x5ffee
200122f4:	7f87a783          	lw	a5,2040(a5) # 80000ae8 <errno>
200122f8:	c391                	beqz	a5,200122fc <_lseek_r+0x2c>
200122fa:	c01c                	sw	a5,0(s0)
200122fc:	40b2                	lw	ra,12(sp)
200122fe:	4422                	lw	s0,8(sp)
20012300:	0141                	addi	sp,sp,16
20012302:	8082                	ret

20012304 <__malloc_lock>:
__malloc_lock():
20012304:	8082                	ret

20012306 <__malloc_unlock>:
__malloc_unlock():
20012306:	8082                	ret

20012308 <_read_r>:
_read_r():
20012308:	1141                	addi	sp,sp,-16
2001230a:	c422                	sw	s0,8(sp)
2001230c:	842a                	mv	s0,a0
2001230e:	852e                	mv	a0,a1
20012310:	85b2                	mv	a1,a2
20012312:	8636                	mv	a2,a3
20012314:	5ffee797          	auipc	a5,0x5ffee
20012318:	7c07aa23          	sw	zero,2004(a5) # 80000ae8 <errno>
2001231c:	c606                	sw	ra,12(sp)
2001231e:	7a9040ef          	jal	ra,200172c6 <_read>
20012322:	57fd                	li	a5,-1
20012324:	00f51863          	bne	a0,a5,20012334 <_read_r+0x2c>
20012328:	5ffee797          	auipc	a5,0x5ffee
2001232c:	7c07a783          	lw	a5,1984(a5) # 80000ae8 <errno>
20012330:	c391                	beqz	a5,20012334 <_read_r+0x2c>
20012332:	c01c                	sw	a5,0(s0)
20012334:	40b2                	lw	ra,12(sp)
20012336:	4422                	lw	s0,8(sp)
20012338:	0141                	addi	sp,sp,16
2001233a:	8082                	ret

2001233c <metal_cpu_get_mtime>:
metal_cpu_get_mtime():
E:/GitHub/HiFive01-RevB/FS_workspace/sifive_hifive1_revb_sifive_welcome/freedom-metal/metal/cpu.h:97
 * will be 0.
 *
 * @param cpu The CPU device handle
 * @return The value of mtime, or 0 if failure
 */
__inline__ unsigned long long metal_cpu_get_mtime(struct metal_cpu *cpu) {
2001233c:	1101                	addi	sp,sp,-32
2001233e:	ce06                	sw	ra,28(sp)
20012340:	cc22                	sw	s0,24(sp)
20012342:	1000                	addi	s0,sp,32
20012344:	fea42623          	sw	a0,-20(s0)
E:/GitHub/HiFive01-RevB/FS_workspace/sifive_hifive1_revb_sifive_welcome/freedom-metal/metal/cpu.h:98
    return cpu->vtable->mtime_get(cpu);
20012348:	fec42783          	lw	a5,-20(s0)
2001234c:	439c                	lw	a5,0(a5)
2001234e:	479c                	lw	a5,8(a5)
20012350:	fec42503          	lw	a0,-20(s0)
20012354:	9782                	jalr	a5
20012356:	872a                	mv	a4,a0
20012358:	87ae                	mv	a5,a1
E:/GitHub/HiFive01-RevB/FS_workspace/sifive_hifive1_revb_sifive_welcome/freedom-metal/metal/cpu.h:99
}
2001235a:	853a                	mv	a0,a4
2001235c:	85be                	mv	a1,a5
2001235e:	40f2                	lw	ra,28(sp)
20012360:	4462                	lw	s0,24(sp)
20012362:	6105                	addi	sp,sp,32
20012364:	8082                	ret

20012366 <metal_cpu_set_mtimecmp>:
metal_cpu_set_mtimecmp():
E:/GitHub/HiFive01-RevB/FS_workspace/sifive_hifive1_revb_sifive_welcome/freedom-metal/metal/cpu.h:112
 * @param cpu The CPU device handle
 * @param time The value to set the compare register to
 * @return The value of mtimecmp or -1 if error
 */
__inline__ int metal_cpu_set_mtimecmp(struct metal_cpu *cpu,
                                      unsigned long long time) {
20012366:	1101                	addi	sp,sp,-32
20012368:	ce06                	sw	ra,28(sp)
2001236a:	cc22                	sw	s0,24(sp)
2001236c:	1000                	addi	s0,sp,32
2001236e:	fea42623          	sw	a0,-20(s0)
20012372:	feb42023          	sw	a1,-32(s0)
20012376:	fec42223          	sw	a2,-28(s0)
E:/GitHub/HiFive01-RevB/FS_workspace/sifive_hifive1_revb_sifive_welcome/freedom-metal/metal/cpu.h:113
    return cpu->vtable->mtimecmp_set(cpu, time);
2001237a:	fec42783          	lw	a5,-20(s0)
2001237e:	439c                	lw	a5,0(a5)
20012380:	47dc                	lw	a5,12(a5)
20012382:	fe042583          	lw	a1,-32(s0)
20012386:	fe442603          	lw	a2,-28(s0)
2001238a:	fec42503          	lw	a0,-20(s0)
2001238e:	9782                	jalr	a5
20012390:	87aa                	mv	a5,a0
E:/GitHub/HiFive01-RevB/FS_workspace/sifive_hifive1_revb_sifive_welcome/freedom-metal/metal/cpu.h:114
}
20012392:	853e                	mv	a0,a5
20012394:	40f2                	lw	ra,28(sp)
20012396:	4462                	lw	s0,24(sp)
20012398:	6105                	addi	sp,sp,32
2001239a:	8082                	ret

2001239c <metal_cpu_timer_interrupt_controller>:
metal_cpu_timer_interrupt_controller():
E:/GitHub/HiFive01-RevB/FS_workspace/sifive_hifive1_revb_sifive_welcome/freedom-metal/metal/cpu.h:126
 *
 * @param cpu The CPU device handle
 * @return A pointer to the timer interrupt handle
 */
__inline__ struct metal_interrupt *
metal_cpu_timer_interrupt_controller(struct metal_cpu *cpu) {
2001239c:	1101                	addi	sp,sp,-32
2001239e:	ce06                	sw	ra,28(sp)
200123a0:	cc22                	sw	s0,24(sp)
200123a2:	1000                	addi	s0,sp,32
200123a4:	fea42623          	sw	a0,-20(s0)
E:/GitHub/HiFive01-RevB/FS_workspace/sifive_hifive1_revb_sifive_welcome/freedom-metal/metal/cpu.h:127
    return cpu->vtable->tmr_controller_interrupt(cpu);
200123a8:	fec42783          	lw	a5,-20(s0)
200123ac:	439c                	lw	a5,0(a5)
200123ae:	4b9c                	lw	a5,16(a5)
200123b0:	fec42503          	lw	a0,-20(s0)
200123b4:	9782                	jalr	a5
200123b6:	87aa                	mv	a5,a0
E:/GitHub/HiFive01-RevB/FS_workspace/sifive_hifive1_revb_sifive_welcome/freedom-metal/metal/cpu.h:128
}
200123b8:	853e                	mv	a0,a5
200123ba:	40f2                	lw	ra,28(sp)
200123bc:	4462                	lw	s0,24(sp)
200123be:	6105                	addi	sp,sp,32
200123c0:	8082                	ret

200123c2 <metal_cpu_timer_get_interrupt_id>:
metal_cpu_timer_get_interrupt_id():
E:/GitHub/HiFive01-RevB/FS_workspace/sifive_hifive1_revb_sifive_welcome/freedom-metal/metal/cpu.h:137
 * Get the interrupt ID of the real-time clock interrupt
 *
 * @param cpu The CPU device handle
 * @return The timer interrupt ID
 */
__inline__ int metal_cpu_timer_get_interrupt_id(struct metal_cpu *cpu) {
200123c2:	1101                	addi	sp,sp,-32
200123c4:	ce06                	sw	ra,28(sp)
200123c6:	cc22                	sw	s0,24(sp)
200123c8:	1000                	addi	s0,sp,32
200123ca:	fea42623          	sw	a0,-20(s0)
E:/GitHub/HiFive01-RevB/FS_workspace/sifive_hifive1_revb_sifive_welcome/freedom-metal/metal/cpu.h:138
    return cpu->vtable->get_tmr_interrupt_id(cpu);
200123ce:	fec42783          	lw	a5,-20(s0)
200123d2:	439c                	lw	a5,0(a5)
200123d4:	4bdc                	lw	a5,20(a5)
200123d6:	fec42503          	lw	a0,-20(s0)
200123da:	9782                	jalr	a5
200123dc:	87aa                	mv	a5,a0
E:/GitHub/HiFive01-RevB/FS_workspace/sifive_hifive1_revb_sifive_welcome/freedom-metal/metal/cpu.h:139
}
200123de:	853e                	mv	a0,a5
200123e0:	40f2                	lw	ra,28(sp)
200123e2:	4462                	lw	s0,24(sp)
200123e4:	6105                	addi	sp,sp,32
200123e6:	8082                	ret

200123e8 <metal_cpu_interrupt_controller>:
metal_cpu_interrupt_controller():
E:/GitHub/HiFive01-RevB/FS_workspace/sifive_hifive1_revb_sifive_welcome/freedom-metal/metal/cpu.h:224
 *
 * @param cpu The CPU device handle
 * @return The handle for the CPU interrupt controller
 */
__inline__ struct metal_interrupt *
metal_cpu_interrupt_controller(struct metal_cpu *cpu) {
200123e8:	1101                	addi	sp,sp,-32
200123ea:	ce06                	sw	ra,28(sp)
200123ec:	cc22                	sw	s0,24(sp)
200123ee:	1000                	addi	s0,sp,32
200123f0:	fea42623          	sw	a0,-20(s0)
E:/GitHub/HiFive01-RevB/FS_workspace/sifive_hifive1_revb_sifive_welcome/freedom-metal/metal/cpu.h:225
    return cpu->vtable->controller_interrupt(cpu);
200123f4:	fec42783          	lw	a5,-20(s0)
200123f8:	439c                	lw	a5,0(a5)
200123fa:	57dc                	lw	a5,44(a5)
200123fc:	fec42503          	lw	a0,-20(s0)
20012400:	9782                	jalr	a5
20012402:	87aa                	mv	a5,a0
E:/GitHub/HiFive01-RevB/FS_workspace/sifive_hifive1_revb_sifive_welcome/freedom-metal/metal/cpu.h:226
}
20012404:	853e                	mv	a0,a5
20012406:	40f2                	lw	ra,28(sp)
20012408:	4462                	lw	s0,24(sp)
2001240a:	6105                	addi	sp,sp,32
2001240c:	8082                	ret

2001240e <metal_cpu_get>:
metal_cpu_get():
E:/GitHub/HiFive01-RevB/FS_workspace/sifive_hifive1_revb_sifive_welcome/freedom-metal/src/cpu.c:7
/* SPDX-License-Identifier: Apache-2.0 */

#include <metal/cpu.h>
#include <metal/machine.h>

struct metal_cpu *metal_cpu_get(unsigned int hartid) {
2001240e:	1101                	addi	sp,sp,-32
20012410:	ce22                	sw	s0,28(sp)
20012412:	1000                	addi	s0,sp,32
20012414:	fea42623          	sw	a0,-20(s0)
E:/GitHub/HiFive01-RevB/FS_workspace/sifive_hifive1_revb_sifive_welcome/freedom-metal/src/cpu.c:8
    if (hartid < __METAL_DT_MAX_HARTS) {
20012418:	fec42783          	lw	a5,-20(s0)
2001241c:	eb99                	bnez	a5,20012432 <metal_cpu_get+0x24>
E:/GitHub/HiFive01-RevB/FS_workspace/sifive_hifive1_revb_sifive_welcome/freedom-metal/src/cpu.c:9
        return (struct metal_cpu *)__metal_cpu_table[hartid];
2001241e:	800017b7          	lui	a5,0x80001
20012422:	fec42703          	lw	a4,-20(s0)
20012426:	070a                	slli	a4,a4,0x2
20012428:	ab478793          	addi	a5,a5,-1356 # 80000ab4 <metal_segment_heap_target_end+0xfffff314>
2001242c:	97ba                	add	a5,a5,a4
2001242e:	439c                	lw	a5,0(a5)
20012430:	a011                	j	20012434 <metal_cpu_get+0x26>
E:/GitHub/HiFive01-RevB/FS_workspace/sifive_hifive1_revb_sifive_welcome/freedom-metal/src/cpu.c:11
    }
    return NULL;
20012432:	4781                	li	a5,0
E:/GitHub/HiFive01-RevB/FS_workspace/sifive_hifive1_revb_sifive_welcome/freedom-metal/src/cpu.c:12
}
20012434:	853e                	mv	a0,a5
20012436:	4472                	lw	s0,28(sp)
20012438:	6105                	addi	sp,sp,32
2001243a:	8082                	ret

2001243c <metal_cpu_get_current_hartid>:
metal_cpu_get_current_hartid():
E:/GitHub/HiFive01-RevB/FS_workspace/sifive_hifive1_revb_sifive_welcome/freedom-metal/src/cpu.c:14

int metal_cpu_get_current_hartid() {
2001243c:	1101                	addi	sp,sp,-32
2001243e:	ce22                	sw	s0,28(sp)
20012440:	1000                	addi	s0,sp,32
E:/GitHub/HiFive01-RevB/FS_workspace/sifive_hifive1_revb_sifive_welcome/freedom-metal/src/cpu.c:17
#ifdef __riscv
    int mhartid;
    __asm__ volatile("csrr %0, mhartid" : "=r"(mhartid));
20012442:	f14027f3          	csrr	a5,mhartid
20012446:	fef42623          	sw	a5,-20(s0)
E:/GitHub/HiFive01-RevB/FS_workspace/sifive_hifive1_revb_sifive_welcome/freedom-metal/src/cpu.c:18
    return mhartid;
2001244a:	fec42783          	lw	a5,-20(s0)
E:/GitHub/HiFive01-RevB/FS_workspace/sifive_hifive1_revb_sifive_welcome/freedom-metal/src/cpu.c:20
#endif
}
2001244e:	853e                	mv	a0,a5
20012450:	4472                	lw	s0,28(sp)
20012452:	6105                	addi	sp,sp,32
20012454:	8082                	ret

20012456 <metal_interrupt_init>:
metal_interrupt_init():
E:/GitHub/HiFive01-RevB/FS_workspace/sifive_hifive1_revb_sifive_welcome/freedom-metal/metal/interrupt.h:130
 * before any interrupts are registered or enabled with the handler. It
 * is invalid to initialize an interrupt controller more than once.
 *
 * @param controller The handle for the interrupt controller
 */
__inline__ void metal_interrupt_init(struct metal_interrupt *controller) {
20012456:	1101                	addi	sp,sp,-32
20012458:	ce06                	sw	ra,28(sp)
2001245a:	cc22                	sw	s0,24(sp)
2001245c:	1000                	addi	s0,sp,32
2001245e:	fea42623          	sw	a0,-20(s0)
E:/GitHub/HiFive01-RevB/FS_workspace/sifive_hifive1_revb_sifive_welcome/freedom-metal/metal/interrupt.h:131
    controller->vtable->interrupt_init(controller);
20012462:	fec42783          	lw	a5,-20(s0)
20012466:	439c                	lw	a5,0(a5)
20012468:	439c                	lw	a5,0(a5)
2001246a:	fec42503          	lw	a0,-20(s0)
2001246e:	9782                	jalr	a5
E:/GitHub/HiFive01-RevB/FS_workspace/sifive_hifive1_revb_sifive_welcome/freedom-metal/metal/interrupt.h:132
}
20012470:	0001                	nop
20012472:	40f2                	lw	ra,28(sp)
20012474:	4462                	lw	s0,24(sp)
20012476:	6105                	addi	sp,sp,32
20012478:	8082                	ret

2001247a <metal_interrupt_register_handler>:
metal_interrupt_register_handler():
E:/GitHub/HiFive01-RevB/FS_workspace/sifive_hifive1_revb_sifive_welcome/freedom-metal/metal/interrupt.h:240
 * @return 0 upon success
 */
__inline__ int
metal_interrupt_register_handler(struct metal_interrupt *controller, int id,
                                 metal_interrupt_handler_t handler,
                                 void *priv_data) {
2001247a:	1101                	addi	sp,sp,-32
2001247c:	ce06                	sw	ra,28(sp)
2001247e:	cc22                	sw	s0,24(sp)
20012480:	1000                	addi	s0,sp,32
20012482:	fea42623          	sw	a0,-20(s0)
20012486:	feb42423          	sw	a1,-24(s0)
2001248a:	fec42223          	sw	a2,-28(s0)
2001248e:	fed42023          	sw	a3,-32(s0)
E:/GitHub/HiFive01-RevB/FS_workspace/sifive_hifive1_revb_sifive_welcome/freedom-metal/metal/interrupt.h:241
    return controller->vtable->interrupt_register(controller, id, handler,
20012492:	fec42783          	lw	a5,-20(s0)
20012496:	439c                	lw	a5,0(a5)
20012498:	4fdc                	lw	a5,28(a5)
2001249a:	fe042683          	lw	a3,-32(s0)
2001249e:	fe442603          	lw	a2,-28(s0)
200124a2:	fe842583          	lw	a1,-24(s0)
200124a6:	fec42503          	lw	a0,-20(s0)
200124aa:	9782                	jalr	a5
200124ac:	87aa                	mv	a5,a0
E:/GitHub/HiFive01-RevB/FS_workspace/sifive_hifive1_revb_sifive_welcome/freedom-metal/metal/interrupt.h:243
                                                  priv_data);
}
200124ae:	853e                	mv	a0,a5
200124b0:	40f2                	lw	ra,28(sp)
200124b2:	4462                	lw	s0,24(sp)
200124b4:	6105                	addi	sp,sp,32
200124b6:	8082                	ret

200124b8 <metal_interrupt_enable>:
metal_interrupt_enable():
E:/GitHub/HiFive01-RevB/FS_workspace/sifive_hifive1_revb_sifive_welcome/freedom-metal/metal/interrupt.h:267
 * @param controller The handle for the interrupt controller
 * @param id The interrupt ID to enable
 * @return 0 upon success
 */
__inline__ int metal_interrupt_enable(struct metal_interrupt *controller,
                                      int id) {
200124b8:	1101                	addi	sp,sp,-32
200124ba:	ce06                	sw	ra,28(sp)
200124bc:	cc22                	sw	s0,24(sp)
200124be:	1000                	addi	s0,sp,32
200124c0:	fea42623          	sw	a0,-20(s0)
200124c4:	feb42423          	sw	a1,-24(s0)
E:/GitHub/HiFive01-RevB/FS_workspace/sifive_hifive1_revb_sifive_welcome/freedom-metal/metal/interrupt.h:268
    return controller->vtable->interrupt_enable(controller, id);
200124c8:	fec42783          	lw	a5,-20(s0)
200124cc:	439c                	lw	a5,0(a5)
200124ce:	53dc                	lw	a5,36(a5)
200124d0:	fe842583          	lw	a1,-24(s0)
200124d4:	fec42503          	lw	a0,-20(s0)
200124d8:	9782                	jalr	a5
200124da:	87aa                	mv	a5,a0
E:/GitHub/HiFive01-RevB/FS_workspace/sifive_hifive1_revb_sifive_welcome/freedom-metal/metal/interrupt.h:269
}
200124dc:	853e                	mv	a0,a5
200124de:	40f2                	lw	ra,28(sp)
200124e0:	4462                	lw	s0,24(sp)
200124e2:	6105                	addi	sp,sp,32
200124e4:	8082                	ret

200124e6 <metal_interrupt_disable>:
metal_interrupt_disable():
E:/GitHub/HiFive01-RevB/FS_workspace/sifive_hifive1_revb_sifive_welcome/freedom-metal/metal/interrupt.h:278
 * @param controller The handle for the interrupt controller
 * @param id The interrupt ID to disable
 * @return 0 upon success
 */
__inline__ int metal_interrupt_disable(struct metal_interrupt *controller,
                                       int id) {
200124e6:	1101                	addi	sp,sp,-32
200124e8:	ce06                	sw	ra,28(sp)
200124ea:	cc22                	sw	s0,24(sp)
200124ec:	1000                	addi	s0,sp,32
200124ee:	fea42623          	sw	a0,-20(s0)
200124f2:	feb42423          	sw	a1,-24(s0)
E:/GitHub/HiFive01-RevB/FS_workspace/sifive_hifive1_revb_sifive_welcome/freedom-metal/metal/interrupt.h:279
    return controller->vtable->interrupt_disable(controller, id);
200124f6:	fec42783          	lw	a5,-20(s0)
200124fa:	439c                	lw	a5,0(a5)
200124fc:	579c                	lw	a5,40(a5)
200124fe:	fe842583          	lw	a1,-24(s0)
20012502:	fec42503          	lw	a0,-20(s0)
20012506:	9782                	jalr	a5
20012508:	87aa                	mv	a5,a0
E:/GitHub/HiFive01-RevB/FS_workspace/sifive_hifive1_revb_sifive_welcome/freedom-metal/metal/interrupt.h:280
}
2001250a:	853e                	mv	a0,a5
2001250c:	40f2                	lw	ra,28(sp)
2001250e:	4462                	lw	s0,24(sp)
20012510:	6105                	addi	sp,sp,32
20012512:	8082                	ret

20012514 <metal_led_enable>:
metal_led_enable():
E:/GitHub/HiFive01-RevB/FS_workspace/sifive_hifive1_revb_sifive_welcome/freedom-metal/metal/led.h:49

/*!
 * @brief Enable an LED
 * @param led The handle for the LED
 */
__inline__ void metal_led_enable(struct metal_led *led) {
20012514:	1101                	addi	sp,sp,-32
20012516:	ce06                	sw	ra,28(sp)
20012518:	cc22                	sw	s0,24(sp)
2001251a:	1000                	addi	s0,sp,32
2001251c:	fea42623          	sw	a0,-20(s0)
E:/GitHub/HiFive01-RevB/FS_workspace/sifive_hifive1_revb_sifive_welcome/freedom-metal/metal/led.h:50
    led->vtable->led_enable(led);
20012520:	fec42783          	lw	a5,-20(s0)
20012524:	439c                	lw	a5,0(a5)
20012526:	43dc                	lw	a5,4(a5)
20012528:	fec42503          	lw	a0,-20(s0)
2001252c:	9782                	jalr	a5
E:/GitHub/HiFive01-RevB/FS_workspace/sifive_hifive1_revb_sifive_welcome/freedom-metal/metal/led.h:51
}
2001252e:	0001                	nop
20012530:	40f2                	lw	ra,28(sp)
20012532:	4462                	lw	s0,24(sp)
20012534:	6105                	addi	sp,sp,32
20012536:	8082                	ret

20012538 <metal_led_on>:
metal_led_on():
E:/GitHub/HiFive01-RevB/FS_workspace/sifive_hifive1_revb_sifive_welcome/freedom-metal/metal/led.h:57

/*!
 * @brief Turn an LED on
 * @param led The handle for the LED
 */
__inline__ void metal_led_on(struct metal_led *led) {
20012538:	1101                	addi	sp,sp,-32
2001253a:	ce06                	sw	ra,28(sp)
2001253c:	cc22                	sw	s0,24(sp)
2001253e:	1000                	addi	s0,sp,32
20012540:	fea42623          	sw	a0,-20(s0)
E:/GitHub/HiFive01-RevB/FS_workspace/sifive_hifive1_revb_sifive_welcome/freedom-metal/metal/led.h:58
    led->vtable->led_on(led);
20012544:	fec42783          	lw	a5,-20(s0)
20012548:	439c                	lw	a5,0(a5)
2001254a:	479c                	lw	a5,8(a5)
2001254c:	fec42503          	lw	a0,-20(s0)
20012550:	9782                	jalr	a5
E:/GitHub/HiFive01-RevB/FS_workspace/sifive_hifive1_revb_sifive_welcome/freedom-metal/metal/led.h:59
}
20012552:	0001                	nop
20012554:	40f2                	lw	ra,28(sp)
20012556:	4462                	lw	s0,24(sp)
20012558:	6105                	addi	sp,sp,32
2001255a:	8082                	ret

2001255c <metal_led_off>:
metal_led_off():
E:/GitHub/HiFive01-RevB/FS_workspace/sifive_hifive1_revb_sifive_welcome/freedom-metal/metal/led.h:65

/*!
 * @brief Turn an LED off
 * @param led The handle for the LED
 */
__inline__ void metal_led_off(struct metal_led *led) {
2001255c:	1101                	addi	sp,sp,-32
2001255e:	ce06                	sw	ra,28(sp)
20012560:	cc22                	sw	s0,24(sp)
20012562:	1000                	addi	s0,sp,32
20012564:	fea42623          	sw	a0,-20(s0)
E:/GitHub/HiFive01-RevB/FS_workspace/sifive_hifive1_revb_sifive_welcome/freedom-metal/metal/led.h:66
    led->vtable->led_off(led);
20012568:	fec42783          	lw	a5,-20(s0)
2001256c:	439c                	lw	a5,0(a5)
2001256e:	47dc                	lw	a5,12(a5)
20012570:	fec42503          	lw	a0,-20(s0)
20012574:	9782                	jalr	a5
E:/GitHub/HiFive01-RevB/FS_workspace/sifive_hifive1_revb_sifive_welcome/freedom-metal/metal/led.h:67
}
20012576:	0001                	nop
20012578:	40f2                	lw	ra,28(sp)
2001257a:	4462                	lw	s0,24(sp)
2001257c:	6105                	addi	sp,sp,32
2001257e:	8082                	ret

20012580 <metal_led_get_rgb>:
metal_led_get_rgb():
E:/GitHub/HiFive01-RevB/FS_workspace/sifive_hifive1_revb_sifive_welcome/freedom-metal/src/led.c:8

#include <metal/led.h>
#include <metal/machine.h>
#include <string.h>

struct metal_led *metal_led_get_rgb(char *label, char *color) {
20012580:	7175                	addi	sp,sp,-144
20012582:	c706                	sw	ra,140(sp)
20012584:	c522                	sw	s0,136(sp)
20012586:	0900                	addi	s0,sp,144
20012588:	f6a42e23          	sw	a0,-132(s0)
2001258c:	f6b42c23          	sw	a1,-136(s0)
E:/GitHub/HiFive01-RevB/FS_workspace/sifive_hifive1_revb_sifive_welcome/freedom-metal/src/led.c:13
    int i;
    struct metal_led *led;
    char led_label[100];

    if ((__METAL_DT_MAX_LEDS == 0) || (label == NULL) || (color == NULL)) {
20012590:	f7c42783          	lw	a5,-132(s0)
20012594:	c781                	beqz	a5,2001259c <metal_led_get_rgb+0x1c>
E:/GitHub/HiFive01-RevB/FS_workspace/sifive_hifive1_revb_sifive_welcome/freedom-metal/src/led.c:13 (discriminator 1)
20012596:	f7842783          	lw	a5,-136(s0)
2001259a:	e399                	bnez	a5,200125a0 <metal_led_get_rgb+0x20>
E:/GitHub/HiFive01-RevB/FS_workspace/sifive_hifive1_revb_sifive_welcome/freedom-metal/src/led.c:14
        return NULL;
2001259c:	4781                	li	a5,0
2001259e:	a0bd                	j	2001260c <metal_led_get_rgb+0x8c>
E:/GitHub/HiFive01-RevB/FS_workspace/sifive_hifive1_revb_sifive_welcome/freedom-metal/src/led.c:17
    }

    strcpy(led_label, label);
200125a0:	f8440793          	addi	a5,s0,-124
200125a4:	f7c42583          	lw	a1,-132(s0)
200125a8:	853e                	mv	a0,a5
200125aa:	028050ef          	jal	ra,200175d2 <strcpy>
E:/GitHub/HiFive01-RevB/FS_workspace/sifive_hifive1_revb_sifive_welcome/freedom-metal/src/led.c:18
    strcat(led_label, color);
200125ae:	f8440793          	addi	a5,s0,-124
200125b2:	f7842583          	lw	a1,-136(s0)
200125b6:	853e                	mv	a0,a5
200125b8:	6e1040ef          	jal	ra,20017498 <strcat>
E:/GitHub/HiFive01-RevB/FS_workspace/sifive_hifive1_revb_sifive_welcome/freedom-metal/src/led.c:19
    for (i = 0; i < __METAL_DT_MAX_LEDS; i++) {
200125bc:	fe042623          	sw	zero,-20(s0)
200125c0:	a081                	j	20012600 <metal_led_get_rgb+0x80>
E:/GitHub/HiFive01-RevB/FS_workspace/sifive_hifive1_revb_sifive_welcome/freedom-metal/src/led.c:20
        led = (struct metal_led *)__metal_led_table[i];
200125c2:	800007b7          	lui	a5,0x80000
200125c6:	06078713          	addi	a4,a5,96 # 80000060 <metal_segment_heap_target_end+0xffffe8c0>
200125ca:	fec42783          	lw	a5,-20(s0)
200125ce:	078a                	slli	a5,a5,0x2
200125d0:	97ba                	add	a5,a5,a4
200125d2:	439c                	lw	a5,0(a5)
200125d4:	fef42423          	sw	a5,-24(s0)
E:/GitHub/HiFive01-RevB/FS_workspace/sifive_hifive1_revb_sifive_welcome/freedom-metal/src/led.c:21
        if (led->vtable->led_exist(led, led_label)) {
200125d8:	fe842783          	lw	a5,-24(s0)
200125dc:	439c                	lw	a5,0(a5)
200125de:	4398                	lw	a4,0(a5)
200125e0:	f8440793          	addi	a5,s0,-124
200125e4:	85be                	mv	a1,a5
200125e6:	fe842503          	lw	a0,-24(s0)
200125ea:	9702                	jalr	a4
200125ec:	87aa                	mv	a5,a0
200125ee:	c781                	beqz	a5,200125f6 <metal_led_get_rgb+0x76>
E:/GitHub/HiFive01-RevB/FS_workspace/sifive_hifive1_revb_sifive_welcome/freedom-metal/src/led.c:22
            return led;
200125f0:	fe842783          	lw	a5,-24(s0)
200125f4:	a821                	j	2001260c <metal_led_get_rgb+0x8c>
E:/GitHub/HiFive01-RevB/FS_workspace/sifive_hifive1_revb_sifive_welcome/freedom-metal/src/led.c:19 (discriminator 2)
    for (i = 0; i < __METAL_DT_MAX_LEDS; i++) {
200125f6:	fec42783          	lw	a5,-20(s0)
200125fa:	0785                	addi	a5,a5,1
200125fc:	fef42623          	sw	a5,-20(s0)
E:/GitHub/HiFive01-RevB/FS_workspace/sifive_hifive1_revb_sifive_welcome/freedom-metal/src/led.c:19 (discriminator 1)
20012600:	fec42703          	lw	a4,-20(s0)
20012604:	4789                	li	a5,2
20012606:	fae7dee3          	bge	a5,a4,200125c2 <metal_led_get_rgb+0x42>
E:/GitHub/HiFive01-RevB/FS_workspace/sifive_hifive1_revb_sifive_welcome/freedom-metal/src/led.c:25
        }
    }
    return NULL;
2001260a:	4781                	li	a5,0
E:/GitHub/HiFive01-RevB/FS_workspace/sifive_hifive1_revb_sifive_welcome/freedom-metal/src/led.c:26 (discriminator 1)
}
2001260c:	853e                	mv	a0,a5
2001260e:	40ba                	lw	ra,140(sp)
20012610:	442a                	lw	s0,136(sp)
20012612:	6149                	addi	sp,sp,144
20012614:	8082                	ret

20012616 <__metal_driver_sifive_clint0_control_base>:
__metal_driver_sifive_clint0_control_base():
E:\GitHub\HiFive01-RevB\FS_workspace\sifive_hifive1_revb_sifive_welcome\bsp\build\debug/./metal/machine.h:233
/* --------------------- fixed_factor_clock ------------ */


/* --------------------- sifive_clint0 ------------ */
static __inline__ unsigned long __metal_driver_sifive_clint0_control_base(struct metal_interrupt *controller)
{
20012616:	1101                	addi	sp,sp,-32
20012618:	ce22                	sw	s0,28(sp)
2001261a:	1000                	addi	s0,sp,32
2001261c:	fea42623          	sw	a0,-20(s0)
E:\GitHub\HiFive01-RevB\FS_workspace\sifive_hifive1_revb_sifive_welcome\bsp\build\debug/./metal/machine.h:234
	if ((uintptr_t)controller == (uintptr_t)&__metal_dt_clint_2000000) {
20012620:	fec42703          	lw	a4,-20(s0)
20012624:	800017b7          	lui	a5,0x80001
20012628:	ab878793          	addi	a5,a5,-1352 # 80000ab8 <metal_segment_heap_target_end+0xfffff318>
2001262c:	00f71563          	bne	a4,a5,20012636 <__metal_driver_sifive_clint0_control_base+0x20>
E:\GitHub\HiFive01-RevB\FS_workspace\sifive_hifive1_revb_sifive_welcome\bsp\build\debug/./metal/machine.h:235
		return METAL_RISCV_CLINT0_2000000_BASE_ADDRESS;
20012630:	020007b7          	lui	a5,0x2000
20012634:	a011                	j	20012638 <__metal_driver_sifive_clint0_control_base+0x22>
E:\GitHub\HiFive01-RevB\FS_workspace\sifive_hifive1_revb_sifive_welcome\bsp\build\debug/./metal/machine.h:238
	}
	else {
		return 0;
20012636:	4781                	li	a5,0
E:\GitHub\HiFive01-RevB\FS_workspace\sifive_hifive1_revb_sifive_welcome\bsp\build\debug/./metal/machine.h:240
	}
}
20012638:	853e                	mv	a0,a5
2001263a:	4472                	lw	s0,28(sp)
2001263c:	6105                	addi	sp,sp,32
2001263e:	8082                	ret

20012640 <__metal_driver_sifive_clint0_num_interrupts>:
__metal_driver_sifive_clint0_num_interrupts():
E:\GitHub\HiFive01-RevB\FS_workspace\sifive_hifive1_revb_sifive_welcome\bsp\build\debug/./metal/machine.h:253
		return 0;
	}
}

static __inline__ int __metal_driver_sifive_clint0_num_interrupts(struct metal_interrupt *controller)
{
20012640:	1101                	addi	sp,sp,-32
20012642:	ce22                	sw	s0,28(sp)
20012644:	1000                	addi	s0,sp,32
20012646:	fea42623          	sw	a0,-20(s0)
E:\GitHub\HiFive01-RevB\FS_workspace\sifive_hifive1_revb_sifive_welcome\bsp\build\debug/./metal/machine.h:254
	if ((uintptr_t)controller == (uintptr_t)&__metal_dt_clint_2000000) {
2001264a:	fec42703          	lw	a4,-20(s0)
2001264e:	800017b7          	lui	a5,0x80001
20012652:	ab878793          	addi	a5,a5,-1352 # 80000ab8 <metal_segment_heap_target_end+0xfffff318>
20012656:	00f71463          	bne	a4,a5,2001265e <__metal_driver_sifive_clint0_num_interrupts+0x1e>
E:\GitHub\HiFive01-RevB\FS_workspace\sifive_hifive1_revb_sifive_welcome\bsp\build\debug/./metal/machine.h:255
		return METAL_MAX_CLINT_INTERRUPTS;
2001265a:	4789                	li	a5,2
2001265c:	a011                	j	20012660 <__metal_driver_sifive_clint0_num_interrupts+0x20>
E:\GitHub\HiFive01-RevB\FS_workspace\sifive_hifive1_revb_sifive_welcome\bsp\build\debug/./metal/machine.h:258
	}
	else {
		return 0;
2001265e:	4781                	li	a5,0
E:\GitHub\HiFive01-RevB\FS_workspace\sifive_hifive1_revb_sifive_welcome\bsp\build\debug/./metal/machine.h:260
	}
}
20012660:	853e                	mv	a0,a5
20012662:	4472                	lw	s0,28(sp)
20012664:	6105                	addi	sp,sp,32
20012666:	8082                	ret

20012668 <__metal_driver_sifive_clint0_interrupt_parents>:
__metal_driver_sifive_clint0_interrupt_parents():
E:\GitHub\HiFive01-RevB\FS_workspace\sifive_hifive1_revb_sifive_welcome\bsp\build\debug/./metal/machine.h:263

static __inline__ struct metal_interrupt * __metal_driver_sifive_clint0_interrupt_parents(struct metal_interrupt *controller, int idx)
{
20012668:	1101                	addi	sp,sp,-32
2001266a:	ce22                	sw	s0,28(sp)
2001266c:	1000                	addi	s0,sp,32
2001266e:	fea42623          	sw	a0,-20(s0)
20012672:	feb42423          	sw	a1,-24(s0)
E:\GitHub\HiFive01-RevB\FS_workspace\sifive_hifive1_revb_sifive_welcome\bsp\build\debug/./metal/machine.h:264
	if (idx == 0) {
20012676:	fe842783          	lw	a5,-24(s0)
2001267a:	e791                	bnez	a5,20012686 <__metal_driver_sifive_clint0_interrupt_parents+0x1e>
E:\GitHub\HiFive01-RevB\FS_workspace\sifive_hifive1_revb_sifive_welcome\bsp\build\debug/./metal/machine.h:265
		return (struct metal_interrupt *)&__metal_dt_cpu_0_interrupt_controller.controller;
2001267c:	800007b7          	lui	a5,0x80000
20012680:	0a078793          	addi	a5,a5,160 # 800000a0 <metal_segment_heap_target_end+0xffffe900>
20012684:	a821                	j	2001269c <__metal_driver_sifive_clint0_interrupt_parents+0x34>
E:\GitHub\HiFive01-RevB\FS_workspace\sifive_hifive1_revb_sifive_welcome\bsp\build\debug/./metal/machine.h:267
	}
	else if (idx == 1) {
20012686:	fe842703          	lw	a4,-24(s0)
2001268a:	4785                	li	a5,1
2001268c:	00f71763          	bne	a4,a5,2001269a <__metal_driver_sifive_clint0_interrupt_parents+0x32>
E:\GitHub\HiFive01-RevB\FS_workspace\sifive_hifive1_revb_sifive_welcome\bsp\build\debug/./metal/machine.h:268
		return (struct metal_interrupt *)&__metal_dt_cpu_0_interrupt_controller.controller;
20012690:	800007b7          	lui	a5,0x80000
20012694:	0a078793          	addi	a5,a5,160 # 800000a0 <metal_segment_heap_target_end+0xffffe900>
20012698:	a011                	j	2001269c <__metal_driver_sifive_clint0_interrupt_parents+0x34>
E:\GitHub\HiFive01-RevB\FS_workspace\sifive_hifive1_revb_sifive_welcome\bsp\build\debug/./metal/machine.h:271
	}
	else {
		return NULL;
2001269a:	4781                	li	a5,0
E:\GitHub\HiFive01-RevB\FS_workspace\sifive_hifive1_revb_sifive_welcome\bsp\build\debug/./metal/machine.h:273
	}
}
2001269c:	853e                	mv	a0,a5
2001269e:	4472                	lw	s0,28(sp)
200126a0:	6105                	addi	sp,sp,32
200126a2:	8082                	ret

200126a4 <__metal_driver_sifive_clint0_interrupt_lines>:
__metal_driver_sifive_clint0_interrupt_lines():
E:\GitHub\HiFive01-RevB\FS_workspace\sifive_hifive1_revb_sifive_welcome\bsp\build\debug/./metal/machine.h:276

static __inline__ int __metal_driver_sifive_clint0_interrupt_lines(struct metal_interrupt *controller, int idx)
{
200126a4:	1101                	addi	sp,sp,-32
200126a6:	ce22                	sw	s0,28(sp)
200126a8:	1000                	addi	s0,sp,32
200126aa:	fea42623          	sw	a0,-20(s0)
200126ae:	feb42423          	sw	a1,-24(s0)
E:\GitHub\HiFive01-RevB\FS_workspace\sifive_hifive1_revb_sifive_welcome\bsp\build\debug/./metal/machine.h:277
	if (idx == 0) {
200126b2:	fe842783          	lw	a5,-24(s0)
200126b6:	e399                	bnez	a5,200126bc <__metal_driver_sifive_clint0_interrupt_lines+0x18>
E:\GitHub\HiFive01-RevB\FS_workspace\sifive_hifive1_revb_sifive_welcome\bsp\build\debug/./metal/machine.h:278
		return 3;
200126b8:	478d                	li	a5,3
200126ba:	a809                	j	200126cc <__metal_driver_sifive_clint0_interrupt_lines+0x28>
E:\GitHub\HiFive01-RevB\FS_workspace\sifive_hifive1_revb_sifive_welcome\bsp\build\debug/./metal/machine.h:280
	}
	else if (idx == 1) {
200126bc:	fe842703          	lw	a4,-24(s0)
200126c0:	4785                	li	a5,1
200126c2:	00f71463          	bne	a4,a5,200126ca <__metal_driver_sifive_clint0_interrupt_lines+0x26>
E:\GitHub\HiFive01-RevB\FS_workspace\sifive_hifive1_revb_sifive_welcome\bsp\build\debug/./metal/machine.h:281
		return 7;
200126c6:	479d                	li	a5,7
200126c8:	a011                	j	200126cc <__metal_driver_sifive_clint0_interrupt_lines+0x28>
E:\GitHub\HiFive01-RevB\FS_workspace\sifive_hifive1_revb_sifive_welcome\bsp\build\debug/./metal/machine.h:284
	}
	else {
		return 0;
200126ca:	4781                	li	a5,0
E:\GitHub\HiFive01-RevB\FS_workspace\sifive_hifive1_revb_sifive_welcome\bsp\build\debug/./metal/machine.h:286
	}
}
200126cc:	853e                	mv	a0,a5
200126ce:	4472                	lw	s0,28(sp)
200126d0:	6105                	addi	sp,sp,32
200126d2:	8082                	ret

200126d4 <__metal_clint0_mtime_get>:
__metal_clint0_mtime_get():
E:/GitHub/HiFive01-RevB/FS_workspace/sifive_hifive1_revb_sifive_welcome/freedom-metal/src/drivers/riscv_clint0.c:14
#include <metal/drivers/riscv_clint0.h>
#include <metal/io.h>
#include <metal/machine.h>

unsigned long long
__metal_clint0_mtime_get(struct __metal_driver_riscv_clint0 *clint) {
200126d4:	715d                	addi	sp,sp,-80
200126d6:	c686                	sw	ra,76(sp)
200126d8:	c4a2                	sw	s0,72(sp)
200126da:	c2ca                	sw	s2,68(sp)
200126dc:	c0ce                	sw	s3,64(sp)
200126de:	de52                	sw	s4,60(sp)
200126e0:	dc56                	sw	s5,56(sp)
200126e2:	da5a                	sw	s6,52(sp)
200126e4:	d85e                	sw	s7,48(sp)
200126e6:	d662                	sw	s8,44(sp)
200126e8:	d466                	sw	s9,40(sp)
200126ea:	0880                	addi	s0,sp,80
200126ec:	faa42e23          	sw	a0,-68(s0)
E:/GitHub/HiFive01-RevB/FS_workspace/sifive_hifive1_revb_sifive_welcome/freedom-metal/src/drivers/riscv_clint0.c:17
    __metal_io_u32 lo, hi;
    unsigned long control_base =
        __metal_driver_sifive_clint0_control_base(&clint->controller);
200126f0:	fbc42783          	lw	a5,-68(s0)
200126f4:	853e                	mv	a0,a5
200126f6:	3705                	jal	20012616 <__metal_driver_sifive_clint0_control_base>
200126f8:	fca42623          	sw	a0,-52(s0)
E:/GitHub/HiFive01-RevB/FS_workspace/sifive_hifive1_revb_sifive_welcome/freedom-metal/src/drivers/riscv_clint0.c:21 (discriminator 1)

    /* Guard against rollover when reading */
    do {
        hi = __METAL_ACCESS_ONCE(
200126fc:	fcc42703          	lw	a4,-52(s0)
20012700:	67b1                	lui	a5,0xc
20012702:	17f1                	addi	a5,a5,-4
20012704:	97ba                	add	a5,a5,a4
20012706:	439c                	lw	a5,0(a5)
20012708:	fcf42423          	sw	a5,-56(s0)
E:/GitHub/HiFive01-RevB/FS_workspace/sifive_hifive1_revb_sifive_welcome/freedom-metal/src/drivers/riscv_clint0.c:23 (discriminator 1)
            (__metal_io_u32 *)(control_base + METAL_RISCV_CLINT0_MTIME + 4));
        lo = __METAL_ACCESS_ONCE(
2001270c:	fcc42703          	lw	a4,-52(s0)
20012710:	67b1                	lui	a5,0xc
20012712:	17e1                	addi	a5,a5,-8
20012714:	97ba                	add	a5,a5,a4
20012716:	439c                	lw	a5,0(a5)
20012718:	fcf42223          	sw	a5,-60(s0)
E:/GitHub/HiFive01-RevB/FS_workspace/sifive_hifive1_revb_sifive_welcome/freedom-metal/src/drivers/riscv_clint0.c:25 (discriminator 1)
            (__metal_io_u32 *)(control_base + METAL_RISCV_CLINT0_MTIME));
    } while (__METAL_ACCESS_ONCE((__metal_io_u32 *)(control_base +
2001271c:	fcc42703          	lw	a4,-52(s0)
20012720:	67b1                	lui	a5,0xc
20012722:	17f1                	addi	a5,a5,-4
20012724:	97ba                	add	a5,a5,a4
20012726:	439c                	lw	a5,0(a5)
20012728:	fc842703          	lw	a4,-56(s0)
2001272c:	fcf718e3          	bne	a4,a5,200126fc <__metal_clint0_mtime_get+0x28>
E:/GitHub/HiFive01-RevB/FS_workspace/sifive_hifive1_revb_sifive_welcome/freedom-metal/src/drivers/riscv_clint0.c:29
                                                    METAL_RISCV_CLINT0_MTIME +
                                                    4)) != hi);

    return (((unsigned long long)hi) << 32) | lo;
20012730:	fc842783          	lw	a5,-56(s0)
20012734:	8c3e                	mv	s8,a5
20012736:	4c81                	li	s9,0
20012738:	000c1993          	slli	s3,s8,0x0
2001273c:	4901                	li	s2,0
2001273e:	fc442783          	lw	a5,-60(s0)
20012742:	8a3e                	mv	s4,a5
20012744:	4a81                	li	s5,0
20012746:	01496b33          	or	s6,s2,s4
2001274a:	0159ebb3          	or	s7,s3,s5
2001274e:	875a                	mv	a4,s6
20012750:	87de                	mv	a5,s7
E:/GitHub/HiFive01-RevB/FS_workspace/sifive_hifive1_revb_sifive_welcome/freedom-metal/src/drivers/riscv_clint0.c:30
}
20012752:	853a                	mv	a0,a4
20012754:	85be                	mv	a1,a5
20012756:	40b6                	lw	ra,76(sp)
20012758:	4426                	lw	s0,72(sp)
2001275a:	4916                	lw	s2,68(sp)
2001275c:	4986                	lw	s3,64(sp)
2001275e:	5a72                	lw	s4,60(sp)
20012760:	5ae2                	lw	s5,56(sp)
20012762:	5b52                	lw	s6,52(sp)
20012764:	5bc2                	lw	s7,48(sp)
20012766:	5c32                	lw	s8,44(sp)
20012768:	5ca2                	lw	s9,40(sp)
2001276a:	6161                	addi	sp,sp,80
2001276c:	8082                	ret

2001276e <__metal_driver_riscv_clint0_mtimecmp_set>:
__metal_driver_riscv_clint0_mtimecmp_set():
E:/GitHub/HiFive01-RevB/FS_workspace/sifive_hifive1_revb_sifive_welcome/freedom-metal/src/drivers/riscv_clint0.c:34

int __metal_driver_riscv_clint0_mtimecmp_set(struct metal_interrupt *controller,
                                             int hartid,
                                             unsigned long long time) {
2001276e:	7179                	addi	sp,sp,-48
20012770:	d606                	sw	ra,44(sp)
20012772:	d422                	sw	s0,40(sp)
20012774:	d24a                	sw	s2,36(sp)
20012776:	d04e                	sw	s3,32(sp)
20012778:	1800                	addi	s0,sp,48
2001277a:	fca42e23          	sw	a0,-36(s0)
2001277e:	fcb42c23          	sw	a1,-40(s0)
20012782:	fcc42823          	sw	a2,-48(s0)
20012786:	fcd42a23          	sw	a3,-44(s0)
E:/GitHub/HiFive01-RevB/FS_workspace/sifive_hifive1_revb_sifive_welcome/freedom-metal/src/drivers/riscv_clint0.c:35
    struct __metal_driver_riscv_clint0 *clint =
2001278a:	fdc42783          	lw	a5,-36(s0)
2001278e:	fef42623          	sw	a5,-20(s0)
E:/GitHub/HiFive01-RevB/FS_workspace/sifive_hifive1_revb_sifive_welcome/freedom-metal/src/drivers/riscv_clint0.c:38
        (struct __metal_driver_riscv_clint0 *)(controller);
    unsigned long control_base =
        __metal_driver_sifive_clint0_control_base(&clint->controller);
20012792:	fec42783          	lw	a5,-20(s0)
20012796:	853e                	mv	a0,a5
20012798:	3dbd                	jal	20012616 <__metal_driver_sifive_clint0_control_base>
2001279a:	fea42423          	sw	a0,-24(s0)
E:/GitHub/HiFive01-RevB/FS_workspace/sifive_hifive1_revb_sifive_welcome/freedom-metal/src/drivers/riscv_clint0.c:45
     * and are NOT internally latched for multiword transfers.
     * Need to be careful about sequencing to avoid triggering
     * spurious interrupts: For that set the high word to a max
     * value first.
     */
    __METAL_ACCESS_ONCE((__metal_io_u32 *)(control_base + (8 * hartid) +
2001279e:	fd842783          	lw	a5,-40(s0)
200127a2:	078e                	slli	a5,a5,0x3
200127a4:	873e                	mv	a4,a5
200127a6:	fe842783          	lw	a5,-24(s0)
200127aa:	973e                	add	a4,a4,a5
200127ac:	6791                	lui	a5,0x4
200127ae:	0791                	addi	a5,a5,4
200127b0:	97ba                	add	a5,a5,a4
200127b2:	873e                	mv	a4,a5
E:/GitHub/HiFive01-RevB/FS_workspace/sifive_hifive1_revb_sifive_welcome/freedom-metal/src/drivers/riscv_clint0.c:47
                                           METAL_RISCV_CLINT0_MTIMECMP_BASE +
                                           4)) = 0xFFFFFFFF;
200127b4:	57fd                	li	a5,-1
200127b6:	c31c                	sw	a5,0(a4)
E:/GitHub/HiFive01-RevB/FS_workspace/sifive_hifive1_revb_sifive_welcome/freedom-metal/src/drivers/riscv_clint0.c:48
    __METAL_ACCESS_ONCE((__metal_io_u32 *)(control_base + (8 * hartid) +
200127b8:	fd842783          	lw	a5,-40(s0)
200127bc:	078e                	slli	a5,a5,0x3
200127be:	873e                	mv	a4,a5
200127c0:	fe842783          	lw	a5,-24(s0)
200127c4:	973e                	add	a4,a4,a5
200127c6:	6791                	lui	a5,0x4
200127c8:	97ba                	add	a5,a5,a4
200127ca:	873e                	mv	a4,a5
E:/GitHub/HiFive01-RevB/FS_workspace/sifive_hifive1_revb_sifive_welcome/freedom-metal/src/drivers/riscv_clint0.c:50
                                           METAL_RISCV_CLINT0_MTIMECMP_BASE)) =
        (__metal_io_u32)time;
200127cc:	fd042783          	lw	a5,-48(s0)
E:/GitHub/HiFive01-RevB/FS_workspace/sifive_hifive1_revb_sifive_welcome/freedom-metal/src/drivers/riscv_clint0.c:49
                                           METAL_RISCV_CLINT0_MTIMECMP_BASE)) =
200127d0:	c31c                	sw	a5,0(a4)
E:/GitHub/HiFive01-RevB/FS_workspace/sifive_hifive1_revb_sifive_welcome/freedom-metal/src/drivers/riscv_clint0.c:53
    __METAL_ACCESS_ONCE((__metal_io_u32 *)(control_base + (8 * hartid) +
                                           METAL_RISCV_CLINT0_MTIMECMP_BASE +
                                           4)) = (__metal_io_u32)(time >> 32);
200127d2:	fd442783          	lw	a5,-44(s0)
200127d6:	0007d913          	srli	s2,a5,0x0
200127da:	4981                	li	s3,0
E:/GitHub/HiFive01-RevB/FS_workspace/sifive_hifive1_revb_sifive_welcome/freedom-metal/src/drivers/riscv_clint0.c:51
    __METAL_ACCESS_ONCE((__metal_io_u32 *)(control_base + (8 * hartid) +
200127dc:	fd842783          	lw	a5,-40(s0)
200127e0:	078e                	slli	a5,a5,0x3
200127e2:	873e                	mv	a4,a5
200127e4:	fe842783          	lw	a5,-24(s0)
200127e8:	973e                	add	a4,a4,a5
200127ea:	6791                	lui	a5,0x4
200127ec:	0791                	addi	a5,a5,4
200127ee:	97ba                	add	a5,a5,a4
E:/GitHub/HiFive01-RevB/FS_workspace/sifive_hifive1_revb_sifive_welcome/freedom-metal/src/drivers/riscv_clint0.c:53
                                           4)) = (__metal_io_u32)(time >> 32);
200127f0:	874a                	mv	a4,s2
200127f2:	c398                	sw	a4,0(a5)
E:/GitHub/HiFive01-RevB/FS_workspace/sifive_hifive1_revb_sifive_welcome/freedom-metal/src/drivers/riscv_clint0.c:54
    return 0;
200127f4:	4781                	li	a5,0
E:/GitHub/HiFive01-RevB/FS_workspace/sifive_hifive1_revb_sifive_welcome/freedom-metal/src/drivers/riscv_clint0.c:55
}
200127f6:	853e                	mv	a0,a5
200127f8:	50b2                	lw	ra,44(sp)
200127fa:	5422                	lw	s0,40(sp)
200127fc:	5912                	lw	s2,36(sp)
200127fe:	5982                	lw	s3,32(sp)
20012800:	6145                	addi	sp,sp,48
20012802:	8082                	ret

20012804 <_get_cpu_intc>:
_get_cpu_intc():
E:/GitHub/HiFive01-RevB/FS_workspace/sifive_hifive1_revb_sifive_welcome/freedom-metal/src/drivers/riscv_clint0.c:57

static struct metal_interrupt *_get_cpu_intc() {
20012804:	1101                	addi	sp,sp,-32
20012806:	ce06                	sw	ra,28(sp)
20012808:	cc22                	sw	s0,24(sp)
2001280a:	1000                	addi	s0,sp,32
E:/GitHub/HiFive01-RevB/FS_workspace/sifive_hifive1_revb_sifive_welcome/freedom-metal/src/drivers/riscv_clint0.c:58
    int hartid = 0;
2001280c:	fe042623          	sw	zero,-20(s0)
E:/GitHub/HiFive01-RevB/FS_workspace/sifive_hifive1_revb_sifive_welcome/freedom-metal/src/drivers/riscv_clint0.c:59
    __asm__ volatile("csrr %[hartid], mhartid"
20012810:	f14027f3          	csrr	a5,mhartid
20012814:	fef42623          	sw	a5,-20(s0)
E:/GitHub/HiFive01-RevB/FS_workspace/sifive_hifive1_revb_sifive_welcome/freedom-metal/src/drivers/riscv_clint0.c:62
                     : [hartid] "=r"(hartid)::"memory");

    struct metal_cpu *cpu = metal_cpu_get(hartid);
20012818:	fec42783          	lw	a5,-20(s0)
2001281c:	853e                	mv	a0,a5
2001281e:	3ec5                	jal	2001240e <metal_cpu_get>
20012820:	fea42423          	sw	a0,-24(s0)
E:/GitHub/HiFive01-RevB/FS_workspace/sifive_hifive1_revb_sifive_welcome/freedom-metal/src/drivers/riscv_clint0.c:64

    return metal_cpu_interrupt_controller(cpu);
20012824:	fe842503          	lw	a0,-24(s0)
20012828:	36c1                	jal	200123e8 <metal_cpu_interrupt_controller>
2001282a:	87aa                	mv	a5,a0
E:/GitHub/HiFive01-RevB/FS_workspace/sifive_hifive1_revb_sifive_welcome/freedom-metal/src/drivers/riscv_clint0.c:65
}
2001282c:	853e                	mv	a0,a5
2001282e:	40f2                	lw	ra,28(sp)
20012830:	4462                	lw	s0,24(sp)
20012832:	6105                	addi	sp,sp,32
20012834:	8082                	ret

20012836 <__metal_driver_riscv_clint0_init>:
__metal_driver_riscv_clint0_init():
E:/GitHub/HiFive01-RevB/FS_workspace/sifive_hifive1_revb_sifive_welcome/freedom-metal/src/drivers/riscv_clint0.c:67

void __metal_driver_riscv_clint0_init(struct metal_interrupt *controller) {
20012836:	7139                	addi	sp,sp,-64
20012838:	de06                	sw	ra,60(sp)
2001283a:	dc22                	sw	s0,56(sp)
2001283c:	0080                	addi	s0,sp,64
2001283e:	fca42623          	sw	a0,-52(s0)
E:/GitHub/HiFive01-RevB/FS_workspace/sifive_hifive1_revb_sifive_welcome/freedom-metal/src/drivers/riscv_clint0.c:69
    int num_interrupts =
        __metal_driver_sifive_clint0_num_interrupts(controller);
20012842:	fcc42503          	lw	a0,-52(s0)
20012846:	3bed                	jal	20012640 <__metal_driver_sifive_clint0_num_interrupts>
20012848:	fea42423          	sw	a0,-24(s0)
E:/GitHub/HiFive01-RevB/FS_workspace/sifive_hifive1_revb_sifive_welcome/freedom-metal/src/drivers/riscv_clint0.c:70
    struct __metal_driver_riscv_clint0 *clint =
2001284c:	fcc42783          	lw	a5,-52(s0)
20012850:	fef42223          	sw	a5,-28(s0)
E:/GitHub/HiFive01-RevB/FS_workspace/sifive_hifive1_revb_sifive_welcome/freedom-metal/src/drivers/riscv_clint0.c:73
        (struct __metal_driver_riscv_clint0 *)(controller);

    if (!clint->init_done) {
20012854:	fe442783          	lw	a5,-28(s0)
20012858:	43dc                	lw	a5,4(a5)
2001285a:	efa9                	bnez	a5,200128b4 <__metal_driver_riscv_clint0_init+0x7e>
E:/GitHub/HiFive01-RevB/FS_workspace/sifive_hifive1_revb_sifive_welcome/freedom-metal/src/drivers/riscv_clint0.c:76
        /* Register its interrupts with with parent controller, aka sw and
         * timerto its default isr */
        for (int i = 0; i < num_interrupts; i++) {
2001285c:	fe042623          	sw	zero,-20(s0)
20012860:	a081                	j	200128a0 <__metal_driver_riscv_clint0_init+0x6a>
E:/GitHub/HiFive01-RevB/FS_workspace/sifive_hifive1_revb_sifive_welcome/freedom-metal/src/drivers/riscv_clint0.c:78 (discriminator 3)
            struct metal_interrupt *intc =
                __metal_driver_sifive_clint0_interrupt_parents(controller, i);
20012862:	fec42583          	lw	a1,-20(s0)
20012866:	fcc42503          	lw	a0,-52(s0)
2001286a:	3bfd                	jal	20012668 <__metal_driver_sifive_clint0_interrupt_parents>
2001286c:	fea42023          	sw	a0,-32(s0)
E:/GitHub/HiFive01-RevB/FS_workspace/sifive_hifive1_revb_sifive_welcome/freedom-metal/src/drivers/riscv_clint0.c:80 (discriminator 3)
            int line =
                __metal_driver_sifive_clint0_interrupt_lines(controller, i);
20012870:	fec42583          	lw	a1,-20(s0)
20012874:	fcc42503          	lw	a0,-52(s0)
20012878:	3535                	jal	200126a4 <__metal_driver_sifive_clint0_interrupt_lines>
2001287a:	fca42e23          	sw	a0,-36(s0)
E:/GitHub/HiFive01-RevB/FS_workspace/sifive_hifive1_revb_sifive_welcome/freedom-metal/src/drivers/riscv_clint0.c:81 (discriminator 3)
            intc->vtable->interrupt_register(intc, line, NULL, controller);
2001287e:	fe042783          	lw	a5,-32(s0)
20012882:	439c                	lw	a5,0(a5)
20012884:	4fdc                	lw	a5,28(a5)
20012886:	fcc42683          	lw	a3,-52(s0)
2001288a:	4601                	li	a2,0
2001288c:	fdc42583          	lw	a1,-36(s0)
20012890:	fe042503          	lw	a0,-32(s0)
20012894:	9782                	jalr	a5
E:/GitHub/HiFive01-RevB/FS_workspace/sifive_hifive1_revb_sifive_welcome/freedom-metal/src/drivers/riscv_clint0.c:76 (discriminator 3)
        for (int i = 0; i < num_interrupts; i++) {
20012896:	fec42783          	lw	a5,-20(s0)
2001289a:	0785                	addi	a5,a5,1
2001289c:	fef42623          	sw	a5,-20(s0)
E:/GitHub/HiFive01-RevB/FS_workspace/sifive_hifive1_revb_sifive_welcome/freedom-metal/src/drivers/riscv_clint0.c:76 (discriminator 1)
200128a0:	fec42703          	lw	a4,-20(s0)
200128a4:	fe842783          	lw	a5,-24(s0)
200128a8:	faf74de3          	blt	a4,a5,20012862 <__metal_driver_riscv_clint0_init+0x2c>
E:/GitHub/HiFive01-RevB/FS_workspace/sifive_hifive1_revb_sifive_welcome/freedom-metal/src/drivers/riscv_clint0.c:83
        }
        clint->init_done = 1;
200128ac:	fe442783          	lw	a5,-28(s0)
200128b0:	4705                	li	a4,1
200128b2:	c3d8                	sw	a4,4(a5)
E:/GitHub/HiFive01-RevB/FS_workspace/sifive_hifive1_revb_sifive_welcome/freedom-metal/src/drivers/riscv_clint0.c:85
    }
}
200128b4:	0001                	nop
200128b6:	50f2                	lw	ra,60(sp)
200128b8:	5462                	lw	s0,56(sp)
200128ba:	6121                	addi	sp,sp,64
200128bc:	8082                	ret

200128be <__metal_driver_riscv_clint0_register>:
__metal_driver_riscv_clint0_register():
E:/GitHub/HiFive01-RevB/FS_workspace/sifive_hifive1_revb_sifive_welcome/freedom-metal/src/drivers/riscv_clint0.c:89

int __metal_driver_riscv_clint0_register(struct metal_interrupt *controller,
                                         int id, metal_interrupt_handler_t isr,
                                         void *priv) {
200128be:	7139                	addi	sp,sp,-64
200128c0:	de06                	sw	ra,60(sp)
200128c2:	dc22                	sw	s0,56(sp)
200128c4:	0080                	addi	s0,sp,64
200128c6:	fca42623          	sw	a0,-52(s0)
200128ca:	fcb42423          	sw	a1,-56(s0)
200128ce:	fcc42223          	sw	a2,-60(s0)
200128d2:	fcd42023          	sw	a3,-64(s0)
E:/GitHub/HiFive01-RevB/FS_workspace/sifive_hifive1_revb_sifive_welcome/freedom-metal/src/drivers/riscv_clint0.c:90
    int rc = -1;
200128d6:	57fd                	li	a5,-1
200128d8:	fef42623          	sw	a5,-20(s0)
E:/GitHub/HiFive01-RevB/FS_workspace/sifive_hifive1_revb_sifive_welcome/freedom-metal/src/drivers/riscv_clint0.c:91
    metal_vector_mode mode = __metal_controller_interrupt_vector_mode();
200128dc:	47e010ef          	jal	ra,20013d5a <__metal_controller_interrupt_vector_mode>
200128e0:	fea42023          	sw	a0,-32(s0)
E:/GitHub/HiFive01-RevB/FS_workspace/sifive_hifive1_revb_sifive_welcome/freedom-metal/src/drivers/riscv_clint0.c:92
    struct metal_interrupt *intc = NULL;
200128e4:	fe042423          	sw	zero,-24(s0)
E:/GitHub/HiFive01-RevB/FS_workspace/sifive_hifive1_revb_sifive_welcome/freedom-metal/src/drivers/riscv_clint0.c:93
    struct metal_interrupt *cpu_intc = _get_cpu_intc();
200128e8:	3f31                	jal	20012804 <_get_cpu_intc>
200128ea:	fca42e23          	sw	a0,-36(s0)
E:/GitHub/HiFive01-RevB/FS_workspace/sifive_hifive1_revb_sifive_welcome/freedom-metal/src/drivers/riscv_clint0.c:95
    int num_interrupts =
        __metal_driver_sifive_clint0_num_interrupts(controller);
200128ee:	fcc42503          	lw	a0,-52(s0)
200128f2:	33b9                	jal	20012640 <__metal_driver_sifive_clint0_num_interrupts>
200128f4:	fca42c23          	sw	a0,-40(s0)
E:/GitHub/HiFive01-RevB/FS_workspace/sifive_hifive1_revb_sifive_welcome/freedom-metal/src/drivers/riscv_clint0.c:97

    if ((mode != METAL_VECTOR_MODE) && (mode != METAL_DIRECT_MODE)) {
200128f8:	fe042703          	lw	a4,-32(s0)
200128fc:	4785                	li	a5,1
200128fe:	00f70863          	beq	a4,a5,2001290e <__metal_driver_riscv_clint0_register+0x50>
E:/GitHub/HiFive01-RevB/FS_workspace/sifive_hifive1_revb_sifive_welcome/freedom-metal/src/drivers/riscv_clint0.c:97 (discriminator 1)
20012902:	fe042783          	lw	a5,-32(s0)
20012906:	c781                	beqz	a5,2001290e <__metal_driver_riscv_clint0_register+0x50>
E:/GitHub/HiFive01-RevB/FS_workspace/sifive_hifive1_revb_sifive_welcome/freedom-metal/src/drivers/riscv_clint0.c:98
        return rc;
20012908:	fec42783          	lw	a5,-20(s0)
2001290c:	a049                	j	2001298e <__metal_driver_riscv_clint0_register+0xd0>
E:/GitHub/HiFive01-RevB/FS_workspace/sifive_hifive1_revb_sifive_welcome/freedom-metal/src/drivers/riscv_clint0.c:101
    }

    for (int i = 0; i < num_interrupts; i++) {
2001290e:	fe042223          	sw	zero,-28(s0)
20012912:	a091                	j	20012956 <__metal_driver_riscv_clint0_register+0x98>
E:/GitHub/HiFive01-RevB/FS_workspace/sifive_hifive1_revb_sifive_welcome/freedom-metal/src/drivers/riscv_clint0.c:102
        int line = __metal_driver_sifive_clint0_interrupt_lines(controller, i);
20012914:	fe442583          	lw	a1,-28(s0)
20012918:	fcc42503          	lw	a0,-52(s0)
2001291c:	3361                	jal	200126a4 <__metal_driver_sifive_clint0_interrupt_lines>
2001291e:	fca42a23          	sw	a0,-44(s0)
E:/GitHub/HiFive01-RevB/FS_workspace/sifive_hifive1_revb_sifive_welcome/freedom-metal/src/drivers/riscv_clint0.c:103
        intc = __metal_driver_sifive_clint0_interrupt_parents(controller, i);
20012922:	fe442583          	lw	a1,-28(s0)
20012926:	fcc42503          	lw	a0,-52(s0)
2001292a:	3b3d                	jal	20012668 <__metal_driver_sifive_clint0_interrupt_parents>
2001292c:	fea42423          	sw	a0,-24(s0)
E:/GitHub/HiFive01-RevB/FS_workspace/sifive_hifive1_revb_sifive_welcome/freedom-metal/src/drivers/riscv_clint0.c:104
        if (cpu_intc == intc && id == line) {
20012930:	fdc42703          	lw	a4,-36(s0)
20012934:	fe842783          	lw	a5,-24(s0)
20012938:	00f71863          	bne	a4,a5,20012948 <__metal_driver_riscv_clint0_register+0x8a>
E:/GitHub/HiFive01-RevB/FS_workspace/sifive_hifive1_revb_sifive_welcome/freedom-metal/src/drivers/riscv_clint0.c:104 (discriminator 1)
2001293c:	fc842703          	lw	a4,-56(s0)
20012940:	fd442783          	lw	a5,-44(s0)
20012944:	02f70063          	beq	a4,a5,20012964 <__metal_driver_riscv_clint0_register+0xa6>
E:/GitHub/HiFive01-RevB/FS_workspace/sifive_hifive1_revb_sifive_welcome/freedom-metal/src/drivers/riscv_clint0.c:107 (discriminator 2)
            break;
        }
        intc = NULL;
20012948:	fe042423          	sw	zero,-24(s0)
E:/GitHub/HiFive01-RevB/FS_workspace/sifive_hifive1_revb_sifive_welcome/freedom-metal/src/drivers/riscv_clint0.c:101 (discriminator 2)
    for (int i = 0; i < num_interrupts; i++) {
2001294c:	fe442783          	lw	a5,-28(s0)
20012950:	0785                	addi	a5,a5,1
20012952:	fef42223          	sw	a5,-28(s0)
E:/GitHub/HiFive01-RevB/FS_workspace/sifive_hifive1_revb_sifive_welcome/freedom-metal/src/drivers/riscv_clint0.c:101 (discriminator 1)
20012956:	fe442703          	lw	a4,-28(s0)
2001295a:	fd842783          	lw	a5,-40(s0)
2001295e:	faf74be3          	blt	a4,a5,20012914 <__metal_driver_riscv_clint0_register+0x56>
20012962:	a011                	j	20012966 <__metal_driver_riscv_clint0_register+0xa8>
E:/GitHub/HiFive01-RevB/FS_workspace/sifive_hifive1_revb_sifive_welcome/freedom-metal/src/drivers/riscv_clint0.c:105
            break;
20012964:	0001                	nop
E:/GitHub/HiFive01-RevB/FS_workspace/sifive_hifive1_revb_sifive_welcome/freedom-metal/src/drivers/riscv_clint0.c:111
    }

    /* Register its interrupts with parent controller */
    if (intc) {
20012966:	fe842783          	lw	a5,-24(s0)
2001296a:	c385                	beqz	a5,2001298a <__metal_driver_riscv_clint0_register+0xcc>
E:/GitHub/HiFive01-RevB/FS_workspace/sifive_hifive1_revb_sifive_welcome/freedom-metal/src/drivers/riscv_clint0.c:112
        rc = intc->vtable->interrupt_register(intc, id, isr, priv);
2001296c:	fe842783          	lw	a5,-24(s0)
20012970:	439c                	lw	a5,0(a5)
20012972:	4fdc                	lw	a5,28(a5)
20012974:	fc042683          	lw	a3,-64(s0)
20012978:	fc442603          	lw	a2,-60(s0)
2001297c:	fc842583          	lw	a1,-56(s0)
20012980:	fe842503          	lw	a0,-24(s0)
20012984:	9782                	jalr	a5
20012986:	fea42623          	sw	a0,-20(s0)
E:/GitHub/HiFive01-RevB/FS_workspace/sifive_hifive1_revb_sifive_welcome/freedom-metal/src/drivers/riscv_clint0.c:114
    }
    return rc;
2001298a:	fec42783          	lw	a5,-20(s0)
E:/GitHub/HiFive01-RevB/FS_workspace/sifive_hifive1_revb_sifive_welcome/freedom-metal/src/drivers/riscv_clint0.c:115
}
2001298e:	853e                	mv	a0,a5
20012990:	50f2                	lw	ra,60(sp)
20012992:	5462                	lw	s0,56(sp)
20012994:	6121                	addi	sp,sp,64
20012996:	8082                	ret

20012998 <__metal_driver_riscv_clint0_vector_register>:
__metal_driver_riscv_clint0_vector_register():
E:/GitHub/HiFive01-RevB/FS_workspace/sifive_hifive1_revb_sifive_welcome/freedom-metal/src/drivers/riscv_clint0.c:119

int __metal_driver_riscv_clint0_vector_register(
    struct metal_interrupt *controller, int id,
    metal_interrupt_vector_handler_t isr, void *priv) {
20012998:	7179                	addi	sp,sp,-48
2001299a:	d622                	sw	s0,44(sp)
2001299c:	1800                	addi	s0,sp,48
2001299e:	fca42e23          	sw	a0,-36(s0)
200129a2:	fcb42c23          	sw	a1,-40(s0)
200129a6:	fcc42a23          	sw	a2,-44(s0)
200129aa:	fcd42823          	sw	a3,-48(s0)
E:/GitHub/HiFive01-RevB/FS_workspace/sifive_hifive1_revb_sifive_welcome/freedom-metal/src/drivers/riscv_clint0.c:121
    /* Not supported. User can override the 'weak' handler with their own */
    int rc = -1;
200129ae:	57fd                	li	a5,-1
200129b0:	fef42623          	sw	a5,-20(s0)
E:/GitHub/HiFive01-RevB/FS_workspace/sifive_hifive1_revb_sifive_welcome/freedom-metal/src/drivers/riscv_clint0.c:122
    return rc;
200129b4:	fec42783          	lw	a5,-20(s0)
E:/GitHub/HiFive01-RevB/FS_workspace/sifive_hifive1_revb_sifive_welcome/freedom-metal/src/drivers/riscv_clint0.c:123
}
200129b8:	853e                	mv	a0,a5
200129ba:	5432                	lw	s0,44(sp)
200129bc:	6145                	addi	sp,sp,48
200129be:	8082                	ret

200129c0 <__metal_driver_riscv_clint0_get_vector_mode>:
__metal_driver_riscv_clint0_get_vector_mode():
E:/GitHub/HiFive01-RevB/FS_workspace/sifive_hifive1_revb_sifive_welcome/freedom-metal/src/drivers/riscv_clint0.c:126

metal_vector_mode __metal_driver_riscv_clint0_get_vector_mode(
    struct metal_interrupt *controller) {
200129c0:	1101                	addi	sp,sp,-32
200129c2:	ce06                	sw	ra,28(sp)
200129c4:	cc22                	sw	s0,24(sp)
200129c6:	1000                	addi	s0,sp,32
200129c8:	fea42623          	sw	a0,-20(s0)
E:/GitHub/HiFive01-RevB/FS_workspace/sifive_hifive1_revb_sifive_welcome/freedom-metal/src/drivers/riscv_clint0.c:127
    return __metal_controller_interrupt_vector_mode();
200129cc:	38e010ef          	jal	ra,20013d5a <__metal_controller_interrupt_vector_mode>
200129d0:	87aa                	mv	a5,a0
E:/GitHub/HiFive01-RevB/FS_workspace/sifive_hifive1_revb_sifive_welcome/freedom-metal/src/drivers/riscv_clint0.c:128
}
200129d2:	853e                	mv	a0,a5
200129d4:	40f2                	lw	ra,28(sp)
200129d6:	4462                	lw	s0,24(sp)
200129d8:	6105                	addi	sp,sp,32
200129da:	8082                	ret

200129dc <__metal_driver_riscv_clint0_set_vector_mode>:
__metal_driver_riscv_clint0_set_vector_mode():
E:/GitHub/HiFive01-RevB/FS_workspace/sifive_hifive1_revb_sifive_welcome/freedom-metal/src/drivers/riscv_clint0.c:131

int __metal_driver_riscv_clint0_set_vector_mode(
    struct metal_interrupt *controller, metal_vector_mode mode) {
200129dc:	7179                	addi	sp,sp,-48
200129de:	d606                	sw	ra,44(sp)
200129e0:	d422                	sw	s0,40(sp)
200129e2:	1800                	addi	s0,sp,48
200129e4:	fca42e23          	sw	a0,-36(s0)
200129e8:	fcb42c23          	sw	a1,-40(s0)
E:/GitHub/HiFive01-RevB/FS_workspace/sifive_hifive1_revb_sifive_welcome/freedom-metal/src/drivers/riscv_clint0.c:132
    int rc = -1;
200129ec:	57fd                	li	a5,-1
200129ee:	fef42623          	sw	a5,-20(s0)
E:/GitHub/HiFive01-RevB/FS_workspace/sifive_hifive1_revb_sifive_welcome/freedom-metal/src/drivers/riscv_clint0.c:133
    struct metal_interrupt *intc = _get_cpu_intc();
200129f2:	3d09                	jal	20012804 <_get_cpu_intc>
200129f4:	fea42423          	sw	a0,-24(s0)
E:/GitHub/HiFive01-RevB/FS_workspace/sifive_hifive1_revb_sifive_welcome/freedom-metal/src/drivers/riscv_clint0.c:135

    if (intc) {
200129f8:	fe842783          	lw	a5,-24(s0)
200129fc:	c395                	beqz	a5,20012a20 <__metal_driver_riscv_clint0_set_vector_mode+0x44>
E:/GitHub/HiFive01-RevB/FS_workspace/sifive_hifive1_revb_sifive_welcome/freedom-metal/src/drivers/riscv_clint0.c:138
        /* Valid vector modes are VECTOR and DIRECT, anything else is invalid
         * (-1) */
        switch (mode) {
200129fe:	fd842703          	lw	a4,-40(s0)
20012a02:	4785                	li	a5,1
20012a04:	02e7e063          	bltu	a5,a4,20012a24 <__metal_driver_riscv_clint0_set_vector_mode+0x48>
E:/GitHub/HiFive01-RevB/FS_workspace/sifive_hifive1_revb_sifive_welcome/freedom-metal/src/drivers/riscv_clint0.c:141
        case METAL_VECTOR_MODE:
        case METAL_DIRECT_MODE:
            rc = intc->vtable->interrupt_set_vector_mode(intc, mode);
20012a08:	fe842783          	lw	a5,-24(s0)
20012a0c:	439c                	lw	a5,0(a5)
20012a0e:	43dc                	lw	a5,4(a5)
20012a10:	fd842583          	lw	a1,-40(s0)
20012a14:	fe842503          	lw	a0,-24(s0)
20012a18:	9782                	jalr	a5
20012a1a:	fea42623          	sw	a0,-20(s0)
E:/GitHub/HiFive01-RevB/FS_workspace/sifive_hifive1_revb_sifive_welcome/freedom-metal/src/drivers/riscv_clint0.c:142
            break;
20012a1e:	a021                	j	20012a26 <__metal_driver_riscv_clint0_set_vector_mode+0x4a>
E:/GitHub/HiFive01-RevB/FS_workspace/sifive_hifive1_revb_sifive_welcome/freedom-metal/src/drivers/riscv_clint0.c:146
        default:
            break;
        }
    }
20012a20:	0001                	nop
20012a22:	a011                	j	20012a26 <__metal_driver_riscv_clint0_set_vector_mode+0x4a>
E:/GitHub/HiFive01-RevB/FS_workspace/sifive_hifive1_revb_sifive_welcome/freedom-metal/src/drivers/riscv_clint0.c:144
            break;
20012a24:	0001                	nop
E:/GitHub/HiFive01-RevB/FS_workspace/sifive_hifive1_revb_sifive_welcome/freedom-metal/src/drivers/riscv_clint0.c:147
    return rc;
20012a26:	fec42783          	lw	a5,-20(s0)
E:/GitHub/HiFive01-RevB/FS_workspace/sifive_hifive1_revb_sifive_welcome/freedom-metal/src/drivers/riscv_clint0.c:148
}
20012a2a:	853e                	mv	a0,a5
20012a2c:	50b2                	lw	ra,44(sp)
20012a2e:	5422                	lw	s0,40(sp)
20012a30:	6145                	addi	sp,sp,48
20012a32:	8082                	ret

20012a34 <__metal_driver_riscv_clint0_enable>:
__metal_driver_riscv_clint0_enable():
E:/GitHub/HiFive01-RevB/FS_workspace/sifive_hifive1_revb_sifive_welcome/freedom-metal/src/drivers/riscv_clint0.c:151

int __metal_driver_riscv_clint0_enable(struct metal_interrupt *controller,
                                       int id) {
20012a34:	7139                	addi	sp,sp,-64
20012a36:	de06                	sw	ra,60(sp)
20012a38:	dc22                	sw	s0,56(sp)
20012a3a:	0080                	addi	s0,sp,64
20012a3c:	fca42623          	sw	a0,-52(s0)
20012a40:	fcb42423          	sw	a1,-56(s0)
E:/GitHub/HiFive01-RevB/FS_workspace/sifive_hifive1_revb_sifive_welcome/freedom-metal/src/drivers/riscv_clint0.c:152
    int rc = -1;
20012a44:	57fd                	li	a5,-1
20012a46:	fef42623          	sw	a5,-20(s0)
E:/GitHub/HiFive01-RevB/FS_workspace/sifive_hifive1_revb_sifive_welcome/freedom-metal/src/drivers/riscv_clint0.c:154

    if (id) {
20012a4a:	fc842783          	lw	a5,-56(s0)
20012a4e:	c7c9                	beqz	a5,20012ad8 <__metal_driver_riscv_clint0_enable+0xa4>
E:/GitHub/HiFive01-RevB/FS_workspace/sifive_hifive1_revb_sifive_welcome/freedom-metal/src/drivers/riscv_clint0.c:155
        struct metal_interrupt *intc = NULL;
20012a50:	fe042423          	sw	zero,-24(s0)
E:/GitHub/HiFive01-RevB/FS_workspace/sifive_hifive1_revb_sifive_welcome/freedom-metal/src/drivers/riscv_clint0.c:156
        struct metal_interrupt *cpu_intc = _get_cpu_intc();
20012a54:	3b45                	jal	20012804 <_get_cpu_intc>
20012a56:	fea42023          	sw	a0,-32(s0)
E:/GitHub/HiFive01-RevB/FS_workspace/sifive_hifive1_revb_sifive_welcome/freedom-metal/src/drivers/riscv_clint0.c:158
        int num_interrupts =
            __metal_driver_sifive_clint0_num_interrupts(controller);
20012a5a:	fcc42503          	lw	a0,-52(s0)
20012a5e:	36cd                	jal	20012640 <__metal_driver_sifive_clint0_num_interrupts>
20012a60:	fca42e23          	sw	a0,-36(s0)
E:/GitHub/HiFive01-RevB/FS_workspace/sifive_hifive1_revb_sifive_welcome/freedom-metal/src/drivers/riscv_clint0.c:160

        for (int i = 0; i < num_interrupts; i++) {
20012a64:	fe042223          	sw	zero,-28(s0)
20012a68:	a091                	j	20012aac <__metal_driver_riscv_clint0_enable+0x78>
E:/GitHub/HiFive01-RevB/FS_workspace/sifive_hifive1_revb_sifive_welcome/freedom-metal/src/drivers/riscv_clint0.c:162
            int line =
                __metal_driver_sifive_clint0_interrupt_lines(controller, i);
20012a6a:	fe442583          	lw	a1,-28(s0)
20012a6e:	fcc42503          	lw	a0,-52(s0)
20012a72:	390d                	jal	200126a4 <__metal_driver_sifive_clint0_interrupt_lines>
20012a74:	fca42c23          	sw	a0,-40(s0)
E:/GitHub/HiFive01-RevB/FS_workspace/sifive_hifive1_revb_sifive_welcome/freedom-metal/src/drivers/riscv_clint0.c:164
            intc =
                __metal_driver_sifive_clint0_interrupt_parents(controller, i);
20012a78:	fe442583          	lw	a1,-28(s0)
20012a7c:	fcc42503          	lw	a0,-52(s0)
20012a80:	36e5                	jal	20012668 <__metal_driver_sifive_clint0_interrupt_parents>
20012a82:	fea42423          	sw	a0,-24(s0)
E:/GitHub/HiFive01-RevB/FS_workspace/sifive_hifive1_revb_sifive_welcome/freedom-metal/src/drivers/riscv_clint0.c:165
            if (cpu_intc == intc && id == line) {
20012a86:	fe042703          	lw	a4,-32(s0)
20012a8a:	fe842783          	lw	a5,-24(s0)
20012a8e:	00f71863          	bne	a4,a5,20012a9e <__metal_driver_riscv_clint0_enable+0x6a>
E:/GitHub/HiFive01-RevB/FS_workspace/sifive_hifive1_revb_sifive_welcome/freedom-metal/src/drivers/riscv_clint0.c:165 (discriminator 1)
20012a92:	fc842703          	lw	a4,-56(s0)
20012a96:	fd842783          	lw	a5,-40(s0)
20012a9a:	02f70063          	beq	a4,a5,20012aba <__metal_driver_riscv_clint0_enable+0x86>
E:/GitHub/HiFive01-RevB/FS_workspace/sifive_hifive1_revb_sifive_welcome/freedom-metal/src/drivers/riscv_clint0.c:168 (discriminator 2)
                break;
            }
            intc = NULL;
20012a9e:	fe042423          	sw	zero,-24(s0)
E:/GitHub/HiFive01-RevB/FS_workspace/sifive_hifive1_revb_sifive_welcome/freedom-metal/src/drivers/riscv_clint0.c:160 (discriminator 2)
        for (int i = 0; i < num_interrupts; i++) {
20012aa2:	fe442783          	lw	a5,-28(s0)
20012aa6:	0785                	addi	a5,a5,1
20012aa8:	fef42223          	sw	a5,-28(s0)
E:/GitHub/HiFive01-RevB/FS_workspace/sifive_hifive1_revb_sifive_welcome/freedom-metal/src/drivers/riscv_clint0.c:160 (discriminator 1)
20012aac:	fe442703          	lw	a4,-28(s0)
20012ab0:	fdc42783          	lw	a5,-36(s0)
20012ab4:	faf74be3          	blt	a4,a5,20012a6a <__metal_driver_riscv_clint0_enable+0x36>
20012ab8:	a011                	j	20012abc <__metal_driver_riscv_clint0_enable+0x88>
E:/GitHub/HiFive01-RevB/FS_workspace/sifive_hifive1_revb_sifive_welcome/freedom-metal/src/drivers/riscv_clint0.c:166
                break;
20012aba:	0001                	nop
E:/GitHub/HiFive01-RevB/FS_workspace/sifive_hifive1_revb_sifive_welcome/freedom-metal/src/drivers/riscv_clint0.c:172
        }

        /* Enable its interrupts with parent controller */
        if (intc) {
20012abc:	fe842783          	lw	a5,-24(s0)
20012ac0:	cf81                	beqz	a5,20012ad8 <__metal_driver_riscv_clint0_enable+0xa4>
E:/GitHub/HiFive01-RevB/FS_workspace/sifive_hifive1_revb_sifive_welcome/freedom-metal/src/drivers/riscv_clint0.c:173
            rc = intc->vtable->interrupt_enable(intc, id);
20012ac2:	fe842783          	lw	a5,-24(s0)
20012ac6:	439c                	lw	a5,0(a5)
20012ac8:	53dc                	lw	a5,36(a5)
20012aca:	fc842583          	lw	a1,-56(s0)
20012ace:	fe842503          	lw	a0,-24(s0)
20012ad2:	9782                	jalr	a5
20012ad4:	fea42623          	sw	a0,-20(s0)
E:/GitHub/HiFive01-RevB/FS_workspace/sifive_hifive1_revb_sifive_welcome/freedom-metal/src/drivers/riscv_clint0.c:177
        }
    }

    return rc;
20012ad8:	fec42783          	lw	a5,-20(s0)
E:/GitHub/HiFive01-RevB/FS_workspace/sifive_hifive1_revb_sifive_welcome/freedom-metal/src/drivers/riscv_clint0.c:178
}
20012adc:	853e                	mv	a0,a5
20012ade:	50f2                	lw	ra,60(sp)
20012ae0:	5462                	lw	s0,56(sp)
20012ae2:	6121                	addi	sp,sp,64
20012ae4:	8082                	ret

20012ae6 <__metal_driver_riscv_clint0_disable>:
__metal_driver_riscv_clint0_disable():
E:/GitHub/HiFive01-RevB/FS_workspace/sifive_hifive1_revb_sifive_welcome/freedom-metal/src/drivers/riscv_clint0.c:181

int __metal_driver_riscv_clint0_disable(struct metal_interrupt *controller,
                                        int id) {
20012ae6:	7139                	addi	sp,sp,-64
20012ae8:	de06                	sw	ra,60(sp)
20012aea:	dc22                	sw	s0,56(sp)
20012aec:	0080                	addi	s0,sp,64
20012aee:	fca42623          	sw	a0,-52(s0)
20012af2:	fcb42423          	sw	a1,-56(s0)
E:/GitHub/HiFive01-RevB/FS_workspace/sifive_hifive1_revb_sifive_welcome/freedom-metal/src/drivers/riscv_clint0.c:182
    int rc = -1;
20012af6:	57fd                	li	a5,-1
20012af8:	fef42623          	sw	a5,-20(s0)
E:/GitHub/HiFive01-RevB/FS_workspace/sifive_hifive1_revb_sifive_welcome/freedom-metal/src/drivers/riscv_clint0.c:184

    if (id) {
20012afc:	fc842783          	lw	a5,-56(s0)
20012b00:	cbc1                	beqz	a5,20012b90 <__metal_driver_riscv_clint0_disable+0xaa>
E:/GitHub/HiFive01-RevB/FS_workspace/sifive_hifive1_revb_sifive_welcome/freedom-metal/src/drivers/riscv_clint0.c:185
        struct metal_interrupt *intc = NULL;
20012b02:	fe042423          	sw	zero,-24(s0)
E:/GitHub/HiFive01-RevB/FS_workspace/sifive_hifive1_revb_sifive_welcome/freedom-metal/src/drivers/riscv_clint0.c:186
        struct metal_interrupt *cpu_intc = _get_cpu_intc();
20012b06:	39fd                	jal	20012804 <_get_cpu_intc>
20012b08:	fea42023          	sw	a0,-32(s0)
E:/GitHub/HiFive01-RevB/FS_workspace/sifive_hifive1_revb_sifive_welcome/freedom-metal/src/drivers/riscv_clint0.c:188
        int num_interrupts =
            __metal_driver_sifive_clint0_num_interrupts(controller);
20012b0c:	fcc42503          	lw	a0,-52(s0)
20012b10:	b31ff0ef          	jal	ra,20012640 <__metal_driver_sifive_clint0_num_interrupts>
20012b14:	fca42e23          	sw	a0,-36(s0)
E:/GitHub/HiFive01-RevB/FS_workspace/sifive_hifive1_revb_sifive_welcome/freedom-metal/src/drivers/riscv_clint0.c:190

        for (int i = 0; i < num_interrupts; i++) {
20012b18:	fe042223          	sw	zero,-28(s0)
20012b1c:	a0a1                	j	20012b64 <__metal_driver_riscv_clint0_disable+0x7e>
E:/GitHub/HiFive01-RevB/FS_workspace/sifive_hifive1_revb_sifive_welcome/freedom-metal/src/drivers/riscv_clint0.c:192
            int line =
                __metal_driver_sifive_clint0_interrupt_lines(controller, i);
20012b1e:	fe442583          	lw	a1,-28(s0)
20012b22:	fcc42503          	lw	a0,-52(s0)
20012b26:	b7fff0ef          	jal	ra,200126a4 <__metal_driver_sifive_clint0_interrupt_lines>
20012b2a:	fca42c23          	sw	a0,-40(s0)
E:/GitHub/HiFive01-RevB/FS_workspace/sifive_hifive1_revb_sifive_welcome/freedom-metal/src/drivers/riscv_clint0.c:194
            intc =
                __metal_driver_sifive_clint0_interrupt_parents(controller, i);
20012b2e:	fe442583          	lw	a1,-28(s0)
20012b32:	fcc42503          	lw	a0,-52(s0)
20012b36:	b33ff0ef          	jal	ra,20012668 <__metal_driver_sifive_clint0_interrupt_parents>
20012b3a:	fea42423          	sw	a0,-24(s0)
E:/GitHub/HiFive01-RevB/FS_workspace/sifive_hifive1_revb_sifive_welcome/freedom-metal/src/drivers/riscv_clint0.c:195
            if (cpu_intc == intc && id == line) {
20012b3e:	fe042703          	lw	a4,-32(s0)
20012b42:	fe842783          	lw	a5,-24(s0)
20012b46:	00f71863          	bne	a4,a5,20012b56 <__metal_driver_riscv_clint0_disable+0x70>
E:/GitHub/HiFive01-RevB/FS_workspace/sifive_hifive1_revb_sifive_welcome/freedom-metal/src/drivers/riscv_clint0.c:195 (discriminator 1)
20012b4a:	fc842703          	lw	a4,-56(s0)
20012b4e:	fd842783          	lw	a5,-40(s0)
20012b52:	02f70063          	beq	a4,a5,20012b72 <__metal_driver_riscv_clint0_disable+0x8c>
E:/GitHub/HiFive01-RevB/FS_workspace/sifive_hifive1_revb_sifive_welcome/freedom-metal/src/drivers/riscv_clint0.c:198 (discriminator 2)
                break;
            }
            intc = NULL;
20012b56:	fe042423          	sw	zero,-24(s0)
E:/GitHub/HiFive01-RevB/FS_workspace/sifive_hifive1_revb_sifive_welcome/freedom-metal/src/drivers/riscv_clint0.c:190 (discriminator 2)
        for (int i = 0; i < num_interrupts; i++) {
20012b5a:	fe442783          	lw	a5,-28(s0)
20012b5e:	0785                	addi	a5,a5,1
20012b60:	fef42223          	sw	a5,-28(s0)
E:/GitHub/HiFive01-RevB/FS_workspace/sifive_hifive1_revb_sifive_welcome/freedom-metal/src/drivers/riscv_clint0.c:190 (discriminator 1)
20012b64:	fe442703          	lw	a4,-28(s0)
20012b68:	fdc42783          	lw	a5,-36(s0)
20012b6c:	faf749e3          	blt	a4,a5,20012b1e <__metal_driver_riscv_clint0_disable+0x38>
20012b70:	a011                	j	20012b74 <__metal_driver_riscv_clint0_disable+0x8e>
E:/GitHub/HiFive01-RevB/FS_workspace/sifive_hifive1_revb_sifive_welcome/freedom-metal/src/drivers/riscv_clint0.c:196
                break;
20012b72:	0001                	nop
E:/GitHub/HiFive01-RevB/FS_workspace/sifive_hifive1_revb_sifive_welcome/freedom-metal/src/drivers/riscv_clint0.c:202
        }

        /* Disable its interrupts with parent controller */
        if (intc) {
20012b74:	fe842783          	lw	a5,-24(s0)
20012b78:	cf81                	beqz	a5,20012b90 <__metal_driver_riscv_clint0_disable+0xaa>
E:/GitHub/HiFive01-RevB/FS_workspace/sifive_hifive1_revb_sifive_welcome/freedom-metal/src/drivers/riscv_clint0.c:203
            rc = intc->vtable->interrupt_disable(intc, id);
20012b7a:	fe842783          	lw	a5,-24(s0)
20012b7e:	439c                	lw	a5,0(a5)
20012b80:	579c                	lw	a5,40(a5)
20012b82:	fc842583          	lw	a1,-56(s0)
20012b86:	fe842503          	lw	a0,-24(s0)
20012b8a:	9782                	jalr	a5
20012b8c:	fea42623          	sw	a0,-20(s0)
E:/GitHub/HiFive01-RevB/FS_workspace/sifive_hifive1_revb_sifive_welcome/freedom-metal/src/drivers/riscv_clint0.c:207
        }
    }

    return rc;
20012b90:	fec42783          	lw	a5,-20(s0)
E:/GitHub/HiFive01-RevB/FS_workspace/sifive_hifive1_revb_sifive_welcome/freedom-metal/src/drivers/riscv_clint0.c:208
}
20012b94:	853e                	mv	a0,a5
20012b96:	50f2                	lw	ra,60(sp)
20012b98:	5462                	lw	s0,56(sp)
20012b9a:	6121                	addi	sp,sp,64
20012b9c:	8082                	ret

20012b9e <__metal_driver_riscv_clint0_command_request>:
__metal_driver_riscv_clint0_command_request():
E:/GitHub/HiFive01-RevB/FS_workspace/sifive_hifive1_revb_sifive_welcome/freedom-metal/src/drivers/riscv_clint0.c:211

int __metal_driver_riscv_clint0_command_request(
    struct metal_interrupt *controller, int command, void *data) {
20012b9e:	7179                	addi	sp,sp,-48
20012ba0:	d606                	sw	ra,44(sp)
20012ba2:	d422                	sw	s0,40(sp)
20012ba4:	1800                	addi	s0,sp,48
20012ba6:	fca42e23          	sw	a0,-36(s0)
20012baa:	fcb42c23          	sw	a1,-40(s0)
20012bae:	fcc42a23          	sw	a2,-44(s0)
E:/GitHub/HiFive01-RevB/FS_workspace/sifive_hifive1_revb_sifive_welcome/freedom-metal/src/drivers/riscv_clint0.c:213
    int hartid;
    int rc = -1;
20012bb2:	57fd                	li	a5,-1
20012bb4:	fef42623          	sw	a5,-20(s0)
E:/GitHub/HiFive01-RevB/FS_workspace/sifive_hifive1_revb_sifive_welcome/freedom-metal/src/drivers/riscv_clint0.c:214
    struct __metal_driver_riscv_clint0 *clint =
20012bb8:	fdc42783          	lw	a5,-36(s0)
20012bbc:	fef42423          	sw	a5,-24(s0)
E:/GitHub/HiFive01-RevB/FS_workspace/sifive_hifive1_revb_sifive_welcome/freedom-metal/src/drivers/riscv_clint0.c:217
        (struct __metal_driver_riscv_clint0 *)(controller);
    unsigned long control_base =
        __metal_driver_sifive_clint0_control_base(controller);
20012bc0:	fdc42503          	lw	a0,-36(s0)
20012bc4:	a53ff0ef          	jal	ra,20012616 <__metal_driver_sifive_clint0_control_base>
20012bc8:	fea42223          	sw	a0,-28(s0)
E:/GitHub/HiFive01-RevB/FS_workspace/sifive_hifive1_revb_sifive_welcome/freedom-metal/src/drivers/riscv_clint0.c:219

    switch (command) {
20012bcc:	fd842703          	lw	a4,-40(s0)
20012bd0:	4791                	li	a5,4
20012bd2:	0cf70163          	beq	a4,a5,20012c94 <__metal_driver_riscv_clint0_command_request+0xf6>
20012bd6:	fd842703          	lw	a4,-40(s0)
20012bda:	4791                	li	a5,4
20012bdc:	0ee7c163          	blt	a5,a4,20012cbe <__metal_driver_riscv_clint0_command_request+0x120>
20012be0:	fd842703          	lw	a4,-40(s0)
20012be4:	478d                	li	a5,3
20012be6:	06f70663          	beq	a4,a5,20012c52 <__metal_driver_riscv_clint0_command_request+0xb4>
20012bea:	fd842703          	lw	a4,-40(s0)
20012bee:	478d                	li	a5,3
20012bf0:	0ce7c763          	blt	a5,a4,20012cbe <__metal_driver_riscv_clint0_command_request+0x120>
20012bf4:	fd842703          	lw	a4,-40(s0)
20012bf8:	4785                	li	a5,1
20012bfa:	00f70863          	beq	a4,a5,20012c0a <__metal_driver_riscv_clint0_command_request+0x6c>
20012bfe:	fd842703          	lw	a4,-40(s0)
20012c02:	4789                	li	a5,2
20012c04:	02f70363          	beq	a4,a5,20012c2a <__metal_driver_riscv_clint0_command_request+0x8c>
E:/GitHub/HiFive01-RevB/FS_workspace/sifive_hifive1_revb_sifive_welcome/freedom-metal/src/drivers/riscv_clint0.c:263
            rc = __METAL_ACCESS_ONCE(
                (__metal_io_u32 *)(control_base + (hartid * 4)));
        }
        break;
    default:
        break;
20012c08:	a85d                	j	20012cbe <__metal_driver_riscv_clint0_command_request+0x120>
E:/GitHub/HiFive01-RevB/FS_workspace/sifive_hifive1_revb_sifive_welcome/freedom-metal/src/drivers/riscv_clint0.c:221
        if (data) {
20012c0a:	fd442783          	lw	a5,-44(s0)
20012c0e:	cbd5                	beqz	a5,20012cc2 <__metal_driver_riscv_clint0_command_request+0x124>
E:/GitHub/HiFive01-RevB/FS_workspace/sifive_hifive1_revb_sifive_welcome/freedom-metal/src/drivers/riscv_clint0.c:222
            *(unsigned long long *)data = __metal_clint0_mtime_get(clint);
20012c10:	fe842503          	lw	a0,-24(s0)
20012c14:	ac1ff0ef          	jal	ra,200126d4 <__metal_clint0_mtime_get>
20012c18:	872a                	mv	a4,a0
20012c1a:	87ae                	mv	a5,a1
20012c1c:	fd442683          	lw	a3,-44(s0)
20012c20:	c298                	sw	a4,0(a3)
20012c22:	c2dc                	sw	a5,4(a3)
E:/GitHub/HiFive01-RevB/FS_workspace/sifive_hifive1_revb_sifive_welcome/freedom-metal/src/drivers/riscv_clint0.c:223
            rc = 0;
20012c24:	fe042623          	sw	zero,-20(s0)
E:/GitHub/HiFive01-RevB/FS_workspace/sifive_hifive1_revb_sifive_welcome/freedom-metal/src/drivers/riscv_clint0.c:225
        break;
20012c28:	a869                	j	20012cc2 <__metal_driver_riscv_clint0_command_request+0x124>
E:/GitHub/HiFive01-RevB/FS_workspace/sifive_hifive1_revb_sifive_welcome/freedom-metal/src/drivers/riscv_clint0.c:227
        if (data) {
20012c2a:	fd442783          	lw	a5,-44(s0)
20012c2e:	cfc1                	beqz	a5,20012cc6 <__metal_driver_riscv_clint0_command_request+0x128>
E:/GitHub/HiFive01-RevB/FS_workspace/sifive_hifive1_revb_sifive_welcome/freedom-metal/src/drivers/riscv_clint0.c:228
            hartid = *(int *)data;
20012c30:	fd442783          	lw	a5,-44(s0)
20012c34:	439c                	lw	a5,0(a5)
20012c36:	fef42023          	sw	a5,-32(s0)
E:/GitHub/HiFive01-RevB/FS_workspace/sifive_hifive1_revb_sifive_welcome/freedom-metal/src/drivers/riscv_clint0.c:229
            __METAL_ACCESS_ONCE((
20012c3a:	fe042783          	lw	a5,-32(s0)
20012c3e:	078a                	slli	a5,a5,0x2
20012c40:	873e                	mv	a4,a5
20012c42:	fe442783          	lw	a5,-28(s0)
20012c46:	97ba                	add	a5,a5,a4
E:/GitHub/HiFive01-RevB/FS_workspace/sifive_hifive1_revb_sifive_welcome/freedom-metal/src/drivers/riscv_clint0.c:230
                __metal_io_u32 *)(control_base + (hartid * 4))) = METAL_DISABLE;
20012c48:	0007a023          	sw	zero,0(a5) # 4000 <__heap_size+0x3800>
E:/GitHub/HiFive01-RevB/FS_workspace/sifive_hifive1_revb_sifive_welcome/freedom-metal/src/drivers/riscv_clint0.c:231
            rc = 0;
20012c4c:	fe042623          	sw	zero,-20(s0)
E:/GitHub/HiFive01-RevB/FS_workspace/sifive_hifive1_revb_sifive_welcome/freedom-metal/src/drivers/riscv_clint0.c:233
        break;
20012c50:	a89d                	j	20012cc6 <__metal_driver_riscv_clint0_command_request+0x128>
E:/GitHub/HiFive01-RevB/FS_workspace/sifive_hifive1_revb_sifive_welcome/freedom-metal/src/drivers/riscv_clint0.c:235
        if (data) {
20012c52:	fd442783          	lw	a5,-44(s0)
20012c56:	cbb5                	beqz	a5,20012cca <__metal_driver_riscv_clint0_command_request+0x12c>
E:/GitHub/HiFive01-RevB/FS_workspace/sifive_hifive1_revb_sifive_welcome/freedom-metal/src/drivers/riscv_clint0.c:236
            hartid = *(int *)data;
20012c58:	fd442783          	lw	a5,-44(s0)
20012c5c:	439c                	lw	a5,0(a5)
20012c5e:	fef42023          	sw	a5,-32(s0)
E:/GitHub/HiFive01-RevB/FS_workspace/sifive_hifive1_revb_sifive_welcome/freedom-metal/src/drivers/riscv_clint0.c:237
            __METAL_ACCESS_ONCE(
20012c62:	fe042783          	lw	a5,-32(s0)
20012c66:	078a                	slli	a5,a5,0x2
20012c68:	873e                	mv	a4,a5
20012c6a:	fe442783          	lw	a5,-28(s0)
20012c6e:	97ba                	add	a5,a5,a4
20012c70:	873e                	mv	a4,a5
E:/GitHub/HiFive01-RevB/FS_workspace/sifive_hifive1_revb_sifive_welcome/freedom-metal/src/drivers/riscv_clint0.c:238
                (__metal_io_u32 *)(control_base + (hartid * 4))) = METAL_ENABLE;
20012c72:	4785                	li	a5,1
20012c74:	c31c                	sw	a5,0(a4)
E:/GitHub/HiFive01-RevB/FS_workspace/sifive_hifive1_revb_sifive_welcome/freedom-metal/src/drivers/riscv_clint0.c:248
            __METAL_IO_FENCE(o, i);
20012c76:	0480000f          	fence	o,i
E:/GitHub/HiFive01-RevB/FS_workspace/sifive_hifive1_revb_sifive_welcome/freedom-metal/src/drivers/riscv_clint0.c:249
            rc = __METAL_ACCESS_ONCE(
20012c7a:	fe042783          	lw	a5,-32(s0)
20012c7e:	078a                	slli	a5,a5,0x2
20012c80:	873e                	mv	a4,a5
20012c82:	fe442783          	lw	a5,-28(s0)
20012c86:	97ba                	add	a5,a5,a4
20012c88:	439c                	lw	a5,0(a5)
20012c8a:	fef42623          	sw	a5,-20(s0)
E:/GitHub/HiFive01-RevB/FS_workspace/sifive_hifive1_revb_sifive_welcome/freedom-metal/src/drivers/riscv_clint0.c:251
            rc = 0;
20012c8e:	fe042623          	sw	zero,-20(s0)
E:/GitHub/HiFive01-RevB/FS_workspace/sifive_hifive1_revb_sifive_welcome/freedom-metal/src/drivers/riscv_clint0.c:253
        break;
20012c92:	a825                	j	20012cca <__metal_driver_riscv_clint0_command_request+0x12c>
E:/GitHub/HiFive01-RevB/FS_workspace/sifive_hifive1_revb_sifive_welcome/freedom-metal/src/drivers/riscv_clint0.c:255
        rc = 0;
20012c94:	fe042623          	sw	zero,-20(s0)
E:/GitHub/HiFive01-RevB/FS_workspace/sifive_hifive1_revb_sifive_welcome/freedom-metal/src/drivers/riscv_clint0.c:256
        if (data) {
20012c98:	fd442783          	lw	a5,-44(s0)
20012c9c:	cb8d                	beqz	a5,20012cce <__metal_driver_riscv_clint0_command_request+0x130>
E:/GitHub/HiFive01-RevB/FS_workspace/sifive_hifive1_revb_sifive_welcome/freedom-metal/src/drivers/riscv_clint0.c:257
            hartid = *(int *)data;
20012c9e:	fd442783          	lw	a5,-44(s0)
20012ca2:	439c                	lw	a5,0(a5)
20012ca4:	fef42023          	sw	a5,-32(s0)
E:/GitHub/HiFive01-RevB/FS_workspace/sifive_hifive1_revb_sifive_welcome/freedom-metal/src/drivers/riscv_clint0.c:258
            rc = __METAL_ACCESS_ONCE(
20012ca8:	fe042783          	lw	a5,-32(s0)
20012cac:	078a                	slli	a5,a5,0x2
20012cae:	873e                	mv	a4,a5
20012cb0:	fe442783          	lw	a5,-28(s0)
20012cb4:	97ba                	add	a5,a5,a4
20012cb6:	439c                	lw	a5,0(a5)
20012cb8:	fef42623          	sw	a5,-20(s0)
E:/GitHub/HiFive01-RevB/FS_workspace/sifive_hifive1_revb_sifive_welcome/freedom-metal/src/drivers/riscv_clint0.c:261
        break;
20012cbc:	a809                	j	20012cce <__metal_driver_riscv_clint0_command_request+0x130>
E:/GitHub/HiFive01-RevB/FS_workspace/sifive_hifive1_revb_sifive_welcome/freedom-metal/src/drivers/riscv_clint0.c:263
        break;
20012cbe:	0001                	nop
20012cc0:	a801                	j	20012cd0 <__metal_driver_riscv_clint0_command_request+0x132>
E:/GitHub/HiFive01-RevB/FS_workspace/sifive_hifive1_revb_sifive_welcome/freedom-metal/src/drivers/riscv_clint0.c:225
        break;
20012cc2:	0001                	nop
20012cc4:	a031                	j	20012cd0 <__metal_driver_riscv_clint0_command_request+0x132>
E:/GitHub/HiFive01-RevB/FS_workspace/sifive_hifive1_revb_sifive_welcome/freedom-metal/src/drivers/riscv_clint0.c:233
        break;
20012cc6:	0001                	nop
20012cc8:	a021                	j	20012cd0 <__metal_driver_riscv_clint0_command_request+0x132>
E:/GitHub/HiFive01-RevB/FS_workspace/sifive_hifive1_revb_sifive_welcome/freedom-metal/src/drivers/riscv_clint0.c:253
        break;
20012cca:	0001                	nop
20012ccc:	a011                	j	20012cd0 <__metal_driver_riscv_clint0_command_request+0x132>
E:/GitHub/HiFive01-RevB/FS_workspace/sifive_hifive1_revb_sifive_welcome/freedom-metal/src/drivers/riscv_clint0.c:261
        break;
20012cce:	0001                	nop
E:/GitHub/HiFive01-RevB/FS_workspace/sifive_hifive1_revb_sifive_welcome/freedom-metal/src/drivers/riscv_clint0.c:266
    }

    return rc;
20012cd0:	fec42783          	lw	a5,-20(s0)
E:/GitHub/HiFive01-RevB/FS_workspace/sifive_hifive1_revb_sifive_welcome/freedom-metal/src/drivers/riscv_clint0.c:267
}
20012cd4:	853e                	mv	a0,a5
20012cd6:	50b2                	lw	ra,44(sp)
20012cd8:	5422                	lw	s0,40(sp)
20012cda:	6145                	addi	sp,sp,48
20012cdc:	8082                	ret

20012cde <__metal_driver_riscv_clint0_clear_interrupt>:
__metal_driver_riscv_clint0_clear_interrupt():
E:/GitHub/HiFive01-RevB/FS_workspace/sifive_hifive1_revb_sifive_welcome/freedom-metal/src/drivers/riscv_clint0.c:270

int __metal_driver_riscv_clint0_clear_interrupt(
    struct metal_interrupt *controller, int id) {
20012cde:	7179                	addi	sp,sp,-48
20012ce0:	d606                	sw	ra,44(sp)
20012ce2:	d422                	sw	s0,40(sp)
20012ce4:	1800                	addi	s0,sp,48
20012ce6:	fca42e23          	sw	a0,-36(s0)
20012cea:	fcb42c23          	sw	a1,-40(s0)
E:/GitHub/HiFive01-RevB/FS_workspace/sifive_hifive1_revb_sifive_welcome/freedom-metal/src/drivers/riscv_clint0.c:271
    int hartid = metal_cpu_get_current_hartid();
20012cee:	f4eff0ef          	jal	ra,2001243c <metal_cpu_get_current_hartid>
20012cf2:	87aa                	mv	a5,a0
20012cf4:	fef42623          	sw	a5,-20(s0)
E:/GitHub/HiFive01-RevB/FS_workspace/sifive_hifive1_revb_sifive_welcome/freedom-metal/src/drivers/riscv_clint0.c:272
    return __metal_driver_riscv_clint0_command_request(
20012cf8:	fec40793          	addi	a5,s0,-20
20012cfc:	863e                	mv	a2,a5
20012cfe:	4589                	li	a1,2
20012d00:	fdc42503          	lw	a0,-36(s0)
20012d04:	3d69                	jal	20012b9e <__metal_driver_riscv_clint0_command_request>
20012d06:	87aa                	mv	a5,a0
E:/GitHub/HiFive01-RevB/FS_workspace/sifive_hifive1_revb_sifive_welcome/freedom-metal/src/drivers/riscv_clint0.c:274
        controller, METAL_SOFTWARE_IPI_CLEAR, &hartid);
}
20012d08:	853e                	mv	a0,a5
20012d0a:	50b2                	lw	ra,44(sp)
20012d0c:	5422                	lw	s0,40(sp)
20012d0e:	6145                	addi	sp,sp,48
20012d10:	8082                	ret

20012d12 <__metal_driver_riscv_clint0_set_interrupt>:
__metal_driver_riscv_clint0_set_interrupt():
E:/GitHub/HiFive01-RevB/FS_workspace/sifive_hifive1_revb_sifive_welcome/freedom-metal/src/drivers/riscv_clint0.c:277

int __metal_driver_riscv_clint0_set_interrupt(
    struct metal_interrupt *controller, int id) {
20012d12:	7179                	addi	sp,sp,-48
20012d14:	d606                	sw	ra,44(sp)
20012d16:	d422                	sw	s0,40(sp)
20012d18:	1800                	addi	s0,sp,48
20012d1a:	fca42e23          	sw	a0,-36(s0)
20012d1e:	fcb42c23          	sw	a1,-40(s0)
E:/GitHub/HiFive01-RevB/FS_workspace/sifive_hifive1_revb_sifive_welcome/freedom-metal/src/drivers/riscv_clint0.c:278
    int hartid = metal_cpu_get_current_hartid();
20012d22:	f1aff0ef          	jal	ra,2001243c <metal_cpu_get_current_hartid>
20012d26:	87aa                	mv	a5,a0
20012d28:	fef42623          	sw	a5,-20(s0)
E:/GitHub/HiFive01-RevB/FS_workspace/sifive_hifive1_revb_sifive_welcome/freedom-metal/src/drivers/riscv_clint0.c:279
    return __metal_driver_riscv_clint0_command_request(
20012d2c:	fec40793          	addi	a5,s0,-20
20012d30:	863e                	mv	a2,a5
20012d32:	458d                	li	a1,3
20012d34:	fdc42503          	lw	a0,-36(s0)
20012d38:	359d                	jal	20012b9e <__metal_driver_riscv_clint0_command_request>
20012d3a:	87aa                	mv	a5,a0
E:/GitHub/HiFive01-RevB/FS_workspace/sifive_hifive1_revb_sifive_welcome/freedom-metal/src/drivers/riscv_clint0.c:281
        controller, METAL_SOFTWARE_IPI_SET, &hartid);
}
20012d3c:	853e                	mv	a0,a5
20012d3e:	50b2                	lw	ra,44(sp)
20012d40:	5422                	lw	s0,40(sp)
20012d42:	6145                	addi	sp,sp,48
20012d44:	8082                	ret

20012d46 <__metal_driver_cpu_hartid>:
__metal_driver_cpu_hartid():
E:\GitHub\HiFive01-RevB\FS_workspace\sifive_hifive1_revb_sifive_welcome\bsp\build\debug/./metal/machine.h:292



/* --------------------- cpu ------------ */
static __inline__ int __metal_driver_cpu_hartid(struct metal_cpu *cpu)
{
20012d46:	1101                	addi	sp,sp,-32
20012d48:	ce22                	sw	s0,28(sp)
20012d4a:	1000                	addi	s0,sp,32
20012d4c:	fea42623          	sw	a0,-20(s0)
E:\GitHub\HiFive01-RevB\FS_workspace\sifive_hifive1_revb_sifive_welcome\bsp\build\debug/./metal/machine.h:293
	if ((uintptr_t)cpu == (uintptr_t)&__metal_dt_cpu_0) {
20012d50:	fec42703          	lw	a4,-20(s0)
20012d54:	81018793          	addi	a5,gp,-2032 # 80000ac0 <__metal_dt_cpu_0>
20012d58:	00f71463          	bne	a4,a5,20012d60 <__metal_driver_cpu_hartid+0x1a>
E:\GitHub\HiFive01-RevB\FS_workspace\sifive_hifive1_revb_sifive_welcome\bsp\build\debug/./metal/machine.h:294
		return 0;
20012d5c:	4781                	li	a5,0
20012d5e:	a011                	j	20012d62 <__metal_driver_cpu_hartid+0x1c>
E:\GitHub\HiFive01-RevB\FS_workspace\sifive_hifive1_revb_sifive_welcome\bsp\build\debug/./metal/machine.h:297
	}
	else {
		return -1;
20012d60:	57fd                	li	a5,-1
E:\GitHub\HiFive01-RevB\FS_workspace\sifive_hifive1_revb_sifive_welcome\bsp\build\debug/./metal/machine.h:299
	}
}
20012d62:	853e                	mv	a0,a5
20012d64:	4472                	lw	s0,28(sp)
20012d66:	6105                	addi	sp,sp,32
20012d68:	8082                	ret

20012d6a <__metal_driver_cpu_timebase>:
__metal_driver_cpu_timebase():
E:\GitHub\HiFive01-RevB\FS_workspace\sifive_hifive1_revb_sifive_welcome\bsp\build\debug/./metal/machine.h:302

static __inline__ int __metal_driver_cpu_timebase(struct metal_cpu *cpu)
{
20012d6a:	1101                	addi	sp,sp,-32
20012d6c:	ce22                	sw	s0,28(sp)
20012d6e:	1000                	addi	s0,sp,32
20012d70:	fea42623          	sw	a0,-20(s0)
E:\GitHub\HiFive01-RevB\FS_workspace\sifive_hifive1_revb_sifive_welcome\bsp\build\debug/./metal/machine.h:303
	if ((uintptr_t)cpu == (uintptr_t)&__metal_dt_cpu_0) {
20012d74:	fec42703          	lw	a4,-20(s0)
20012d78:	81018793          	addi	a5,gp,-2032 # 80000ac0 <__metal_dt_cpu_0>
20012d7c:	00f71763          	bne	a4,a5,20012d8a <__metal_driver_cpu_timebase+0x20>
E:\GitHub\HiFive01-RevB\FS_workspace\sifive_hifive1_revb_sifive_welcome\bsp\build\debug/./metal/machine.h:304
		return 16000000;
20012d80:	00f427b7          	lui	a5,0xf42
20012d84:	40078793          	addi	a5,a5,1024 # f42400 <__heap_size+0xf41c00>
20012d88:	a011                	j	20012d8c <__metal_driver_cpu_timebase+0x22>
E:\GitHub\HiFive01-RevB\FS_workspace\sifive_hifive1_revb_sifive_welcome\bsp\build\debug/./metal/machine.h:307
	}
	else {
		return 0;
20012d8a:	4781                	li	a5,0
E:\GitHub\HiFive01-RevB\FS_workspace\sifive_hifive1_revb_sifive_welcome\bsp\build\debug/./metal/machine.h:309
	}
}
20012d8c:	853e                	mv	a0,a5
20012d8e:	4472                	lw	s0,28(sp)
20012d90:	6105                	addi	sp,sp,32
20012d92:	8082                	ret

20012d94 <__metal_driver_cpu_interrupt_controller>:
__metal_driver_cpu_interrupt_controller():
E:\GitHub\HiFive01-RevB\FS_workspace\sifive_hifive1_revb_sifive_welcome\bsp\build\debug/./metal/machine.h:312

static __inline__ struct metal_interrupt * __metal_driver_cpu_interrupt_controller(struct metal_cpu *cpu)
{
20012d94:	1101                	addi	sp,sp,-32
20012d96:	ce22                	sw	s0,28(sp)
20012d98:	1000                	addi	s0,sp,32
20012d9a:	fea42623          	sw	a0,-20(s0)
E:\GitHub\HiFive01-RevB\FS_workspace\sifive_hifive1_revb_sifive_welcome\bsp\build\debug/./metal/machine.h:313
	if ((uintptr_t)cpu == (uintptr_t)&__metal_dt_cpu_0) {
20012d9e:	fec42703          	lw	a4,-20(s0)
20012da2:	81018793          	addi	a5,gp,-2032 # 80000ac0 <__metal_dt_cpu_0>
20012da6:	00f71763          	bne	a4,a5,20012db4 <__metal_driver_cpu_interrupt_controller+0x20>
E:\GitHub\HiFive01-RevB\FS_workspace\sifive_hifive1_revb_sifive_welcome\bsp\build\debug/./metal/machine.h:314
		return &__metal_dt_cpu_0_interrupt_controller.controller;
20012daa:	800007b7          	lui	a5,0x80000
20012dae:	0a078793          	addi	a5,a5,160 # 800000a0 <metal_segment_heap_target_end+0xffffe900>
20012db2:	a011                	j	20012db6 <__metal_driver_cpu_interrupt_controller+0x22>
E:\GitHub\HiFive01-RevB\FS_workspace\sifive_hifive1_revb_sifive_welcome\bsp\build\debug/./metal/machine.h:317
	}
	else {
		return NULL;
20012db4:	4781                	li	a5,0
E:\GitHub\HiFive01-RevB\FS_workspace\sifive_hifive1_revb_sifive_welcome\bsp\build\debug/./metal/machine.h:319
	}
}
20012db6:	853e                	mv	a0,a5
20012db8:	4472                	lw	s0,28(sp)
20012dba:	6105                	addi	sp,sp,32
20012dbc:	8082                	ret

20012dbe <__metal_driver_cpu_buserror>:
__metal_driver_cpu_buserror():
E:\GitHub\HiFive01-RevB\FS_workspace\sifive_hifive1_revb_sifive_welcome\bsp\build\debug/./metal/machine.h:332
		return 0;
	}
}

static __inline__ struct metal_buserror * __metal_driver_cpu_buserror(struct metal_cpu *cpu)
{
20012dbe:	1101                	addi	sp,sp,-32
20012dc0:	ce22                	sw	s0,28(sp)
20012dc2:	1000                	addi	s0,sp,32
20012dc4:	fea42623          	sw	a0,-20(s0)
E:\GitHub\HiFive01-RevB\FS_workspace\sifive_hifive1_revb_sifive_welcome\bsp\build\debug/./metal/machine.h:333
	if ((uintptr_t)cpu == (uintptr_t)&__metal_dt_cpu_0) {
20012dc8:	fec42703          	lw	a4,-20(s0)
20012dcc:	81018793          	addi	a5,gp,-2032 # 80000ac0 <__metal_dt_cpu_0>
20012dd0:	00f71463          	bne	a4,a5,20012dd8 <__metal_driver_cpu_buserror+0x1a>
E:\GitHub\HiFive01-RevB\FS_workspace\sifive_hifive1_revb_sifive_welcome\bsp\build\debug/./metal/machine.h:334
		return NULL;
20012dd4:	4781                	li	a5,0
20012dd6:	a011                	j	20012dda <__metal_driver_cpu_buserror+0x1c>
E:\GitHub\HiFive01-RevB\FS_workspace\sifive_hifive1_revb_sifive_welcome\bsp\build\debug/./metal/machine.h:337
	}
	else {
		return NULL;
20012dd8:	4781                	li	a5,0
E:\GitHub\HiFive01-RevB\FS_workspace\sifive_hifive1_revb_sifive_welcome\bsp\build\debug/./metal/machine.h:339
	}
}
20012dda:	853e                	mv	a0,a5
20012ddc:	4472                	lw	s0,28(sp)
20012dde:	6105                	addi	sp,sp,32
20012de0:	8082                	ret

20012de2 <__metal_driver_cpu_get>:
__metal_driver_cpu_get():
E:/GitHub/HiFive01-RevB/FS_workspace/sifive_hifive1_revb_sifive_welcome/freedom-metal/src/drivers/riscv_cpu.c:25
extern void __metal_vector_table();
unsigned long long __metal_driver_cpu_mtime_get(struct metal_cpu *cpu);
int __metal_driver_cpu_mtimecmp_set(struct metal_cpu *cpu,
                                    unsigned long long time);

struct metal_cpu *__metal_driver_cpu_get(int hartid) {
20012de2:	1101                	addi	sp,sp,-32
20012de4:	ce22                	sw	s0,28(sp)
20012de6:	1000                	addi	s0,sp,32
20012de8:	fea42623          	sw	a0,-20(s0)
E:/GitHub/HiFive01-RevB/FS_workspace/sifive_hifive1_revb_sifive_welcome/freedom-metal/src/drivers/riscv_cpu.c:26
    if (hartid < __METAL_DT_MAX_HARTS) {
20012dec:	fec42783          	lw	a5,-20(s0)
20012df0:	00f04c63          	bgtz	a5,20012e08 <__metal_driver_cpu_get+0x26>
E:/GitHub/HiFive01-RevB/FS_workspace/sifive_hifive1_revb_sifive_welcome/freedom-metal/src/drivers/riscv_cpu.c:27
        return &(__metal_cpu_table[hartid]->cpu);
20012df4:	800017b7          	lui	a5,0x80001
20012df8:	fec42703          	lw	a4,-20(s0)
20012dfc:	070a                	slli	a4,a4,0x2
20012dfe:	ab478793          	addi	a5,a5,-1356 # 80000ab4 <metal_segment_heap_target_end+0xfffff314>
20012e02:	97ba                	add	a5,a5,a4
20012e04:	439c                	lw	a5,0(a5)
20012e06:	a011                	j	20012e0a <__metal_driver_cpu_get+0x28>
E:/GitHub/HiFive01-RevB/FS_workspace/sifive_hifive1_revb_sifive_welcome/freedom-metal/src/drivers/riscv_cpu.c:29
    }
    return (struct metal_cpu *)NULL;
20012e08:	4781                	li	a5,0
E:/GitHub/HiFive01-RevB/FS_workspace/sifive_hifive1_revb_sifive_welcome/freedom-metal/src/drivers/riscv_cpu.c:30
}
20012e0a:	853e                	mv	a0,a5
20012e0c:	4472                	lw	s0,28(sp)
20012e0e:	6105                	addi	sp,sp,32
20012e10:	8082                	ret

20012e12 <__metal_myhart_id>:
__metal_myhart_id():
E:/GitHub/HiFive01-RevB/FS_workspace/sifive_hifive1_revb_sifive_welcome/freedom-metal/src/drivers/riscv_cpu.c:32

uintptr_t __metal_myhart_id(void) {
20012e12:	1101                	addi	sp,sp,-32
20012e14:	ce22                	sw	s0,28(sp)
20012e16:	1000                	addi	s0,sp,32
E:/GitHub/HiFive01-RevB/FS_workspace/sifive_hifive1_revb_sifive_welcome/freedom-metal/src/drivers/riscv_cpu.c:34
    uintptr_t myhart;
    __asm__ volatile("csrr %0, mhartid" : "=r"(myhart));
20012e18:	f14027f3          	csrr	a5,mhartid
20012e1c:	fef42623          	sw	a5,-20(s0)
E:/GitHub/HiFive01-RevB/FS_workspace/sifive_hifive1_revb_sifive_welcome/freedom-metal/src/drivers/riscv_cpu.c:35
    return myhart;
20012e20:	fec42783          	lw	a5,-20(s0)
E:/GitHub/HiFive01-RevB/FS_workspace/sifive_hifive1_revb_sifive_welcome/freedom-metal/src/drivers/riscv_cpu.c:36
}
20012e24:	853e                	mv	a0,a5
20012e26:	4472                	lw	s0,28(sp)
20012e28:	6105                	addi	sp,sp,32
20012e2a:	8082                	ret

20012e2c <__metal_interrupt_global_enable>:
__metal_interrupt_global_enable():
E:/GitHub/HiFive01-RevB/FS_workspace/sifive_hifive1_revb_sifive_welcome/freedom-metal/src/drivers/riscv_cpu.c:45
    for (ptr = base; ptr < (base + size); ptr++) {
        *ptr = 0;
    }
}

void __metal_interrupt_global_enable(void) {
20012e2c:	1101                	addi	sp,sp,-32
20012e2e:	ce22                	sw	s0,28(sp)
20012e30:	1000                	addi	s0,sp,32
E:/GitHub/HiFive01-RevB/FS_workspace/sifive_hifive1_revb_sifive_welcome/freedom-metal/src/drivers/riscv_cpu.c:47
    uintptr_t m;
    __asm__ volatile("csrrs %0, mstatus, %1"
20012e32:	47a1                	li	a5,8
20012e34:	3007a7f3          	csrrs	a5,mstatus,a5
20012e38:	fef42623          	sw	a5,-20(s0)
E:/GitHub/HiFive01-RevB/FS_workspace/sifive_hifive1_revb_sifive_welcome/freedom-metal/src/drivers/riscv_cpu.c:50
                     : "=r"(m)
                     : "r"(METAL_MIE_INTERRUPT));
}
20012e3c:	0001                	nop
20012e3e:	4472                	lw	s0,28(sp)
20012e40:	6105                	addi	sp,sp,32
20012e42:	8082                	ret

20012e44 <__metal_interrupt_global_disable>:
__metal_interrupt_global_disable():
E:/GitHub/HiFive01-RevB/FS_workspace/sifive_hifive1_revb_sifive_welcome/freedom-metal/src/drivers/riscv_cpu.c:52

void __metal_interrupt_global_disable(void) {
20012e44:	1101                	addi	sp,sp,-32
20012e46:	ce22                	sw	s0,28(sp)
20012e48:	1000                	addi	s0,sp,32
E:/GitHub/HiFive01-RevB/FS_workspace/sifive_hifive1_revb_sifive_welcome/freedom-metal/src/drivers/riscv_cpu.c:54
    uintptr_t m;
    __asm__ volatile("csrrc %0, mstatus, %1"
20012e4a:	47a1                	li	a5,8
20012e4c:	3007b7f3          	csrrc	a5,mstatus,a5
20012e50:	fef42623          	sw	a5,-20(s0)
E:/GitHub/HiFive01-RevB/FS_workspace/sifive_hifive1_revb_sifive_welcome/freedom-metal/src/drivers/riscv_cpu.c:57
                     : "=r"(m)
                     : "r"(METAL_MIE_INTERRUPT));
}
20012e54:	0001                	nop
20012e56:	4472                	lw	s0,28(sp)
20012e58:	6105                	addi	sp,sp,32
20012e5a:	8082                	ret

20012e5c <__metal_interrupt_software_enable>:
__metal_interrupt_software_enable():
E:/GitHub/HiFive01-RevB/FS_workspace/sifive_hifive1_revb_sifive_welcome/freedom-metal/src/drivers/riscv_cpu.c:59

void __metal_interrupt_software_enable(void) {
20012e5c:	1101                	addi	sp,sp,-32
20012e5e:	ce22                	sw	s0,28(sp)
20012e60:	1000                	addi	s0,sp,32
E:/GitHub/HiFive01-RevB/FS_workspace/sifive_hifive1_revb_sifive_welcome/freedom-metal/src/drivers/riscv_cpu.c:61
    uintptr_t m;
    __asm__ volatile("csrrs %0, mie, %1"
20012e62:	47a1                	li	a5,8
20012e64:	3047a7f3          	csrrs	a5,mie,a5
20012e68:	fef42623          	sw	a5,-20(s0)
E:/GitHub/HiFive01-RevB/FS_workspace/sifive_hifive1_revb_sifive_welcome/freedom-metal/src/drivers/riscv_cpu.c:64
                     : "=r"(m)
                     : "r"(METAL_LOCAL_INTERRUPT_SW));
}
20012e6c:	0001                	nop
20012e6e:	4472                	lw	s0,28(sp)
20012e70:	6105                	addi	sp,sp,32
20012e72:	8082                	ret

20012e74 <__metal_interrupt_software_disable>:
__metal_interrupt_software_disable():
E:/GitHub/HiFive01-RevB/FS_workspace/sifive_hifive1_revb_sifive_welcome/freedom-metal/src/drivers/riscv_cpu.c:66

void __metal_interrupt_software_disable(void) {
20012e74:	1101                	addi	sp,sp,-32
20012e76:	ce22                	sw	s0,28(sp)
20012e78:	1000                	addi	s0,sp,32
E:/GitHub/HiFive01-RevB/FS_workspace/sifive_hifive1_revb_sifive_welcome/freedom-metal/src/drivers/riscv_cpu.c:68
    uintptr_t m;
    __asm__ volatile("csrrc %0, mie, %1"
20012e7a:	47a1                	li	a5,8
20012e7c:	3047b7f3          	csrrc	a5,mie,a5
20012e80:	fef42623          	sw	a5,-20(s0)
E:/GitHub/HiFive01-RevB/FS_workspace/sifive_hifive1_revb_sifive_welcome/freedom-metal/src/drivers/riscv_cpu.c:71
                     : "=r"(m)
                     : "r"(METAL_LOCAL_INTERRUPT_SW));
}
20012e84:	0001                	nop
20012e86:	4472                	lw	s0,28(sp)
20012e88:	6105                	addi	sp,sp,32
20012e8a:	8082                	ret

20012e8c <__metal_interrupt_timer_enable>:
__metal_interrupt_timer_enable():
E:/GitHub/HiFive01-RevB/FS_workspace/sifive_hifive1_revb_sifive_welcome/freedom-metal/src/drivers/riscv_cpu.c:73

void __metal_interrupt_timer_enable(void) {
20012e8c:	1101                	addi	sp,sp,-32
20012e8e:	ce22                	sw	s0,28(sp)
20012e90:	1000                	addi	s0,sp,32
E:/GitHub/HiFive01-RevB/FS_workspace/sifive_hifive1_revb_sifive_welcome/freedom-metal/src/drivers/riscv_cpu.c:75
    uintptr_t m;
    __asm__ volatile("csrrs %0, mie, %1"
20012e92:	08000793          	li	a5,128
20012e96:	3047a7f3          	csrrs	a5,mie,a5
20012e9a:	fef42623          	sw	a5,-20(s0)
E:/GitHub/HiFive01-RevB/FS_workspace/sifive_hifive1_revb_sifive_welcome/freedom-metal/src/drivers/riscv_cpu.c:78
                     : "=r"(m)
                     : "r"(METAL_LOCAL_INTERRUPT_TMR));
}
20012e9e:	0001                	nop
20012ea0:	4472                	lw	s0,28(sp)
20012ea2:	6105                	addi	sp,sp,32
20012ea4:	8082                	ret

20012ea6 <__metal_interrupt_timer_disable>:
__metal_interrupt_timer_disable():
E:/GitHub/HiFive01-RevB/FS_workspace/sifive_hifive1_revb_sifive_welcome/freedom-metal/src/drivers/riscv_cpu.c:80

void __metal_interrupt_timer_disable(void) {
20012ea6:	1101                	addi	sp,sp,-32
20012ea8:	ce22                	sw	s0,28(sp)
20012eaa:	1000                	addi	s0,sp,32
E:/GitHub/HiFive01-RevB/FS_workspace/sifive_hifive1_revb_sifive_welcome/freedom-metal/src/drivers/riscv_cpu.c:82
    uintptr_t m;
    __asm__ volatile("csrrc %0, mie, %1"
20012eac:	08000793          	li	a5,128
20012eb0:	3047b7f3          	csrrc	a5,mie,a5
20012eb4:	fef42623          	sw	a5,-20(s0)
E:/GitHub/HiFive01-RevB/FS_workspace/sifive_hifive1_revb_sifive_welcome/freedom-metal/src/drivers/riscv_cpu.c:85
                     : "=r"(m)
                     : "r"(METAL_LOCAL_INTERRUPT_TMR));
}
20012eb8:	0001                	nop
20012eba:	4472                	lw	s0,28(sp)
20012ebc:	6105                	addi	sp,sp,32
20012ebe:	8082                	ret

20012ec0 <__metal_interrupt_external_enable>:
__metal_interrupt_external_enable():
E:/GitHub/HiFive01-RevB/FS_workspace/sifive_hifive1_revb_sifive_welcome/freedom-metal/src/drivers/riscv_cpu.c:87

void __metal_interrupt_external_enable(void) {
20012ec0:	1101                	addi	sp,sp,-32
20012ec2:	ce22                	sw	s0,28(sp)
20012ec4:	1000                	addi	s0,sp,32
E:/GitHub/HiFive01-RevB/FS_workspace/sifive_hifive1_revb_sifive_welcome/freedom-metal/src/drivers/riscv_cpu.c:89
    uintptr_t m;
    __asm__ volatile("csrrs %0, mie, %1"
20012ec6:	6785                	lui	a5,0x1
20012ec8:	80078793          	addi	a5,a5,-2048 # 800 <__heap_size>
20012ecc:	3047a7f3          	csrrs	a5,mie,a5
20012ed0:	fef42623          	sw	a5,-20(s0)
E:/GitHub/HiFive01-RevB/FS_workspace/sifive_hifive1_revb_sifive_welcome/freedom-metal/src/drivers/riscv_cpu.c:92
                     : "=r"(m)
                     : "r"(METAL_LOCAL_INTERRUPT_EXT));
}
20012ed4:	0001                	nop
20012ed6:	4472                	lw	s0,28(sp)
20012ed8:	6105                	addi	sp,sp,32
20012eda:	8082                	ret

20012edc <__metal_interrupt_external_disable>:
__metal_interrupt_external_disable():
E:/GitHub/HiFive01-RevB/FS_workspace/sifive_hifive1_revb_sifive_welcome/freedom-metal/src/drivers/riscv_cpu.c:94

void __metal_interrupt_external_disable(void) {
20012edc:	1101                	addi	sp,sp,-32
20012ede:	ce22                	sw	s0,28(sp)
20012ee0:	1000                	addi	s0,sp,32
E:/GitHub/HiFive01-RevB/FS_workspace/sifive_hifive1_revb_sifive_welcome/freedom-metal/src/drivers/riscv_cpu.c:96
    unsigned long m;
    __asm__ volatile("csrrc %0, mie, %1"
20012ee2:	6785                	lui	a5,0x1
20012ee4:	80078793          	addi	a5,a5,-2048 # 800 <__heap_size>
20012ee8:	3047b7f3          	csrrc	a5,mie,a5
20012eec:	fef42623          	sw	a5,-20(s0)
E:/GitHub/HiFive01-RevB/FS_workspace/sifive_hifive1_revb_sifive_welcome/freedom-metal/src/drivers/riscv_cpu.c:99
                     : "=r"(m)
                     : "r"(METAL_LOCAL_INTERRUPT_EXT));
}
20012ef0:	0001                	nop
20012ef2:	4472                	lw	s0,28(sp)
20012ef4:	6105                	addi	sp,sp,32
20012ef6:	8082                	ret

20012ef8 <__metal_interrupt_local_enable>:
__metal_interrupt_local_enable():
E:/GitHub/HiFive01-RevB/FS_workspace/sifive_hifive1_revb_sifive_welcome/freedom-metal/src/drivers/riscv_cpu.c:101

void __metal_interrupt_local_enable(int id) {
20012ef8:	7179                	addi	sp,sp,-48
20012efa:	d622                	sw	s0,44(sp)
20012efc:	1800                	addi	s0,sp,48
20012efe:	fca42e23          	sw	a0,-36(s0)
E:/GitHub/HiFive01-RevB/FS_workspace/sifive_hifive1_revb_sifive_welcome/freedom-metal/src/drivers/riscv_cpu.c:102
    uintptr_t b = 1 << id;
20012f02:	fdc42783          	lw	a5,-36(s0)
20012f06:	4705                	li	a4,1
20012f08:	00f717b3          	sll	a5,a4,a5
20012f0c:	fef42623          	sw	a5,-20(s0)
E:/GitHub/HiFive01-RevB/FS_workspace/sifive_hifive1_revb_sifive_welcome/freedom-metal/src/drivers/riscv_cpu.c:104
    uintptr_t m;
    __asm__ volatile("csrrs %0, mie, %1" : "=r"(m) : "r"(b));
20012f10:	fec42783          	lw	a5,-20(s0)
20012f14:	3047a7f3          	csrrs	a5,mie,a5
20012f18:	fef42423          	sw	a5,-24(s0)
E:/GitHub/HiFive01-RevB/FS_workspace/sifive_hifive1_revb_sifive_welcome/freedom-metal/src/drivers/riscv_cpu.c:105
}
20012f1c:	0001                	nop
20012f1e:	5432                	lw	s0,44(sp)
20012f20:	6145                	addi	sp,sp,48
20012f22:	8082                	ret

20012f24 <__metal_interrupt_local_disable>:
__metal_interrupt_local_disable():
E:/GitHub/HiFive01-RevB/FS_workspace/sifive_hifive1_revb_sifive_welcome/freedom-metal/src/drivers/riscv_cpu.c:107

void __metal_interrupt_local_disable(int id) {
20012f24:	7179                	addi	sp,sp,-48
20012f26:	d622                	sw	s0,44(sp)
20012f28:	1800                	addi	s0,sp,48
20012f2a:	fca42e23          	sw	a0,-36(s0)
E:/GitHub/HiFive01-RevB/FS_workspace/sifive_hifive1_revb_sifive_welcome/freedom-metal/src/drivers/riscv_cpu.c:108
    uintptr_t b = 1 << id;
20012f2e:	fdc42783          	lw	a5,-36(s0)
20012f32:	4705                	li	a4,1
20012f34:	00f717b3          	sll	a5,a4,a5
20012f38:	fef42623          	sw	a5,-20(s0)
E:/GitHub/HiFive01-RevB/FS_workspace/sifive_hifive1_revb_sifive_welcome/freedom-metal/src/drivers/riscv_cpu.c:110
    uintptr_t m;
    __asm__ volatile("csrrc %0, mie, %1" : "=r"(m) : "r"(b));
20012f3c:	fec42783          	lw	a5,-20(s0)
20012f40:	3047b7f3          	csrrc	a5,mie,a5
20012f44:	fef42423          	sw	a5,-24(s0)
E:/GitHub/HiFive01-RevB/FS_workspace/sifive_hifive1_revb_sifive_welcome/freedom-metal/src/drivers/riscv_cpu.c:111
}
20012f48:	0001                	nop
20012f4a:	5432                	lw	s0,44(sp)
20012f4c:	6145                	addi	sp,sp,48
20012f4e:	8082                	ret

20012f50 <__metal_default_exception_handler>:
__metal_default_exception_handler():
E:/GitHub/HiFive01-RevB/FS_workspace/sifive_hifive1_revb_sifive_welcome/freedom-metal/src/drivers/riscv_cpu.c:113

void __metal_default_exception_handler(struct metal_cpu *cpu, int ecode) {
20012f50:	1101                	addi	sp,sp,-32
20012f52:	ce06                	sw	ra,28(sp)
20012f54:	cc22                	sw	s0,24(sp)
20012f56:	1000                	addi	s0,sp,32
20012f58:	fea42623          	sw	a0,-20(s0)
20012f5c:	feb42423          	sw	a1,-24(s0)
E:/GitHub/HiFive01-RevB/FS_workspace/sifive_hifive1_revb_sifive_welcome/freedom-metal/src/drivers/riscv_cpu.c:114
    metal_shutdown(100);
20012f60:	06400513          	li	a0,100
20012f64:	094040ef          	jal	ra,20016ff8 <metal_shutdown>

20012f68 <__metal_default_interrupt_handler>:
__metal_default_interrupt_handler():
E:/GitHub/HiFive01-RevB/FS_workspace/sifive_hifive1_revb_sifive_welcome/freedom-metal/src/drivers/riscv_cpu.c:117
}

void __metal_default_interrupt_handler(int id, void *priv) {
20012f68:	1101                	addi	sp,sp,-32
20012f6a:	ce06                	sw	ra,28(sp)
20012f6c:	cc22                	sw	s0,24(sp)
20012f6e:	1000                	addi	s0,sp,32
20012f70:	fea42623          	sw	a0,-20(s0)
20012f74:	feb42423          	sw	a1,-24(s0)
E:/GitHub/HiFive01-RevB/FS_workspace/sifive_hifive1_revb_sifive_welcome/freedom-metal/src/drivers/riscv_cpu.c:118
    metal_shutdown(200);
20012f78:	0c800513          	li	a0,200
20012f7c:	07c040ef          	jal	ra,20016ff8 <metal_shutdown>

20012f80 <metal_interrupt_vector_handler>:
metal_interrupt_vector_handler():
E:/GitHub/HiFive01-RevB/FS_workspace/sifive_hifive1_revb_sifive_welcome/freedom-metal/src/drivers/riscv_cpu.c:122
}

/* The metal_interrupt_vector_handler() function can be redefined. */
void __attribute__((weak, interrupt)) metal_interrupt_vector_handler(void) {
20012f80:	715d                	addi	sp,sp,-80
20012f82:	c686                	sw	ra,76(sp)
20012f84:	c496                	sw	t0,72(sp)
20012f86:	c29a                	sw	t1,68(sp)
20012f88:	c09e                	sw	t2,64(sp)
20012f8a:	de22                	sw	s0,60(sp)
20012f8c:	dc2a                	sw	a0,56(sp)
20012f8e:	da2e                	sw	a1,52(sp)
20012f90:	d832                	sw	a2,48(sp)
20012f92:	d636                	sw	a3,44(sp)
20012f94:	d43a                	sw	a4,40(sp)
20012f96:	d23e                	sw	a5,36(sp)
20012f98:	d042                	sw	a6,32(sp)
20012f9a:	ce46                	sw	a7,28(sp)
20012f9c:	cc72                	sw	t3,24(sp)
20012f9e:	ca76                	sw	t4,20(sp)
20012fa0:	c87a                	sw	t5,16(sp)
20012fa2:	c67e                	sw	t6,12(sp)
20012fa4:	0880                	addi	s0,sp,80
E:/GitHub/HiFive01-RevB/FS_workspace/sifive_hifive1_revb_sifive_welcome/freedom-metal/src/drivers/riscv_cpu.c:123
    metal_shutdown(300);
20012fa6:	12c00513          	li	a0,300
20012faa:	04e040ef          	jal	ra,20016ff8 <metal_shutdown>

20012fae <metal_software_interrupt_vector_handler>:
metal_software_interrupt_vector_handler():
E:/GitHub/HiFive01-RevB/FS_workspace/sifive_hifive1_revb_sifive_welcome/freedom-metal/src/drivers/riscv_cpu.c:128
}

/* The metal_software_interrupt_vector_handler() function can be redefined. */
void __attribute__((weak, interrupt))
metal_software_interrupt_vector_handler(void) {
20012fae:	711d                	addi	sp,sp,-96
20012fb0:	ce86                	sw	ra,92(sp)
20012fb2:	cc96                	sw	t0,88(sp)
20012fb4:	ca9a                	sw	t1,84(sp)
20012fb6:	c89e                	sw	t2,80(sp)
20012fb8:	c6a2                	sw	s0,76(sp)
20012fba:	c4aa                	sw	a0,72(sp)
20012fbc:	c2ae                	sw	a1,68(sp)
20012fbe:	c0b2                	sw	a2,64(sp)
20012fc0:	de36                	sw	a3,60(sp)
20012fc2:	dc3a                	sw	a4,56(sp)
20012fc4:	da3e                	sw	a5,52(sp)
20012fc6:	d842                	sw	a6,48(sp)
20012fc8:	d646                	sw	a7,44(sp)
20012fca:	d472                	sw	t3,40(sp)
20012fcc:	d276                	sw	t4,36(sp)
20012fce:	d07a                	sw	t5,32(sp)
20012fd0:	ce7e                	sw	t6,28(sp)
20012fd2:	1080                	addi	s0,sp,96
E:/GitHub/HiFive01-RevB/FS_workspace/sifive_hifive1_revb_sifive_welcome/freedom-metal/src/drivers/riscv_cpu.c:129
    __METAL_IRQ_VECTOR_HANDLER(METAL_INTERRUPT_ID_SW);
20012fd4:	3d3d                	jal	20012e12 <__metal_myhart_id>
20012fd6:	872a                	mv	a4,a0
20012fd8:	800017b7          	lui	a5,0x80001
20012fdc:	070a                	slli	a4,a4,0x2
20012fde:	ab478793          	addi	a5,a5,-1356 # 80000ab4 <metal_segment_heap_target_end+0xfffff314>
20012fe2:	97ba                	add	a5,a5,a4
20012fe4:	439c                	lw	a5,0(a5)
20012fe6:	faf42623          	sw	a5,-84(s0)
20012fea:	fac42783          	lw	a5,-84(s0)
20012fee:	c785                	beqz	a5,20013016 <metal_software_interrupt_vector_handler+0x68>
E:/GitHub/HiFive01-RevB/FS_workspace/sifive_hifive1_revb_sifive_welcome/freedom-metal/src/drivers/riscv_cpu.c:129 (discriminator 1)
20012ff0:	fac42503          	lw	a0,-84(s0)
20012ff4:	3345                	jal	20012d94 <__metal_driver_cpu_interrupt_controller>
20012ff6:	faa42423          	sw	a0,-88(s0)
20012ffa:	fa842783          	lw	a5,-88(s0)
20012ffe:	0e07a783          	lw	a5,224(a5)
20013002:	faf42223          	sw	a5,-92(s0)
20013006:	fa842783          	lw	a5,-88(s0)
2001300a:	0d87a783          	lw	a5,216(a5)
2001300e:	fa442583          	lw	a1,-92(s0)
20013012:	450d                	li	a0,3
20013014:	9782                	jalr	a5
E:/GitHub/HiFive01-RevB/FS_workspace/sifive_hifive1_revb_sifive_welcome/freedom-metal/src/drivers/riscv_cpu.c:130
}
20013016:	0001                	nop
20013018:	40f6                	lw	ra,92(sp)
2001301a:	42e6                	lw	t0,88(sp)
2001301c:	4356                	lw	t1,84(sp)
2001301e:	43c6                	lw	t2,80(sp)
20013020:	4436                	lw	s0,76(sp)
20013022:	4526                	lw	a0,72(sp)
20013024:	4596                	lw	a1,68(sp)
20013026:	4606                	lw	a2,64(sp)
20013028:	56f2                	lw	a3,60(sp)
2001302a:	5762                	lw	a4,56(sp)
2001302c:	57d2                	lw	a5,52(sp)
2001302e:	5842                	lw	a6,48(sp)
20013030:	58b2                	lw	a7,44(sp)
20013032:	5e22                	lw	t3,40(sp)
20013034:	5e92                	lw	t4,36(sp)
20013036:	5f02                	lw	t5,32(sp)
20013038:	4ff2                	lw	t6,28(sp)
2001303a:	6125                	addi	sp,sp,96
2001303c:	30200073          	mret

20013040 <__metal_default_sw_handler>:
__metal_default_sw_handler():
E:/GitHub/HiFive01-RevB/FS_workspace/sifive_hifive1_revb_sifive_welcome/freedom-metal/src/drivers/riscv_cpu.c:132

void __metal_default_sw_handler(int id, void *priv) {
20013040:	7179                	addi	sp,sp,-48
20013042:	d606                	sw	ra,44(sp)
20013044:	d422                	sw	s0,40(sp)
20013046:	1800                	addi	s0,sp,48
20013048:	fca42e23          	sw	a0,-36(s0)
2001304c:	fcb42c23          	sw	a1,-40(s0)
E:/GitHub/HiFive01-RevB/FS_workspace/sifive_hifive1_revb_sifive_welcome/freedom-metal/src/drivers/riscv_cpu.c:135
    uintptr_t mcause;
    struct __metal_driver_riscv_cpu_intc *intc;
    struct __metal_driver_cpu *cpu = __metal_cpu_table[__metal_myhart_id()];
20013050:	33c9                	jal	20012e12 <__metal_myhart_id>
20013052:	872a                	mv	a4,a0
20013054:	800017b7          	lui	a5,0x80001
20013058:	070a                	slli	a4,a4,0x2
2001305a:	ab478793          	addi	a5,a5,-1356 # 80000ab4 <metal_segment_heap_target_end+0xfffff314>
2001305e:	97ba                	add	a5,a5,a4
20013060:	439c                	lw	a5,0(a5)
20013062:	fef42623          	sw	a5,-20(s0)
E:/GitHub/HiFive01-RevB/FS_workspace/sifive_hifive1_revb_sifive_welcome/freedom-metal/src/drivers/riscv_cpu.c:137

    __asm__ volatile("csrr %0, mcause" : "=r"(mcause));
20013066:	342027f3          	csrr	a5,mcause
2001306a:	fef42423          	sw	a5,-24(s0)
E:/GitHub/HiFive01-RevB/FS_workspace/sifive_hifive1_revb_sifive_welcome/freedom-metal/src/drivers/riscv_cpu.c:138
    if (cpu) {
2001306e:	fec42783          	lw	a5,-20(s0)
20013072:	c795                	beqz	a5,2001309e <__metal_default_sw_handler+0x5e>
E:/GitHub/HiFive01-RevB/FS_workspace/sifive_hifive1_revb_sifive_welcome/freedom-metal/src/drivers/riscv_cpu.c:140
        intc = (struct __metal_driver_riscv_cpu_intc *)
            __metal_driver_cpu_interrupt_controller((struct metal_cpu *)cpu);
20013074:	fec42503          	lw	a0,-20(s0)
20013078:	3b31                	jal	20012d94 <__metal_driver_cpu_interrupt_controller>
2001307a:	fea42223          	sw	a0,-28(s0)
E:/GitHub/HiFive01-RevB/FS_workspace/sifive_hifive1_revb_sifive_welcome/freedom-metal/src/drivers/riscv_cpu.c:141
        intc->metal_exception_table[mcause & METAL_MCAUSE_CAUSE](
2001307e:	fe842783          	lw	a5,-24(s0)
20013082:	3ff7f793          	andi	a5,a5,1023
20013086:	fe442703          	lw	a4,-28(s0)
2001308a:	0e878793          	addi	a5,a5,232
2001308e:	078a                	slli	a5,a5,0x2
20013090:	97ba                	add	a5,a5,a4
20013092:	439c                	lw	a5,0(a5)
20013094:	fdc42583          	lw	a1,-36(s0)
20013098:	fec42503          	lw	a0,-20(s0)
2001309c:	9782                	jalr	a5
E:/GitHub/HiFive01-RevB/FS_workspace/sifive_hifive1_revb_sifive_welcome/freedom-metal/src/drivers/riscv_cpu.c:144
            (struct metal_cpu *)cpu, id);
    }
}
2001309e:	0001                	nop
200130a0:	50b2                	lw	ra,44(sp)
200130a2:	5422                	lw	s0,40(sp)
200130a4:	6145                	addi	sp,sp,48
200130a6:	8082                	ret

200130a8 <metal_timer_interrupt_vector_handler>:
metal_timer_interrupt_vector_handler():
E:/GitHub/HiFive01-RevB/FS_workspace/sifive_hifive1_revb_sifive_welcome/freedom-metal/src/drivers/riscv_cpu.c:148

/* The metal_timer_interrupt_vector_handler() function can be redefined. */
void __attribute__((weak, interrupt))
metal_timer_interrupt_vector_handler(void) {
200130a8:	711d                	addi	sp,sp,-96
200130aa:	ce86                	sw	ra,92(sp)
200130ac:	cc96                	sw	t0,88(sp)
200130ae:	ca9a                	sw	t1,84(sp)
200130b0:	c89e                	sw	t2,80(sp)
200130b2:	c6a2                	sw	s0,76(sp)
200130b4:	c4aa                	sw	a0,72(sp)
200130b6:	c2ae                	sw	a1,68(sp)
200130b8:	c0b2                	sw	a2,64(sp)
200130ba:	de36                	sw	a3,60(sp)
200130bc:	dc3a                	sw	a4,56(sp)
200130be:	da3e                	sw	a5,52(sp)
200130c0:	d842                	sw	a6,48(sp)
200130c2:	d646                	sw	a7,44(sp)
200130c4:	d472                	sw	t3,40(sp)
200130c6:	d276                	sw	t4,36(sp)
200130c8:	d07a                	sw	t5,32(sp)
200130ca:	ce7e                	sw	t6,28(sp)
200130cc:	1080                	addi	s0,sp,96
E:/GitHub/HiFive01-RevB/FS_workspace/sifive_hifive1_revb_sifive_welcome/freedom-metal/src/drivers/riscv_cpu.c:149
    __METAL_IRQ_VECTOR_HANDLER(METAL_INTERRUPT_ID_TMR);
200130ce:	3391                	jal	20012e12 <__metal_myhart_id>
200130d0:	872a                	mv	a4,a0
200130d2:	800017b7          	lui	a5,0x80001
200130d6:	070a                	slli	a4,a4,0x2
200130d8:	ab478793          	addi	a5,a5,-1356 # 80000ab4 <metal_segment_heap_target_end+0xfffff314>
200130dc:	97ba                	add	a5,a5,a4
200130de:	439c                	lw	a5,0(a5)
200130e0:	faf42623          	sw	a5,-84(s0)
200130e4:	fac42783          	lw	a5,-84(s0)
200130e8:	c785                	beqz	a5,20013110 <metal_timer_interrupt_vector_handler+0x68>
E:/GitHub/HiFive01-RevB/FS_workspace/sifive_hifive1_revb_sifive_welcome/freedom-metal/src/drivers/riscv_cpu.c:149 (discriminator 1)
200130ea:	fac42503          	lw	a0,-84(s0)
200130ee:	315d                	jal	20012d94 <__metal_driver_cpu_interrupt_controller>
200130f0:	faa42423          	sw	a0,-88(s0)
200130f4:	fa842783          	lw	a5,-88(s0)
200130f8:	1407a783          	lw	a5,320(a5)
200130fc:	faf42223          	sw	a5,-92(s0)
20013100:	fa842783          	lw	a5,-88(s0)
20013104:	1387a783          	lw	a5,312(a5)
20013108:	fa442583          	lw	a1,-92(s0)
2001310c:	451d                	li	a0,7
2001310e:	9782                	jalr	a5
E:/GitHub/HiFive01-RevB/FS_workspace/sifive_hifive1_revb_sifive_welcome/freedom-metal/src/drivers/riscv_cpu.c:150
}
20013110:	0001                	nop
20013112:	40f6                	lw	ra,92(sp)
20013114:	42e6                	lw	t0,88(sp)
20013116:	4356                	lw	t1,84(sp)
20013118:	43c6                	lw	t2,80(sp)
2001311a:	4436                	lw	s0,76(sp)
2001311c:	4526                	lw	a0,72(sp)
2001311e:	4596                	lw	a1,68(sp)
20013120:	4606                	lw	a2,64(sp)
20013122:	56f2                	lw	a3,60(sp)
20013124:	5762                	lw	a4,56(sp)
20013126:	57d2                	lw	a5,52(sp)
20013128:	5842                	lw	a6,48(sp)
2001312a:	58b2                	lw	a7,44(sp)
2001312c:	5e22                	lw	t3,40(sp)
2001312e:	5e92                	lw	t4,36(sp)
20013130:	5f02                	lw	t5,32(sp)
20013132:	4ff2                	lw	t6,28(sp)
20013134:	6125                	addi	sp,sp,96
20013136:	30200073          	mret

2001313a <__metal_default_beu_handler>:
__metal_default_beu_handler():
E:/GitHub/HiFive01-RevB/FS_workspace/sifive_hifive1_revb_sifive_welcome/freedom-metal/src/drivers/riscv_cpu.c:152

void __metal_default_beu_handler(int id, void *priv) {}
2001313a:	1101                	addi	sp,sp,-32
2001313c:	ce22                	sw	s0,28(sp)
2001313e:	1000                	addi	s0,sp,32
20013140:	fea42623          	sw	a0,-20(s0)
20013144:	feb42423          	sw	a1,-24(s0)
20013148:	0001                	nop
2001314a:	4472                	lw	s0,28(sp)
2001314c:	6105                	addi	sp,sp,32
2001314e:	8082                	ret

20013150 <__metal_default_timer_handler>:
__metal_default_timer_handler():
E:/GitHub/HiFive01-RevB/FS_workspace/sifive_hifive1_revb_sifive_welcome/freedom-metal/src/drivers/riscv_cpu.c:154

void __metal_default_timer_handler(int id, void *priv) {
20013150:	7179                	addi	sp,sp,-48
20013152:	d606                	sw	ra,44(sp)
20013154:	d422                	sw	s0,40(sp)
20013156:	1800                	addi	s0,sp,48
20013158:	fca42e23          	sw	a0,-36(s0)
2001315c:	fcb42c23          	sw	a1,-40(s0)
E:/GitHub/HiFive01-RevB/FS_workspace/sifive_hifive1_revb_sifive_welcome/freedom-metal/src/drivers/riscv_cpu.c:155
    struct metal_cpu *cpu = __metal_driver_cpu_get(__metal_myhart_id());
20013160:	394d                	jal	20012e12 <__metal_myhart_id>
20013162:	87aa                	mv	a5,a0
20013164:	853e                	mv	a0,a5
20013166:	39b5                	jal	20012de2 <__metal_driver_cpu_get>
20013168:	fea42623          	sw	a0,-20(s0)
E:/GitHub/HiFive01-RevB/FS_workspace/sifive_hifive1_revb_sifive_welcome/freedom-metal/src/drivers/riscv_cpu.c:156
    unsigned long long time = __metal_driver_cpu_mtime_get(cpu);
2001316c:	fec42503          	lw	a0,-20(s0)
20013170:	2b6010ef          	jal	ra,20014426 <__metal_driver_cpu_mtime_get>
20013174:	fea42023          	sw	a0,-32(s0)
20013178:	feb42223          	sw	a1,-28(s0)
E:/GitHub/HiFive01-RevB/FS_workspace/sifive_hifive1_revb_sifive_welcome/freedom-metal/src/drivers/riscv_cpu.c:159

    /* Set a 10 cycle timer */
    __metal_driver_cpu_mtimecmp_set(cpu, time + 10);
2001317c:	fe042703          	lw	a4,-32(s0)
20013180:	fe442783          	lw	a5,-28(s0)
20013184:	4529                	li	a0,10
20013186:	4581                	li	a1,0
20013188:	00a70633          	add	a2,a4,a0
2001318c:	8832                	mv	a6,a2
2001318e:	00e83833          	sltu	a6,a6,a4
20013192:	00b786b3          	add	a3,a5,a1
20013196:	00d807b3          	add	a5,a6,a3
2001319a:	86be                	mv	a3,a5
2001319c:	8732                	mv	a4,a2
2001319e:	87b6                	mv	a5,a3
200131a0:	85ba                	mv	a1,a4
200131a2:	863e                	mv	a2,a5
200131a4:	fec42503          	lw	a0,-20(s0)
200131a8:	2e4010ef          	jal	ra,2001448c <__metal_driver_cpu_mtimecmp_set>
E:/GitHub/HiFive01-RevB/FS_workspace/sifive_hifive1_revb_sifive_welcome/freedom-metal/src/drivers/riscv_cpu.c:160
}
200131ac:	0001                	nop
200131ae:	50b2                	lw	ra,44(sp)
200131b0:	5422                	lw	s0,40(sp)
200131b2:	6145                	addi	sp,sp,48
200131b4:	8082                	ret
	...

20013200 <__metal_exception_handler>:
__metal_exception_handler():
E:/GitHub/HiFive01-RevB/FS_workspace/sifive_hifive1_revb_sifive_welcome/freedom-metal/src/drivers/riscv_cpu.c:169
metal_external_interrupt_vector_handler(void) {
    __METAL_IRQ_VECTOR_HANDLER(METAL_INTERRUPT_ID_EXT);
}

void __metal_exception_handler(void) __attribute__((interrupt, aligned(128)));
void __metal_exception_handler(void) {
20013200:	7119                	addi	sp,sp,-128
20013202:	de86                	sw	ra,124(sp)
20013204:	dc96                	sw	t0,120(sp)
20013206:	da9a                	sw	t1,116(sp)
20013208:	d89e                	sw	t2,112(sp)
2001320a:	d6a2                	sw	s0,108(sp)
2001320c:	d4aa                	sw	a0,104(sp)
2001320e:	d2ae                	sw	a1,100(sp)
20013210:	d0b2                	sw	a2,96(sp)
20013212:	ceb6                	sw	a3,92(sp)
20013214:	ccba                	sw	a4,88(sp)
20013216:	cabe                	sw	a5,84(sp)
20013218:	c8c2                	sw	a6,80(sp)
2001321a:	c6c6                	sw	a7,76(sp)
2001321c:	c4f2                	sw	t3,72(sp)
2001321e:	c2f6                	sw	t4,68(sp)
20013220:	c0fa                	sw	t5,64(sp)
20013222:	de7e                	sw	t6,60(sp)
20013224:	0100                	addi	s0,sp,128
E:/GitHub/HiFive01-RevB/FS_workspace/sifive_hifive1_revb_sifive_welcome/freedom-metal/src/drivers/riscv_cpu.c:174
    int id;
    void *priv;
    uintptr_t mcause, mepc, mtval, mtvec;
    struct __metal_driver_riscv_cpu_intc *intc;
    struct __metal_driver_cpu *cpu = __metal_cpu_table[__metal_myhart_id()];
20013226:	bedff0ef          	jal	ra,20012e12 <__metal_myhart_id>
2001322a:	872a                	mv	a4,a0
2001322c:	800017b7          	lui	a5,0x80001
20013230:	070a                	slli	a4,a4,0x2
20013232:	ab478793          	addi	a5,a5,-1356 # 80000ab4 <metal_segment_heap_target_end+0xfffff314>
20013236:	97ba                	add	a5,a5,a4
20013238:	439c                	lw	a5,0(a5)
2001323a:	faf42623          	sw	a5,-84(s0)
E:/GitHub/HiFive01-RevB/FS_workspace/sifive_hifive1_revb_sifive_welcome/freedom-metal/src/drivers/riscv_cpu.c:176

    __asm__ volatile("csrr %0, mcause" : "=r"(mcause));
2001323e:	342027f3          	csrr	a5,mcause
20013242:	faf42423          	sw	a5,-88(s0)
E:/GitHub/HiFive01-RevB/FS_workspace/sifive_hifive1_revb_sifive_welcome/freedom-metal/src/drivers/riscv_cpu.c:177
    __asm__ volatile("csrr %0, mepc" : "=r"(mepc));
20013246:	341027f3          	csrr	a5,mepc
2001324a:	faf42223          	sw	a5,-92(s0)
E:/GitHub/HiFive01-RevB/FS_workspace/sifive_hifive1_revb_sifive_welcome/freedom-metal/src/drivers/riscv_cpu.c:178
    __asm__ volatile("csrr %0, mtval" : "=r"(mtval));
2001324e:	343027f3          	csrr	a5,mtval
20013252:	faf42023          	sw	a5,-96(s0)
E:/GitHub/HiFive01-RevB/FS_workspace/sifive_hifive1_revb_sifive_welcome/freedom-metal/src/drivers/riscv_cpu.c:179
    __asm__ volatile("csrr %0, mtvec" : "=r"(mtvec));
20013256:	305027f3          	csrr	a5,mtvec
2001325a:	f8f42e23          	sw	a5,-100(s0)
E:/GitHub/HiFive01-RevB/FS_workspace/sifive_hifive1_revb_sifive_welcome/freedom-metal/src/drivers/riscv_cpu.c:181

    if (cpu) {
2001325e:	fac42783          	lw	a5,-84(s0)
20013262:	cbfd                	beqz	a5,20013358 <__metal_exception_handler+0x158>
E:/GitHub/HiFive01-RevB/FS_workspace/sifive_hifive1_revb_sifive_welcome/freedom-metal/src/drivers/riscv_cpu.c:183
        intc = (struct __metal_driver_riscv_cpu_intc *)
            __metal_driver_cpu_interrupt_controller((struct metal_cpu *)cpu);
20013264:	fac42503          	lw	a0,-84(s0)
20013268:	b2dff0ef          	jal	ra,20012d94 <__metal_driver_cpu_interrupt_controller>
2001326c:	f8a42c23          	sw	a0,-104(s0)
E:/GitHub/HiFive01-RevB/FS_workspace/sifive_hifive1_revb_sifive_welcome/freedom-metal/src/drivers/riscv_cpu.c:184
        id = mcause & METAL_MCAUSE_CAUSE;
20013270:	fa842783          	lw	a5,-88(s0)
20013274:	3ff7f793          	andi	a5,a5,1023
20013278:	f8f42a23          	sw	a5,-108(s0)
E:/GitHub/HiFive01-RevB/FS_workspace/sifive_hifive1_revb_sifive_welcome/freedom-metal/src/drivers/riscv_cpu.c:185
        if (mcause & METAL_MCAUSE_INTR) {
2001327c:	fa842783          	lw	a5,-88(s0)
20013280:	0a07de63          	bgez	a5,2001333c <__metal_exception_handler+0x13c>
E:/GitHub/HiFive01-RevB/FS_workspace/sifive_hifive1_revb_sifive_welcome/freedom-metal/src/drivers/riscv_cpu.c:186
            if (id == METAL_INTERRUPT_ID_BEU) {
20013284:	f9442703          	lw	a4,-108(s0)
20013288:	08000793          	li	a5,128
2001328c:	02f71263          	bne	a4,a5,200132b0 <__metal_exception_handler+0xb0>
E:/GitHub/HiFive01-RevB/FS_workspace/sifive_hifive1_revb_sifive_welcome/freedom-metal/src/drivers/riscv_cpu.c:187
                priv = intc->metal_int_beu.exint_data;
20013290:	f9842783          	lw	a5,-104(s0)
20013294:	3987a783          	lw	a5,920(a5)
20013298:	f8f42623          	sw	a5,-116(s0)
E:/GitHub/HiFive01-RevB/FS_workspace/sifive_hifive1_revb_sifive_welcome/freedom-metal/src/drivers/riscv_cpu.c:188
                intc->metal_int_beu.handler(id, priv);
2001329c:	f9842783          	lw	a5,-104(s0)
200132a0:	3907a783          	lw	a5,912(a5)
200132a4:	f8c42583          	lw	a1,-116(s0)
200132a8:	f9442503          	lw	a0,-108(s0)
200132ac:	9782                	jalr	a5
E:/GitHub/HiFive01-RevB/FS_workspace/sifive_hifive1_revb_sifive_welcome/freedom-metal/src/drivers/riscv_cpu.c:189
                return;
200132ae:	a06d                	j	20013358 <__metal_exception_handler+0x158>
E:/GitHub/HiFive01-RevB/FS_workspace/sifive_hifive1_revb_sifive_welcome/freedom-metal/src/drivers/riscv_cpu.c:191
            }
            if ((id < METAL_INTERRUPT_ID_CSW) ||
200132b0:	f9442703          	lw	a4,-108(s0)
200132b4:	47ad                	li	a5,11
200132b6:	00e7d763          	bge	a5,a4,200132c4 <__metal_exception_handler+0xc4>
E:/GitHub/HiFive01-RevB/FS_workspace/sifive_hifive1_revb_sifive_welcome/freedom-metal/src/drivers/riscv_cpu.c:192 (discriminator 1)
                ((mtvec & METAL_MTVEC_MASK) == METAL_MTVEC_DIRECT)) {
200132ba:	f9c42783          	lw	a5,-100(s0)
200132be:	03f7f793          	andi	a5,a5,63
E:/GitHub/HiFive01-RevB/FS_workspace/sifive_hifive1_revb_sifive_welcome/freedom-metal/src/drivers/riscv_cpu.c:191 (discriminator 1)
            if ((id < METAL_INTERRUPT_ID_CSW) ||
200132c2:	ef9d                	bnez	a5,20013300 <__metal_exception_handler+0x100>
E:/GitHub/HiFive01-RevB/FS_workspace/sifive_hifive1_revb_sifive_welcome/freedom-metal/src/drivers/riscv_cpu.c:193
                priv = intc->metal_int_table[id].exint_data;
200132c4:	f9842683          	lw	a3,-104(s0)
200132c8:	f9442703          	lw	a4,-108(s0)
200132cc:	87ba                	mv	a5,a4
200132ce:	0786                	slli	a5,a5,0x1
200132d0:	97ba                	add	a5,a5,a4
200132d2:	078e                	slli	a5,a5,0x3
200132d4:	97b6                	add	a5,a5,a3
200132d6:	0987a783          	lw	a5,152(a5)
200132da:	f8f42623          	sw	a5,-116(s0)
E:/GitHub/HiFive01-RevB/FS_workspace/sifive_hifive1_revb_sifive_welcome/freedom-metal/src/drivers/riscv_cpu.c:194
                intc->metal_int_table[id].handler(id, priv);
200132de:	f9842683          	lw	a3,-104(s0)
200132e2:	f9442703          	lw	a4,-108(s0)
200132e6:	87ba                	mv	a5,a4
200132e8:	0786                	slli	a5,a5,0x1
200132ea:	97ba                	add	a5,a5,a4
200132ec:	078e                	slli	a5,a5,0x3
200132ee:	97b6                	add	a5,a5,a3
200132f0:	0907a783          	lw	a5,144(a5)
200132f4:	f8c42583          	lw	a1,-116(s0)
200132f8:	f9442503          	lw	a0,-108(s0)
200132fc:	9782                	jalr	a5
E:/GitHub/HiFive01-RevB/FS_workspace/sifive_hifive1_revb_sifive_welcome/freedom-metal/src/drivers/riscv_cpu.c:195
                return;
200132fe:	a8a9                	j	20013358 <__metal_exception_handler+0x158>
E:/GitHub/HiFive01-RevB/FS_workspace/sifive_hifive1_revb_sifive_welcome/freedom-metal/src/drivers/riscv_cpu.c:197
            }
            if ((mtvec & METAL_MTVEC_MASK) == METAL_MTVEC_CLIC) {
20013300:	f9c42783          	lw	a5,-100(s0)
20013304:	03f7f713          	andi	a4,a5,63
20013308:	4789                	li	a5,2
2001330a:	04f71763          	bne	a4,a5,20013358 <__metal_exception_handler+0x158>
E:/GitHub/HiFive01-RevB/FS_workspace/sifive_hifive1_revb_sifive_welcome/freedom-metal/src/drivers/riscv_cpu.c:201
                uintptr_t mtvt;
                metal_interrupt_handler_t mtvt_handler;

                __asm__ volatile("csrr %0, 0x307" : "=r"(mtvt));
2001330e:	307027f3          	csrr	a5,mtvt
20013312:	f8f42823          	sw	a5,-112(s0)
E:/GitHub/HiFive01-RevB/FS_workspace/sifive_hifive1_revb_sifive_welcome/freedom-metal/src/drivers/riscv_cpu.c:202
                priv = intc->metal_int_table[METAL_INTERRUPT_ID_SW].sub_int;
20013316:	f9842783          	lw	a5,-104(s0)
2001331a:	0dc7a783          	lw	a5,220(a5)
2001331e:	f8f42623          	sw	a5,-116(s0)
E:/GitHub/HiFive01-RevB/FS_workspace/sifive_hifive1_revb_sifive_welcome/freedom-metal/src/drivers/riscv_cpu.c:203
                mtvt_handler = (metal_interrupt_handler_t) * (uintptr_t *)mtvt;
20013322:	f9042783          	lw	a5,-112(s0)
20013326:	439c                	lw	a5,0(a5)
20013328:	f8f42423          	sw	a5,-120(s0)
E:/GitHub/HiFive01-RevB/FS_workspace/sifive_hifive1_revb_sifive_welcome/freedom-metal/src/drivers/riscv_cpu.c:204
                mtvt_handler(id, priv);
2001332c:	f8842783          	lw	a5,-120(s0)
20013330:	f8c42583          	lw	a1,-116(s0)
20013334:	f9442503          	lw	a0,-108(s0)
20013338:	9782                	jalr	a5
E:/GitHub/HiFive01-RevB/FS_workspace/sifive_hifive1_revb_sifive_welcome/freedom-metal/src/drivers/riscv_cpu.c:205
                return;
2001333a:	a839                	j	20013358 <__metal_exception_handler+0x158>
E:/GitHub/HiFive01-RevB/FS_workspace/sifive_hifive1_revb_sifive_welcome/freedom-metal/src/drivers/riscv_cpu.c:208
            }
        } else {
            intc->metal_exception_table[id]((struct metal_cpu *)cpu, id);
2001333c:	f9842703          	lw	a4,-104(s0)
20013340:	f9442783          	lw	a5,-108(s0)
20013344:	0e878793          	addi	a5,a5,232
20013348:	078a                	slli	a5,a5,0x2
2001334a:	97ba                	add	a5,a5,a4
2001334c:	439c                	lw	a5,0(a5)
2001334e:	f9442583          	lw	a1,-108(s0)
20013352:	fac42503          	lw	a0,-84(s0)
20013356:	9782                	jalr	a5
E:/GitHub/HiFive01-RevB/FS_workspace/sifive_hifive1_revb_sifive_welcome/freedom-metal/src/drivers/riscv_cpu.c:211
        }
    }
}
20013358:	50f6                	lw	ra,124(sp)
2001335a:	52e6                	lw	t0,120(sp)
2001335c:	5356                	lw	t1,116(sp)
2001335e:	53c6                	lw	t2,112(sp)
20013360:	5436                	lw	s0,108(sp)
20013362:	5526                	lw	a0,104(sp)
20013364:	5596                	lw	a1,100(sp)
20013366:	5606                	lw	a2,96(sp)
20013368:	46f6                	lw	a3,92(sp)
2001336a:	4766                	lw	a4,88(sp)
2001336c:	47d6                	lw	a5,84(sp)
2001336e:	4846                	lw	a6,80(sp)
20013370:	48b6                	lw	a7,76(sp)
20013372:	4e26                	lw	t3,72(sp)
20013374:	4e96                	lw	t4,68(sp)
20013376:	4f06                	lw	t5,64(sp)
20013378:	5ff2                	lw	t6,60(sp)
2001337a:	6109                	addi	sp,sp,128
2001337c:	30200073          	mret
	...

200133fa <metal_lc0_interrupt_vector_handler>:
metal_lc0_interrupt_vector_handler():
E:/GitHub/HiFive01-RevB/FS_workspace/sifive_hifive1_revb_sifive_welcome/freedom-metal/src/drivers/riscv_cpu.c:214

/* The metal_lc0_interrupt_vector_handler() function can be redefined. */
void __attribute__((weak, interrupt)) metal_lc0_interrupt_vector_handler(void) {
200133fa:	711d                	addi	sp,sp,-96
200133fc:	ce86                	sw	ra,92(sp)
200133fe:	cc96                	sw	t0,88(sp)
20013400:	ca9a                	sw	t1,84(sp)
20013402:	c89e                	sw	t2,80(sp)
20013404:	c6a2                	sw	s0,76(sp)
20013406:	c4aa                	sw	a0,72(sp)
20013408:	c2ae                	sw	a1,68(sp)
2001340a:	c0b2                	sw	a2,64(sp)
2001340c:	de36                	sw	a3,60(sp)
2001340e:	dc3a                	sw	a4,56(sp)
20013410:	da3e                	sw	a5,52(sp)
20013412:	d842                	sw	a6,48(sp)
20013414:	d646                	sw	a7,44(sp)
20013416:	d472                	sw	t3,40(sp)
20013418:	d276                	sw	t4,36(sp)
2001341a:	d07a                	sw	t5,32(sp)
2001341c:	ce7e                	sw	t6,28(sp)
2001341e:	1080                	addi	s0,sp,96
E:/GitHub/HiFive01-RevB/FS_workspace/sifive_hifive1_revb_sifive_welcome/freedom-metal/src/drivers/riscv_cpu.c:215
    __METAL_IRQ_VECTOR_HANDLER(METAL_INTERRUPT_ID_LC0);
20013420:	9f3ff0ef          	jal	ra,20012e12 <__metal_myhart_id>
20013424:	872a                	mv	a4,a0
20013426:	800017b7          	lui	a5,0x80001
2001342a:	070a                	slli	a4,a4,0x2
2001342c:	ab478793          	addi	a5,a5,-1356 # 80000ab4 <metal_segment_heap_target_end+0xfffff314>
20013430:	97ba                	add	a5,a5,a4
20013432:	439c                	lw	a5,0(a5)
20013434:	faf42623          	sw	a5,-84(s0)
20013438:	fac42783          	lw	a5,-84(s0)
2001343c:	c78d                	beqz	a5,20013466 <metal_lc0_interrupt_vector_handler+0x6c>
E:/GitHub/HiFive01-RevB/FS_workspace/sifive_hifive1_revb_sifive_welcome/freedom-metal/src/drivers/riscv_cpu.c:215 (discriminator 1)
2001343e:	fac42503          	lw	a0,-84(s0)
20013442:	953ff0ef          	jal	ra,20012d94 <__metal_driver_cpu_interrupt_controller>
20013446:	faa42423          	sw	a0,-88(s0)
2001344a:	fa842783          	lw	a5,-88(s0)
2001344e:	2187a783          	lw	a5,536(a5)
20013452:	faf42223          	sw	a5,-92(s0)
20013456:	fa842783          	lw	a5,-88(s0)
2001345a:	2107a783          	lw	a5,528(a5)
2001345e:	fa442583          	lw	a1,-92(s0)
20013462:	4541                	li	a0,16
20013464:	9782                	jalr	a5
E:/GitHub/HiFive01-RevB/FS_workspace/sifive_hifive1_revb_sifive_welcome/freedom-metal/src/drivers/riscv_cpu.c:216
}
20013466:	0001                	nop
20013468:	40f6                	lw	ra,92(sp)
2001346a:	42e6                	lw	t0,88(sp)
2001346c:	4356                	lw	t1,84(sp)
2001346e:	43c6                	lw	t2,80(sp)
20013470:	4436                	lw	s0,76(sp)
20013472:	4526                	lw	a0,72(sp)
20013474:	4596                	lw	a1,68(sp)
20013476:	4606                	lw	a2,64(sp)
20013478:	56f2                	lw	a3,60(sp)
2001347a:	5762                	lw	a4,56(sp)
2001347c:	57d2                	lw	a5,52(sp)
2001347e:	5842                	lw	a6,48(sp)
20013480:	58b2                	lw	a7,44(sp)
20013482:	5e22                	lw	t3,40(sp)
20013484:	5e92                	lw	t4,36(sp)
20013486:	5f02                	lw	t5,32(sp)
20013488:	4ff2                	lw	t6,28(sp)
2001348a:	6125                	addi	sp,sp,96
2001348c:	30200073          	mret

20013490 <metal_lc1_interrupt_vector_handler>:
metal_lc1_interrupt_vector_handler():
E:/GitHub/HiFive01-RevB/FS_workspace/sifive_hifive1_revb_sifive_welcome/freedom-metal/src/drivers/riscv_cpu.c:219

/* The metal_lc1_interrupt_vector_handler() function can be redefined. */
void __attribute__((weak, interrupt)) metal_lc1_interrupt_vector_handler(void) {
20013490:	711d                	addi	sp,sp,-96
20013492:	ce86                	sw	ra,92(sp)
20013494:	cc96                	sw	t0,88(sp)
20013496:	ca9a                	sw	t1,84(sp)
20013498:	c89e                	sw	t2,80(sp)
2001349a:	c6a2                	sw	s0,76(sp)
2001349c:	c4aa                	sw	a0,72(sp)
2001349e:	c2ae                	sw	a1,68(sp)
200134a0:	c0b2                	sw	a2,64(sp)
200134a2:	de36                	sw	a3,60(sp)
200134a4:	dc3a                	sw	a4,56(sp)
200134a6:	da3e                	sw	a5,52(sp)
200134a8:	d842                	sw	a6,48(sp)
200134aa:	d646                	sw	a7,44(sp)
200134ac:	d472                	sw	t3,40(sp)
200134ae:	d276                	sw	t4,36(sp)
200134b0:	d07a                	sw	t5,32(sp)
200134b2:	ce7e                	sw	t6,28(sp)
200134b4:	1080                	addi	s0,sp,96
E:/GitHub/HiFive01-RevB/FS_workspace/sifive_hifive1_revb_sifive_welcome/freedom-metal/src/drivers/riscv_cpu.c:220
    __METAL_IRQ_VECTOR_HANDLER(METAL_INTERRUPT_ID_LC1);
200134b6:	95dff0ef          	jal	ra,20012e12 <__metal_myhart_id>
200134ba:	872a                	mv	a4,a0
200134bc:	800017b7          	lui	a5,0x80001
200134c0:	070a                	slli	a4,a4,0x2
200134c2:	ab478793          	addi	a5,a5,-1356 # 80000ab4 <metal_segment_heap_target_end+0xfffff314>
200134c6:	97ba                	add	a5,a5,a4
200134c8:	439c                	lw	a5,0(a5)
200134ca:	faf42623          	sw	a5,-84(s0)
200134ce:	fac42783          	lw	a5,-84(s0)
200134d2:	c78d                	beqz	a5,200134fc <metal_lc1_interrupt_vector_handler+0x6c>
E:/GitHub/HiFive01-RevB/FS_workspace/sifive_hifive1_revb_sifive_welcome/freedom-metal/src/drivers/riscv_cpu.c:220 (discriminator 1)
200134d4:	fac42503          	lw	a0,-84(s0)
200134d8:	8bdff0ef          	jal	ra,20012d94 <__metal_driver_cpu_interrupt_controller>
200134dc:	faa42423          	sw	a0,-88(s0)
200134e0:	fa842783          	lw	a5,-88(s0)
200134e4:	2307a783          	lw	a5,560(a5)
200134e8:	faf42223          	sw	a5,-92(s0)
200134ec:	fa842783          	lw	a5,-88(s0)
200134f0:	2287a783          	lw	a5,552(a5)
200134f4:	fa442583          	lw	a1,-92(s0)
200134f8:	4545                	li	a0,17
200134fa:	9782                	jalr	a5
E:/GitHub/HiFive01-RevB/FS_workspace/sifive_hifive1_revb_sifive_welcome/freedom-metal/src/drivers/riscv_cpu.c:221
}
200134fc:	0001                	nop
200134fe:	40f6                	lw	ra,92(sp)
20013500:	42e6                	lw	t0,88(sp)
20013502:	4356                	lw	t1,84(sp)
20013504:	43c6                	lw	t2,80(sp)
20013506:	4436                	lw	s0,76(sp)
20013508:	4526                	lw	a0,72(sp)
2001350a:	4596                	lw	a1,68(sp)
2001350c:	4606                	lw	a2,64(sp)
2001350e:	56f2                	lw	a3,60(sp)
20013510:	5762                	lw	a4,56(sp)
20013512:	57d2                	lw	a5,52(sp)
20013514:	5842                	lw	a6,48(sp)
20013516:	58b2                	lw	a7,44(sp)
20013518:	5e22                	lw	t3,40(sp)
2001351a:	5e92                	lw	t4,36(sp)
2001351c:	5f02                	lw	t5,32(sp)
2001351e:	4ff2                	lw	t6,28(sp)
20013520:	6125                	addi	sp,sp,96
20013522:	30200073          	mret

20013526 <metal_lc2_interrupt_vector_handler>:
metal_lc2_interrupt_vector_handler():
E:/GitHub/HiFive01-RevB/FS_workspace/sifive_hifive1_revb_sifive_welcome/freedom-metal/src/drivers/riscv_cpu.c:224

/* The metal_lc2_interrupt_vector_handler() function can be redefined. */
void __attribute__((weak, interrupt)) metal_lc2_interrupt_vector_handler(void) {
20013526:	711d                	addi	sp,sp,-96
20013528:	ce86                	sw	ra,92(sp)
2001352a:	cc96                	sw	t0,88(sp)
2001352c:	ca9a                	sw	t1,84(sp)
2001352e:	c89e                	sw	t2,80(sp)
20013530:	c6a2                	sw	s0,76(sp)
20013532:	c4aa                	sw	a0,72(sp)
20013534:	c2ae                	sw	a1,68(sp)
20013536:	c0b2                	sw	a2,64(sp)
20013538:	de36                	sw	a3,60(sp)
2001353a:	dc3a                	sw	a4,56(sp)
2001353c:	da3e                	sw	a5,52(sp)
2001353e:	d842                	sw	a6,48(sp)
20013540:	d646                	sw	a7,44(sp)
20013542:	d472                	sw	t3,40(sp)
20013544:	d276                	sw	t4,36(sp)
20013546:	d07a                	sw	t5,32(sp)
20013548:	ce7e                	sw	t6,28(sp)
2001354a:	1080                	addi	s0,sp,96
E:/GitHub/HiFive01-RevB/FS_workspace/sifive_hifive1_revb_sifive_welcome/freedom-metal/src/drivers/riscv_cpu.c:225
    __METAL_IRQ_VECTOR_HANDLER(METAL_INTERRUPT_ID_LC2);
2001354c:	8c7ff0ef          	jal	ra,20012e12 <__metal_myhart_id>
20013550:	872a                	mv	a4,a0
20013552:	800017b7          	lui	a5,0x80001
20013556:	070a                	slli	a4,a4,0x2
20013558:	ab478793          	addi	a5,a5,-1356 # 80000ab4 <metal_segment_heap_target_end+0xfffff314>
2001355c:	97ba                	add	a5,a5,a4
2001355e:	439c                	lw	a5,0(a5)
20013560:	faf42623          	sw	a5,-84(s0)
20013564:	fac42783          	lw	a5,-84(s0)
20013568:	c78d                	beqz	a5,20013592 <metal_lc2_interrupt_vector_handler+0x6c>
E:/GitHub/HiFive01-RevB/FS_workspace/sifive_hifive1_revb_sifive_welcome/freedom-metal/src/drivers/riscv_cpu.c:225 (discriminator 1)
2001356a:	fac42503          	lw	a0,-84(s0)
2001356e:	827ff0ef          	jal	ra,20012d94 <__metal_driver_cpu_interrupt_controller>
20013572:	faa42423          	sw	a0,-88(s0)
20013576:	fa842783          	lw	a5,-88(s0)
2001357a:	2487a783          	lw	a5,584(a5)
2001357e:	faf42223          	sw	a5,-92(s0)
20013582:	fa842783          	lw	a5,-88(s0)
20013586:	2407a783          	lw	a5,576(a5)
2001358a:	fa442583          	lw	a1,-92(s0)
2001358e:	4549                	li	a0,18
20013590:	9782                	jalr	a5
E:/GitHub/HiFive01-RevB/FS_workspace/sifive_hifive1_revb_sifive_welcome/freedom-metal/src/drivers/riscv_cpu.c:226
}
20013592:	0001                	nop
20013594:	40f6                	lw	ra,92(sp)
20013596:	42e6                	lw	t0,88(sp)
20013598:	4356                	lw	t1,84(sp)
2001359a:	43c6                	lw	t2,80(sp)
2001359c:	4436                	lw	s0,76(sp)
2001359e:	4526                	lw	a0,72(sp)
200135a0:	4596                	lw	a1,68(sp)
200135a2:	4606                	lw	a2,64(sp)
200135a4:	56f2                	lw	a3,60(sp)
200135a6:	5762                	lw	a4,56(sp)
200135a8:	57d2                	lw	a5,52(sp)
200135aa:	5842                	lw	a6,48(sp)
200135ac:	58b2                	lw	a7,44(sp)
200135ae:	5e22                	lw	t3,40(sp)
200135b0:	5e92                	lw	t4,36(sp)
200135b2:	5f02                	lw	t5,32(sp)
200135b4:	4ff2                	lw	t6,28(sp)
200135b6:	6125                	addi	sp,sp,96
200135b8:	30200073          	mret

200135bc <metal_lc3_interrupt_vector_handler>:
metal_lc3_interrupt_vector_handler():
E:/GitHub/HiFive01-RevB/FS_workspace/sifive_hifive1_revb_sifive_welcome/freedom-metal/src/drivers/riscv_cpu.c:229

/* The metal_lc3_interrupt_vector_handler() function can be redefined. */
void __attribute__((weak, interrupt)) metal_lc3_interrupt_vector_handler(void) {
200135bc:	711d                	addi	sp,sp,-96
200135be:	ce86                	sw	ra,92(sp)
200135c0:	cc96                	sw	t0,88(sp)
200135c2:	ca9a                	sw	t1,84(sp)
200135c4:	c89e                	sw	t2,80(sp)
200135c6:	c6a2                	sw	s0,76(sp)
200135c8:	c4aa                	sw	a0,72(sp)
200135ca:	c2ae                	sw	a1,68(sp)
200135cc:	c0b2                	sw	a2,64(sp)
200135ce:	de36                	sw	a3,60(sp)
200135d0:	dc3a                	sw	a4,56(sp)
200135d2:	da3e                	sw	a5,52(sp)
200135d4:	d842                	sw	a6,48(sp)
200135d6:	d646                	sw	a7,44(sp)
200135d8:	d472                	sw	t3,40(sp)
200135da:	d276                	sw	t4,36(sp)
200135dc:	d07a                	sw	t5,32(sp)
200135de:	ce7e                	sw	t6,28(sp)
200135e0:	1080                	addi	s0,sp,96
E:/GitHub/HiFive01-RevB/FS_workspace/sifive_hifive1_revb_sifive_welcome/freedom-metal/src/drivers/riscv_cpu.c:230
    __METAL_IRQ_VECTOR_HANDLER(METAL_INTERRUPT_ID_LC3);
200135e2:	831ff0ef          	jal	ra,20012e12 <__metal_myhart_id>
200135e6:	872a                	mv	a4,a0
200135e8:	800017b7          	lui	a5,0x80001
200135ec:	070a                	slli	a4,a4,0x2
200135ee:	ab478793          	addi	a5,a5,-1356 # 80000ab4 <metal_segment_heap_target_end+0xfffff314>
200135f2:	97ba                	add	a5,a5,a4
200135f4:	439c                	lw	a5,0(a5)
200135f6:	faf42623          	sw	a5,-84(s0)
200135fa:	fac42783          	lw	a5,-84(s0)
200135fe:	c78d                	beqz	a5,20013628 <metal_lc3_interrupt_vector_handler+0x6c>
E:/GitHub/HiFive01-RevB/FS_workspace/sifive_hifive1_revb_sifive_welcome/freedom-metal/src/drivers/riscv_cpu.c:230 (discriminator 1)
20013600:	fac42503          	lw	a0,-84(s0)
20013604:	f90ff0ef          	jal	ra,20012d94 <__metal_driver_cpu_interrupt_controller>
20013608:	faa42423          	sw	a0,-88(s0)
2001360c:	fa842783          	lw	a5,-88(s0)
20013610:	2607a783          	lw	a5,608(a5)
20013614:	faf42223          	sw	a5,-92(s0)
20013618:	fa842783          	lw	a5,-88(s0)
2001361c:	2587a783          	lw	a5,600(a5)
20013620:	fa442583          	lw	a1,-92(s0)
20013624:	454d                	li	a0,19
20013626:	9782                	jalr	a5
E:/GitHub/HiFive01-RevB/FS_workspace/sifive_hifive1_revb_sifive_welcome/freedom-metal/src/drivers/riscv_cpu.c:231
}
20013628:	0001                	nop
2001362a:	40f6                	lw	ra,92(sp)
2001362c:	42e6                	lw	t0,88(sp)
2001362e:	4356                	lw	t1,84(sp)
20013630:	43c6                	lw	t2,80(sp)
20013632:	4436                	lw	s0,76(sp)
20013634:	4526                	lw	a0,72(sp)
20013636:	4596                	lw	a1,68(sp)
20013638:	4606                	lw	a2,64(sp)
2001363a:	56f2                	lw	a3,60(sp)
2001363c:	5762                	lw	a4,56(sp)
2001363e:	57d2                	lw	a5,52(sp)
20013640:	5842                	lw	a6,48(sp)
20013642:	58b2                	lw	a7,44(sp)
20013644:	5e22                	lw	t3,40(sp)
20013646:	5e92                	lw	t4,36(sp)
20013648:	5f02                	lw	t5,32(sp)
2001364a:	4ff2                	lw	t6,28(sp)
2001364c:	6125                	addi	sp,sp,96
2001364e:	30200073          	mret

20013652 <metal_lc4_interrupt_vector_handler>:
metal_lc4_interrupt_vector_handler():
E:/GitHub/HiFive01-RevB/FS_workspace/sifive_hifive1_revb_sifive_welcome/freedom-metal/src/drivers/riscv_cpu.c:234

/* The metal_lc4_interrupt_vector_handler() function can be redefined. */
void __attribute__((weak, interrupt)) metal_lc4_interrupt_vector_handler(void) {
20013652:	711d                	addi	sp,sp,-96
20013654:	ce86                	sw	ra,92(sp)
20013656:	cc96                	sw	t0,88(sp)
20013658:	ca9a                	sw	t1,84(sp)
2001365a:	c89e                	sw	t2,80(sp)
2001365c:	c6a2                	sw	s0,76(sp)
2001365e:	c4aa                	sw	a0,72(sp)
20013660:	c2ae                	sw	a1,68(sp)
20013662:	c0b2                	sw	a2,64(sp)
20013664:	de36                	sw	a3,60(sp)
20013666:	dc3a                	sw	a4,56(sp)
20013668:	da3e                	sw	a5,52(sp)
2001366a:	d842                	sw	a6,48(sp)
2001366c:	d646                	sw	a7,44(sp)
2001366e:	d472                	sw	t3,40(sp)
20013670:	d276                	sw	t4,36(sp)
20013672:	d07a                	sw	t5,32(sp)
20013674:	ce7e                	sw	t6,28(sp)
20013676:	1080                	addi	s0,sp,96
E:/GitHub/HiFive01-RevB/FS_workspace/sifive_hifive1_revb_sifive_welcome/freedom-metal/src/drivers/riscv_cpu.c:235
    __METAL_IRQ_VECTOR_HANDLER(METAL_INTERRUPT_ID_LC4);
20013678:	f9aff0ef          	jal	ra,20012e12 <__metal_myhart_id>
2001367c:	872a                	mv	a4,a0
2001367e:	800017b7          	lui	a5,0x80001
20013682:	070a                	slli	a4,a4,0x2
20013684:	ab478793          	addi	a5,a5,-1356 # 80000ab4 <metal_segment_heap_target_end+0xfffff314>
20013688:	97ba                	add	a5,a5,a4
2001368a:	439c                	lw	a5,0(a5)
2001368c:	faf42623          	sw	a5,-84(s0)
20013690:	fac42783          	lw	a5,-84(s0)
20013694:	c78d                	beqz	a5,200136be <metal_lc4_interrupt_vector_handler+0x6c>
E:/GitHub/HiFive01-RevB/FS_workspace/sifive_hifive1_revb_sifive_welcome/freedom-metal/src/drivers/riscv_cpu.c:235 (discriminator 1)
20013696:	fac42503          	lw	a0,-84(s0)
2001369a:	efaff0ef          	jal	ra,20012d94 <__metal_driver_cpu_interrupt_controller>
2001369e:	faa42423          	sw	a0,-88(s0)
200136a2:	fa842783          	lw	a5,-88(s0)
200136a6:	2787a783          	lw	a5,632(a5)
200136aa:	faf42223          	sw	a5,-92(s0)
200136ae:	fa842783          	lw	a5,-88(s0)
200136b2:	2707a783          	lw	a5,624(a5)
200136b6:	fa442583          	lw	a1,-92(s0)
200136ba:	4551                	li	a0,20
200136bc:	9782                	jalr	a5
E:/GitHub/HiFive01-RevB/FS_workspace/sifive_hifive1_revb_sifive_welcome/freedom-metal/src/drivers/riscv_cpu.c:236
}
200136be:	0001                	nop
200136c0:	40f6                	lw	ra,92(sp)
200136c2:	42e6                	lw	t0,88(sp)
200136c4:	4356                	lw	t1,84(sp)
200136c6:	43c6                	lw	t2,80(sp)
200136c8:	4436                	lw	s0,76(sp)
200136ca:	4526                	lw	a0,72(sp)
200136cc:	4596                	lw	a1,68(sp)
200136ce:	4606                	lw	a2,64(sp)
200136d0:	56f2                	lw	a3,60(sp)
200136d2:	5762                	lw	a4,56(sp)
200136d4:	57d2                	lw	a5,52(sp)
200136d6:	5842                	lw	a6,48(sp)
200136d8:	58b2                	lw	a7,44(sp)
200136da:	5e22                	lw	t3,40(sp)
200136dc:	5e92                	lw	t4,36(sp)
200136de:	5f02                	lw	t5,32(sp)
200136e0:	4ff2                	lw	t6,28(sp)
200136e2:	6125                	addi	sp,sp,96
200136e4:	30200073          	mret

200136e8 <metal_lc5_interrupt_vector_handler>:
metal_lc5_interrupt_vector_handler():
E:/GitHub/HiFive01-RevB/FS_workspace/sifive_hifive1_revb_sifive_welcome/freedom-metal/src/drivers/riscv_cpu.c:239

/* The metal_lc5_interrupt_vector_handler() function can be redefined. */
void __attribute__((weak, interrupt)) metal_lc5_interrupt_vector_handler(void) {
200136e8:	711d                	addi	sp,sp,-96
200136ea:	ce86                	sw	ra,92(sp)
200136ec:	cc96                	sw	t0,88(sp)
200136ee:	ca9a                	sw	t1,84(sp)
200136f0:	c89e                	sw	t2,80(sp)
200136f2:	c6a2                	sw	s0,76(sp)
200136f4:	c4aa                	sw	a0,72(sp)
200136f6:	c2ae                	sw	a1,68(sp)
200136f8:	c0b2                	sw	a2,64(sp)
200136fa:	de36                	sw	a3,60(sp)
200136fc:	dc3a                	sw	a4,56(sp)
200136fe:	da3e                	sw	a5,52(sp)
20013700:	d842                	sw	a6,48(sp)
20013702:	d646                	sw	a7,44(sp)
20013704:	d472                	sw	t3,40(sp)
20013706:	d276                	sw	t4,36(sp)
20013708:	d07a                	sw	t5,32(sp)
2001370a:	ce7e                	sw	t6,28(sp)
2001370c:	1080                	addi	s0,sp,96
E:/GitHub/HiFive01-RevB/FS_workspace/sifive_hifive1_revb_sifive_welcome/freedom-metal/src/drivers/riscv_cpu.c:240
    __METAL_IRQ_VECTOR_HANDLER(METAL_INTERRUPT_ID_LC5);
2001370e:	f04ff0ef          	jal	ra,20012e12 <__metal_myhart_id>
20013712:	872a                	mv	a4,a0
20013714:	800017b7          	lui	a5,0x80001
20013718:	070a                	slli	a4,a4,0x2
2001371a:	ab478793          	addi	a5,a5,-1356 # 80000ab4 <metal_segment_heap_target_end+0xfffff314>
2001371e:	97ba                	add	a5,a5,a4
20013720:	439c                	lw	a5,0(a5)
20013722:	faf42623          	sw	a5,-84(s0)
20013726:	fac42783          	lw	a5,-84(s0)
2001372a:	c78d                	beqz	a5,20013754 <metal_lc5_interrupt_vector_handler+0x6c>
E:/GitHub/HiFive01-RevB/FS_workspace/sifive_hifive1_revb_sifive_welcome/freedom-metal/src/drivers/riscv_cpu.c:240 (discriminator 1)
2001372c:	fac42503          	lw	a0,-84(s0)
20013730:	e64ff0ef          	jal	ra,20012d94 <__metal_driver_cpu_interrupt_controller>
20013734:	faa42423          	sw	a0,-88(s0)
20013738:	fa842783          	lw	a5,-88(s0)
2001373c:	2907a783          	lw	a5,656(a5)
20013740:	faf42223          	sw	a5,-92(s0)
20013744:	fa842783          	lw	a5,-88(s0)
20013748:	2887a783          	lw	a5,648(a5)
2001374c:	fa442583          	lw	a1,-92(s0)
20013750:	4555                	li	a0,21
20013752:	9782                	jalr	a5
E:/GitHub/HiFive01-RevB/FS_workspace/sifive_hifive1_revb_sifive_welcome/freedom-metal/src/drivers/riscv_cpu.c:241
}
20013754:	0001                	nop
20013756:	40f6                	lw	ra,92(sp)
20013758:	42e6                	lw	t0,88(sp)
2001375a:	4356                	lw	t1,84(sp)
2001375c:	43c6                	lw	t2,80(sp)
2001375e:	4436                	lw	s0,76(sp)
20013760:	4526                	lw	a0,72(sp)
20013762:	4596                	lw	a1,68(sp)
20013764:	4606                	lw	a2,64(sp)
20013766:	56f2                	lw	a3,60(sp)
20013768:	5762                	lw	a4,56(sp)
2001376a:	57d2                	lw	a5,52(sp)
2001376c:	5842                	lw	a6,48(sp)
2001376e:	58b2                	lw	a7,44(sp)
20013770:	5e22                	lw	t3,40(sp)
20013772:	5e92                	lw	t4,36(sp)
20013774:	5f02                	lw	t5,32(sp)
20013776:	4ff2                	lw	t6,28(sp)
20013778:	6125                	addi	sp,sp,96
2001377a:	30200073          	mret

2001377e <metal_lc6_interrupt_vector_handler>:
metal_lc6_interrupt_vector_handler():
E:/GitHub/HiFive01-RevB/FS_workspace/sifive_hifive1_revb_sifive_welcome/freedom-metal/src/drivers/riscv_cpu.c:244

/* The metal_lc6_interrupt_vector_handler() function can be redefined. */
void __attribute__((weak, interrupt)) metal_lc6_interrupt_vector_handler(void) {
2001377e:	711d                	addi	sp,sp,-96
20013780:	ce86                	sw	ra,92(sp)
20013782:	cc96                	sw	t0,88(sp)
20013784:	ca9a                	sw	t1,84(sp)
20013786:	c89e                	sw	t2,80(sp)
20013788:	c6a2                	sw	s0,76(sp)
2001378a:	c4aa                	sw	a0,72(sp)
2001378c:	c2ae                	sw	a1,68(sp)
2001378e:	c0b2                	sw	a2,64(sp)
20013790:	de36                	sw	a3,60(sp)
20013792:	dc3a                	sw	a4,56(sp)
20013794:	da3e                	sw	a5,52(sp)
20013796:	d842                	sw	a6,48(sp)
20013798:	d646                	sw	a7,44(sp)
2001379a:	d472                	sw	t3,40(sp)
2001379c:	d276                	sw	t4,36(sp)
2001379e:	d07a                	sw	t5,32(sp)
200137a0:	ce7e                	sw	t6,28(sp)
200137a2:	1080                	addi	s0,sp,96
E:/GitHub/HiFive01-RevB/FS_workspace/sifive_hifive1_revb_sifive_welcome/freedom-metal/src/drivers/riscv_cpu.c:245
    __METAL_IRQ_VECTOR_HANDLER(METAL_INTERRUPT_ID_LC6);
200137a4:	e6eff0ef          	jal	ra,20012e12 <__metal_myhart_id>
200137a8:	872a                	mv	a4,a0
200137aa:	800017b7          	lui	a5,0x80001
200137ae:	070a                	slli	a4,a4,0x2
200137b0:	ab478793          	addi	a5,a5,-1356 # 80000ab4 <metal_segment_heap_target_end+0xfffff314>
200137b4:	97ba                	add	a5,a5,a4
200137b6:	439c                	lw	a5,0(a5)
200137b8:	faf42623          	sw	a5,-84(s0)
200137bc:	fac42783          	lw	a5,-84(s0)
200137c0:	c78d                	beqz	a5,200137ea <metal_lc6_interrupt_vector_handler+0x6c>
E:/GitHub/HiFive01-RevB/FS_workspace/sifive_hifive1_revb_sifive_welcome/freedom-metal/src/drivers/riscv_cpu.c:245 (discriminator 1)
200137c2:	fac42503          	lw	a0,-84(s0)
200137c6:	dceff0ef          	jal	ra,20012d94 <__metal_driver_cpu_interrupt_controller>
200137ca:	faa42423          	sw	a0,-88(s0)
200137ce:	fa842783          	lw	a5,-88(s0)
200137d2:	2a87a783          	lw	a5,680(a5)
200137d6:	faf42223          	sw	a5,-92(s0)
200137da:	fa842783          	lw	a5,-88(s0)
200137de:	2a07a783          	lw	a5,672(a5)
200137e2:	fa442583          	lw	a1,-92(s0)
200137e6:	4559                	li	a0,22
200137e8:	9782                	jalr	a5
E:/GitHub/HiFive01-RevB/FS_workspace/sifive_hifive1_revb_sifive_welcome/freedom-metal/src/drivers/riscv_cpu.c:246
}
200137ea:	0001                	nop
200137ec:	40f6                	lw	ra,92(sp)
200137ee:	42e6                	lw	t0,88(sp)
200137f0:	4356                	lw	t1,84(sp)
200137f2:	43c6                	lw	t2,80(sp)
200137f4:	4436                	lw	s0,76(sp)
200137f6:	4526                	lw	a0,72(sp)
200137f8:	4596                	lw	a1,68(sp)
200137fa:	4606                	lw	a2,64(sp)
200137fc:	56f2                	lw	a3,60(sp)
200137fe:	5762                	lw	a4,56(sp)
20013800:	57d2                	lw	a5,52(sp)
20013802:	5842                	lw	a6,48(sp)
20013804:	58b2                	lw	a7,44(sp)
20013806:	5e22                	lw	t3,40(sp)
20013808:	5e92                	lw	t4,36(sp)
2001380a:	5f02                	lw	t5,32(sp)
2001380c:	4ff2                	lw	t6,28(sp)
2001380e:	6125                	addi	sp,sp,96
20013810:	30200073          	mret

20013814 <metal_lc7_interrupt_vector_handler>:
metal_lc7_interrupt_vector_handler():
E:/GitHub/HiFive01-RevB/FS_workspace/sifive_hifive1_revb_sifive_welcome/freedom-metal/src/drivers/riscv_cpu.c:249

/* The metal_lc7_interrupt_vector_handler() function can be redefined. */
void __attribute__((weak, interrupt)) metal_lc7_interrupt_vector_handler(void) {
20013814:	711d                	addi	sp,sp,-96
20013816:	ce86                	sw	ra,92(sp)
20013818:	cc96                	sw	t0,88(sp)
2001381a:	ca9a                	sw	t1,84(sp)
2001381c:	c89e                	sw	t2,80(sp)
2001381e:	c6a2                	sw	s0,76(sp)
20013820:	c4aa                	sw	a0,72(sp)
20013822:	c2ae                	sw	a1,68(sp)
20013824:	c0b2                	sw	a2,64(sp)
20013826:	de36                	sw	a3,60(sp)
20013828:	dc3a                	sw	a4,56(sp)
2001382a:	da3e                	sw	a5,52(sp)
2001382c:	d842                	sw	a6,48(sp)
2001382e:	d646                	sw	a7,44(sp)
20013830:	d472                	sw	t3,40(sp)
20013832:	d276                	sw	t4,36(sp)
20013834:	d07a                	sw	t5,32(sp)
20013836:	ce7e                	sw	t6,28(sp)
20013838:	1080                	addi	s0,sp,96
E:/GitHub/HiFive01-RevB/FS_workspace/sifive_hifive1_revb_sifive_welcome/freedom-metal/src/drivers/riscv_cpu.c:250
    __METAL_IRQ_VECTOR_HANDLER(METAL_INTERRUPT_ID_LC7);
2001383a:	dd8ff0ef          	jal	ra,20012e12 <__metal_myhart_id>
2001383e:	872a                	mv	a4,a0
20013840:	800017b7          	lui	a5,0x80001
20013844:	070a                	slli	a4,a4,0x2
20013846:	ab478793          	addi	a5,a5,-1356 # 80000ab4 <metal_segment_heap_target_end+0xfffff314>
2001384a:	97ba                	add	a5,a5,a4
2001384c:	439c                	lw	a5,0(a5)
2001384e:	faf42623          	sw	a5,-84(s0)
20013852:	fac42783          	lw	a5,-84(s0)
20013856:	c78d                	beqz	a5,20013880 <metal_lc7_interrupt_vector_handler+0x6c>
E:/GitHub/HiFive01-RevB/FS_workspace/sifive_hifive1_revb_sifive_welcome/freedom-metal/src/drivers/riscv_cpu.c:250 (discriminator 1)
20013858:	fac42503          	lw	a0,-84(s0)
2001385c:	d38ff0ef          	jal	ra,20012d94 <__metal_driver_cpu_interrupt_controller>
20013860:	faa42423          	sw	a0,-88(s0)
20013864:	fa842783          	lw	a5,-88(s0)
20013868:	2c07a783          	lw	a5,704(a5)
2001386c:	faf42223          	sw	a5,-92(s0)
20013870:	fa842783          	lw	a5,-88(s0)
20013874:	2b87a783          	lw	a5,696(a5)
20013878:	fa442583          	lw	a1,-92(s0)
2001387c:	455d                	li	a0,23
2001387e:	9782                	jalr	a5
E:/GitHub/HiFive01-RevB/FS_workspace/sifive_hifive1_revb_sifive_welcome/freedom-metal/src/drivers/riscv_cpu.c:251
}
20013880:	0001                	nop
20013882:	40f6                	lw	ra,92(sp)
20013884:	42e6                	lw	t0,88(sp)
20013886:	4356                	lw	t1,84(sp)
20013888:	43c6                	lw	t2,80(sp)
2001388a:	4436                	lw	s0,76(sp)
2001388c:	4526                	lw	a0,72(sp)
2001388e:	4596                	lw	a1,68(sp)
20013890:	4606                	lw	a2,64(sp)
20013892:	56f2                	lw	a3,60(sp)
20013894:	5762                	lw	a4,56(sp)
20013896:	57d2                	lw	a5,52(sp)
20013898:	5842                	lw	a6,48(sp)
2001389a:	58b2                	lw	a7,44(sp)
2001389c:	5e22                	lw	t3,40(sp)
2001389e:	5e92                	lw	t4,36(sp)
200138a0:	5f02                	lw	t5,32(sp)
200138a2:	4ff2                	lw	t6,28(sp)
200138a4:	6125                	addi	sp,sp,96
200138a6:	30200073          	mret

200138aa <metal_lc8_interrupt_vector_handler>:
metal_lc8_interrupt_vector_handler():
E:/GitHub/HiFive01-RevB/FS_workspace/sifive_hifive1_revb_sifive_welcome/freedom-metal/src/drivers/riscv_cpu.c:254

/* The metal_lc8_interrupt_vector_handler() function can be redefined. */
void __attribute__((weak, interrupt)) metal_lc8_interrupt_vector_handler(void) {
200138aa:	711d                	addi	sp,sp,-96
200138ac:	ce86                	sw	ra,92(sp)
200138ae:	cc96                	sw	t0,88(sp)
200138b0:	ca9a                	sw	t1,84(sp)
200138b2:	c89e                	sw	t2,80(sp)
200138b4:	c6a2                	sw	s0,76(sp)
200138b6:	c4aa                	sw	a0,72(sp)
200138b8:	c2ae                	sw	a1,68(sp)
200138ba:	c0b2                	sw	a2,64(sp)
200138bc:	de36                	sw	a3,60(sp)
200138be:	dc3a                	sw	a4,56(sp)
200138c0:	da3e                	sw	a5,52(sp)
200138c2:	d842                	sw	a6,48(sp)
200138c4:	d646                	sw	a7,44(sp)
200138c6:	d472                	sw	t3,40(sp)
200138c8:	d276                	sw	t4,36(sp)
200138ca:	d07a                	sw	t5,32(sp)
200138cc:	ce7e                	sw	t6,28(sp)
200138ce:	1080                	addi	s0,sp,96
E:/GitHub/HiFive01-RevB/FS_workspace/sifive_hifive1_revb_sifive_welcome/freedom-metal/src/drivers/riscv_cpu.c:255
    __METAL_IRQ_VECTOR_HANDLER(METAL_INTERRUPT_ID_LC8);
200138d0:	d42ff0ef          	jal	ra,20012e12 <__metal_myhart_id>
200138d4:	872a                	mv	a4,a0
200138d6:	800017b7          	lui	a5,0x80001
200138da:	070a                	slli	a4,a4,0x2
200138dc:	ab478793          	addi	a5,a5,-1356 # 80000ab4 <metal_segment_heap_target_end+0xfffff314>
200138e0:	97ba                	add	a5,a5,a4
200138e2:	439c                	lw	a5,0(a5)
200138e4:	faf42623          	sw	a5,-84(s0)
200138e8:	fac42783          	lw	a5,-84(s0)
200138ec:	c78d                	beqz	a5,20013916 <metal_lc8_interrupt_vector_handler+0x6c>
E:/GitHub/HiFive01-RevB/FS_workspace/sifive_hifive1_revb_sifive_welcome/freedom-metal/src/drivers/riscv_cpu.c:255 (discriminator 1)
200138ee:	fac42503          	lw	a0,-84(s0)
200138f2:	ca2ff0ef          	jal	ra,20012d94 <__metal_driver_cpu_interrupt_controller>
200138f6:	faa42423          	sw	a0,-88(s0)
200138fa:	fa842783          	lw	a5,-88(s0)
200138fe:	2d87a783          	lw	a5,728(a5)
20013902:	faf42223          	sw	a5,-92(s0)
20013906:	fa842783          	lw	a5,-88(s0)
2001390a:	2d07a783          	lw	a5,720(a5)
2001390e:	fa442583          	lw	a1,-92(s0)
20013912:	4561                	li	a0,24
20013914:	9782                	jalr	a5
E:/GitHub/HiFive01-RevB/FS_workspace/sifive_hifive1_revb_sifive_welcome/freedom-metal/src/drivers/riscv_cpu.c:256
}
20013916:	0001                	nop
20013918:	40f6                	lw	ra,92(sp)
2001391a:	42e6                	lw	t0,88(sp)
2001391c:	4356                	lw	t1,84(sp)
2001391e:	43c6                	lw	t2,80(sp)
20013920:	4436                	lw	s0,76(sp)
20013922:	4526                	lw	a0,72(sp)
20013924:	4596                	lw	a1,68(sp)
20013926:	4606                	lw	a2,64(sp)
20013928:	56f2                	lw	a3,60(sp)
2001392a:	5762                	lw	a4,56(sp)
2001392c:	57d2                	lw	a5,52(sp)
2001392e:	5842                	lw	a6,48(sp)
20013930:	58b2                	lw	a7,44(sp)
20013932:	5e22                	lw	t3,40(sp)
20013934:	5e92                	lw	t4,36(sp)
20013936:	5f02                	lw	t5,32(sp)
20013938:	4ff2                	lw	t6,28(sp)
2001393a:	6125                	addi	sp,sp,96
2001393c:	30200073          	mret

20013940 <metal_lc9_interrupt_vector_handler>:
metal_lc9_interrupt_vector_handler():
E:/GitHub/HiFive01-RevB/FS_workspace/sifive_hifive1_revb_sifive_welcome/freedom-metal/src/drivers/riscv_cpu.c:259

/* The metal_lc9_interrupt_vector_handler() function can be redefined. */
void __attribute__((weak, interrupt)) metal_lc9_interrupt_vector_handler(void) {
20013940:	711d                	addi	sp,sp,-96
20013942:	ce86                	sw	ra,92(sp)
20013944:	cc96                	sw	t0,88(sp)
20013946:	ca9a                	sw	t1,84(sp)
20013948:	c89e                	sw	t2,80(sp)
2001394a:	c6a2                	sw	s0,76(sp)
2001394c:	c4aa                	sw	a0,72(sp)
2001394e:	c2ae                	sw	a1,68(sp)
20013950:	c0b2                	sw	a2,64(sp)
20013952:	de36                	sw	a3,60(sp)
20013954:	dc3a                	sw	a4,56(sp)
20013956:	da3e                	sw	a5,52(sp)
20013958:	d842                	sw	a6,48(sp)
2001395a:	d646                	sw	a7,44(sp)
2001395c:	d472                	sw	t3,40(sp)
2001395e:	d276                	sw	t4,36(sp)
20013960:	d07a                	sw	t5,32(sp)
20013962:	ce7e                	sw	t6,28(sp)
20013964:	1080                	addi	s0,sp,96
E:/GitHub/HiFive01-RevB/FS_workspace/sifive_hifive1_revb_sifive_welcome/freedom-metal/src/drivers/riscv_cpu.c:260
    __METAL_IRQ_VECTOR_HANDLER(METAL_INTERRUPT_ID_LC9);
20013966:	cacff0ef          	jal	ra,20012e12 <__metal_myhart_id>
2001396a:	872a                	mv	a4,a0
2001396c:	800017b7          	lui	a5,0x80001
20013970:	070a                	slli	a4,a4,0x2
20013972:	ab478793          	addi	a5,a5,-1356 # 80000ab4 <metal_segment_heap_target_end+0xfffff314>
20013976:	97ba                	add	a5,a5,a4
20013978:	439c                	lw	a5,0(a5)
2001397a:	faf42623          	sw	a5,-84(s0)
2001397e:	fac42783          	lw	a5,-84(s0)
20013982:	c78d                	beqz	a5,200139ac <metal_lc9_interrupt_vector_handler+0x6c>
E:/GitHub/HiFive01-RevB/FS_workspace/sifive_hifive1_revb_sifive_welcome/freedom-metal/src/drivers/riscv_cpu.c:260 (discriminator 1)
20013984:	fac42503          	lw	a0,-84(s0)
20013988:	c0cff0ef          	jal	ra,20012d94 <__metal_driver_cpu_interrupt_controller>
2001398c:	faa42423          	sw	a0,-88(s0)
20013990:	fa842783          	lw	a5,-88(s0)
20013994:	2f07a783          	lw	a5,752(a5)
20013998:	faf42223          	sw	a5,-92(s0)
2001399c:	fa842783          	lw	a5,-88(s0)
200139a0:	2e87a783          	lw	a5,744(a5)
200139a4:	fa442583          	lw	a1,-92(s0)
200139a8:	4565                	li	a0,25
200139aa:	9782                	jalr	a5
E:/GitHub/HiFive01-RevB/FS_workspace/sifive_hifive1_revb_sifive_welcome/freedom-metal/src/drivers/riscv_cpu.c:261
}
200139ac:	0001                	nop
200139ae:	40f6                	lw	ra,92(sp)
200139b0:	42e6                	lw	t0,88(sp)
200139b2:	4356                	lw	t1,84(sp)
200139b4:	43c6                	lw	t2,80(sp)
200139b6:	4436                	lw	s0,76(sp)
200139b8:	4526                	lw	a0,72(sp)
200139ba:	4596                	lw	a1,68(sp)
200139bc:	4606                	lw	a2,64(sp)
200139be:	56f2                	lw	a3,60(sp)
200139c0:	5762                	lw	a4,56(sp)
200139c2:	57d2                	lw	a5,52(sp)
200139c4:	5842                	lw	a6,48(sp)
200139c6:	58b2                	lw	a7,44(sp)
200139c8:	5e22                	lw	t3,40(sp)
200139ca:	5e92                	lw	t4,36(sp)
200139cc:	5f02                	lw	t5,32(sp)
200139ce:	4ff2                	lw	t6,28(sp)
200139d0:	6125                	addi	sp,sp,96
200139d2:	30200073          	mret

200139d6 <metal_lc10_interrupt_vector_handler>:
metal_lc10_interrupt_vector_handler():
E:/GitHub/HiFive01-RevB/FS_workspace/sifive_hifive1_revb_sifive_welcome/freedom-metal/src/drivers/riscv_cpu.c:265

/* The metal_lc10_interrupt_vector_handler() function can be redefined. */
void __attribute__((weak, interrupt))
metal_lc10_interrupt_vector_handler(void) {
200139d6:	711d                	addi	sp,sp,-96
200139d8:	ce86                	sw	ra,92(sp)
200139da:	cc96                	sw	t0,88(sp)
200139dc:	ca9a                	sw	t1,84(sp)
200139de:	c89e                	sw	t2,80(sp)
200139e0:	c6a2                	sw	s0,76(sp)
200139e2:	c4aa                	sw	a0,72(sp)
200139e4:	c2ae                	sw	a1,68(sp)
200139e6:	c0b2                	sw	a2,64(sp)
200139e8:	de36                	sw	a3,60(sp)
200139ea:	dc3a                	sw	a4,56(sp)
200139ec:	da3e                	sw	a5,52(sp)
200139ee:	d842                	sw	a6,48(sp)
200139f0:	d646                	sw	a7,44(sp)
200139f2:	d472                	sw	t3,40(sp)
200139f4:	d276                	sw	t4,36(sp)
200139f6:	d07a                	sw	t5,32(sp)
200139f8:	ce7e                	sw	t6,28(sp)
200139fa:	1080                	addi	s0,sp,96
E:/GitHub/HiFive01-RevB/FS_workspace/sifive_hifive1_revb_sifive_welcome/freedom-metal/src/drivers/riscv_cpu.c:266
    __METAL_IRQ_VECTOR_HANDLER(METAL_INTERRUPT_ID_LC10);
200139fc:	c16ff0ef          	jal	ra,20012e12 <__metal_myhart_id>
20013a00:	872a                	mv	a4,a0
20013a02:	800017b7          	lui	a5,0x80001
20013a06:	070a                	slli	a4,a4,0x2
20013a08:	ab478793          	addi	a5,a5,-1356 # 80000ab4 <metal_segment_heap_target_end+0xfffff314>
20013a0c:	97ba                	add	a5,a5,a4
20013a0e:	439c                	lw	a5,0(a5)
20013a10:	faf42623          	sw	a5,-84(s0)
20013a14:	fac42783          	lw	a5,-84(s0)
20013a18:	c78d                	beqz	a5,20013a42 <metal_lc10_interrupt_vector_handler+0x6c>
E:/GitHub/HiFive01-RevB/FS_workspace/sifive_hifive1_revb_sifive_welcome/freedom-metal/src/drivers/riscv_cpu.c:266 (discriminator 1)
20013a1a:	fac42503          	lw	a0,-84(s0)
20013a1e:	b76ff0ef          	jal	ra,20012d94 <__metal_driver_cpu_interrupt_controller>
20013a22:	faa42423          	sw	a0,-88(s0)
20013a26:	fa842783          	lw	a5,-88(s0)
20013a2a:	3087a783          	lw	a5,776(a5)
20013a2e:	faf42223          	sw	a5,-92(s0)
20013a32:	fa842783          	lw	a5,-88(s0)
20013a36:	3007a783          	lw	a5,768(a5)
20013a3a:	fa442583          	lw	a1,-92(s0)
20013a3e:	4569                	li	a0,26
20013a40:	9782                	jalr	a5
E:/GitHub/HiFive01-RevB/FS_workspace/sifive_hifive1_revb_sifive_welcome/freedom-metal/src/drivers/riscv_cpu.c:267
}
20013a42:	0001                	nop
20013a44:	40f6                	lw	ra,92(sp)
20013a46:	42e6                	lw	t0,88(sp)
20013a48:	4356                	lw	t1,84(sp)
20013a4a:	43c6                	lw	t2,80(sp)
20013a4c:	4436                	lw	s0,76(sp)
20013a4e:	4526                	lw	a0,72(sp)
20013a50:	4596                	lw	a1,68(sp)
20013a52:	4606                	lw	a2,64(sp)
20013a54:	56f2                	lw	a3,60(sp)
20013a56:	5762                	lw	a4,56(sp)
20013a58:	57d2                	lw	a5,52(sp)
20013a5a:	5842                	lw	a6,48(sp)
20013a5c:	58b2                	lw	a7,44(sp)
20013a5e:	5e22                	lw	t3,40(sp)
20013a60:	5e92                	lw	t4,36(sp)
20013a62:	5f02                	lw	t5,32(sp)
20013a64:	4ff2                	lw	t6,28(sp)
20013a66:	6125                	addi	sp,sp,96
20013a68:	30200073          	mret

20013a6c <metal_lc11_interrupt_vector_handler>:
metal_lc11_interrupt_vector_handler():
E:/GitHub/HiFive01-RevB/FS_workspace/sifive_hifive1_revb_sifive_welcome/freedom-metal/src/drivers/riscv_cpu.c:271

/* The metal_lc11_interrupt_vector_handler() function can be redefined. */
void __attribute__((weak, interrupt))
metal_lc11_interrupt_vector_handler(void) {
20013a6c:	711d                	addi	sp,sp,-96
20013a6e:	ce86                	sw	ra,92(sp)
20013a70:	cc96                	sw	t0,88(sp)
20013a72:	ca9a                	sw	t1,84(sp)
20013a74:	c89e                	sw	t2,80(sp)
20013a76:	c6a2                	sw	s0,76(sp)
20013a78:	c4aa                	sw	a0,72(sp)
20013a7a:	c2ae                	sw	a1,68(sp)
20013a7c:	c0b2                	sw	a2,64(sp)
20013a7e:	de36                	sw	a3,60(sp)
20013a80:	dc3a                	sw	a4,56(sp)
20013a82:	da3e                	sw	a5,52(sp)
20013a84:	d842                	sw	a6,48(sp)
20013a86:	d646                	sw	a7,44(sp)
20013a88:	d472                	sw	t3,40(sp)
20013a8a:	d276                	sw	t4,36(sp)
20013a8c:	d07a                	sw	t5,32(sp)
20013a8e:	ce7e                	sw	t6,28(sp)
20013a90:	1080                	addi	s0,sp,96
E:/GitHub/HiFive01-RevB/FS_workspace/sifive_hifive1_revb_sifive_welcome/freedom-metal/src/drivers/riscv_cpu.c:272
    __METAL_IRQ_VECTOR_HANDLER(METAL_INTERRUPT_ID_LC11);
20013a92:	b80ff0ef          	jal	ra,20012e12 <__metal_myhart_id>
20013a96:	872a                	mv	a4,a0
20013a98:	800017b7          	lui	a5,0x80001
20013a9c:	070a                	slli	a4,a4,0x2
20013a9e:	ab478793          	addi	a5,a5,-1356 # 80000ab4 <metal_segment_heap_target_end+0xfffff314>
20013aa2:	97ba                	add	a5,a5,a4
20013aa4:	439c                	lw	a5,0(a5)
20013aa6:	faf42623          	sw	a5,-84(s0)
20013aaa:	fac42783          	lw	a5,-84(s0)
20013aae:	c78d                	beqz	a5,20013ad8 <metal_lc11_interrupt_vector_handler+0x6c>
E:/GitHub/HiFive01-RevB/FS_workspace/sifive_hifive1_revb_sifive_welcome/freedom-metal/src/drivers/riscv_cpu.c:272 (discriminator 1)
20013ab0:	fac42503          	lw	a0,-84(s0)
20013ab4:	ae0ff0ef          	jal	ra,20012d94 <__metal_driver_cpu_interrupt_controller>
20013ab8:	faa42423          	sw	a0,-88(s0)
20013abc:	fa842783          	lw	a5,-88(s0)
20013ac0:	3207a783          	lw	a5,800(a5)
20013ac4:	faf42223          	sw	a5,-92(s0)
20013ac8:	fa842783          	lw	a5,-88(s0)
20013acc:	3187a783          	lw	a5,792(a5)
20013ad0:	fa442583          	lw	a1,-92(s0)
20013ad4:	456d                	li	a0,27
20013ad6:	9782                	jalr	a5
E:/GitHub/HiFive01-RevB/FS_workspace/sifive_hifive1_revb_sifive_welcome/freedom-metal/src/drivers/riscv_cpu.c:273
}
20013ad8:	0001                	nop
20013ada:	40f6                	lw	ra,92(sp)
20013adc:	42e6                	lw	t0,88(sp)
20013ade:	4356                	lw	t1,84(sp)
20013ae0:	43c6                	lw	t2,80(sp)
20013ae2:	4436                	lw	s0,76(sp)
20013ae4:	4526                	lw	a0,72(sp)
20013ae6:	4596                	lw	a1,68(sp)
20013ae8:	4606                	lw	a2,64(sp)
20013aea:	56f2                	lw	a3,60(sp)
20013aec:	5762                	lw	a4,56(sp)
20013aee:	57d2                	lw	a5,52(sp)
20013af0:	5842                	lw	a6,48(sp)
20013af2:	58b2                	lw	a7,44(sp)
20013af4:	5e22                	lw	t3,40(sp)
20013af6:	5e92                	lw	t4,36(sp)
20013af8:	5f02                	lw	t5,32(sp)
20013afa:	4ff2                	lw	t6,28(sp)
20013afc:	6125                	addi	sp,sp,96
20013afe:	30200073          	mret

20013b02 <metal_lc12_interrupt_vector_handler>:
metal_lc12_interrupt_vector_handler():
E:/GitHub/HiFive01-RevB/FS_workspace/sifive_hifive1_revb_sifive_welcome/freedom-metal/src/drivers/riscv_cpu.c:277

/* The metal_lc12_interrupt_vector_handler() function can be redefined. */
void __attribute__((weak, interrupt))
metal_lc12_interrupt_vector_handler(void) {
20013b02:	711d                	addi	sp,sp,-96
20013b04:	ce86                	sw	ra,92(sp)
20013b06:	cc96                	sw	t0,88(sp)
20013b08:	ca9a                	sw	t1,84(sp)
20013b0a:	c89e                	sw	t2,80(sp)
20013b0c:	c6a2                	sw	s0,76(sp)
20013b0e:	c4aa                	sw	a0,72(sp)
20013b10:	c2ae                	sw	a1,68(sp)
20013b12:	c0b2                	sw	a2,64(sp)
20013b14:	de36                	sw	a3,60(sp)
20013b16:	dc3a                	sw	a4,56(sp)
20013b18:	da3e                	sw	a5,52(sp)
20013b1a:	d842                	sw	a6,48(sp)
20013b1c:	d646                	sw	a7,44(sp)
20013b1e:	d472                	sw	t3,40(sp)
20013b20:	d276                	sw	t4,36(sp)
20013b22:	d07a                	sw	t5,32(sp)
20013b24:	ce7e                	sw	t6,28(sp)
20013b26:	1080                	addi	s0,sp,96
E:/GitHub/HiFive01-RevB/FS_workspace/sifive_hifive1_revb_sifive_welcome/freedom-metal/src/drivers/riscv_cpu.c:278
    __METAL_IRQ_VECTOR_HANDLER(METAL_INTERRUPT_ID_LC12);
20013b28:	aeaff0ef          	jal	ra,20012e12 <__metal_myhart_id>
20013b2c:	872a                	mv	a4,a0
20013b2e:	800017b7          	lui	a5,0x80001
20013b32:	070a                	slli	a4,a4,0x2
20013b34:	ab478793          	addi	a5,a5,-1356 # 80000ab4 <metal_segment_heap_target_end+0xfffff314>
20013b38:	97ba                	add	a5,a5,a4
20013b3a:	439c                	lw	a5,0(a5)
20013b3c:	faf42623          	sw	a5,-84(s0)
20013b40:	fac42783          	lw	a5,-84(s0)
20013b44:	c78d                	beqz	a5,20013b6e <metal_lc12_interrupt_vector_handler+0x6c>
E:/GitHub/HiFive01-RevB/FS_workspace/sifive_hifive1_revb_sifive_welcome/freedom-metal/src/drivers/riscv_cpu.c:278 (discriminator 1)
20013b46:	fac42503          	lw	a0,-84(s0)
20013b4a:	a4aff0ef          	jal	ra,20012d94 <__metal_driver_cpu_interrupt_controller>
20013b4e:	faa42423          	sw	a0,-88(s0)
20013b52:	fa842783          	lw	a5,-88(s0)
20013b56:	3387a783          	lw	a5,824(a5)
20013b5a:	faf42223          	sw	a5,-92(s0)
20013b5e:	fa842783          	lw	a5,-88(s0)
20013b62:	3307a783          	lw	a5,816(a5)
20013b66:	fa442583          	lw	a1,-92(s0)
20013b6a:	4571                	li	a0,28
20013b6c:	9782                	jalr	a5
E:/GitHub/HiFive01-RevB/FS_workspace/sifive_hifive1_revb_sifive_welcome/freedom-metal/src/drivers/riscv_cpu.c:279
}
20013b6e:	0001                	nop
20013b70:	40f6                	lw	ra,92(sp)
20013b72:	42e6                	lw	t0,88(sp)
20013b74:	4356                	lw	t1,84(sp)
20013b76:	43c6                	lw	t2,80(sp)
20013b78:	4436                	lw	s0,76(sp)
20013b7a:	4526                	lw	a0,72(sp)
20013b7c:	4596                	lw	a1,68(sp)
20013b7e:	4606                	lw	a2,64(sp)
20013b80:	56f2                	lw	a3,60(sp)
20013b82:	5762                	lw	a4,56(sp)
20013b84:	57d2                	lw	a5,52(sp)
20013b86:	5842                	lw	a6,48(sp)
20013b88:	58b2                	lw	a7,44(sp)
20013b8a:	5e22                	lw	t3,40(sp)
20013b8c:	5e92                	lw	t4,36(sp)
20013b8e:	5f02                	lw	t5,32(sp)
20013b90:	4ff2                	lw	t6,28(sp)
20013b92:	6125                	addi	sp,sp,96
20013b94:	30200073          	mret

20013b98 <metal_lc13_interrupt_vector_handler>:
metal_lc13_interrupt_vector_handler():
E:/GitHub/HiFive01-RevB/FS_workspace/sifive_hifive1_revb_sifive_welcome/freedom-metal/src/drivers/riscv_cpu.c:283

/* The metal_lc13_interrupt_vector_handler() function can be redefined. */
void __attribute__((weak, interrupt))
metal_lc13_interrupt_vector_handler(void) {
20013b98:	711d                	addi	sp,sp,-96
20013b9a:	ce86                	sw	ra,92(sp)
20013b9c:	cc96                	sw	t0,88(sp)
20013b9e:	ca9a                	sw	t1,84(sp)
20013ba0:	c89e                	sw	t2,80(sp)
20013ba2:	c6a2                	sw	s0,76(sp)
20013ba4:	c4aa                	sw	a0,72(sp)
20013ba6:	c2ae                	sw	a1,68(sp)
20013ba8:	c0b2                	sw	a2,64(sp)
20013baa:	de36                	sw	a3,60(sp)
20013bac:	dc3a                	sw	a4,56(sp)
20013bae:	da3e                	sw	a5,52(sp)
20013bb0:	d842                	sw	a6,48(sp)
20013bb2:	d646                	sw	a7,44(sp)
20013bb4:	d472                	sw	t3,40(sp)
20013bb6:	d276                	sw	t4,36(sp)
20013bb8:	d07a                	sw	t5,32(sp)
20013bba:	ce7e                	sw	t6,28(sp)
20013bbc:	1080                	addi	s0,sp,96
E:/GitHub/HiFive01-RevB/FS_workspace/sifive_hifive1_revb_sifive_welcome/freedom-metal/src/drivers/riscv_cpu.c:284
    __METAL_IRQ_VECTOR_HANDLER(METAL_INTERRUPT_ID_LC13);
20013bbe:	a54ff0ef          	jal	ra,20012e12 <__metal_myhart_id>
20013bc2:	872a                	mv	a4,a0
20013bc4:	800017b7          	lui	a5,0x80001
20013bc8:	070a                	slli	a4,a4,0x2
20013bca:	ab478793          	addi	a5,a5,-1356 # 80000ab4 <metal_segment_heap_target_end+0xfffff314>
20013bce:	97ba                	add	a5,a5,a4
20013bd0:	439c                	lw	a5,0(a5)
20013bd2:	faf42623          	sw	a5,-84(s0)
20013bd6:	fac42783          	lw	a5,-84(s0)
20013bda:	c78d                	beqz	a5,20013c04 <metal_lc13_interrupt_vector_handler+0x6c>
E:/GitHub/HiFive01-RevB/FS_workspace/sifive_hifive1_revb_sifive_welcome/freedom-metal/src/drivers/riscv_cpu.c:284 (discriminator 1)
20013bdc:	fac42503          	lw	a0,-84(s0)
20013be0:	9b4ff0ef          	jal	ra,20012d94 <__metal_driver_cpu_interrupt_controller>
20013be4:	faa42423          	sw	a0,-88(s0)
20013be8:	fa842783          	lw	a5,-88(s0)
20013bec:	3507a783          	lw	a5,848(a5)
20013bf0:	faf42223          	sw	a5,-92(s0)
20013bf4:	fa842783          	lw	a5,-88(s0)
20013bf8:	3487a783          	lw	a5,840(a5)
20013bfc:	fa442583          	lw	a1,-92(s0)
20013c00:	4575                	li	a0,29
20013c02:	9782                	jalr	a5
E:/GitHub/HiFive01-RevB/FS_workspace/sifive_hifive1_revb_sifive_welcome/freedom-metal/src/drivers/riscv_cpu.c:285
}
20013c04:	0001                	nop
20013c06:	40f6                	lw	ra,92(sp)
20013c08:	42e6                	lw	t0,88(sp)
20013c0a:	4356                	lw	t1,84(sp)
20013c0c:	43c6                	lw	t2,80(sp)
20013c0e:	4436                	lw	s0,76(sp)
20013c10:	4526                	lw	a0,72(sp)
20013c12:	4596                	lw	a1,68(sp)
20013c14:	4606                	lw	a2,64(sp)
20013c16:	56f2                	lw	a3,60(sp)
20013c18:	5762                	lw	a4,56(sp)
20013c1a:	57d2                	lw	a5,52(sp)
20013c1c:	5842                	lw	a6,48(sp)
20013c1e:	58b2                	lw	a7,44(sp)
20013c20:	5e22                	lw	t3,40(sp)
20013c22:	5e92                	lw	t4,36(sp)
20013c24:	5f02                	lw	t5,32(sp)
20013c26:	4ff2                	lw	t6,28(sp)
20013c28:	6125                	addi	sp,sp,96
20013c2a:	30200073          	mret

20013c2e <metal_lc14_interrupt_vector_handler>:
metal_lc14_interrupt_vector_handler():
E:/GitHub/HiFive01-RevB/FS_workspace/sifive_hifive1_revb_sifive_welcome/freedom-metal/src/drivers/riscv_cpu.c:289

/* The metal_lc14_interrupt_vector_handler() function can be redefined. */
void __attribute__((weak, interrupt))
metal_lc14_interrupt_vector_handler(void) {
20013c2e:	711d                	addi	sp,sp,-96
20013c30:	ce86                	sw	ra,92(sp)
20013c32:	cc96                	sw	t0,88(sp)
20013c34:	ca9a                	sw	t1,84(sp)
20013c36:	c89e                	sw	t2,80(sp)
20013c38:	c6a2                	sw	s0,76(sp)
20013c3a:	c4aa                	sw	a0,72(sp)
20013c3c:	c2ae                	sw	a1,68(sp)
20013c3e:	c0b2                	sw	a2,64(sp)
20013c40:	de36                	sw	a3,60(sp)
20013c42:	dc3a                	sw	a4,56(sp)
20013c44:	da3e                	sw	a5,52(sp)
20013c46:	d842                	sw	a6,48(sp)
20013c48:	d646                	sw	a7,44(sp)
20013c4a:	d472                	sw	t3,40(sp)
20013c4c:	d276                	sw	t4,36(sp)
20013c4e:	d07a                	sw	t5,32(sp)
20013c50:	ce7e                	sw	t6,28(sp)
20013c52:	1080                	addi	s0,sp,96
E:/GitHub/HiFive01-RevB/FS_workspace/sifive_hifive1_revb_sifive_welcome/freedom-metal/src/drivers/riscv_cpu.c:290
    __METAL_IRQ_VECTOR_HANDLER(METAL_INTERRUPT_ID_LC14);
20013c54:	9beff0ef          	jal	ra,20012e12 <__metal_myhart_id>
20013c58:	872a                	mv	a4,a0
20013c5a:	800017b7          	lui	a5,0x80001
20013c5e:	070a                	slli	a4,a4,0x2
20013c60:	ab478793          	addi	a5,a5,-1356 # 80000ab4 <metal_segment_heap_target_end+0xfffff314>
20013c64:	97ba                	add	a5,a5,a4
20013c66:	439c                	lw	a5,0(a5)
20013c68:	faf42623          	sw	a5,-84(s0)
20013c6c:	fac42783          	lw	a5,-84(s0)
20013c70:	c78d                	beqz	a5,20013c9a <metal_lc14_interrupt_vector_handler+0x6c>
E:/GitHub/HiFive01-RevB/FS_workspace/sifive_hifive1_revb_sifive_welcome/freedom-metal/src/drivers/riscv_cpu.c:290 (discriminator 1)
20013c72:	fac42503          	lw	a0,-84(s0)
20013c76:	91eff0ef          	jal	ra,20012d94 <__metal_driver_cpu_interrupt_controller>
20013c7a:	faa42423          	sw	a0,-88(s0)
20013c7e:	fa842783          	lw	a5,-88(s0)
20013c82:	3687a783          	lw	a5,872(a5)
20013c86:	faf42223          	sw	a5,-92(s0)
20013c8a:	fa842783          	lw	a5,-88(s0)
20013c8e:	3607a783          	lw	a5,864(a5)
20013c92:	fa442583          	lw	a1,-92(s0)
20013c96:	4579                	li	a0,30
20013c98:	9782                	jalr	a5
E:/GitHub/HiFive01-RevB/FS_workspace/sifive_hifive1_revb_sifive_welcome/freedom-metal/src/drivers/riscv_cpu.c:291
}
20013c9a:	0001                	nop
20013c9c:	40f6                	lw	ra,92(sp)
20013c9e:	42e6                	lw	t0,88(sp)
20013ca0:	4356                	lw	t1,84(sp)
20013ca2:	43c6                	lw	t2,80(sp)
20013ca4:	4436                	lw	s0,76(sp)
20013ca6:	4526                	lw	a0,72(sp)
20013ca8:	4596                	lw	a1,68(sp)
20013caa:	4606                	lw	a2,64(sp)
20013cac:	56f2                	lw	a3,60(sp)
20013cae:	5762                	lw	a4,56(sp)
20013cb0:	57d2                	lw	a5,52(sp)
20013cb2:	5842                	lw	a6,48(sp)
20013cb4:	58b2                	lw	a7,44(sp)
20013cb6:	5e22                	lw	t3,40(sp)
20013cb8:	5e92                	lw	t4,36(sp)
20013cba:	5f02                	lw	t5,32(sp)
20013cbc:	4ff2                	lw	t6,28(sp)
20013cbe:	6125                	addi	sp,sp,96
20013cc0:	30200073          	mret

20013cc4 <metal_lc15_interrupt_vector_handler>:
metal_lc15_interrupt_vector_handler():
E:/GitHub/HiFive01-RevB/FS_workspace/sifive_hifive1_revb_sifive_welcome/freedom-metal/src/drivers/riscv_cpu.c:295

/* The metal_lc15_interrupt_vector_handler() function can be redefined. */
void __attribute__((weak, interrupt))
metal_lc15_interrupt_vector_handler(void) {
20013cc4:	711d                	addi	sp,sp,-96
20013cc6:	ce86                	sw	ra,92(sp)
20013cc8:	cc96                	sw	t0,88(sp)
20013cca:	ca9a                	sw	t1,84(sp)
20013ccc:	c89e                	sw	t2,80(sp)
20013cce:	c6a2                	sw	s0,76(sp)
20013cd0:	c4aa                	sw	a0,72(sp)
20013cd2:	c2ae                	sw	a1,68(sp)
20013cd4:	c0b2                	sw	a2,64(sp)
20013cd6:	de36                	sw	a3,60(sp)
20013cd8:	dc3a                	sw	a4,56(sp)
20013cda:	da3e                	sw	a5,52(sp)
20013cdc:	d842                	sw	a6,48(sp)
20013cde:	d646                	sw	a7,44(sp)
20013ce0:	d472                	sw	t3,40(sp)
20013ce2:	d276                	sw	t4,36(sp)
20013ce4:	d07a                	sw	t5,32(sp)
20013ce6:	ce7e                	sw	t6,28(sp)
20013ce8:	1080                	addi	s0,sp,96
E:/GitHub/HiFive01-RevB/FS_workspace/sifive_hifive1_revb_sifive_welcome/freedom-metal/src/drivers/riscv_cpu.c:296
    __METAL_IRQ_VECTOR_HANDLER(METAL_INTERRUPT_ID_LC15);
20013cea:	928ff0ef          	jal	ra,20012e12 <__metal_myhart_id>
20013cee:	872a                	mv	a4,a0
20013cf0:	800017b7          	lui	a5,0x80001
20013cf4:	070a                	slli	a4,a4,0x2
20013cf6:	ab478793          	addi	a5,a5,-1356 # 80000ab4 <metal_segment_heap_target_end+0xfffff314>
20013cfa:	97ba                	add	a5,a5,a4
20013cfc:	439c                	lw	a5,0(a5)
20013cfe:	faf42623          	sw	a5,-84(s0)
20013d02:	fac42783          	lw	a5,-84(s0)
20013d06:	c78d                	beqz	a5,20013d30 <metal_lc15_interrupt_vector_handler+0x6c>
E:/GitHub/HiFive01-RevB/FS_workspace/sifive_hifive1_revb_sifive_welcome/freedom-metal/src/drivers/riscv_cpu.c:296 (discriminator 1)
20013d08:	fac42503          	lw	a0,-84(s0)
20013d0c:	888ff0ef          	jal	ra,20012d94 <__metal_driver_cpu_interrupt_controller>
20013d10:	faa42423          	sw	a0,-88(s0)
20013d14:	fa842783          	lw	a5,-88(s0)
20013d18:	3807a783          	lw	a5,896(a5)
20013d1c:	faf42223          	sw	a5,-92(s0)
20013d20:	fa842783          	lw	a5,-88(s0)
20013d24:	3787a783          	lw	a5,888(a5)
20013d28:	fa442583          	lw	a1,-92(s0)
20013d2c:	457d                	li	a0,31
20013d2e:	9782                	jalr	a5
E:/GitHub/HiFive01-RevB/FS_workspace/sifive_hifive1_revb_sifive_welcome/freedom-metal/src/drivers/riscv_cpu.c:297
}
20013d30:	0001                	nop
20013d32:	40f6                	lw	ra,92(sp)
20013d34:	42e6                	lw	t0,88(sp)
20013d36:	4356                	lw	t1,84(sp)
20013d38:	43c6                	lw	t2,80(sp)
20013d3a:	4436                	lw	s0,76(sp)
20013d3c:	4526                	lw	a0,72(sp)
20013d3e:	4596                	lw	a1,68(sp)
20013d40:	4606                	lw	a2,64(sp)
20013d42:	56f2                	lw	a3,60(sp)
20013d44:	5762                	lw	a4,56(sp)
20013d46:	57d2                	lw	a5,52(sp)
20013d48:	5842                	lw	a6,48(sp)
20013d4a:	58b2                	lw	a7,44(sp)
20013d4c:	5e22                	lw	t3,40(sp)
20013d4e:	5e92                	lw	t4,36(sp)
20013d50:	5f02                	lw	t5,32(sp)
20013d52:	4ff2                	lw	t6,28(sp)
20013d54:	6125                	addi	sp,sp,96
20013d56:	30200073          	mret

20013d5a <__metal_controller_interrupt_vector_mode>:
__metal_controller_interrupt_vector_mode():
E:/GitHub/HiFive01-RevB/FS_workspace/sifive_hifive1_revb_sifive_welcome/freedom-metal/src/drivers/riscv_cpu.c:299

metal_vector_mode __metal_controller_interrupt_vector_mode(void) {
20013d5a:	1101                	addi	sp,sp,-32
20013d5c:	ce22                	sw	s0,28(sp)
20013d5e:	1000                	addi	s0,sp,32
E:/GitHub/HiFive01-RevB/FS_workspace/sifive_hifive1_revb_sifive_welcome/freedom-metal/src/drivers/riscv_cpu.c:302
    uintptr_t val;

    __asm__ volatile("csrr %0, mtvec" : "=r"(val));
20013d60:	305027f3          	csrr	a5,mtvec
20013d64:	fef42623          	sw	a5,-20(s0)
E:/GitHub/HiFive01-RevB/FS_workspace/sifive_hifive1_revb_sifive_welcome/freedom-metal/src/drivers/riscv_cpu.c:303
    val &= METAL_MTVEC_MASK;
20013d68:	fec42783          	lw	a5,-20(s0)
20013d6c:	03f7f793          	andi	a5,a5,63
20013d70:	fef42623          	sw	a5,-20(s0)
E:/GitHub/HiFive01-RevB/FS_workspace/sifive_hifive1_revb_sifive_welcome/freedom-metal/src/drivers/riscv_cpu.c:305

    switch (val) {
20013d74:	fec42703          	lw	a4,-20(s0)
20013d78:	478d                	li	a5,3
20013d7a:	02f70363          	beq	a4,a5,20013da0 <__metal_controller_interrupt_vector_mode+0x46>
20013d7e:	fec42703          	lw	a4,-20(s0)
20013d82:	478d                	li	a5,3
20013d84:	02e7e263          	bltu	a5,a4,20013da8 <__metal_controller_interrupt_vector_mode+0x4e>
20013d88:	fec42703          	lw	a4,-20(s0)
20013d8c:	4785                	li	a5,1
20013d8e:	00f70b63          	beq	a4,a5,20013da4 <__metal_controller_interrupt_vector_mode+0x4a>
20013d92:	fec42703          	lw	a4,-20(s0)
20013d96:	4789                	li	a5,2
20013d98:	00f71863          	bne	a4,a5,20013da8 <__metal_controller_interrupt_vector_mode+0x4e>
E:/GitHub/HiFive01-RevB/FS_workspace/sifive_hifive1_revb_sifive_welcome/freedom-metal/src/drivers/riscv_cpu.c:307
    case METAL_MTVEC_CLIC:
        return METAL_SELECTIVE_VECTOR_MODE;
20013d9c:	478d                	li	a5,3
20013d9e:	a031                	j	20013daa <__metal_controller_interrupt_vector_mode+0x50>
E:/GitHub/HiFive01-RevB/FS_workspace/sifive_hifive1_revb_sifive_welcome/freedom-metal/src/drivers/riscv_cpu.c:309
    case METAL_MTVEC_CLIC_VECTORED:
        return METAL_HARDWARE_VECTOR_MODE;
20013da0:	4791                	li	a5,4
20013da2:	a021                	j	20013daa <__metal_controller_interrupt_vector_mode+0x50>
E:/GitHub/HiFive01-RevB/FS_workspace/sifive_hifive1_revb_sifive_welcome/freedom-metal/src/drivers/riscv_cpu.c:311
    case METAL_MTVEC_VECTORED:
        return METAL_VECTOR_MODE;
20013da4:	4785                	li	a5,1
20013da6:	a011                	j	20013daa <__metal_controller_interrupt_vector_mode+0x50>
E:/GitHub/HiFive01-RevB/FS_workspace/sifive_hifive1_revb_sifive_welcome/freedom-metal/src/drivers/riscv_cpu.c:313
    }
    return METAL_DIRECT_MODE;
20013da8:	4781                	li	a5,0
E:/GitHub/HiFive01-RevB/FS_workspace/sifive_hifive1_revb_sifive_welcome/freedom-metal/src/drivers/riscv_cpu.c:314
}
20013daa:	853e                	mv	a0,a5
20013dac:	4472                	lw	s0,28(sp)
20013dae:	6105                	addi	sp,sp,32
20013db0:	8082                	ret

20013db2 <__metal_controller_interrupt_vector>:
__metal_controller_interrupt_vector():
E:/GitHub/HiFive01-RevB/FS_workspace/sifive_hifive1_revb_sifive_welcome/freedom-metal/src/drivers/riscv_cpu.c:317

void __metal_controller_interrupt_vector(metal_vector_mode mode,
                                         void *vec_table) {
20013db2:	7179                	addi	sp,sp,-48
20013db4:	d622                	sw	s0,44(sp)
20013db6:	1800                	addi	s0,sp,48
20013db8:	fca42e23          	sw	a0,-36(s0)
20013dbc:	fcb42c23          	sw	a1,-40(s0)
E:/GitHub/HiFive01-RevB/FS_workspace/sifive_hifive1_revb_sifive_welcome/freedom-metal/src/drivers/riscv_cpu.c:320
    uintptr_t trap_entry, val;

    __asm__ volatile("csrr %0, mtvec" : "=r"(val));
20013dc0:	305027f3          	csrr	a5,mtvec
20013dc4:	fef42623          	sw	a5,-20(s0)
E:/GitHub/HiFive01-RevB/FS_workspace/sifive_hifive1_revb_sifive_welcome/freedom-metal/src/drivers/riscv_cpu.c:321
    val &= ~(METAL_MTVEC_CLIC_VECTORED | METAL_MTVEC_CLIC_RESERVED);
20013dc8:	fec42783          	lw	a5,-20(s0)
20013dcc:	fc07f793          	andi	a5,a5,-64
20013dd0:	fef42623          	sw	a5,-20(s0)
E:/GitHub/HiFive01-RevB/FS_workspace/sifive_hifive1_revb_sifive_welcome/freedom-metal/src/drivers/riscv_cpu.c:322
    trap_entry = (uintptr_t)vec_table;
20013dd4:	fd842783          	lw	a5,-40(s0)
20013dd8:	fef42423          	sw	a5,-24(s0)
E:/GitHub/HiFive01-RevB/FS_workspace/sifive_hifive1_revb_sifive_welcome/freedom-metal/src/drivers/riscv_cpu.c:324

    switch (mode) {
20013ddc:	fdc42703          	lw	a4,-36(s0)
20013de0:	4791                	li	a5,4
20013de2:	04f70563          	beq	a4,a5,20013e2c <__metal_controller_interrupt_vector+0x7a>
20013de6:	fdc42703          	lw	a4,-36(s0)
20013dea:	4791                	li	a5,4
20013dec:	06e7e863          	bltu	a5,a4,20013e5c <__metal_controller_interrupt_vector+0xaa>
20013df0:	fdc42703          	lw	a4,-36(s0)
20013df4:	478d                	li	a5,3
20013df6:	06e7e363          	bltu	a5,a4,20013e5c <__metal_controller_interrupt_vector+0xaa>
20013dfa:	fdc42703          	lw	a4,-36(s0)
20013dfe:	4789                	li	a5,2
20013e00:	00f77b63          	bgeu	a4,a5,20013e16 <__metal_controller_interrupt_vector+0x64>
20013e04:	fdc42783          	lw	a5,-36(s0)
20013e08:	c7a1                	beqz	a5,20013e50 <__metal_controller_interrupt_vector+0x9e>
20013e0a:	fdc42703          	lw	a4,-36(s0)
20013e0e:	4785                	li	a5,1
20013e10:	02f70963          	beq	a4,a5,20013e42 <__metal_controller_interrupt_vector+0x90>
E:/GitHub/HiFive01-RevB/FS_workspace/sifive_hifive1_revb_sifive_welcome/freedom-metal/src/drivers/riscv_cpu.c:344
    case METAL_DIRECT_MODE:
        __asm__ volatile(
            "csrw mtvec, %0" ::"r"(trap_entry & ~METAL_MTVEC_CLIC_VECTORED));
        break;
    }
}
20013e14:	a0a1                	j	20013e5c <__metal_controller_interrupt_vector+0xaa>
E:/GitHub/HiFive01-RevB/FS_workspace/sifive_hifive1_revb_sifive_welcome/freedom-metal/src/drivers/riscv_cpu.c:327
        __asm__ volatile("csrw 0x307, %0" ::"r"(trap_entry));
20013e16:	fe842783          	lw	a5,-24(s0)
20013e1a:	30779073          	csrw	mtvt,a5
E:/GitHub/HiFive01-RevB/FS_workspace/sifive_hifive1_revb_sifive_welcome/freedom-metal/src/drivers/riscv_cpu.c:328
        __asm__ volatile("csrw mtvec, %0" ::"r"(val | METAL_MTVEC_CLIC));
20013e1e:	fec42783          	lw	a5,-20(s0)
20013e22:	0027e793          	ori	a5,a5,2
20013e26:	30579073          	csrw	mtvec,a5
E:/GitHub/HiFive01-RevB/FS_workspace/sifive_hifive1_revb_sifive_welcome/freedom-metal/src/drivers/riscv_cpu.c:329
        break;
20013e2a:	a80d                	j	20013e5c <__metal_controller_interrupt_vector+0xaa>
E:/GitHub/HiFive01-RevB/FS_workspace/sifive_hifive1_revb_sifive_welcome/freedom-metal/src/drivers/riscv_cpu.c:331
        __asm__ volatile("csrw 0x307, %0" ::"r"(trap_entry));
20013e2c:	fe842783          	lw	a5,-24(s0)
20013e30:	30779073          	csrw	mtvt,a5
E:/GitHub/HiFive01-RevB/FS_workspace/sifive_hifive1_revb_sifive_welcome/freedom-metal/src/drivers/riscv_cpu.c:333
            "csrw mtvec, %0" ::"r"(val | METAL_MTVEC_CLIC_VECTORED));
20013e34:	fec42783          	lw	a5,-20(s0)
20013e38:	0037e793          	ori	a5,a5,3
E:/GitHub/HiFive01-RevB/FS_workspace/sifive_hifive1_revb_sifive_welcome/freedom-metal/src/drivers/riscv_cpu.c:332
        __asm__ volatile(
20013e3c:	30579073          	csrw	mtvec,a5
E:/GitHub/HiFive01-RevB/FS_workspace/sifive_hifive1_revb_sifive_welcome/freedom-metal/src/drivers/riscv_cpu.c:334
        break;
20013e40:	a831                	j	20013e5c <__metal_controller_interrupt_vector+0xaa>
E:/GitHub/HiFive01-RevB/FS_workspace/sifive_hifive1_revb_sifive_welcome/freedom-metal/src/drivers/riscv_cpu.c:337
            "csrw mtvec, %0" ::"r"(trap_entry | METAL_MTVEC_VECTORED));
20013e42:	fe842783          	lw	a5,-24(s0)
20013e46:	0017e793          	ori	a5,a5,1
E:/GitHub/HiFive01-RevB/FS_workspace/sifive_hifive1_revb_sifive_welcome/freedom-metal/src/drivers/riscv_cpu.c:336
        __asm__ volatile(
20013e4a:	30579073          	csrw	mtvec,a5
E:/GitHub/HiFive01-RevB/FS_workspace/sifive_hifive1_revb_sifive_welcome/freedom-metal/src/drivers/riscv_cpu.c:338
        break;
20013e4e:	a039                	j	20013e5c <__metal_controller_interrupt_vector+0xaa>
E:/GitHub/HiFive01-RevB/FS_workspace/sifive_hifive1_revb_sifive_welcome/freedom-metal/src/drivers/riscv_cpu.c:341
            "csrw mtvec, %0" ::"r"(trap_entry & ~METAL_MTVEC_CLIC_VECTORED));
20013e50:	fe842783          	lw	a5,-24(s0)
20013e54:	9bf1                	andi	a5,a5,-4
E:/GitHub/HiFive01-RevB/FS_workspace/sifive_hifive1_revb_sifive_welcome/freedom-metal/src/drivers/riscv_cpu.c:340
        __asm__ volatile(
20013e56:	30579073          	csrw	mtvec,a5
E:/GitHub/HiFive01-RevB/FS_workspace/sifive_hifive1_revb_sifive_welcome/freedom-metal/src/drivers/riscv_cpu.c:342
        break;
20013e5a:	0001                	nop
E:/GitHub/HiFive01-RevB/FS_workspace/sifive_hifive1_revb_sifive_welcome/freedom-metal/src/drivers/riscv_cpu.c:344
}
20013e5c:	0001                	nop
20013e5e:	5432                	lw	s0,44(sp)
20013e60:	6145                	addi	sp,sp,48
20013e62:	8082                	ret

20013e64 <__metal_valid_interrupt_id>:
__metal_valid_interrupt_id():
E:/GitHub/HiFive01-RevB/FS_workspace/sifive_hifive1_revb_sifive_welcome/freedom-metal/src/drivers/riscv_cpu.c:346

int __metal_valid_interrupt_id(int id) {
20013e64:	1101                	addi	sp,sp,-32
20013e66:	ce22                	sw	s0,28(sp)
20013e68:	1000                	addi	s0,sp,32
20013e6a:	fea42623          	sw	a0,-20(s0)
E:/GitHub/HiFive01-RevB/FS_workspace/sifive_hifive1_revb_sifive_welcome/freedom-metal/src/drivers/riscv_cpu.c:347
    switch (id) {
20013e6e:	fec42703          	lw	a4,-20(s0)
20013e72:	47fd                	li	a5,31
20013e74:	02e7c663          	blt	a5,a4,20013ea0 <__metal_valid_interrupt_id+0x3c>
20013e78:	fec42703          	lw	a4,-20(s0)
20013e7c:	478d                	li	a5,3
20013e7e:	02f74963          	blt	a4,a5,20013eb0 <__metal_valid_interrupt_id+0x4c>
20013e82:	fec42783          	lw	a5,-20(s0)
20013e86:	4705                	li	a4,1
20013e88:	00f71733          	sll	a4,a4,a5
20013e8c:	77c5                	lui	a5,0xffff1
20013e8e:	88878793          	addi	a5,a5,-1912 # ffff0888 <metal_segment_heap_target_end+0x7ffef0e8>
20013e92:	8ff9                	and	a5,a5,a4
20013e94:	00f037b3          	snez	a5,a5
20013e98:	0ff7f793          	zext.b	a5,a5
20013e9c:	eb81                	bnez	a5,20013eac <__metal_valid_interrupt_id+0x48>
E:/GitHub/HiFive01-RevB/FS_workspace/sifive_hifive1_revb_sifive_welcome/freedom-metal/src/drivers/riscv_cpu.c:370
    case METAL_INTERRUPT_ID_LC14:
    case METAL_INTERRUPT_ID_LC15:
    case METAL_INTERRUPT_ID_BEU:
        return 1;
    default:
        break;
20013e9e:	a809                	j	20013eb0 <__metal_valid_interrupt_id+0x4c>
E:/GitHub/HiFive01-RevB/FS_workspace/sifive_hifive1_revb_sifive_welcome/freedom-metal/src/drivers/riscv_cpu.c:347
    switch (id) {
20013ea0:	fec42703          	lw	a4,-20(s0)
20013ea4:	08000793          	li	a5,128
20013ea8:	00f71463          	bne	a4,a5,20013eb0 <__metal_valid_interrupt_id+0x4c>
E:/GitHub/HiFive01-RevB/FS_workspace/sifive_hifive1_revb_sifive_welcome/freedom-metal/src/drivers/riscv_cpu.c:368
        return 1;
20013eac:	4785                	li	a5,1
20013eae:	a019                	j	20013eb4 <__metal_valid_interrupt_id+0x50>
E:/GitHub/HiFive01-RevB/FS_workspace/sifive_hifive1_revb_sifive_welcome/freedom-metal/src/drivers/riscv_cpu.c:370
        break;
20013eb0:	0001                	nop
E:/GitHub/HiFive01-RevB/FS_workspace/sifive_hifive1_revb_sifive_welcome/freedom-metal/src/drivers/riscv_cpu.c:373
    }

    return 0;
20013eb2:	4781                	li	a5,0
E:/GitHub/HiFive01-RevB/FS_workspace/sifive_hifive1_revb_sifive_welcome/freedom-metal/src/drivers/riscv_cpu.c:374
}
20013eb4:	853e                	mv	a0,a5
20013eb6:	4472                	lw	s0,28(sp)
20013eb8:	6105                	addi	sp,sp,32
20013eba:	8082                	ret

20013ebc <__metal_local_interrupt_enable>:
__metal_local_interrupt_enable():
E:/GitHub/HiFive01-RevB/FS_workspace/sifive_hifive1_revb_sifive_welcome/freedom-metal/src/drivers/riscv_cpu.c:377

int __metal_local_interrupt_enable(struct metal_interrupt *controller,
                                   metal_interrupt_id_e id, int enable) {
20013ebc:	7179                	addi	sp,sp,-48
20013ebe:	d606                	sw	ra,44(sp)
20013ec0:	d422                	sw	s0,40(sp)
20013ec2:	1800                	addi	s0,sp,48
20013ec4:	fca42e23          	sw	a0,-36(s0)
20013ec8:	fcb42c23          	sw	a1,-40(s0)
20013ecc:	fcc42a23          	sw	a2,-44(s0)
E:/GitHub/HiFive01-RevB/FS_workspace/sifive_hifive1_revb_sifive_welcome/freedom-metal/src/drivers/riscv_cpu.c:378
    int rc = 0;
20013ed0:	fe042623          	sw	zero,-20(s0)
E:/GitHub/HiFive01-RevB/FS_workspace/sifive_hifive1_revb_sifive_welcome/freedom-metal/src/drivers/riscv_cpu.c:380

    if (!controller) {
20013ed4:	fdc42783          	lw	a5,-36(s0)
20013ed8:	e399                	bnez	a5,20013ede <__metal_local_interrupt_enable+0x22>
E:/GitHub/HiFive01-RevB/FS_workspace/sifive_hifive1_revb_sifive_welcome/freedom-metal/src/drivers/riscv_cpu.c:381
        return -1;
20013eda:	57fd                	li	a5,-1
20013edc:	a849                	j	20013f6e <__metal_local_interrupt_enable+0xb2>
20013ede:	fd842703          	lw	a4,-40(s0)
20013ee2:	47fd                	li	a5,31
20013ee4:	08e7e063          	bltu	a5,a4,20013f64 <__metal_local_interrupt_enable+0xa8>
20013ee8:	fd842783          	lw	a5,-40(s0)
20013eec:	00279713          	slli	a4,a5,0x2
20013ef0:	200117b7          	lui	a5,0x20011
20013ef4:	89c78793          	addi	a5,a5,-1892 # 2001089c <__metal_driver_vtable_riscv_clint0+0x64>
20013ef8:	97ba                	add	a5,a5,a4
20013efa:	439c                	lw	a5,0(a5)
20013efc:	8782                	jr	a5
E:/GitHub/HiFive01-RevB/FS_workspace/sifive_hifive1_revb_sifive_welcome/freedom-metal/src/drivers/riscv_cpu.c:386
    }

    switch (id) {
    case METAL_INTERRUPT_ID_BASE:
        if (enable) {
20013efe:	fd442783          	lw	a5,-44(s0)
20013f02:	c781                	beqz	a5,20013f0a <__metal_local_interrupt_enable+0x4e>
E:/GitHub/HiFive01-RevB/FS_workspace/sifive_hifive1_revb_sifive_welcome/freedom-metal/src/drivers/riscv_cpu.c:387
            __metal_interrupt_global_enable();
20013f04:	f29fe0ef          	jal	ra,20012e2c <__metal_interrupt_global_enable>
E:/GitHub/HiFive01-RevB/FS_workspace/sifive_hifive1_revb_sifive_welcome/freedom-metal/src/drivers/riscv_cpu.c:391
        } else {
            __metal_interrupt_global_disable();
        }
        break;
20013f08:	a08d                	j	20013f6a <__metal_local_interrupt_enable+0xae>
E:/GitHub/HiFive01-RevB/FS_workspace/sifive_hifive1_revb_sifive_welcome/freedom-metal/src/drivers/riscv_cpu.c:389
            __metal_interrupt_global_disable();
20013f0a:	f3bfe0ef          	jal	ra,20012e44 <__metal_interrupt_global_disable>
E:/GitHub/HiFive01-RevB/FS_workspace/sifive_hifive1_revb_sifive_welcome/freedom-metal/src/drivers/riscv_cpu.c:391
        break;
20013f0e:	a8b1                	j	20013f6a <__metal_local_interrupt_enable+0xae>
E:/GitHub/HiFive01-RevB/FS_workspace/sifive_hifive1_revb_sifive_welcome/freedom-metal/src/drivers/riscv_cpu.c:393
    case METAL_INTERRUPT_ID_SW:
        if (enable) {
20013f10:	fd442783          	lw	a5,-44(s0)
20013f14:	c781                	beqz	a5,20013f1c <__metal_local_interrupt_enable+0x60>
E:/GitHub/HiFive01-RevB/FS_workspace/sifive_hifive1_revb_sifive_welcome/freedom-metal/src/drivers/riscv_cpu.c:394
            __metal_interrupt_software_enable();
20013f16:	f47fe0ef          	jal	ra,20012e5c <__metal_interrupt_software_enable>
E:/GitHub/HiFive01-RevB/FS_workspace/sifive_hifive1_revb_sifive_welcome/freedom-metal/src/drivers/riscv_cpu.c:398
        } else {
            __metal_interrupt_software_disable();
        }
        break;
20013f1a:	a881                	j	20013f6a <__metal_local_interrupt_enable+0xae>
E:/GitHub/HiFive01-RevB/FS_workspace/sifive_hifive1_revb_sifive_welcome/freedom-metal/src/drivers/riscv_cpu.c:396
            __metal_interrupt_software_disable();
20013f1c:	f59fe0ef          	jal	ra,20012e74 <__metal_interrupt_software_disable>
E:/GitHub/HiFive01-RevB/FS_workspace/sifive_hifive1_revb_sifive_welcome/freedom-metal/src/drivers/riscv_cpu.c:398
        break;
20013f20:	a0a9                	j	20013f6a <__metal_local_interrupt_enable+0xae>
E:/GitHub/HiFive01-RevB/FS_workspace/sifive_hifive1_revb_sifive_welcome/freedom-metal/src/drivers/riscv_cpu.c:400
    case METAL_INTERRUPT_ID_TMR:
        if (enable) {
20013f22:	fd442783          	lw	a5,-44(s0)
20013f26:	c781                	beqz	a5,20013f2e <__metal_local_interrupt_enable+0x72>
E:/GitHub/HiFive01-RevB/FS_workspace/sifive_hifive1_revb_sifive_welcome/freedom-metal/src/drivers/riscv_cpu.c:401
            __metal_interrupt_timer_enable();
20013f28:	f65fe0ef          	jal	ra,20012e8c <__metal_interrupt_timer_enable>
E:/GitHub/HiFive01-RevB/FS_workspace/sifive_hifive1_revb_sifive_welcome/freedom-metal/src/drivers/riscv_cpu.c:405
        } else {
            __metal_interrupt_timer_disable();
        }
        break;
20013f2c:	a83d                	j	20013f6a <__metal_local_interrupt_enable+0xae>
E:/GitHub/HiFive01-RevB/FS_workspace/sifive_hifive1_revb_sifive_welcome/freedom-metal/src/drivers/riscv_cpu.c:403
            __metal_interrupt_timer_disable();
20013f2e:	f79fe0ef          	jal	ra,20012ea6 <__metal_interrupt_timer_disable>
E:/GitHub/HiFive01-RevB/FS_workspace/sifive_hifive1_revb_sifive_welcome/freedom-metal/src/drivers/riscv_cpu.c:405
        break;
20013f32:	a825                	j	20013f6a <__metal_local_interrupt_enable+0xae>
E:/GitHub/HiFive01-RevB/FS_workspace/sifive_hifive1_revb_sifive_welcome/freedom-metal/src/drivers/riscv_cpu.c:407
    case METAL_INTERRUPT_ID_EXT:
        if (enable) {
20013f34:	fd442783          	lw	a5,-44(s0)
20013f38:	c781                	beqz	a5,20013f40 <__metal_local_interrupt_enable+0x84>
E:/GitHub/HiFive01-RevB/FS_workspace/sifive_hifive1_revb_sifive_welcome/freedom-metal/src/drivers/riscv_cpu.c:408
            __metal_interrupt_external_enable();
20013f3a:	f87fe0ef          	jal	ra,20012ec0 <__metal_interrupt_external_enable>
E:/GitHub/HiFive01-RevB/FS_workspace/sifive_hifive1_revb_sifive_welcome/freedom-metal/src/drivers/riscv_cpu.c:412
        } else {
            __metal_interrupt_external_disable();
        }
        break;
20013f3e:	a035                	j	20013f6a <__metal_local_interrupt_enable+0xae>
E:/GitHub/HiFive01-RevB/FS_workspace/sifive_hifive1_revb_sifive_welcome/freedom-metal/src/drivers/riscv_cpu.c:410
            __metal_interrupt_external_disable();
20013f40:	f9dfe0ef          	jal	ra,20012edc <__metal_interrupt_external_disable>
E:/GitHub/HiFive01-RevB/FS_workspace/sifive_hifive1_revb_sifive_welcome/freedom-metal/src/drivers/riscv_cpu.c:412
        break;
20013f44:	a01d                	j	20013f6a <__metal_local_interrupt_enable+0xae>
E:/GitHub/HiFive01-RevB/FS_workspace/sifive_hifive1_revb_sifive_welcome/freedom-metal/src/drivers/riscv_cpu.c:429
    case METAL_INTERRUPT_ID_LC11:
    case METAL_INTERRUPT_ID_LC12:
    case METAL_INTERRUPT_ID_LC13:
    case METAL_INTERRUPT_ID_LC14:
    case METAL_INTERRUPT_ID_LC15:
        if (enable) {
20013f46:	fd442783          	lw	a5,-44(s0)
20013f4a:	c799                	beqz	a5,20013f58 <__metal_local_interrupt_enable+0x9c>
E:/GitHub/HiFive01-RevB/FS_workspace/sifive_hifive1_revb_sifive_welcome/freedom-metal/src/drivers/riscv_cpu.c:430
            __metal_interrupt_local_enable(id);
20013f4c:	fd842783          	lw	a5,-40(s0)
20013f50:	853e                	mv	a0,a5
20013f52:	fa7fe0ef          	jal	ra,20012ef8 <__metal_interrupt_local_enable>
E:/GitHub/HiFive01-RevB/FS_workspace/sifive_hifive1_revb_sifive_welcome/freedom-metal/src/drivers/riscv_cpu.c:434
        } else {
            __metal_interrupt_local_disable(id);
        }
        break;
20013f56:	a811                	j	20013f6a <__metal_local_interrupt_enable+0xae>
E:/GitHub/HiFive01-RevB/FS_workspace/sifive_hifive1_revb_sifive_welcome/freedom-metal/src/drivers/riscv_cpu.c:432
            __metal_interrupt_local_disable(id);
20013f58:	fd842783          	lw	a5,-40(s0)
20013f5c:	853e                	mv	a0,a5
20013f5e:	fc7fe0ef          	jal	ra,20012f24 <__metal_interrupt_local_disable>
E:/GitHub/HiFive01-RevB/FS_workspace/sifive_hifive1_revb_sifive_welcome/freedom-metal/src/drivers/riscv_cpu.c:434
        break;
20013f62:	a021                	j	20013f6a <__metal_local_interrupt_enable+0xae>
E:/GitHub/HiFive01-RevB/FS_workspace/sifive_hifive1_revb_sifive_welcome/freedom-metal/src/drivers/riscv_cpu.c:436
    default:
        rc = -1;
20013f64:	57fd                	li	a5,-1
20013f66:	fef42623          	sw	a5,-20(s0)
E:/GitHub/HiFive01-RevB/FS_workspace/sifive_hifive1_revb_sifive_welcome/freedom-metal/src/drivers/riscv_cpu.c:438
    }
    return rc;
20013f6a:	fec42783          	lw	a5,-20(s0)
E:/GitHub/HiFive01-RevB/FS_workspace/sifive_hifive1_revb_sifive_welcome/freedom-metal/src/drivers/riscv_cpu.c:439
}
20013f6e:	853e                	mv	a0,a5
20013f70:	50b2                	lw	ra,44(sp)
20013f72:	5422                	lw	s0,40(sp)
20013f74:	6145                	addi	sp,sp,48
20013f76:	8082                	ret

20013f78 <__metal_exception_register>:
__metal_exception_register():
E:/GitHub/HiFive01-RevB/FS_workspace/sifive_hifive1_revb_sifive_welcome/freedom-metal/src/drivers/riscv_cpu.c:442

int __metal_exception_register(struct metal_interrupt *controller, int ecode,
                               metal_exception_handler_t isr) {
20013f78:	7179                	addi	sp,sp,-48
20013f7a:	d622                	sw	s0,44(sp)
20013f7c:	1800                	addi	s0,sp,48
20013f7e:	fca42e23          	sw	a0,-36(s0)
20013f82:	fcb42c23          	sw	a1,-40(s0)
20013f86:	fcc42a23          	sw	a2,-44(s0)
E:/GitHub/HiFive01-RevB/FS_workspace/sifive_hifive1_revb_sifive_welcome/freedom-metal/src/drivers/riscv_cpu.c:443
    struct __metal_driver_riscv_cpu_intc *intc = (void *)(controller);
20013f8a:	fdc42783          	lw	a5,-36(s0)
20013f8e:	fef42623          	sw	a5,-20(s0)
E:/GitHub/HiFive01-RevB/FS_workspace/sifive_hifive1_revb_sifive_welcome/freedom-metal/src/drivers/riscv_cpu.c:445

    if ((ecode < METAL_MAX_EXCEPTION_CODE) && isr) {
20013f92:	fd842703          	lw	a4,-40(s0)
20013f96:	47ad                	li	a5,11
20013f98:	02e7c263          	blt	a5,a4,20013fbc <__metal_exception_register+0x44>
E:/GitHub/HiFive01-RevB/FS_workspace/sifive_hifive1_revb_sifive_welcome/freedom-metal/src/drivers/riscv_cpu.c:445 (discriminator 1)
20013f9c:	fd442783          	lw	a5,-44(s0)
20013fa0:	cf91                	beqz	a5,20013fbc <__metal_exception_register+0x44>
E:/GitHub/HiFive01-RevB/FS_workspace/sifive_hifive1_revb_sifive_welcome/freedom-metal/src/drivers/riscv_cpu.c:446
        intc->metal_exception_table[ecode] = isr;
20013fa2:	fec42703          	lw	a4,-20(s0)
20013fa6:	fd842783          	lw	a5,-40(s0)
20013faa:	0e878793          	addi	a5,a5,232
20013fae:	078a                	slli	a5,a5,0x2
20013fb0:	97ba                	add	a5,a5,a4
20013fb2:	fd442703          	lw	a4,-44(s0)
20013fb6:	c398                	sw	a4,0(a5)
E:/GitHub/HiFive01-RevB/FS_workspace/sifive_hifive1_revb_sifive_welcome/freedom-metal/src/drivers/riscv_cpu.c:447
        return 0;
20013fb8:	4781                	li	a5,0
20013fba:	a011                	j	20013fbe <__metal_exception_register+0x46>
E:/GitHub/HiFive01-RevB/FS_workspace/sifive_hifive1_revb_sifive_welcome/freedom-metal/src/drivers/riscv_cpu.c:449
    }
    return -1;
20013fbc:	57fd                	li	a5,-1
E:/GitHub/HiFive01-RevB/FS_workspace/sifive_hifive1_revb_sifive_welcome/freedom-metal/src/drivers/riscv_cpu.c:450
}
20013fbe:	853e                	mv	a0,a5
20013fc0:	5432                	lw	s0,44(sp)
20013fc2:	6145                	addi	sp,sp,48
20013fc4:	8082                	ret

20013fc6 <__metal_driver_riscv_cpu_controller_interrupt_init>:
__metal_driver_riscv_cpu_controller_interrupt_init():
E:/GitHub/HiFive01-RevB/FS_workspace/sifive_hifive1_revb_sifive_welcome/freedom-metal/src/drivers/riscv_cpu.c:454

extern void early_trap_vector(void);
void __metal_driver_riscv_cpu_controller_interrupt_init(
    struct metal_interrupt *controller) {
20013fc6:	7179                	addi	sp,sp,-48
20013fc8:	d606                	sw	ra,44(sp)
20013fca:	d422                	sw	s0,40(sp)
20013fcc:	1800                	addi	s0,sp,48
20013fce:	fca42e23          	sw	a0,-36(s0)
E:/GitHub/HiFive01-RevB/FS_workspace/sifive_hifive1_revb_sifive_welcome/freedom-metal/src/drivers/riscv_cpu.c:455
    struct __metal_driver_riscv_cpu_intc *intc = (void *)(controller);
20013fd2:	fdc42783          	lw	a5,-36(s0)
20013fd6:	fef42223          	sw	a5,-28(s0)
E:/GitHub/HiFive01-RevB/FS_workspace/sifive_hifive1_revb_sifive_welcome/freedom-metal/src/drivers/riscv_cpu.c:457

    if (!intc->init_done) {
20013fda:	fe442783          	lw	a5,-28(s0)
20013fde:	43dc                	lw	a5,4(a5)
20013fe0:	e3e1                	bnez	a5,200140a0 <__metal_driver_riscv_cpu_controller_interrupt_init+0xda>
E:/GitHub/HiFive01-RevB/FS_workspace/sifive_hifive1_revb_sifive_welcome/freedom-metal/src/drivers/riscv_cpu.c:459
        /* Default to use direct interrupt, setup sw cb table*/
        for (int i = 0; i < METAL_MAX_MI; i++) {
20013fe2:	fe042623          	sw	zero,-20(s0)
20013fe6:	a0b9                	j	20014034 <__metal_driver_riscv_cpu_controller_interrupt_init+0x6e>
E:/GitHub/HiFive01-RevB/FS_workspace/sifive_hifive1_revb_sifive_welcome/freedom-metal/src/drivers/riscv_cpu.c:460 (discriminator 3)
            intc->metal_int_table[i].handler = NULL;
20013fe8:	fe442683          	lw	a3,-28(s0)
20013fec:	fec42703          	lw	a4,-20(s0)
20013ff0:	87ba                	mv	a5,a4
20013ff2:	0786                	slli	a5,a5,0x1
20013ff4:	97ba                	add	a5,a5,a4
20013ff6:	078e                	slli	a5,a5,0x3
20013ff8:	97b6                	add	a5,a5,a3
20013ffa:	0807a823          	sw	zero,144(a5)
E:/GitHub/HiFive01-RevB/FS_workspace/sifive_hifive1_revb_sifive_welcome/freedom-metal/src/drivers/riscv_cpu.c:461 (discriminator 3)
            intc->metal_int_table[i].sub_int = NULL;
20013ffe:	fe442683          	lw	a3,-28(s0)
20014002:	fec42703          	lw	a4,-20(s0)
20014006:	87ba                	mv	a5,a4
20014008:	0786                	slli	a5,a5,0x1
2001400a:	97ba                	add	a5,a5,a4
2001400c:	078e                	slli	a5,a5,0x3
2001400e:	97b6                	add	a5,a5,a3
20014010:	0807aa23          	sw	zero,148(a5)
E:/GitHub/HiFive01-RevB/FS_workspace/sifive_hifive1_revb_sifive_welcome/freedom-metal/src/drivers/riscv_cpu.c:462 (discriminator 3)
            intc->metal_int_table[i].exint_data = NULL;
20014014:	fe442683          	lw	a3,-28(s0)
20014018:	fec42703          	lw	a4,-20(s0)
2001401c:	87ba                	mv	a5,a4
2001401e:	0786                	slli	a5,a5,0x1
20014020:	97ba                	add	a5,a5,a4
20014022:	078e                	slli	a5,a5,0x3
20014024:	97b6                	add	a5,a5,a3
20014026:	0807ac23          	sw	zero,152(a5)
E:/GitHub/HiFive01-RevB/FS_workspace/sifive_hifive1_revb_sifive_welcome/freedom-metal/src/drivers/riscv_cpu.c:459 (discriminator 3)
        for (int i = 0; i < METAL_MAX_MI; i++) {
2001402a:	fec42783          	lw	a5,-20(s0)
2001402e:	0785                	addi	a5,a5,1
20014030:	fef42623          	sw	a5,-20(s0)
E:/GitHub/HiFive01-RevB/FS_workspace/sifive_hifive1_revb_sifive_welcome/freedom-metal/src/drivers/riscv_cpu.c:459 (discriminator 1)
20014034:	fec42703          	lw	a4,-20(s0)
20014038:	47fd                	li	a5,31
2001403a:	fae7d7e3          	bge	a5,a4,20013fe8 <__metal_driver_riscv_cpu_controller_interrupt_init+0x22>
E:/GitHub/HiFive01-RevB/FS_workspace/sifive_hifive1_revb_sifive_welcome/freedom-metal/src/drivers/riscv_cpu.c:465
        }

        for (int i = 0; i < METAL_MAX_ME; i++) {
2001403e:	fe042423          	sw	zero,-24(s0)
20014042:	a01d                	j	20014068 <__metal_driver_riscv_cpu_controller_interrupt_init+0xa2>
E:/GitHub/HiFive01-RevB/FS_workspace/sifive_hifive1_revb_sifive_welcome/freedom-metal/src/drivers/riscv_cpu.c:466 (discriminator 3)
            intc->metal_exception_table[i] = __metal_default_exception_handler;
20014044:	fe442703          	lw	a4,-28(s0)
20014048:	fe842783          	lw	a5,-24(s0)
2001404c:	0e878793          	addi	a5,a5,232
20014050:	078a                	slli	a5,a5,0x2
20014052:	97ba                	add	a5,a5,a4
20014054:	20013737          	lui	a4,0x20013
20014058:	f5070713          	addi	a4,a4,-176 # 20012f50 <__metal_default_exception_handler>
2001405c:	c398                	sw	a4,0(a5)
E:/GitHub/HiFive01-RevB/FS_workspace/sifive_hifive1_revb_sifive_welcome/freedom-metal/src/drivers/riscv_cpu.c:465 (discriminator 3)
        for (int i = 0; i < METAL_MAX_ME; i++) {
2001405e:	fe842783          	lw	a5,-24(s0)
20014062:	0785                	addi	a5,a5,1
20014064:	fef42423          	sw	a5,-24(s0)
E:/GitHub/HiFive01-RevB/FS_workspace/sifive_hifive1_revb_sifive_welcome/freedom-metal/src/drivers/riscv_cpu.c:465 (discriminator 1)
20014068:	fe842703          	lw	a4,-24(s0)
2001406c:	47ad                	li	a5,11
2001406e:	fce7dbe3          	bge	a5,a4,20014044 <__metal_driver_riscv_cpu_controller_interrupt_init+0x7e>
E:/GitHub/HiFive01-RevB/FS_workspace/sifive_hifive1_revb_sifive_welcome/freedom-metal/src/drivers/riscv_cpu.c:475
         * Set the real trap handler if the value of mtvec is equal to
         * early_trap_vector. If mtvec is not equal to early_trap_vector,
         * that means user has own trap handler, then we don't overwrite it.
         */
        uintptr_t mtvec;
        __asm__ volatile("csrr %0, mtvec" : "=r"(mtvec));
20014072:	305027f3          	csrr	a5,mtvec
20014076:	fef42023          	sw	a5,-32(s0)
E:/GitHub/HiFive01-RevB/FS_workspace/sifive_hifive1_revb_sifive_welcome/freedom-metal/src/drivers/riscv_cpu.c:476
        if (mtvec == (uintptr_t)&early_trap_vector) {
2001407a:	200107b7          	lui	a5,0x20010
2001407e:	13478793          	addi	a5,a5,308 # 20010134 <early_trap_vector>
20014082:	fe042703          	lw	a4,-32(s0)
20014086:	00f71963          	bne	a4,a5,20014098 <__metal_driver_riscv_cpu_controller_interrupt_init+0xd2>
E:/GitHub/HiFive01-RevB/FS_workspace/sifive_hifive1_revb_sifive_welcome/freedom-metal/src/drivers/riscv_cpu.c:477
            __metal_controller_interrupt_vector(
2001408a:	200137b7          	lui	a5,0x20013
2001408e:	20078593          	addi	a1,a5,512 # 20013200 <__metal_exception_handler>
20014092:	4501                	li	a0,0
20014094:	d1fff0ef          	jal	ra,20013db2 <__metal_controller_interrupt_vector>
E:/GitHub/HiFive01-RevB/FS_workspace/sifive_hifive1_revb_sifive_welcome/freedom-metal/src/drivers/riscv_cpu.c:481
                METAL_DIRECT_MODE,
                (void *)(uintptr_t)&__metal_exception_handler);
        }
        intc->init_done = 1;
20014098:	fe442783          	lw	a5,-28(s0)
2001409c:	4705                	li	a4,1
2001409e:	c3d8                	sw	a4,4(a5)
E:/GitHub/HiFive01-RevB/FS_workspace/sifive_hifive1_revb_sifive_welcome/freedom-metal/src/drivers/riscv_cpu.c:483
    }
}
200140a0:	0001                	nop
200140a2:	50b2                	lw	ra,44(sp)
200140a4:	5422                	lw	s0,40(sp)
200140a6:	6145                	addi	sp,sp,48
200140a8:	8082                	ret

200140aa <__metal_driver_riscv_cpu_controller_interrupt_register>:
__metal_driver_riscv_cpu_controller_interrupt_register():
E:/GitHub/HiFive01-RevB/FS_workspace/sifive_hifive1_revb_sifive_welcome/freedom-metal/src/drivers/riscv_cpu.c:487

int __metal_driver_riscv_cpu_controller_interrupt_register(
    struct metal_interrupt *controller, int id, metal_interrupt_handler_t isr,
    void *priv) {
200140aa:	7179                	addi	sp,sp,-48
200140ac:	d606                	sw	ra,44(sp)
200140ae:	d422                	sw	s0,40(sp)
200140b0:	1800                	addi	s0,sp,48
200140b2:	fca42e23          	sw	a0,-36(s0)
200140b6:	fcb42c23          	sw	a1,-40(s0)
200140ba:	fcc42a23          	sw	a2,-44(s0)
200140be:	fcd42823          	sw	a3,-48(s0)
E:/GitHub/HiFive01-RevB/FS_workspace/sifive_hifive1_revb_sifive_welcome/freedom-metal/src/drivers/riscv_cpu.c:488
    int rc = 0;
200140c2:	fe042623          	sw	zero,-20(s0)
E:/GitHub/HiFive01-RevB/FS_workspace/sifive_hifive1_revb_sifive_welcome/freedom-metal/src/drivers/riscv_cpu.c:489
    struct __metal_driver_riscv_cpu_intc *intc = (void *)(controller);
200140c6:	fdc42783          	lw	a5,-36(s0)
200140ca:	fef42423          	sw	a5,-24(s0)
E:/GitHub/HiFive01-RevB/FS_workspace/sifive_hifive1_revb_sifive_welcome/freedom-metal/src/drivers/riscv_cpu.c:491

    if (!__metal_valid_interrupt_id(id)) {
200140ce:	fd842503          	lw	a0,-40(s0)
200140d2:	3b49                	jal	20013e64 <__metal_valid_interrupt_id>
200140d4:	87aa                	mv	a5,a0
200140d6:	e399                	bnez	a5,200140dc <__metal_driver_riscv_cpu_controller_interrupt_register+0x32>
E:/GitHub/HiFive01-RevB/FS_workspace/sifive_hifive1_revb_sifive_welcome/freedom-metal/src/drivers/riscv_cpu.c:492
        return -11;
200140d8:	57d5                	li	a5,-11
200140da:	a265                	j	20014282 <__metal_driver_riscv_cpu_controller_interrupt_register+0x1d8>
E:/GitHub/HiFive01-RevB/FS_workspace/sifive_hifive1_revb_sifive_welcome/freedom-metal/src/drivers/riscv_cpu.c:494
    }
    if ((id == METAL_INTERRUPT_ID_BEU) &&
200140dc:	fd842703          	lw	a4,-40(s0)
200140e0:	08000793          	li	a5,128
200140e4:	00f71863          	bne	a4,a5,200140f4 <__metal_driver_riscv_cpu_controller_interrupt_register+0x4a>
E:/GitHub/HiFive01-RevB/FS_workspace/sifive_hifive1_revb_sifive_welcome/freedom-metal/src/drivers/riscv_cpu.c:495 (discriminator 1)
        (__metal_controller_interrupt_vector_mode() != METAL_DIRECT_MODE)) {
200140e8:	c73ff0ef          	jal	ra,20013d5a <__metal_controller_interrupt_vector_mode>
200140ec:	87aa                	mv	a5,a0
E:/GitHub/HiFive01-RevB/FS_workspace/sifive_hifive1_revb_sifive_welcome/freedom-metal/src/drivers/riscv_cpu.c:494 (discriminator 1)
    if ((id == METAL_INTERRUPT_ID_BEU) &&
200140ee:	c399                	beqz	a5,200140f4 <__metal_driver_riscv_cpu_controller_interrupt_register+0x4a>
E:/GitHub/HiFive01-RevB/FS_workspace/sifive_hifive1_revb_sifive_welcome/freedom-metal/src/drivers/riscv_cpu.c:498
        /* Only allow registration of the bus error unit interrupt if
         * interrupt vectoring if off */
        return -13;
200140f0:	57cd                	li	a5,-13
200140f2:	aa41                	j	20014282 <__metal_driver_riscv_cpu_controller_interrupt_register+0x1d8>
E:/GitHub/HiFive01-RevB/FS_workspace/sifive_hifive1_revb_sifive_welcome/freedom-metal/src/drivers/riscv_cpu.c:501
    }

    if (isr) {
200140f4:	fd442783          	lw	a5,-44(s0)
200140f8:	cfb9                	beqz	a5,20014156 <__metal_driver_riscv_cpu_controller_interrupt_register+0xac>
E:/GitHub/HiFive01-RevB/FS_workspace/sifive_hifive1_revb_sifive_welcome/freedom-metal/src/drivers/riscv_cpu.c:502
        if (id == METAL_INTERRUPT_ID_BEU) {
200140fa:	fd842703          	lw	a4,-40(s0)
200140fe:	08000793          	li	a5,128
20014102:	00f71f63          	bne	a4,a5,20014120 <__metal_driver_riscv_cpu_controller_interrupt_register+0x76>
E:/GitHub/HiFive01-RevB/FS_workspace/sifive_hifive1_revb_sifive_welcome/freedom-metal/src/drivers/riscv_cpu.c:503
            intc->metal_int_beu.handler = isr;
20014106:	fe842783          	lw	a5,-24(s0)
2001410a:	fd442703          	lw	a4,-44(s0)
2001410e:	38e7a823          	sw	a4,912(a5)
E:/GitHub/HiFive01-RevB/FS_workspace/sifive_hifive1_revb_sifive_welcome/freedom-metal/src/drivers/riscv_cpu.c:504
            intc->metal_int_beu.exint_data = priv;
20014112:	fe842783          	lw	a5,-24(s0)
20014116:	fd042703          	lw	a4,-48(s0)
2001411a:	38e7ac23          	sw	a4,920(a5)
2001411e:	a285                	j	2001427e <__metal_driver_riscv_cpu_controller_interrupt_register+0x1d4>
E:/GitHub/HiFive01-RevB/FS_workspace/sifive_hifive1_revb_sifive_welcome/freedom-metal/src/drivers/riscv_cpu.c:506
        } else {
            intc->metal_int_table[id].handler = isr;
20014120:	fe842683          	lw	a3,-24(s0)
20014124:	fd842703          	lw	a4,-40(s0)
20014128:	87ba                	mv	a5,a4
2001412a:	0786                	slli	a5,a5,0x1
2001412c:	97ba                	add	a5,a5,a4
2001412e:	078e                	slli	a5,a5,0x3
20014130:	97b6                	add	a5,a5,a3
20014132:	fd442703          	lw	a4,-44(s0)
20014136:	08e7a823          	sw	a4,144(a5)
E:/GitHub/HiFive01-RevB/FS_workspace/sifive_hifive1_revb_sifive_welcome/freedom-metal/src/drivers/riscv_cpu.c:507
            intc->metal_int_table[id].exint_data = priv;
2001413a:	fe842683          	lw	a3,-24(s0)
2001413e:	fd842703          	lw	a4,-40(s0)
20014142:	87ba                	mv	a5,a4
20014144:	0786                	slli	a5,a5,0x1
20014146:	97ba                	add	a5,a5,a4
20014148:	078e                	slli	a5,a5,0x3
2001414a:	97b6                	add	a5,a5,a3
2001414c:	fd042703          	lw	a4,-48(s0)
20014150:	08e7ac23          	sw	a4,152(a5)
20014154:	a22d                	j	2001427e <__metal_driver_riscv_cpu_controller_interrupt_register+0x1d4>
E:/GitHub/HiFive01-RevB/FS_workspace/sifive_hifive1_revb_sifive_welcome/freedom-metal/src/drivers/riscv_cpu.c:510
        }
    } else {
        switch (id) {
20014156:	fd842703          	lw	a4,-40(s0)
2001415a:	08000793          	li	a5,128
2001415e:	0cf70163          	beq	a4,a5,20014220 <__metal_driver_riscv_cpu_controller_interrupt_register+0x176>
20014162:	fd842703          	lw	a4,-40(s0)
20014166:	08000793          	li	a5,128
2001416a:	10e7c763          	blt	a5,a4,20014278 <__metal_driver_riscv_cpu_controller_interrupt_register+0x1ce>
2001416e:	fd842703          	lw	a4,-40(s0)
20014172:	47fd                	li	a5,31
20014174:	10e7c263          	blt	a5,a4,20014278 <__metal_driver_riscv_cpu_controller_interrupt_register+0x1ce>
20014178:	fd842703          	lw	a4,-40(s0)
2001417c:	47c1                	li	a5,16
2001417e:	0cf75063          	bge	a4,a5,2001423e <__metal_driver_riscv_cpu_controller_interrupt_register+0x194>
20014182:	fd842703          	lw	a4,-40(s0)
20014186:	47ad                	li	a5,11
20014188:	0af70b63          	beq	a4,a5,2001423e <__metal_driver_riscv_cpu_controller_interrupt_register+0x194>
2001418c:	fd842703          	lw	a4,-40(s0)
20014190:	47ad                	li	a5,11
20014192:	0ee7c363          	blt	a5,a4,20014278 <__metal_driver_riscv_cpu_controller_interrupt_register+0x1ce>
20014196:	fd842703          	lw	a4,-40(s0)
2001419a:	478d                	li	a5,3
2001419c:	00f70863          	beq	a4,a5,200141ac <__metal_driver_riscv_cpu_controller_interrupt_register+0x102>
200141a0:	fd842703          	lw	a4,-40(s0)
200141a4:	479d                	li	a5,7
200141a6:	04f70063          	beq	a4,a5,200141e6 <__metal_driver_riscv_cpu_controller_interrupt_register+0x13c>
200141aa:	a0f9                	j	20014278 <__metal_driver_riscv_cpu_controller_interrupt_register+0x1ce>
E:/GitHub/HiFive01-RevB/FS_workspace/sifive_hifive1_revb_sifive_welcome/freedom-metal/src/drivers/riscv_cpu.c:512
        case METAL_INTERRUPT_ID_SW:
            intc->metal_int_table[id].handler = __metal_default_sw_handler;
200141ac:	fe842683          	lw	a3,-24(s0)
200141b0:	fd842703          	lw	a4,-40(s0)
200141b4:	87ba                	mv	a5,a4
200141b6:	0786                	slli	a5,a5,0x1
200141b8:	97ba                	add	a5,a5,a4
200141ba:	078e                	slli	a5,a5,0x3
200141bc:	97b6                	add	a5,a5,a3
200141be:	20013737          	lui	a4,0x20013
200141c2:	04070713          	addi	a4,a4,64 # 20013040 <__metal_default_sw_handler>
200141c6:	08e7a823          	sw	a4,144(a5)
E:/GitHub/HiFive01-RevB/FS_workspace/sifive_hifive1_revb_sifive_welcome/freedom-metal/src/drivers/riscv_cpu.c:513
            intc->metal_int_table[id].sub_int = priv;
200141ca:	fe842683          	lw	a3,-24(s0)
200141ce:	fd842703          	lw	a4,-40(s0)
200141d2:	87ba                	mv	a5,a4
200141d4:	0786                	slli	a5,a5,0x1
200141d6:	97ba                	add	a5,a5,a4
200141d8:	078e                	slli	a5,a5,0x3
200141da:	97b6                	add	a5,a5,a3
200141dc:	fd042703          	lw	a4,-48(s0)
200141e0:	08e7aa23          	sw	a4,148(a5)
E:/GitHub/HiFive01-RevB/FS_workspace/sifive_hifive1_revb_sifive_welcome/freedom-metal/src/drivers/riscv_cpu.c:514
            break;
200141e4:	a869                	j	2001427e <__metal_driver_riscv_cpu_controller_interrupt_register+0x1d4>
E:/GitHub/HiFive01-RevB/FS_workspace/sifive_hifive1_revb_sifive_welcome/freedom-metal/src/drivers/riscv_cpu.c:516
        case METAL_INTERRUPT_ID_TMR:
            intc->metal_int_table[id].handler = __metal_default_timer_handler;
200141e6:	fe842683          	lw	a3,-24(s0)
200141ea:	fd842703          	lw	a4,-40(s0)
200141ee:	87ba                	mv	a5,a4
200141f0:	0786                	slli	a5,a5,0x1
200141f2:	97ba                	add	a5,a5,a4
200141f4:	078e                	slli	a5,a5,0x3
200141f6:	97b6                	add	a5,a5,a3
200141f8:	20013737          	lui	a4,0x20013
200141fc:	15070713          	addi	a4,a4,336 # 20013150 <__metal_default_timer_handler>
20014200:	08e7a823          	sw	a4,144(a5)
E:/GitHub/HiFive01-RevB/FS_workspace/sifive_hifive1_revb_sifive_welcome/freedom-metal/src/drivers/riscv_cpu.c:517
            intc->metal_int_table[id].sub_int = priv;
20014204:	fe842683          	lw	a3,-24(s0)
20014208:	fd842703          	lw	a4,-40(s0)
2001420c:	87ba                	mv	a5,a4
2001420e:	0786                	slli	a5,a5,0x1
20014210:	97ba                	add	a5,a5,a4
20014212:	078e                	slli	a5,a5,0x3
20014214:	97b6                	add	a5,a5,a3
20014216:	fd042703          	lw	a4,-48(s0)
2001421a:	08e7aa23          	sw	a4,148(a5)
E:/GitHub/HiFive01-RevB/FS_workspace/sifive_hifive1_revb_sifive_welcome/freedom-metal/src/drivers/riscv_cpu.c:518
            break;
2001421e:	a085                	j	2001427e <__metal_driver_riscv_cpu_controller_interrupt_register+0x1d4>
E:/GitHub/HiFive01-RevB/FS_workspace/sifive_hifive1_revb_sifive_welcome/freedom-metal/src/drivers/riscv_cpu.c:520
        case METAL_INTERRUPT_ID_BEU:
            intc->metal_int_beu.handler = __metal_default_beu_handler;
20014220:	fe842783          	lw	a5,-24(s0)
20014224:	20013737          	lui	a4,0x20013
20014228:	13a70713          	addi	a4,a4,314 # 2001313a <__metal_default_beu_handler>
2001422c:	38e7a823          	sw	a4,912(a5)
E:/GitHub/HiFive01-RevB/FS_workspace/sifive_hifive1_revb_sifive_welcome/freedom-metal/src/drivers/riscv_cpu.c:521
            intc->metal_int_beu.exint_data = priv;
20014230:	fe842783          	lw	a5,-24(s0)
20014234:	fd042703          	lw	a4,-48(s0)
20014238:	38e7ac23          	sw	a4,920(a5)
E:/GitHub/HiFive01-RevB/FS_workspace/sifive_hifive1_revb_sifive_welcome/freedom-metal/src/drivers/riscv_cpu.c:522
            break;
2001423c:	a089                	j	2001427e <__metal_driver_riscv_cpu_controller_interrupt_register+0x1d4>
E:/GitHub/HiFive01-RevB/FS_workspace/sifive_hifive1_revb_sifive_welcome/freedom-metal/src/drivers/riscv_cpu.c:540
        case METAL_INTERRUPT_ID_LC11:
        case METAL_INTERRUPT_ID_LC12:
        case METAL_INTERRUPT_ID_LC13:
        case METAL_INTERRUPT_ID_LC14:
        case METAL_INTERRUPT_ID_LC15:
            intc->metal_int_table[id].handler =
2001423e:	fe842683          	lw	a3,-24(s0)
20014242:	fd842703          	lw	a4,-40(s0)
20014246:	87ba                	mv	a5,a4
20014248:	0786                	slli	a5,a5,0x1
2001424a:	97ba                	add	a5,a5,a4
2001424c:	078e                	slli	a5,a5,0x3
2001424e:	97b6                	add	a5,a5,a3
20014250:	20013737          	lui	a4,0x20013
20014254:	f6870713          	addi	a4,a4,-152 # 20012f68 <__metal_default_interrupt_handler>
20014258:	08e7a823          	sw	a4,144(a5)
E:/GitHub/HiFive01-RevB/FS_workspace/sifive_hifive1_revb_sifive_welcome/freedom-metal/src/drivers/riscv_cpu.c:542
                __metal_default_interrupt_handler;
            intc->metal_int_table[id].sub_int = priv;
2001425c:	fe842683          	lw	a3,-24(s0)
20014260:	fd842703          	lw	a4,-40(s0)
20014264:	87ba                	mv	a5,a4
20014266:	0786                	slli	a5,a5,0x1
20014268:	97ba                	add	a5,a5,a4
2001426a:	078e                	slli	a5,a5,0x3
2001426c:	97b6                	add	a5,a5,a3
2001426e:	fd042703          	lw	a4,-48(s0)
20014272:	08e7aa23          	sw	a4,148(a5)
E:/GitHub/HiFive01-RevB/FS_workspace/sifive_hifive1_revb_sifive_welcome/freedom-metal/src/drivers/riscv_cpu.c:543
            break;
20014276:	a021                	j	2001427e <__metal_driver_riscv_cpu_controller_interrupt_register+0x1d4>
E:/GitHub/HiFive01-RevB/FS_workspace/sifive_hifive1_revb_sifive_welcome/freedom-metal/src/drivers/riscv_cpu.c:545
        default:
            rc = -12;
20014278:	57d1                	li	a5,-12
2001427a:	fef42623          	sw	a5,-20(s0)
E:/GitHub/HiFive01-RevB/FS_workspace/sifive_hifive1_revb_sifive_welcome/freedom-metal/src/drivers/riscv_cpu.c:548
        }
    }
    return rc;
2001427e:	fec42783          	lw	a5,-20(s0)
E:/GitHub/HiFive01-RevB/FS_workspace/sifive_hifive1_revb_sifive_welcome/freedom-metal/src/drivers/riscv_cpu.c:549
}
20014282:	853e                	mv	a0,a5
20014284:	50b2                	lw	ra,44(sp)
20014286:	5422                	lw	s0,40(sp)
20014288:	6145                	addi	sp,sp,48
2001428a:	8082                	ret

2001428c <__metal_driver_riscv_cpu_controller_interrupt_enable>:
__metal_driver_riscv_cpu_controller_interrupt_enable():
E:/GitHub/HiFive01-RevB/FS_workspace/sifive_hifive1_revb_sifive_welcome/freedom-metal/src/drivers/riscv_cpu.c:552

int __metal_driver_riscv_cpu_controller_interrupt_enable(
    struct metal_interrupt *controller, int id) {
2001428c:	1101                	addi	sp,sp,-32
2001428e:	ce06                	sw	ra,28(sp)
20014290:	cc22                	sw	s0,24(sp)
20014292:	1000                	addi	s0,sp,32
20014294:	fea42623          	sw	a0,-20(s0)
20014298:	feb42423          	sw	a1,-24(s0)
E:/GitHub/HiFive01-RevB/FS_workspace/sifive_hifive1_revb_sifive_welcome/freedom-metal/src/drivers/riscv_cpu.c:553
    return __metal_local_interrupt_enable(controller, id, METAL_ENABLE);
2001429c:	fe842783          	lw	a5,-24(s0)
200142a0:	4605                	li	a2,1
200142a2:	85be                	mv	a1,a5
200142a4:	fec42503          	lw	a0,-20(s0)
200142a8:	c15ff0ef          	jal	ra,20013ebc <__metal_local_interrupt_enable>
200142ac:	87aa                	mv	a5,a0
E:/GitHub/HiFive01-RevB/FS_workspace/sifive_hifive1_revb_sifive_welcome/freedom-metal/src/drivers/riscv_cpu.c:554
}
200142ae:	853e                	mv	a0,a5
200142b0:	40f2                	lw	ra,28(sp)
200142b2:	4462                	lw	s0,24(sp)
200142b4:	6105                	addi	sp,sp,32
200142b6:	8082                	ret

200142b8 <__metal_driver_riscv_cpu_controller_interrupt_disable>:
__metal_driver_riscv_cpu_controller_interrupt_disable():
E:/GitHub/HiFive01-RevB/FS_workspace/sifive_hifive1_revb_sifive_welcome/freedom-metal/src/drivers/riscv_cpu.c:557

int __metal_driver_riscv_cpu_controller_interrupt_disable(
    struct metal_interrupt *controller, int id) {
200142b8:	1101                	addi	sp,sp,-32
200142ba:	ce06                	sw	ra,28(sp)
200142bc:	cc22                	sw	s0,24(sp)
200142be:	1000                	addi	s0,sp,32
200142c0:	fea42623          	sw	a0,-20(s0)
200142c4:	feb42423          	sw	a1,-24(s0)
E:/GitHub/HiFive01-RevB/FS_workspace/sifive_hifive1_revb_sifive_welcome/freedom-metal/src/drivers/riscv_cpu.c:558
    return __metal_local_interrupt_enable(controller, id, METAL_DISABLE);
200142c8:	fe842783          	lw	a5,-24(s0)
200142cc:	4601                	li	a2,0
200142ce:	85be                	mv	a1,a5
200142d0:	fec42503          	lw	a0,-20(s0)
200142d4:	be9ff0ef          	jal	ra,20013ebc <__metal_local_interrupt_enable>
200142d8:	87aa                	mv	a5,a0
E:/GitHub/HiFive01-RevB/FS_workspace/sifive_hifive1_revb_sifive_welcome/freedom-metal/src/drivers/riscv_cpu.c:559
}
200142da:	853e                	mv	a0,a5
200142dc:	40f2                	lw	ra,28(sp)
200142de:	4462                	lw	s0,24(sp)
200142e0:	6105                	addi	sp,sp,32
200142e2:	8082                	ret

200142e4 <__metal_driver_riscv_cpu_controller_get_vector_mode>:
__metal_driver_riscv_cpu_controller_get_vector_mode():
E:/GitHub/HiFive01-RevB/FS_workspace/sifive_hifive1_revb_sifive_welcome/freedom-metal/src/drivers/riscv_cpu.c:591
    }
    return -1;
}

metal_vector_mode __metal_driver_riscv_cpu_controller_get_vector_mode(
    struct metal_interrupt *controller) {
200142e4:	1101                	addi	sp,sp,-32
200142e6:	ce06                	sw	ra,28(sp)
200142e8:	cc22                	sw	s0,24(sp)
200142ea:	1000                	addi	s0,sp,32
200142ec:	fea42623          	sw	a0,-20(s0)
E:/GitHub/HiFive01-RevB/FS_workspace/sifive_hifive1_revb_sifive_welcome/freedom-metal/src/drivers/riscv_cpu.c:592
    return __metal_controller_interrupt_vector_mode();
200142f0:	a6bff0ef          	jal	ra,20013d5a <__metal_controller_interrupt_vector_mode>
200142f4:	87aa                	mv	a5,a0
E:/GitHub/HiFive01-RevB/FS_workspace/sifive_hifive1_revb_sifive_welcome/freedom-metal/src/drivers/riscv_cpu.c:593
}
200142f6:	853e                	mv	a0,a5
200142f8:	40f2                	lw	ra,28(sp)
200142fa:	4462                	lw	s0,24(sp)
200142fc:	6105                	addi	sp,sp,32
200142fe:	8082                	ret

20014300 <__metal_driver_riscv_cpu_controller_set_vector_mode>:
__metal_driver_riscv_cpu_controller_set_vector_mode():
E:/GitHub/HiFive01-RevB/FS_workspace/sifive_hifive1_revb_sifive_welcome/freedom-metal/src/drivers/riscv_cpu.c:596

int __metal_driver_riscv_cpu_controller_set_vector_mode(
    struct metal_interrupt *controller, metal_vector_mode mode) {
20014300:	1101                	addi	sp,sp,-32
20014302:	ce06                	sw	ra,28(sp)
20014304:	cc22                	sw	s0,24(sp)
20014306:	1000                	addi	s0,sp,32
20014308:	fea42623          	sw	a0,-20(s0)
2001430c:	feb42423          	sw	a1,-24(s0)
E:/GitHub/HiFive01-RevB/FS_workspace/sifive_hifive1_revb_sifive_welcome/freedom-metal/src/drivers/riscv_cpu.c:598

    if (mode == METAL_DIRECT_MODE) {
20014310:	fe842783          	lw	a5,-24(s0)
20014314:	eb99                	bnez	a5,2001432a <__metal_driver_riscv_cpu_controller_set_vector_mode+0x2a>
E:/GitHub/HiFive01-RevB/FS_workspace/sifive_hifive1_revb_sifive_welcome/freedom-metal/src/drivers/riscv_cpu.c:599
        __metal_controller_interrupt_vector(
20014316:	200137b7          	lui	a5,0x20013
2001431a:	20078593          	addi	a1,a5,512 # 20013200 <__metal_exception_handler>
2001431e:	fe842503          	lw	a0,-24(s0)
20014322:	a91ff0ef          	jal	ra,20013db2 <__metal_controller_interrupt_vector>
E:/GitHub/HiFive01-RevB/FS_workspace/sifive_hifive1_revb_sifive_welcome/freedom-metal/src/drivers/riscv_cpu.c:601
            mode, (void *)(uintptr_t)&__metal_exception_handler);
        return 0;
20014326:	4781                	li	a5,0
20014328:	a00d                	j	2001434a <__metal_driver_riscv_cpu_controller_set_vector_mode+0x4a>
E:/GitHub/HiFive01-RevB/FS_workspace/sifive_hifive1_revb_sifive_welcome/freedom-metal/src/drivers/riscv_cpu.c:603
    }
    if (mode == METAL_VECTOR_MODE) {
2001432a:	fe842703          	lw	a4,-24(s0)
2001432e:	4785                	li	a5,1
20014330:	00f71c63          	bne	a4,a5,20014348 <__metal_driver_riscv_cpu_controller_set_vector_mode+0x48>
E:/GitHub/HiFive01-RevB/FS_workspace/sifive_hifive1_revb_sifive_welcome/freedom-metal/src/drivers/riscv_cpu.c:604
        __metal_controller_interrupt_vector(
20014334:	200177b7          	lui	a5,0x20017
20014338:	10078593          	addi	a1,a5,256 # 20017100 <__metal_vector_table>
2001433c:	fe842503          	lw	a0,-24(s0)
20014340:	a73ff0ef          	jal	ra,20013db2 <__metal_controller_interrupt_vector>
E:/GitHub/HiFive01-RevB/FS_workspace/sifive_hifive1_revb_sifive_welcome/freedom-metal/src/drivers/riscv_cpu.c:606
            mode, (void *)(uintptr_t)__metal_vector_table);
        return 0;
20014344:	4781                	li	a5,0
20014346:	a011                	j	2001434a <__metal_driver_riscv_cpu_controller_set_vector_mode+0x4a>
E:/GitHub/HiFive01-RevB/FS_workspace/sifive_hifive1_revb_sifive_welcome/freedom-metal/src/drivers/riscv_cpu.c:608
    }
    return -1;
20014348:	57fd                	li	a5,-1
E:/GitHub/HiFive01-RevB/FS_workspace/sifive_hifive1_revb_sifive_welcome/freedom-metal/src/drivers/riscv_cpu.c:609
}
2001434a:	853e                	mv	a0,a5
2001434c:	40f2                	lw	ra,28(sp)
2001434e:	4462                	lw	s0,24(sp)
20014350:	6105                	addi	sp,sp,32
20014352:	8082                	ret

20014354 <__metal_driver_riscv_cpu_controller_command_request>:
__metal_driver_riscv_cpu_controller_command_request():
E:/GitHub/HiFive01-RevB/FS_workspace/sifive_hifive1_revb_sifive_welcome/freedom-metal/src/drivers/riscv_cpu.c:612

int __metal_driver_riscv_cpu_controller_command_request(
    struct metal_interrupt *controller, int cmd, void *data) {
20014354:	1101                	addi	sp,sp,-32
20014356:	ce22                	sw	s0,28(sp)
20014358:	1000                	addi	s0,sp,32
2001435a:	fea42623          	sw	a0,-20(s0)
2001435e:	feb42423          	sw	a1,-24(s0)
20014362:	fec42223          	sw	a2,-28(s0)
E:/GitHub/HiFive01-RevB/FS_workspace/sifive_hifive1_revb_sifive_welcome/freedom-metal/src/drivers/riscv_cpu.c:615
    /* NOP for now, unless local interrupt lines the like of clic, clint, plic
     */
    return 0;
20014366:	4781                	li	a5,0
E:/GitHub/HiFive01-RevB/FS_workspace/sifive_hifive1_revb_sifive_welcome/freedom-metal/src/drivers/riscv_cpu.c:616
}
20014368:	853e                	mv	a0,a5
2001436a:	4472                	lw	s0,28(sp)
2001436c:	6105                	addi	sp,sp,32
2001436e:	8082                	ret

20014370 <__metal_driver_cpu_mcycle_get>:
__metal_driver_cpu_mcycle_get():
E:/GitHub/HiFive01-RevB/FS_workspace/sifive_hifive1_revb_sifive_welcome/freedom-metal/src/drivers/riscv_cpu.c:620

/* CPU driver !!! */

unsigned long long __metal_driver_cpu_mcycle_get(struct metal_cpu *cpu) {
20014370:	7139                	addi	sp,sp,-64
20014372:	de22                	sw	s0,60(sp)
20014374:	0080                	addi	s0,sp,64
20014376:	fca42623          	sw	a0,-52(s0)
E:/GitHub/HiFive01-RevB/FS_workspace/sifive_hifive1_revb_sifive_welcome/freedom-metal/src/drivers/riscv_cpu.c:621
    unsigned long long val = 0;
2001437a:	4501                	li	a0,0
2001437c:	4581                	li	a1,0
2001437e:	fea42423          	sw	a0,-24(s0)
20014382:	feb42623          	sw	a1,-20(s0)
E:/GitHub/HiFive01-RevB/FS_workspace/sifive_hifive1_revb_sifive_welcome/freedom-metal/src/drivers/riscv_cpu.c:627 (discriminator 1)

#if __riscv_xlen == 32
    unsigned long hi, hi1, lo;

    do {
        __asm__ volatile("csrr %0, mcycleh" : "=r"(hi));
20014386:	b80025f3          	csrr	a1,mcycleh
2001438a:	feb42223          	sw	a1,-28(s0)
E:/GitHub/HiFive01-RevB/FS_workspace/sifive_hifive1_revb_sifive_welcome/freedom-metal/src/drivers/riscv_cpu.c:628 (discriminator 1)
        __asm__ volatile("csrr %0, mcycle" : "=r"(lo));
2001438e:	b00025f3          	csrr	a1,mcycle
20014392:	feb42023          	sw	a1,-32(s0)
E:/GitHub/HiFive01-RevB/FS_workspace/sifive_hifive1_revb_sifive_welcome/freedom-metal/src/drivers/riscv_cpu.c:629 (discriminator 1)
        __asm__ volatile("csrr %0, mcycleh" : "=r"(hi1));
20014396:	b80025f3          	csrr	a1,mcycleh
2001439a:	fcb42e23          	sw	a1,-36(s0)
E:/GitHub/HiFive01-RevB/FS_workspace/sifive_hifive1_revb_sifive_welcome/freedom-metal/src/drivers/riscv_cpu.c:632 (discriminator 1)
        /* hi != hi1 means mcycle overflow during we get value,
         * so we must retry. */
    } while (hi != hi1);
2001439e:	fe442503          	lw	a0,-28(s0)
200143a2:	fdc42583          	lw	a1,-36(s0)
200143a6:	feb510e3          	bne	a0,a1,20014386 <__metal_driver_cpu_mcycle_get+0x16>
E:/GitHub/HiFive01-RevB/FS_workspace/sifive_hifive1_revb_sifive_welcome/freedom-metal/src/drivers/riscv_cpu.c:634

    val = ((unsigned long long)hi << 32) | lo;
200143aa:	fe442583          	lw	a1,-28(s0)
200143ae:	882e                	mv	a6,a1
200143b0:	4881                	li	a7,0
200143b2:	00081793          	slli	a5,a6,0x0
200143b6:	4701                	li	a4,0
200143b8:	fe042583          	lw	a1,-32(s0)
200143bc:	862e                	mv	a2,a1
200143be:	4681                	li	a3,0
200143c0:	00c765b3          	or	a1,a4,a2
200143c4:	feb42423          	sw	a1,-24(s0)
200143c8:	8fd5                	or	a5,a5,a3
200143ca:	fef42623          	sw	a5,-20(s0)
E:/GitHub/HiFive01-RevB/FS_workspace/sifive_hifive1_revb_sifive_welcome/freedom-metal/src/drivers/riscv_cpu.c:639
#else
    __asm__ volatile("csrr %0, mcycle" : "=r"(val));
#endif

    return val;
200143ce:	fe842703          	lw	a4,-24(s0)
200143d2:	fec42783          	lw	a5,-20(s0)
E:/GitHub/HiFive01-RevB/FS_workspace/sifive_hifive1_revb_sifive_welcome/freedom-metal/src/drivers/riscv_cpu.c:640
}
200143d6:	853a                	mv	a0,a4
200143d8:	85be                	mv	a1,a5
200143da:	5472                	lw	s0,60(sp)
200143dc:	6121                	addi	sp,sp,64
200143de:	8082                	ret

200143e0 <__metal_driver_cpu_timebase_get>:
__metal_driver_cpu_timebase_get():
E:/GitHub/HiFive01-RevB/FS_workspace/sifive_hifive1_revb_sifive_welcome/freedom-metal/src/drivers/riscv_cpu.c:642

unsigned long long __metal_driver_cpu_timebase_get(struct metal_cpu *cpu) {
200143e0:	7179                	addi	sp,sp,-48
200143e2:	d606                	sw	ra,44(sp)
200143e4:	d422                	sw	s0,40(sp)
200143e6:	d24a                	sw	s2,36(sp)
200143e8:	d04e                	sw	s3,32(sp)
200143ea:	1800                	addi	s0,sp,48
200143ec:	fca42e23          	sw	a0,-36(s0)
E:/GitHub/HiFive01-RevB/FS_workspace/sifive_hifive1_revb_sifive_welcome/freedom-metal/src/drivers/riscv_cpu.c:644
    int timebase;
    if (!cpu) {
200143f0:	fdc42783          	lw	a5,-36(s0)
200143f4:	e781                	bnez	a5,200143fc <__metal_driver_cpu_timebase_get+0x1c>
E:/GitHub/HiFive01-RevB/FS_workspace/sifive_hifive1_revb_sifive_welcome/freedom-metal/src/drivers/riscv_cpu.c:645
        return 0;
200143f6:	4901                	li	s2,0
200143f8:	4981                	li	s3,0
200143fa:	a821                	j	20014412 <__metal_driver_cpu_timebase_get+0x32>
E:/GitHub/HiFive01-RevB/FS_workspace/sifive_hifive1_revb_sifive_welcome/freedom-metal/src/drivers/riscv_cpu.c:648
    }

    timebase = __metal_driver_cpu_timebase((struct metal_cpu *)cpu);
200143fc:	fdc42503          	lw	a0,-36(s0)
20014400:	96bfe0ef          	jal	ra,20012d6a <__metal_driver_cpu_timebase>
20014404:	fea42623          	sw	a0,-20(s0)
E:/GitHub/HiFive01-RevB/FS_workspace/sifive_hifive1_revb_sifive_welcome/freedom-metal/src/drivers/riscv_cpu.c:649
    return timebase;
20014408:	fec42783          	lw	a5,-20(s0)
2001440c:	893e                	mv	s2,a5
2001440e:	87fd                	srai	a5,a5,0x1f
20014410:	89be                	mv	s3,a5
E:/GitHub/HiFive01-RevB/FS_workspace/sifive_hifive1_revb_sifive_welcome/freedom-metal/src/drivers/riscv_cpu.c:650
}
20014412:	874a                	mv	a4,s2
20014414:	87ce                	mv	a5,s3
20014416:	853a                	mv	a0,a4
20014418:	85be                	mv	a1,a5
2001441a:	50b2                	lw	ra,44(sp)
2001441c:	5422                	lw	s0,40(sp)
2001441e:	5912                	lw	s2,36(sp)
20014420:	5982                	lw	s3,32(sp)
20014422:	6145                	addi	sp,sp,48
20014424:	8082                	ret

20014426 <__metal_driver_cpu_mtime_get>:
__metal_driver_cpu_mtime_get():
E:/GitHub/HiFive01-RevB/FS_workspace/sifive_hifive1_revb_sifive_welcome/freedom-metal/src/drivers/riscv_cpu.c:652

unsigned long long __metal_driver_cpu_mtime_get(struct metal_cpu *cpu) {
20014426:	7179                	addi	sp,sp,-48
20014428:	d606                	sw	ra,44(sp)
2001442a:	d422                	sw	s0,40(sp)
2001442c:	1800                	addi	s0,sp,48
2001442e:	fca42e23          	sw	a0,-36(s0)
E:/GitHub/HiFive01-RevB/FS_workspace/sifive_hifive1_revb_sifive_welcome/freedom-metal/src/drivers/riscv_cpu.c:653
    unsigned long long time = 0;
20014432:	4781                	li	a5,0
20014434:	4801                	li	a6,0
20014436:	fef42023          	sw	a5,-32(s0)
2001443a:	ff042223          	sw	a6,-28(s0)
E:/GitHub/HiFive01-RevB/FS_workspace/sifive_hifive1_revb_sifive_welcome/freedom-metal/src/drivers/riscv_cpu.c:657
    struct metal_interrupt *tmr_intc;
    struct __metal_driver_riscv_cpu_intc *intc =
        (struct __metal_driver_riscv_cpu_intc *)
            __metal_driver_cpu_interrupt_controller(cpu);
2001443e:	fdc42503          	lw	a0,-36(s0)
20014442:	953fe0ef          	jal	ra,20012d94 <__metal_driver_cpu_interrupt_controller>
20014446:	fea42623          	sw	a0,-20(s0)
E:/GitHub/HiFive01-RevB/FS_workspace/sifive_hifive1_revb_sifive_welcome/freedom-metal/src/drivers/riscv_cpu.c:659

    if (intc) {
2001444a:	fec42783          	lw	a5,-20(s0)
2001444e:	c78d                	beqz	a5,20014478 <__metal_driver_cpu_mtime_get+0x52>
E:/GitHub/HiFive01-RevB/FS_workspace/sifive_hifive1_revb_sifive_welcome/freedom-metal/src/drivers/riscv_cpu.c:660
        tmr_intc = intc->metal_int_table[METAL_INTERRUPT_ID_TMR].sub_int;
20014450:	fec42783          	lw	a5,-20(s0)
20014454:	13c7a783          	lw	a5,316(a5)
20014458:	fef42423          	sw	a5,-24(s0)
E:/GitHub/HiFive01-RevB/FS_workspace/sifive_hifive1_revb_sifive_welcome/freedom-metal/src/drivers/riscv_cpu.c:661
        if (tmr_intc) {
2001445c:	fe842783          	lw	a5,-24(s0)
20014460:	cf81                	beqz	a5,20014478 <__metal_driver_cpu_mtime_get+0x52>
E:/GitHub/HiFive01-RevB/FS_workspace/sifive_hifive1_revb_sifive_welcome/freedom-metal/src/drivers/riscv_cpu.c:662
            tmr_intc->vtable->command_request(tmr_intc, METAL_TIMER_MTIME_GET,
20014462:	fe842783          	lw	a5,-24(s0)
20014466:	439c                	lw	a5,0(a5)
20014468:	47f8                	lw	a4,76(a5)
2001446a:	fe040793          	addi	a5,s0,-32
2001446e:	863e                	mv	a2,a5
20014470:	4585                	li	a1,1
20014472:	fe842503          	lw	a0,-24(s0)
20014476:	9702                	jalr	a4
E:/GitHub/HiFive01-RevB/FS_workspace/sifive_hifive1_revb_sifive_welcome/freedom-metal/src/drivers/riscv_cpu.c:666
                                              &time);
        }
    }
    return time;
20014478:	fe042703          	lw	a4,-32(s0)
2001447c:	fe442783          	lw	a5,-28(s0)
E:/GitHub/HiFive01-RevB/FS_workspace/sifive_hifive1_revb_sifive_welcome/freedom-metal/src/drivers/riscv_cpu.c:667
}
20014480:	853a                	mv	a0,a4
20014482:	85be                	mv	a1,a5
20014484:	50b2                	lw	ra,44(sp)
20014486:	5422                	lw	s0,40(sp)
20014488:	6145                	addi	sp,sp,48
2001448a:	8082                	ret

2001448c <__metal_driver_cpu_mtimecmp_set>:
__metal_driver_cpu_mtimecmp_set():
E:/GitHub/HiFive01-RevB/FS_workspace/sifive_hifive1_revb_sifive_welcome/freedom-metal/src/drivers/riscv_cpu.c:670

int __metal_driver_cpu_mtimecmp_set(struct metal_cpu *cpu,
                                    unsigned long long time) {
2001448c:	7179                	addi	sp,sp,-48
2001448e:	d606                	sw	ra,44(sp)
20014490:	d422                	sw	s0,40(sp)
20014492:	d226                	sw	s1,36(sp)
20014494:	1800                	addi	s0,sp,48
20014496:	fca42e23          	sw	a0,-36(s0)
2001449a:	fcb42823          	sw	a1,-48(s0)
2001449e:	fcc42a23          	sw	a2,-44(s0)
E:/GitHub/HiFive01-RevB/FS_workspace/sifive_hifive1_revb_sifive_welcome/freedom-metal/src/drivers/riscv_cpu.c:671
    int rc = -1;
200144a2:	57fd                	li	a5,-1
200144a4:	fef42623          	sw	a5,-20(s0)
E:/GitHub/HiFive01-RevB/FS_workspace/sifive_hifive1_revb_sifive_welcome/freedom-metal/src/drivers/riscv_cpu.c:675
    struct metal_interrupt *tmr_intc;
    struct __metal_driver_riscv_cpu_intc *intc =
        (struct __metal_driver_riscv_cpu_intc *)
            __metal_driver_cpu_interrupt_controller(cpu);
200144a8:	fdc42503          	lw	a0,-36(s0)
200144ac:	8e9fe0ef          	jal	ra,20012d94 <__metal_driver_cpu_interrupt_controller>
200144b0:	fea42423          	sw	a0,-24(s0)
E:/GitHub/HiFive01-RevB/FS_workspace/sifive_hifive1_revb_sifive_welcome/freedom-metal/src/drivers/riscv_cpu.c:677

    if (intc) {
200144b4:	fe842783          	lw	a5,-24(s0)
200144b8:	cf8d                	beqz	a5,200144f2 <__metal_driver_cpu_mtimecmp_set+0x66>
E:/GitHub/HiFive01-RevB/FS_workspace/sifive_hifive1_revb_sifive_welcome/freedom-metal/src/drivers/riscv_cpu.c:678
        tmr_intc = intc->metal_int_table[METAL_INTERRUPT_ID_TMR].sub_int;
200144ba:	fe842783          	lw	a5,-24(s0)
200144be:	13c7a783          	lw	a5,316(a5)
200144c2:	fef42223          	sw	a5,-28(s0)
E:/GitHub/HiFive01-RevB/FS_workspace/sifive_hifive1_revb_sifive_welcome/freedom-metal/src/drivers/riscv_cpu.c:679
        if (tmr_intc) {
200144c6:	fe442783          	lw	a5,-28(s0)
200144ca:	c785                	beqz	a5,200144f2 <__metal_driver_cpu_mtimecmp_set+0x66>
E:/GitHub/HiFive01-RevB/FS_workspace/sifive_hifive1_revb_sifive_welcome/freedom-metal/src/drivers/riscv_cpu.c:680
            rc = tmr_intc->vtable->mtimecmp_set(
200144cc:	fe442783          	lw	a5,-28(s0)
200144d0:	439c                	lw	a5,0(a5)
200144d2:	4ba4                	lw	s1,80(a5)
200144d4:	fdc42503          	lw	a0,-36(s0)
200144d8:	86ffe0ef          	jal	ra,20012d46 <__metal_driver_cpu_hartid>
200144dc:	87aa                	mv	a5,a0
200144de:	fd042603          	lw	a2,-48(s0)
200144e2:	fd442683          	lw	a3,-44(s0)
200144e6:	85be                	mv	a1,a5
200144e8:	fe442503          	lw	a0,-28(s0)
200144ec:	9482                	jalr	s1
200144ee:	fea42623          	sw	a0,-20(s0)
E:/GitHub/HiFive01-RevB/FS_workspace/sifive_hifive1_revb_sifive_welcome/freedom-metal/src/drivers/riscv_cpu.c:684
                tmr_intc, __metal_driver_cpu_hartid(cpu), time);
        }
    }
    return rc;
200144f2:	fec42783          	lw	a5,-20(s0)
E:/GitHub/HiFive01-RevB/FS_workspace/sifive_hifive1_revb_sifive_welcome/freedom-metal/src/drivers/riscv_cpu.c:685
}
200144f6:	853e                	mv	a0,a5
200144f8:	50b2                	lw	ra,44(sp)
200144fa:	5422                	lw	s0,40(sp)
200144fc:	5492                	lw	s1,36(sp)
200144fe:	6145                	addi	sp,sp,48
20014500:	8082                	ret

20014502 <__metal_driver_cpu_timer_controller_interrupt>:
__metal_driver_cpu_timer_controller_interrupt():
E:/GitHub/HiFive01-RevB/FS_workspace/sifive_hifive1_revb_sifive_welcome/freedom-metal/src/drivers/riscv_cpu.c:688

struct metal_interrupt *
__metal_driver_cpu_timer_controller_interrupt(struct metal_cpu *cpu) {
20014502:	1101                	addi	sp,sp,-32
20014504:	ce22                	sw	s0,28(sp)
20014506:	1000                	addi	s0,sp,32
20014508:	fea42623          	sw	a0,-20(s0)
E:/GitHub/HiFive01-RevB/FS_workspace/sifive_hifive1_revb_sifive_welcome/freedom-metal/src/drivers/riscv_cpu.c:690
#ifdef __METAL_DT_RISCV_CLINT0_HANDLE
    return __METAL_DT_RISCV_CLINT0_HANDLE;
2001450c:	800017b7          	lui	a5,0x80001
20014510:	ab878793          	addi	a5,a5,-1352 # 80000ab8 <metal_segment_heap_target_end+0xfffff318>
E:/GitHub/HiFive01-RevB/FS_workspace/sifive_hifive1_revb_sifive_welcome/freedom-metal/src/drivers/riscv_cpu.c:699
#else
#pragma message("There is no interrupt controller for Timer interrupt")
    return NULL;
#endif
#endif
}
20014514:	853e                	mv	a0,a5
20014516:	4472                	lw	s0,28(sp)
20014518:	6105                	addi	sp,sp,32
2001451a:	8082                	ret

2001451c <__metal_driver_cpu_get_timer_interrupt_id>:
__metal_driver_cpu_get_timer_interrupt_id():
E:/GitHub/HiFive01-RevB/FS_workspace/sifive_hifive1_revb_sifive_welcome/freedom-metal/src/drivers/riscv_cpu.c:701

int __metal_driver_cpu_get_timer_interrupt_id(struct metal_cpu *cpu) {
2001451c:	1101                	addi	sp,sp,-32
2001451e:	ce22                	sw	s0,28(sp)
20014520:	1000                	addi	s0,sp,32
20014522:	fea42623          	sw	a0,-20(s0)
E:/GitHub/HiFive01-RevB/FS_workspace/sifive_hifive1_revb_sifive_welcome/freedom-metal/src/drivers/riscv_cpu.c:702
    return METAL_INTERRUPT_ID_TMR;
20014526:	479d                	li	a5,7
E:/GitHub/HiFive01-RevB/FS_workspace/sifive_hifive1_revb_sifive_welcome/freedom-metal/src/drivers/riscv_cpu.c:703
}
20014528:	853e                	mv	a0,a5
2001452a:	4472                	lw	s0,28(sp)
2001452c:	6105                	addi	sp,sp,32
2001452e:	8082                	ret

20014530 <__metal_driver_cpu_sw_controller_interrupt>:
__metal_driver_cpu_sw_controller_interrupt():
E:/GitHub/HiFive01-RevB/FS_workspace/sifive_hifive1_revb_sifive_welcome/freedom-metal/src/drivers/riscv_cpu.c:706

struct metal_interrupt *
__metal_driver_cpu_sw_controller_interrupt(struct metal_cpu *cpu) {
20014530:	1101                	addi	sp,sp,-32
20014532:	ce22                	sw	s0,28(sp)
20014534:	1000                	addi	s0,sp,32
20014536:	fea42623          	sw	a0,-20(s0)
E:/GitHub/HiFive01-RevB/FS_workspace/sifive_hifive1_revb_sifive_welcome/freedom-metal/src/drivers/riscv_cpu.c:708
#ifdef __METAL_DT_RISCV_CLINT0_HANDLE
    return __METAL_DT_RISCV_CLINT0_HANDLE;
2001453a:	800017b7          	lui	a5,0x80001
2001453e:	ab878793          	addi	a5,a5,-1352 # 80000ab8 <metal_segment_heap_target_end+0xfffff318>
E:/GitHub/HiFive01-RevB/FS_workspace/sifive_hifive1_revb_sifive_welcome/freedom-metal/src/drivers/riscv_cpu.c:717
#else
#pragma message("There is no interrupt controller for Software interrupt")
    return NULL;
#endif
#endif
}
20014542:	853e                	mv	a0,a5
20014544:	4472                	lw	s0,28(sp)
20014546:	6105                	addi	sp,sp,32
20014548:	8082                	ret

2001454a <__metal_driver_cpu_get_sw_interrupt_id>:
__metal_driver_cpu_get_sw_interrupt_id():
E:/GitHub/HiFive01-RevB/FS_workspace/sifive_hifive1_revb_sifive_welcome/freedom-metal/src/drivers/riscv_cpu.c:719

int __metal_driver_cpu_get_sw_interrupt_id(struct metal_cpu *cpu) {
2001454a:	1101                	addi	sp,sp,-32
2001454c:	ce22                	sw	s0,28(sp)
2001454e:	1000                	addi	s0,sp,32
20014550:	fea42623          	sw	a0,-20(s0)
E:/GitHub/HiFive01-RevB/FS_workspace/sifive_hifive1_revb_sifive_welcome/freedom-metal/src/drivers/riscv_cpu.c:720
    return METAL_INTERRUPT_ID_SW;
20014554:	478d                	li	a5,3
E:/GitHub/HiFive01-RevB/FS_workspace/sifive_hifive1_revb_sifive_welcome/freedom-metal/src/drivers/riscv_cpu.c:721
}
20014556:	853e                	mv	a0,a5
20014558:	4472                	lw	s0,28(sp)
2001455a:	6105                	addi	sp,sp,32
2001455c:	8082                	ret

2001455e <__metal_driver_cpu_set_sw_ipi>:
__metal_driver_cpu_set_sw_ipi():
E:/GitHub/HiFive01-RevB/FS_workspace/sifive_hifive1_revb_sifive_welcome/freedom-metal/src/drivers/riscv_cpu.c:723

int __metal_driver_cpu_set_sw_ipi(struct metal_cpu *cpu, int hartid) {
2001455e:	7179                	addi	sp,sp,-48
20014560:	d606                	sw	ra,44(sp)
20014562:	d422                	sw	s0,40(sp)
20014564:	1800                	addi	s0,sp,48
20014566:	fca42e23          	sw	a0,-36(s0)
2001456a:	fcb42c23          	sw	a1,-40(s0)
E:/GitHub/HiFive01-RevB/FS_workspace/sifive_hifive1_revb_sifive_welcome/freedom-metal/src/drivers/riscv_cpu.c:724
    int rc = -1;
2001456e:	57fd                	li	a5,-1
20014570:	fef42623          	sw	a5,-20(s0)
E:/GitHub/HiFive01-RevB/FS_workspace/sifive_hifive1_revb_sifive_welcome/freedom-metal/src/drivers/riscv_cpu.c:728
    struct metal_interrupt *sw_intc;
    struct __metal_driver_riscv_cpu_intc *intc =
        (struct __metal_driver_riscv_cpu_intc *)
            __metal_driver_cpu_interrupt_controller(cpu);
20014574:	fdc42503          	lw	a0,-36(s0)
20014578:	81dfe0ef          	jal	ra,20012d94 <__metal_driver_cpu_interrupt_controller>
2001457c:	fea42423          	sw	a0,-24(s0)
E:/GitHub/HiFive01-RevB/FS_workspace/sifive_hifive1_revb_sifive_welcome/freedom-metal/src/drivers/riscv_cpu.c:730

    if (intc) {
20014580:	fe842783          	lw	a5,-24(s0)
20014584:	c79d                	beqz	a5,200145b2 <__metal_driver_cpu_set_sw_ipi+0x54>
E:/GitHub/HiFive01-RevB/FS_workspace/sifive_hifive1_revb_sifive_welcome/freedom-metal/src/drivers/riscv_cpu.c:731
        sw_intc = intc->metal_int_table[METAL_INTERRUPT_ID_SW].sub_int;
20014586:	fe842783          	lw	a5,-24(s0)
2001458a:	0dc7a783          	lw	a5,220(a5)
2001458e:	fef42223          	sw	a5,-28(s0)
E:/GitHub/HiFive01-RevB/FS_workspace/sifive_hifive1_revb_sifive_welcome/freedom-metal/src/drivers/riscv_cpu.c:732
        if (sw_intc) {
20014592:	fe442783          	lw	a5,-28(s0)
20014596:	cf91                	beqz	a5,200145b2 <__metal_driver_cpu_set_sw_ipi+0x54>
E:/GitHub/HiFive01-RevB/FS_workspace/sifive_hifive1_revb_sifive_welcome/freedom-metal/src/drivers/riscv_cpu.c:733
            rc = sw_intc->vtable->command_request(
20014598:	fe442783          	lw	a5,-28(s0)
2001459c:	439c                	lw	a5,0(a5)
2001459e:	47f8                	lw	a4,76(a5)
200145a0:	fd840793          	addi	a5,s0,-40
200145a4:	863e                	mv	a2,a5
200145a6:	458d                	li	a1,3
200145a8:	fe442503          	lw	a0,-28(s0)
200145ac:	9702                	jalr	a4
200145ae:	fea42623          	sw	a0,-20(s0)
E:/GitHub/HiFive01-RevB/FS_workspace/sifive_hifive1_revb_sifive_welcome/freedom-metal/src/drivers/riscv_cpu.c:737
                sw_intc, METAL_SOFTWARE_IPI_SET, &hartid);
        }
    }
    return rc;
200145b2:	fec42783          	lw	a5,-20(s0)
E:/GitHub/HiFive01-RevB/FS_workspace/sifive_hifive1_revb_sifive_welcome/freedom-metal/src/drivers/riscv_cpu.c:738
}
200145b6:	853e                	mv	a0,a5
200145b8:	50b2                	lw	ra,44(sp)
200145ba:	5422                	lw	s0,40(sp)
200145bc:	6145                	addi	sp,sp,48
200145be:	8082                	ret

200145c0 <__metal_driver_cpu_clear_sw_ipi>:
__metal_driver_cpu_clear_sw_ipi():
E:/GitHub/HiFive01-RevB/FS_workspace/sifive_hifive1_revb_sifive_welcome/freedom-metal/src/drivers/riscv_cpu.c:740

int __metal_driver_cpu_clear_sw_ipi(struct metal_cpu *cpu, int hartid) {
200145c0:	7179                	addi	sp,sp,-48
200145c2:	d606                	sw	ra,44(sp)
200145c4:	d422                	sw	s0,40(sp)
200145c6:	1800                	addi	s0,sp,48
200145c8:	fca42e23          	sw	a0,-36(s0)
200145cc:	fcb42c23          	sw	a1,-40(s0)
E:/GitHub/HiFive01-RevB/FS_workspace/sifive_hifive1_revb_sifive_welcome/freedom-metal/src/drivers/riscv_cpu.c:741
    int rc = -1;
200145d0:	57fd                	li	a5,-1
200145d2:	fef42623          	sw	a5,-20(s0)
E:/GitHub/HiFive01-RevB/FS_workspace/sifive_hifive1_revb_sifive_welcome/freedom-metal/src/drivers/riscv_cpu.c:745
    struct metal_interrupt *sw_intc;
    struct __metal_driver_riscv_cpu_intc *intc =
        (struct __metal_driver_riscv_cpu_intc *)
            __metal_driver_cpu_interrupt_controller(cpu);
200145d6:	fdc42503          	lw	a0,-36(s0)
200145da:	fbafe0ef          	jal	ra,20012d94 <__metal_driver_cpu_interrupt_controller>
200145de:	fea42423          	sw	a0,-24(s0)
E:/GitHub/HiFive01-RevB/FS_workspace/sifive_hifive1_revb_sifive_welcome/freedom-metal/src/drivers/riscv_cpu.c:747

    if (intc) {
200145e2:	fe842783          	lw	a5,-24(s0)
200145e6:	c79d                	beqz	a5,20014614 <__metal_driver_cpu_clear_sw_ipi+0x54>
E:/GitHub/HiFive01-RevB/FS_workspace/sifive_hifive1_revb_sifive_welcome/freedom-metal/src/drivers/riscv_cpu.c:748
        sw_intc = intc->metal_int_table[METAL_INTERRUPT_ID_SW].sub_int;
200145e8:	fe842783          	lw	a5,-24(s0)
200145ec:	0dc7a783          	lw	a5,220(a5)
200145f0:	fef42223          	sw	a5,-28(s0)
E:/GitHub/HiFive01-RevB/FS_workspace/sifive_hifive1_revb_sifive_welcome/freedom-metal/src/drivers/riscv_cpu.c:749
        if (sw_intc) {
200145f4:	fe442783          	lw	a5,-28(s0)
200145f8:	cf91                	beqz	a5,20014614 <__metal_driver_cpu_clear_sw_ipi+0x54>
E:/GitHub/HiFive01-RevB/FS_workspace/sifive_hifive1_revb_sifive_welcome/freedom-metal/src/drivers/riscv_cpu.c:750
            rc = sw_intc->vtable->command_request(
200145fa:	fe442783          	lw	a5,-28(s0)
200145fe:	439c                	lw	a5,0(a5)
20014600:	47f8                	lw	a4,76(a5)
20014602:	fd840793          	addi	a5,s0,-40
20014606:	863e                	mv	a2,a5
20014608:	4589                	li	a1,2
2001460a:	fe442503          	lw	a0,-28(s0)
2001460e:	9702                	jalr	a4
20014610:	fea42623          	sw	a0,-20(s0)
E:/GitHub/HiFive01-RevB/FS_workspace/sifive_hifive1_revb_sifive_welcome/freedom-metal/src/drivers/riscv_cpu.c:754
                sw_intc, METAL_SOFTWARE_IPI_CLEAR, &hartid);
        }
    }
    return rc;
20014614:	fec42783          	lw	a5,-20(s0)
E:/GitHub/HiFive01-RevB/FS_workspace/sifive_hifive1_revb_sifive_welcome/freedom-metal/src/drivers/riscv_cpu.c:755
}
20014618:	853e                	mv	a0,a5
2001461a:	50b2                	lw	ra,44(sp)
2001461c:	5422                	lw	s0,40(sp)
2001461e:	6145                	addi	sp,sp,48
20014620:	8082                	ret

20014622 <__metal_driver_cpu_get_msip>:
__metal_driver_cpu_get_msip():
E:/GitHub/HiFive01-RevB/FS_workspace/sifive_hifive1_revb_sifive_welcome/freedom-metal/src/drivers/riscv_cpu.c:757

int __metal_driver_cpu_get_msip(struct metal_cpu *cpu, int hartid) {
20014622:	7179                	addi	sp,sp,-48
20014624:	d606                	sw	ra,44(sp)
20014626:	d422                	sw	s0,40(sp)
20014628:	1800                	addi	s0,sp,48
2001462a:	fca42e23          	sw	a0,-36(s0)
2001462e:	fcb42c23          	sw	a1,-40(s0)
E:/GitHub/HiFive01-RevB/FS_workspace/sifive_hifive1_revb_sifive_welcome/freedom-metal/src/drivers/riscv_cpu.c:758
    int rc = 0;
20014632:	fe042623          	sw	zero,-20(s0)
E:/GitHub/HiFive01-RevB/FS_workspace/sifive_hifive1_revb_sifive_welcome/freedom-metal/src/drivers/riscv_cpu.c:762
    struct metal_interrupt *sw_intc;
    struct __metal_driver_riscv_cpu_intc *intc =
        (struct __metal_driver_riscv_cpu_intc *)
            __metal_driver_cpu_interrupt_controller(cpu);
20014636:	fdc42503          	lw	a0,-36(s0)
2001463a:	f5afe0ef          	jal	ra,20012d94 <__metal_driver_cpu_interrupt_controller>
2001463e:	fea42423          	sw	a0,-24(s0)
E:/GitHub/HiFive01-RevB/FS_workspace/sifive_hifive1_revb_sifive_welcome/freedom-metal/src/drivers/riscv_cpu.c:764

    if (intc) {
20014642:	fe842783          	lw	a5,-24(s0)
20014646:	c79d                	beqz	a5,20014674 <__metal_driver_cpu_get_msip+0x52>
E:/GitHub/HiFive01-RevB/FS_workspace/sifive_hifive1_revb_sifive_welcome/freedom-metal/src/drivers/riscv_cpu.c:765
        sw_intc = intc->metal_int_table[METAL_INTERRUPT_ID_SW].sub_int;
20014648:	fe842783          	lw	a5,-24(s0)
2001464c:	0dc7a783          	lw	a5,220(a5)
20014650:	fef42223          	sw	a5,-28(s0)
E:/GitHub/HiFive01-RevB/FS_workspace/sifive_hifive1_revb_sifive_welcome/freedom-metal/src/drivers/riscv_cpu.c:766
        if (sw_intc) {
20014654:	fe442783          	lw	a5,-28(s0)
20014658:	cf91                	beqz	a5,20014674 <__metal_driver_cpu_get_msip+0x52>
E:/GitHub/HiFive01-RevB/FS_workspace/sifive_hifive1_revb_sifive_welcome/freedom-metal/src/drivers/riscv_cpu.c:767
            rc = sw_intc->vtable->command_request(
2001465a:	fe442783          	lw	a5,-28(s0)
2001465e:	439c                	lw	a5,0(a5)
20014660:	47f8                	lw	a4,76(a5)
20014662:	fd840793          	addi	a5,s0,-40
20014666:	863e                	mv	a2,a5
20014668:	4591                	li	a1,4
2001466a:	fe442503          	lw	a0,-28(s0)
2001466e:	9702                	jalr	a4
20014670:	fea42623          	sw	a0,-20(s0)
E:/GitHub/HiFive01-RevB/FS_workspace/sifive_hifive1_revb_sifive_welcome/freedom-metal/src/drivers/riscv_cpu.c:771
                sw_intc, METAL_SOFTWARE_MSIP_GET, &hartid);
        }
    }
    return rc;
20014674:	fec42783          	lw	a5,-20(s0)
E:/GitHub/HiFive01-RevB/FS_workspace/sifive_hifive1_revb_sifive_welcome/freedom-metal/src/drivers/riscv_cpu.c:772
}
20014678:	853e                	mv	a0,a5
2001467a:	50b2                	lw	ra,44(sp)
2001467c:	5422                	lw	s0,40(sp)
2001467e:	6145                	addi	sp,sp,48
20014680:	8082                	ret

20014682 <__metal_driver_cpu_controller_interrupt>:
__metal_driver_cpu_controller_interrupt():
E:/GitHub/HiFive01-RevB/FS_workspace/sifive_hifive1_revb_sifive_welcome/freedom-metal/src/drivers/riscv_cpu.c:775

struct metal_interrupt *
__metal_driver_cpu_controller_interrupt(struct metal_cpu *cpu) {
20014682:	1101                	addi	sp,sp,-32
20014684:	ce06                	sw	ra,28(sp)
20014686:	cc22                	sw	s0,24(sp)
20014688:	1000                	addi	s0,sp,32
2001468a:	fea42623          	sw	a0,-20(s0)
E:/GitHub/HiFive01-RevB/FS_workspace/sifive_hifive1_revb_sifive_welcome/freedom-metal/src/drivers/riscv_cpu.c:776
    return __metal_driver_cpu_interrupt_controller(cpu);
2001468e:	fec42503          	lw	a0,-20(s0)
20014692:	f02fe0ef          	jal	ra,20012d94 <__metal_driver_cpu_interrupt_controller>
20014696:	87aa                	mv	a5,a0
E:/GitHub/HiFive01-RevB/FS_workspace/sifive_hifive1_revb_sifive_welcome/freedom-metal/src/drivers/riscv_cpu.c:777
}
20014698:	853e                	mv	a0,a5
2001469a:	40f2                	lw	ra,28(sp)
2001469c:	4462                	lw	s0,24(sp)
2001469e:	6105                	addi	sp,sp,32
200146a0:	8082                	ret

200146a2 <__metal_driver_cpu_exception_register>:
__metal_driver_cpu_exception_register():
E:/GitHub/HiFive01-RevB/FS_workspace/sifive_hifive1_revb_sifive_welcome/freedom-metal/src/drivers/riscv_cpu.c:798
    }
    return -1;
}

int __metal_driver_cpu_exception_register(struct metal_cpu *cpu, int ecode,
                                          metal_exception_handler_t isr) {
200146a2:	7179                	addi	sp,sp,-48
200146a4:	d606                	sw	ra,44(sp)
200146a6:	d422                	sw	s0,40(sp)
200146a8:	1800                	addi	s0,sp,48
200146aa:	fca42e23          	sw	a0,-36(s0)
200146ae:	fcb42c23          	sw	a1,-40(s0)
200146b2:	fcc42a23          	sw	a2,-44(s0)
E:/GitHub/HiFive01-RevB/FS_workspace/sifive_hifive1_revb_sifive_welcome/freedom-metal/src/drivers/riscv_cpu.c:801
    struct __metal_driver_riscv_cpu_intc *intc =
        (struct __metal_driver_riscv_cpu_intc *)
            __metal_driver_cpu_interrupt_controller(cpu);
200146b6:	fdc42503          	lw	a0,-36(s0)
200146ba:	edafe0ef          	jal	ra,20012d94 <__metal_driver_cpu_interrupt_controller>
200146be:	fea42623          	sw	a0,-20(s0)
E:/GitHub/HiFive01-RevB/FS_workspace/sifive_hifive1_revb_sifive_welcome/freedom-metal/src/drivers/riscv_cpu.c:803

    if (intc) {
200146c2:	fec42783          	lw	a5,-20(s0)
200146c6:	cb99                	beqz	a5,200146dc <__metal_driver_cpu_exception_register+0x3a>
E:/GitHub/HiFive01-RevB/FS_workspace/sifive_hifive1_revb_sifive_welcome/freedom-metal/src/drivers/riscv_cpu.c:804
        return __metal_exception_register((struct metal_interrupt *)intc, ecode,
200146c8:	fd442603          	lw	a2,-44(s0)
200146cc:	fd842583          	lw	a1,-40(s0)
200146d0:	fec42503          	lw	a0,-20(s0)
200146d4:	8a5ff0ef          	jal	ra,20013f78 <__metal_exception_register>
200146d8:	87aa                	mv	a5,a0
200146da:	a011                	j	200146de <__metal_driver_cpu_exception_register+0x3c>
E:/GitHub/HiFive01-RevB/FS_workspace/sifive_hifive1_revb_sifive_welcome/freedom-metal/src/drivers/riscv_cpu.c:807
                                          isr);
    }
    return -1;
200146dc:	57fd                	li	a5,-1
E:/GitHub/HiFive01-RevB/FS_workspace/sifive_hifive1_revb_sifive_welcome/freedom-metal/src/drivers/riscv_cpu.c:808
}
200146de:	853e                	mv	a0,a5
200146e0:	50b2                	lw	ra,44(sp)
200146e2:	5422                	lw	s0,40(sp)
200146e4:	6145                	addi	sp,sp,48
200146e6:	8082                	ret

200146e8 <__metal_driver_cpu_get_instruction_length>:
__metal_driver_cpu_get_instruction_length():
E:/GitHub/HiFive01-RevB/FS_workspace/sifive_hifive1_revb_sifive_welcome/freedom-metal/src/drivers/riscv_cpu.c:811

int __metal_driver_cpu_get_instruction_length(struct metal_cpu *cpu,
                                              uintptr_t epc) {
200146e8:	1101                	addi	sp,sp,-32
200146ea:	ce22                	sw	s0,28(sp)
200146ec:	1000                	addi	s0,sp,32
200146ee:	fea42623          	sw	a0,-20(s0)
200146f2:	feb42423          	sw	a1,-24(s0)
E:/GitHub/HiFive01-RevB/FS_workspace/sifive_hifive1_revb_sifive_welcome/freedom-metal/src/drivers/riscv_cpu.c:817
    /**
     * Per ISA compressed instruction has last two bits of opcode set.
     * The encoding '00' '01' '10' are used for compressed instruction.
     * Only enconding '11' isn't regarded as compressed instruction (>16b).
     */
    return ((*(unsigned short *)epc & METAL_INSN_LENGTH_MASK) ==
200146f6:	fe842783          	lw	a5,-24(s0)
200146fa:	0007d783          	lhu	a5,0(a5)
200146fe:	0037f713          	andi	a4,a5,3
E:/GitHub/HiFive01-RevB/FS_workspace/sifive_hifive1_revb_sifive_welcome/freedom-metal/src/drivers/riscv_cpu.c:820
            METAL_INSN_NOT_COMPRESSED)
               ? 4
               : 2;
20014702:	478d                	li	a5,3
20014704:	00f71463          	bne	a4,a5,2001470c <__metal_driver_cpu_get_instruction_length+0x24>
E:/GitHub/HiFive01-RevB/FS_workspace/sifive_hifive1_revb_sifive_welcome/freedom-metal/src/drivers/riscv_cpu.c:820 (discriminator 1)
20014708:	4791                	li	a5,4
2001470a:	a011                	j	2001470e <__metal_driver_cpu_get_instruction_length+0x26>
E:/GitHub/HiFive01-RevB/FS_workspace/sifive_hifive1_revb_sifive_welcome/freedom-metal/src/drivers/riscv_cpu.c:820 (discriminator 2)
2001470c:	4789                	li	a5,2
E:/GitHub/HiFive01-RevB/FS_workspace/sifive_hifive1_revb_sifive_welcome/freedom-metal/src/drivers/riscv_cpu.c:821 (discriminator 5)
}
2001470e:	853e                	mv	a0,a5
20014710:	4472                	lw	s0,28(sp)
20014712:	6105                	addi	sp,sp,32
20014714:	8082                	ret

20014716 <__metal_driver_cpu_get_exception_pc>:
__metal_driver_cpu_get_exception_pc():
E:/GitHub/HiFive01-RevB/FS_workspace/sifive_hifive1_revb_sifive_welcome/freedom-metal/src/drivers/riscv_cpu.c:823

uintptr_t __metal_driver_cpu_get_exception_pc(struct metal_cpu *cpu) {
20014716:	7179                	addi	sp,sp,-48
20014718:	d622                	sw	s0,44(sp)
2001471a:	1800                	addi	s0,sp,48
2001471c:	fca42e23          	sw	a0,-36(s0)
E:/GitHub/HiFive01-RevB/FS_workspace/sifive_hifive1_revb_sifive_welcome/freedom-metal/src/drivers/riscv_cpu.c:825
    uintptr_t mepc;
    __asm__ volatile("csrr %0, mepc" : "=r"(mepc));
20014720:	341027f3          	csrr	a5,mepc
20014724:	fef42623          	sw	a5,-20(s0)
E:/GitHub/HiFive01-RevB/FS_workspace/sifive_hifive1_revb_sifive_welcome/freedom-metal/src/drivers/riscv_cpu.c:826
    return mepc;
20014728:	fec42783          	lw	a5,-20(s0)
E:/GitHub/HiFive01-RevB/FS_workspace/sifive_hifive1_revb_sifive_welcome/freedom-metal/src/drivers/riscv_cpu.c:827
}
2001472c:	853e                	mv	a0,a5
2001472e:	5432                	lw	s0,44(sp)
20014730:	6145                	addi	sp,sp,48
20014732:	8082                	ret

20014734 <__metal_driver_cpu_set_exception_pc>:
__metal_driver_cpu_set_exception_pc():
E:/GitHub/HiFive01-RevB/FS_workspace/sifive_hifive1_revb_sifive_welcome/freedom-metal/src/drivers/riscv_cpu.c:829

int __metal_driver_cpu_set_exception_pc(struct metal_cpu *cpu, uintptr_t mepc) {
20014734:	1101                	addi	sp,sp,-32
20014736:	ce22                	sw	s0,28(sp)
20014738:	1000                	addi	s0,sp,32
2001473a:	fea42623          	sw	a0,-20(s0)
2001473e:	feb42423          	sw	a1,-24(s0)
E:/GitHub/HiFive01-RevB/FS_workspace/sifive_hifive1_revb_sifive_welcome/freedom-metal/src/drivers/riscv_cpu.c:830
    __asm__ volatile("csrw mepc, %0" ::"r"(mepc));
20014742:	fe842783          	lw	a5,-24(s0)
20014746:	34179073          	csrw	mepc,a5
E:/GitHub/HiFive01-RevB/FS_workspace/sifive_hifive1_revb_sifive_welcome/freedom-metal/src/drivers/riscv_cpu.c:831
    return 0;
2001474a:	4781                	li	a5,0
E:/GitHub/HiFive01-RevB/FS_workspace/sifive_hifive1_revb_sifive_welcome/freedom-metal/src/drivers/riscv_cpu.c:832
}
2001474c:	853e                	mv	a0,a5
2001474e:	4472                	lw	s0,28(sp)
20014750:	6105                	addi	sp,sp,32
20014752:	8082                	ret

20014754 <__metal_driver_cpu_get_buserror>:
__metal_driver_cpu_get_buserror():
E:/GitHub/HiFive01-RevB/FS_workspace/sifive_hifive1_revb_sifive_welcome/freedom-metal/src/drivers/riscv_cpu.c:834

struct metal_buserror *__metal_driver_cpu_get_buserror(struct metal_cpu *cpu) {
20014754:	1101                	addi	sp,sp,-32
20014756:	ce06                	sw	ra,28(sp)
20014758:	cc22                	sw	s0,24(sp)
2001475a:	1000                	addi	s0,sp,32
2001475c:	fea42623          	sw	a0,-20(s0)
E:/GitHub/HiFive01-RevB/FS_workspace/sifive_hifive1_revb_sifive_welcome/freedom-metal/src/drivers/riscv_cpu.c:835
    return __metal_driver_cpu_buserror(cpu);
20014760:	fec42503          	lw	a0,-20(s0)
20014764:	e5afe0ef          	jal	ra,20012dbe <__metal_driver_cpu_buserror>
20014768:	87aa                	mv	a5,a0
E:/GitHub/HiFive01-RevB/FS_workspace/sifive_hifive1_revb_sifive_welcome/freedom-metal/src/drivers/riscv_cpu.c:836
}
2001476a:	853e                	mv	a0,a5
2001476c:	40f2                	lw	ra,28(sp)
2001476e:	4462                	lw	s0,24(sp)
20014770:	6105                	addi	sp,sp,32
20014772:	8082                	ret

20014774 <__metal_driver_sifive_plic0_control_base>:
__metal_driver_sifive_plic0_control_base():
E:\GitHub\HiFive01-RevB\FS_workspace\sifive_hifive1_revb_sifive_welcome\bsp\build\debug/./metal/machine.h:345



/* --------------------- sifive_plic0 ------------ */
static __inline__ unsigned long __metal_driver_sifive_plic0_control_base(struct metal_interrupt *controller)
{
20014774:	1101                	addi	sp,sp,-32
20014776:	ce22                	sw	s0,28(sp)
20014778:	1000                	addi	s0,sp,32
2001477a:	fea42623          	sw	a0,-20(s0)
E:\GitHub\HiFive01-RevB\FS_workspace\sifive_hifive1_revb_sifive_welcome\bsp\build\debug/./metal/machine.h:346
	if ((uintptr_t)controller == (uintptr_t)&__metal_dt_interrupt_controller_c000000) {
2001477e:	fec42703          	lw	a4,-20(s0)
20014782:	800007b7          	lui	a5,0x80000
20014786:	47078793          	addi	a5,a5,1136 # 80000470 <metal_segment_heap_target_end+0xffffecd0>
2001478a:	00f71563          	bne	a4,a5,20014794 <__metal_driver_sifive_plic0_control_base+0x20>
E:\GitHub\HiFive01-RevB\FS_workspace\sifive_hifive1_revb_sifive_welcome\bsp\build\debug/./metal/machine.h:347
		return METAL_RISCV_PLIC0_C000000_BASE_ADDRESS;
2001478e:	0c0007b7          	lui	a5,0xc000
20014792:	a011                	j	20014796 <__metal_driver_sifive_plic0_control_base+0x22>
E:\GitHub\HiFive01-RevB\FS_workspace\sifive_hifive1_revb_sifive_welcome\bsp\build\debug/./metal/machine.h:350
	}
	else {
		return 0;
20014794:	4781                	li	a5,0
E:\GitHub\HiFive01-RevB\FS_workspace\sifive_hifive1_revb_sifive_welcome\bsp\build\debug/./metal/machine.h:352
	}
}
20014796:	853e                	mv	a0,a5
20014798:	4472                	lw	s0,28(sp)
2001479a:	6105                	addi	sp,sp,32
2001479c:	8082                	ret

2001479e <__metal_driver_sifive_plic0_num_interrupts>:
__metal_driver_sifive_plic0_num_interrupts():
E:\GitHub\HiFive01-RevB\FS_workspace\sifive_hifive1_revb_sifive_welcome\bsp\build\debug/./metal/machine.h:365
		return 0;
	}
}

static __inline__ int __metal_driver_sifive_plic0_num_interrupts(struct metal_interrupt *controller)
{
2001479e:	1101                	addi	sp,sp,-32
200147a0:	ce22                	sw	s0,28(sp)
200147a2:	1000                	addi	s0,sp,32
200147a4:	fea42623          	sw	a0,-20(s0)
E:\GitHub\HiFive01-RevB\FS_workspace\sifive_hifive1_revb_sifive_welcome\bsp\build\debug/./metal/machine.h:366
	if ((uintptr_t)controller == (uintptr_t)&__metal_dt_interrupt_controller_c000000) {
200147a8:	fec42703          	lw	a4,-20(s0)
200147ac:	800007b7          	lui	a5,0x80000
200147b0:	47078793          	addi	a5,a5,1136 # 80000470 <metal_segment_heap_target_end+0xffffecd0>
200147b4:	00f71563          	bne	a4,a5,200147be <__metal_driver_sifive_plic0_num_interrupts+0x20>
E:\GitHub\HiFive01-RevB\FS_workspace\sifive_hifive1_revb_sifive_welcome\bsp\build\debug/./metal/machine.h:367
		return METAL_RISCV_PLIC0_C000000_RISCV_NDEV;
200147b8:	03500793          	li	a5,53
200147bc:	a011                	j	200147c0 <__metal_driver_sifive_plic0_num_interrupts+0x22>
E:\GitHub\HiFive01-RevB\FS_workspace\sifive_hifive1_revb_sifive_welcome\bsp\build\debug/./metal/machine.h:370
	}
	else {
		return 0;
200147be:	4781                	li	a5,0
E:\GitHub\HiFive01-RevB\FS_workspace\sifive_hifive1_revb_sifive_welcome\bsp\build\debug/./metal/machine.h:372
	}
}
200147c0:	853e                	mv	a0,a5
200147c2:	4472                	lw	s0,28(sp)
200147c4:	6105                	addi	sp,sp,32
200147c6:	8082                	ret

200147c8 <__metal_driver_sifive_plic0_max_priority>:
__metal_driver_sifive_plic0_max_priority():
E:\GitHub\HiFive01-RevB\FS_workspace\sifive_hifive1_revb_sifive_welcome\bsp\build\debug/./metal/machine.h:375

static __inline__ int __metal_driver_sifive_plic0_max_priority(struct metal_interrupt *controller)
{
200147c8:	1101                	addi	sp,sp,-32
200147ca:	ce22                	sw	s0,28(sp)
200147cc:	1000                	addi	s0,sp,32
200147ce:	fea42623          	sw	a0,-20(s0)
E:\GitHub\HiFive01-RevB\FS_workspace\sifive_hifive1_revb_sifive_welcome\bsp\build\debug/./metal/machine.h:376
	if ((uintptr_t)controller == (uintptr_t)&__metal_dt_interrupt_controller_c000000) {
200147d2:	fec42703          	lw	a4,-20(s0)
200147d6:	800007b7          	lui	a5,0x80000
200147da:	47078793          	addi	a5,a5,1136 # 80000470 <metal_segment_heap_target_end+0xffffecd0>
200147de:	00f71463          	bne	a4,a5,200147e6 <__metal_driver_sifive_plic0_max_priority+0x1e>
E:\GitHub\HiFive01-RevB\FS_workspace\sifive_hifive1_revb_sifive_welcome\bsp\build\debug/./metal/machine.h:377
		return METAL_RISCV_PLIC0_C000000_RISCV_MAX_PRIORITY;
200147e2:	479d                	li	a5,7
200147e4:	a011                	j	200147e8 <__metal_driver_sifive_plic0_max_priority+0x20>
E:\GitHub\HiFive01-RevB\FS_workspace\sifive_hifive1_revb_sifive_welcome\bsp\build\debug/./metal/machine.h:380
	}
	else {
		return 0;
200147e6:	4781                	li	a5,0
E:\GitHub\HiFive01-RevB\FS_workspace\sifive_hifive1_revb_sifive_welcome\bsp\build\debug/./metal/machine.h:382
	}
}
200147e8:	853e                	mv	a0,a5
200147ea:	4472                	lw	s0,28(sp)
200147ec:	6105                	addi	sp,sp,32
200147ee:	8082                	ret

200147f0 <__metal_driver_sifive_plic0_interrupt_parents>:
__metal_driver_sifive_plic0_interrupt_parents():
E:\GitHub\HiFive01-RevB\FS_workspace\sifive_hifive1_revb_sifive_welcome\bsp\build\debug/./metal/machine.h:385

static __inline__ struct metal_interrupt * __metal_driver_sifive_plic0_interrupt_parents(struct metal_interrupt *controller, int idx)
{
200147f0:	1101                	addi	sp,sp,-32
200147f2:	ce22                	sw	s0,28(sp)
200147f4:	1000                	addi	s0,sp,32
200147f6:	fea42623          	sw	a0,-20(s0)
200147fa:	feb42423          	sw	a1,-24(s0)
E:\GitHub\HiFive01-RevB\FS_workspace\sifive_hifive1_revb_sifive_welcome\bsp\build\debug/./metal/machine.h:386
	if (idx == 0) {
200147fe:	fe842783          	lw	a5,-24(s0)
20014802:	e791                	bnez	a5,2001480e <__metal_driver_sifive_plic0_interrupt_parents+0x1e>
E:\GitHub\HiFive01-RevB\FS_workspace\sifive_hifive1_revb_sifive_welcome\bsp\build\debug/./metal/machine.h:387
		return (struct metal_interrupt *)&__metal_dt_cpu_0_interrupt_controller.controller;
20014804:	800007b7          	lui	a5,0x80000
20014808:	0a078793          	addi	a5,a5,160 # 800000a0 <metal_segment_heap_target_end+0xffffe900>
2001480c:	a011                	j	20014810 <__metal_driver_sifive_plic0_interrupt_parents+0x20>
E:\GitHub\HiFive01-RevB\FS_workspace\sifive_hifive1_revb_sifive_welcome\bsp\build\debug/./metal/machine.h:390
	}
	else {
		return NULL;
2001480e:	4781                	li	a5,0
E:\GitHub\HiFive01-RevB\FS_workspace\sifive_hifive1_revb_sifive_welcome\bsp\build\debug/./metal/machine.h:392
	}
}
20014810:	853e                	mv	a0,a5
20014812:	4472                	lw	s0,28(sp)
20014814:	6105                	addi	sp,sp,32
20014816:	8082                	ret

20014818 <__metal_driver_sifive_plic0_interrupt_lines>:
__metal_driver_sifive_plic0_interrupt_lines():
E:\GitHub\HiFive01-RevB\FS_workspace\sifive_hifive1_revb_sifive_welcome\bsp\build\debug/./metal/machine.h:395

static __inline__ int __metal_driver_sifive_plic0_interrupt_lines(struct metal_interrupt *controller, int idx)
{
20014818:	1101                	addi	sp,sp,-32
2001481a:	ce22                	sw	s0,28(sp)
2001481c:	1000                	addi	s0,sp,32
2001481e:	fea42623          	sw	a0,-20(s0)
20014822:	feb42423          	sw	a1,-24(s0)
E:\GitHub\HiFive01-RevB\FS_workspace\sifive_hifive1_revb_sifive_welcome\bsp\build\debug/./metal/machine.h:396
	if (idx == 0) {
20014826:	fe842783          	lw	a5,-24(s0)
2001482a:	e399                	bnez	a5,20014830 <__metal_driver_sifive_plic0_interrupt_lines+0x18>
E:\GitHub\HiFive01-RevB\FS_workspace\sifive_hifive1_revb_sifive_welcome\bsp\build\debug/./metal/machine.h:397
		return 11;
2001482c:	47ad                	li	a5,11
2001482e:	a011                	j	20014832 <__metal_driver_sifive_plic0_interrupt_lines+0x1a>
E:\GitHub\HiFive01-RevB\FS_workspace\sifive_hifive1_revb_sifive_welcome\bsp\build\debug/./metal/machine.h:400
	}
	else {
		return 0;
20014830:	4781                	li	a5,0
E:\GitHub\HiFive01-RevB\FS_workspace\sifive_hifive1_revb_sifive_welcome\bsp\build\debug/./metal/machine.h:402
	}
}
20014832:	853e                	mv	a0,a5
20014834:	4472                	lw	s0,28(sp)
20014836:	6105                	addi	sp,sp,32
20014838:	8082                	ret

2001483a <__metal_driver_sifive_plic0_context_ids>:
__metal_driver_sifive_plic0_context_ids():
E:\GitHub\HiFive01-RevB\FS_workspace\sifive_hifive1_revb_sifive_welcome\bsp\build\debug/./metal/machine.h:405

static __inline__ int __metal_driver_sifive_plic0_context_ids(int hartid)
{
2001483a:	1101                	addi	sp,sp,-32
2001483c:	ce22                	sw	s0,28(sp)
2001483e:	1000                	addi	s0,sp,32
20014840:	fea42623          	sw	a0,-20(s0)
E:\GitHub\HiFive01-RevB\FS_workspace\sifive_hifive1_revb_sifive_welcome\bsp\build\debug/./metal/machine.h:406
	if (hartid == 0) {
20014844:	fec42783          	lw	a5,-20(s0)
20014848:	e399                	bnez	a5,2001484e <__metal_driver_sifive_plic0_context_ids+0x14>
E:\GitHub\HiFive01-RevB\FS_workspace\sifive_hifive1_revb_sifive_welcome\bsp\build\debug/./metal/machine.h:407
		return 0;
2001484a:	4781                	li	a5,0
2001484c:	a011                	j	20014850 <__metal_driver_sifive_plic0_context_ids+0x16>
E:\GitHub\HiFive01-RevB\FS_workspace\sifive_hifive1_revb_sifive_welcome\bsp\build\debug/./metal/machine.h:410
	}
	else {
		return -1;
2001484e:	57fd                	li	a5,-1
E:\GitHub\HiFive01-RevB\FS_workspace\sifive_hifive1_revb_sifive_welcome\bsp\build\debug/./metal/machine.h:412
	}
}
20014850:	853e                	mv	a0,a5
20014852:	4472                	lw	s0,28(sp)
20014854:	6105                	addi	sp,sp,32
20014856:	8082                	ret

20014858 <__metal_plic0_claim_interrupt>:
__metal_plic0_claim_interrupt():
E:/GitHub/HiFive01-RevB/FS_workspace/sifive_hifive1_revb_sifive_welcome/freedom-metal/src/drivers/riscv_plic0.c:18
#include <metal/machine.h>
#include <metal/shutdown.h>

unsigned int
__metal_plic0_claim_interrupt(struct __metal_driver_riscv_plic0 *plic,
                              int context_id) {
20014858:	7179                	addi	sp,sp,-48
2001485a:	d606                	sw	ra,44(sp)
2001485c:	d422                	sw	s0,40(sp)
2001485e:	1800                	addi	s0,sp,48
20014860:	fca42e23          	sw	a0,-36(s0)
20014864:	fcb42c23          	sw	a1,-40(s0)
E:/GitHub/HiFive01-RevB/FS_workspace/sifive_hifive1_revb_sifive_welcome/freedom-metal/src/drivers/riscv_plic0.c:19
    unsigned long control_base = __metal_driver_sifive_plic0_control_base(
20014868:	fdc42503          	lw	a0,-36(s0)
2001486c:	3721                	jal	20014774 <__metal_driver_sifive_plic0_control_base>
2001486e:	fea42623          	sw	a0,-20(s0)
E:/GitHub/HiFive01-RevB/FS_workspace/sifive_hifive1_revb_sifive_welcome/freedom-metal/src/drivers/riscv_plic0.c:21
        (struct metal_interrupt *)plic);
    return __METAL_ACCESS_ONCE(
20014872:	fd842783          	lw	a5,-40(s0)
20014876:	00c79713          	slli	a4,a5,0xc
2001487a:	fec42783          	lw	a5,-20(s0)
2001487e:	973e                	add	a4,a4,a5
20014880:	002007b7          	lui	a5,0x200
20014884:	0791                	addi	a5,a5,4
20014886:	97ba                	add	a5,a5,a4
20014888:	439c                	lw	a5,0(a5)
E:/GitHub/HiFive01-RevB/FS_workspace/sifive_hifive1_revb_sifive_welcome/freedom-metal/src/drivers/riscv_plic0.c:25
        (__metal_io_u32 *)(control_base + METAL_RISCV_PLIC0_CONTEXT_BASE +
                           (context_id * METAL_RISCV_PLIC0_CONTEXT_PER_HART) +
                           METAL_RISCV_PLIC0_CONTEXT_CLAIM));
}
2001488a:	853e                	mv	a0,a5
2001488c:	50b2                	lw	ra,44(sp)
2001488e:	5422                	lw	s0,40(sp)
20014890:	6145                	addi	sp,sp,48
20014892:	8082                	ret

20014894 <__metal_plic0_complete_interrupt>:
__metal_plic0_complete_interrupt():
E:/GitHub/HiFive01-RevB/FS_workspace/sifive_hifive1_revb_sifive_welcome/freedom-metal/src/drivers/riscv_plic0.c:28

void __metal_plic0_complete_interrupt(struct __metal_driver_riscv_plic0 *plic,
                                      int context_id, unsigned int id) {
20014894:	7179                	addi	sp,sp,-48
20014896:	d606                	sw	ra,44(sp)
20014898:	d422                	sw	s0,40(sp)
2001489a:	1800                	addi	s0,sp,48
2001489c:	fca42e23          	sw	a0,-36(s0)
200148a0:	fcb42c23          	sw	a1,-40(s0)
200148a4:	fcc42a23          	sw	a2,-44(s0)
E:/GitHub/HiFive01-RevB/FS_workspace/sifive_hifive1_revb_sifive_welcome/freedom-metal/src/drivers/riscv_plic0.c:29
    unsigned long control_base = __metal_driver_sifive_plic0_control_base(
200148a8:	fdc42503          	lw	a0,-36(s0)
200148ac:	35e1                	jal	20014774 <__metal_driver_sifive_plic0_control_base>
200148ae:	fea42623          	sw	a0,-20(s0)
E:/GitHub/HiFive01-RevB/FS_workspace/sifive_hifive1_revb_sifive_welcome/freedom-metal/src/drivers/riscv_plic0.c:31
        (struct metal_interrupt *)plic);
    __METAL_ACCESS_ONCE(
200148b2:	fd842783          	lw	a5,-40(s0)
200148b6:	00c79713          	slli	a4,a5,0xc
200148ba:	fec42783          	lw	a5,-20(s0)
200148be:	973e                	add	a4,a4,a5
200148c0:	002007b7          	lui	a5,0x200
200148c4:	0791                	addi	a5,a5,4
200148c6:	97ba                	add	a5,a5,a4
200148c8:	873e                	mv	a4,a5
E:/GitHub/HiFive01-RevB/FS_workspace/sifive_hifive1_revb_sifive_welcome/freedom-metal/src/drivers/riscv_plic0.c:34
        (__metal_io_u32 *)(control_base + METAL_RISCV_PLIC0_CONTEXT_BASE +
                           (context_id * METAL_RISCV_PLIC0_CONTEXT_PER_HART) +
                           METAL_RISCV_PLIC0_CONTEXT_CLAIM)) = id;
200148ca:	fd442783          	lw	a5,-44(s0)
200148ce:	c31c                	sw	a5,0(a4)
E:/GitHub/HiFive01-RevB/FS_workspace/sifive_hifive1_revb_sifive_welcome/freedom-metal/src/drivers/riscv_plic0.c:35
}
200148d0:	0001                	nop
200148d2:	50b2                	lw	ra,44(sp)
200148d4:	5422                	lw	s0,40(sp)
200148d6:	6145                	addi	sp,sp,48
200148d8:	8082                	ret

200148da <__metal_plic0_set_threshold>:
__metal_plic0_set_threshold():
E:/GitHub/HiFive01-RevB/FS_workspace/sifive_hifive1_revb_sifive_welcome/freedom-metal/src/drivers/riscv_plic0.c:38

int __metal_plic0_set_threshold(struct metal_interrupt *controller,
                                int context_id, unsigned int threshold) {
200148da:	7179                	addi	sp,sp,-48
200148dc:	d606                	sw	ra,44(sp)
200148de:	d422                	sw	s0,40(sp)
200148e0:	1800                	addi	s0,sp,48
200148e2:	fca42e23          	sw	a0,-36(s0)
200148e6:	fcb42c23          	sw	a1,-40(s0)
200148ea:	fcc42a23          	sw	a2,-44(s0)
E:/GitHub/HiFive01-RevB/FS_workspace/sifive_hifive1_revb_sifive_welcome/freedom-metal/src/drivers/riscv_plic0.c:40
    unsigned long control_base =
        __metal_driver_sifive_plic0_control_base(controller);
200148ee:	fdc42503          	lw	a0,-36(s0)
200148f2:	3549                	jal	20014774 <__metal_driver_sifive_plic0_control_base>
200148f4:	fea42623          	sw	a0,-20(s0)
E:/GitHub/HiFive01-RevB/FS_workspace/sifive_hifive1_revb_sifive_welcome/freedom-metal/src/drivers/riscv_plic0.c:41
    __METAL_ACCESS_ONCE(
200148f8:	fd842783          	lw	a5,-40(s0)
200148fc:	00c79713          	slli	a4,a5,0xc
20014900:	fec42783          	lw	a5,-20(s0)
20014904:	973e                	add	a4,a4,a5
20014906:	002007b7          	lui	a5,0x200
2001490a:	97ba                	add	a5,a5,a4
2001490c:	873e                	mv	a4,a5
E:/GitHub/HiFive01-RevB/FS_workspace/sifive_hifive1_revb_sifive_welcome/freedom-metal/src/drivers/riscv_plic0.c:44
        (__metal_io_u32 *)(control_base + METAL_RISCV_PLIC0_CONTEXT_BASE +
                           (context_id * METAL_RISCV_PLIC0_CONTEXT_PER_HART) +
                           METAL_RISCV_PLIC0_CONTEXT_THRESHOLD)) = threshold;
2001490e:	fd442783          	lw	a5,-44(s0)
20014912:	c31c                	sw	a5,0(a4)
E:/GitHub/HiFive01-RevB/FS_workspace/sifive_hifive1_revb_sifive_welcome/freedom-metal/src/drivers/riscv_plic0.c:45
    return 0;
20014914:	4781                	li	a5,0
E:/GitHub/HiFive01-RevB/FS_workspace/sifive_hifive1_revb_sifive_welcome/freedom-metal/src/drivers/riscv_plic0.c:46
}
20014916:	853e                	mv	a0,a5
20014918:	50b2                	lw	ra,44(sp)
2001491a:	5422                	lw	s0,40(sp)
2001491c:	6145                	addi	sp,sp,48
2001491e:	8082                	ret

20014920 <__metal_plic0_get_threshold>:
__metal_plic0_get_threshold():
E:/GitHub/HiFive01-RevB/FS_workspace/sifive_hifive1_revb_sifive_welcome/freedom-metal/src/drivers/riscv_plic0.c:49

unsigned int __metal_plic0_get_threshold(struct metal_interrupt *controller,
                                         int context_id) {
20014920:	7179                	addi	sp,sp,-48
20014922:	d606                	sw	ra,44(sp)
20014924:	d422                	sw	s0,40(sp)
20014926:	1800                	addi	s0,sp,48
20014928:	fca42e23          	sw	a0,-36(s0)
2001492c:	fcb42c23          	sw	a1,-40(s0)
E:/GitHub/HiFive01-RevB/FS_workspace/sifive_hifive1_revb_sifive_welcome/freedom-metal/src/drivers/riscv_plic0.c:51
    unsigned long control_base =
        __metal_driver_sifive_plic0_control_base(controller);
20014930:	fdc42503          	lw	a0,-36(s0)
20014934:	3581                	jal	20014774 <__metal_driver_sifive_plic0_control_base>
20014936:	fea42623          	sw	a0,-20(s0)
E:/GitHub/HiFive01-RevB/FS_workspace/sifive_hifive1_revb_sifive_welcome/freedom-metal/src/drivers/riscv_plic0.c:52
    return __METAL_ACCESS_ONCE(
2001493a:	fd842783          	lw	a5,-40(s0)
2001493e:	00c79713          	slli	a4,a5,0xc
20014942:	fec42783          	lw	a5,-20(s0)
20014946:	973e                	add	a4,a4,a5
20014948:	002007b7          	lui	a5,0x200
2001494c:	97ba                	add	a5,a5,a4
2001494e:	439c                	lw	a5,0(a5)
E:/GitHub/HiFive01-RevB/FS_workspace/sifive_hifive1_revb_sifive_welcome/freedom-metal/src/drivers/riscv_plic0.c:56
        (__metal_io_u32 *)(control_base + METAL_RISCV_PLIC0_CONTEXT_BASE +
                           (context_id * METAL_RISCV_PLIC0_CONTEXT_PER_HART) +
                           METAL_RISCV_PLIC0_CONTEXT_THRESHOLD));
}
20014950:	853e                	mv	a0,a5
20014952:	50b2                	lw	ra,44(sp)
20014954:	5422                	lw	s0,40(sp)
20014956:	6145                	addi	sp,sp,48
20014958:	8082                	ret

2001495a <__metal_driver_riscv_plic0_set_priority>:
__metal_driver_riscv_plic0_set_priority():
E:/GitHub/HiFive01-RevB/FS_workspace/sifive_hifive1_revb_sifive_welcome/freedom-metal/src/drivers/riscv_plic0.c:59

int __metal_driver_riscv_plic0_set_priority(struct metal_interrupt *controller,
                                            int id, unsigned int priority) {
2001495a:	7179                	addi	sp,sp,-48
2001495c:	d606                	sw	ra,44(sp)
2001495e:	d422                	sw	s0,40(sp)
20014960:	1800                	addi	s0,sp,48
20014962:	fca42e23          	sw	a0,-36(s0)
20014966:	fcb42c23          	sw	a1,-40(s0)
2001496a:	fcc42a23          	sw	a2,-44(s0)
E:/GitHub/HiFive01-RevB/FS_workspace/sifive_hifive1_revb_sifive_welcome/freedom-metal/src/drivers/riscv_plic0.c:60
    unsigned long control_base = __metal_driver_sifive_plic0_control_base(
2001496e:	fdc42503          	lw	a0,-36(s0)
20014972:	3509                	jal	20014774 <__metal_driver_sifive_plic0_control_base>
20014974:	fea42623          	sw	a0,-20(s0)
E:/GitHub/HiFive01-RevB/FS_workspace/sifive_hifive1_revb_sifive_welcome/freedom-metal/src/drivers/riscv_plic0.c:62
        (struct metal_interrupt *)controller);
    unsigned int max_priority = __metal_driver_sifive_plic0_max_priority(
20014978:	fdc42503          	lw	a0,-36(s0)
2001497c:	35b1                	jal	200147c8 <__metal_driver_sifive_plic0_max_priority>
2001497e:	87aa                	mv	a5,a0
20014980:	fef42423          	sw	a5,-24(s0)
E:/GitHub/HiFive01-RevB/FS_workspace/sifive_hifive1_revb_sifive_welcome/freedom-metal/src/drivers/riscv_plic0.c:64
        (struct metal_interrupt *)controller);
    if ((max_priority) && (priority < max_priority)) {
20014984:	fe842783          	lw	a5,-24(s0)
20014988:	c785                	beqz	a5,200149b0 <__metal_driver_riscv_plic0_set_priority+0x56>
E:/GitHub/HiFive01-RevB/FS_workspace/sifive_hifive1_revb_sifive_welcome/freedom-metal/src/drivers/riscv_plic0.c:64 (discriminator 1)
2001498a:	fd442703          	lw	a4,-44(s0)
2001498e:	fe842783          	lw	a5,-24(s0)
20014992:	00f77f63          	bgeu	a4,a5,200149b0 <__metal_driver_riscv_plic0_set_priority+0x56>
E:/GitHub/HiFive01-RevB/FS_workspace/sifive_hifive1_revb_sifive_welcome/freedom-metal/src/drivers/riscv_plic0.c:65
        __METAL_ACCESS_ONCE(
20014996:	fd842783          	lw	a5,-40(s0)
2001499a:	078a                	slli	a5,a5,0x2
2001499c:	873e                	mv	a4,a5
2001499e:	fec42783          	lw	a5,-20(s0)
200149a2:	97ba                	add	a5,a5,a4
200149a4:	873e                	mv	a4,a5
E:/GitHub/HiFive01-RevB/FS_workspace/sifive_hifive1_revb_sifive_welcome/freedom-metal/src/drivers/riscv_plic0.c:67
            (__metal_io_u32 *)(control_base + METAL_RISCV_PLIC0_PRIORITY_BASE +
                               (id << METAL_PLIC_SOURCE_PRIORITY_SHIFT))) =
200149a6:	fd442783          	lw	a5,-44(s0)
200149aa:	c31c                	sw	a5,0(a4)
E:/GitHub/HiFive01-RevB/FS_workspace/sifive_hifive1_revb_sifive_welcome/freedom-metal/src/drivers/riscv_plic0.c:69
            priority;
        return 0;
200149ac:	4781                	li	a5,0
200149ae:	a011                	j	200149b2 <__metal_driver_riscv_plic0_set_priority+0x58>
E:/GitHub/HiFive01-RevB/FS_workspace/sifive_hifive1_revb_sifive_welcome/freedom-metal/src/drivers/riscv_plic0.c:71
    }
    return -1;
200149b0:	57fd                	li	a5,-1
E:/GitHub/HiFive01-RevB/FS_workspace/sifive_hifive1_revb_sifive_welcome/freedom-metal/src/drivers/riscv_plic0.c:72
}
200149b2:	853e                	mv	a0,a5
200149b4:	50b2                	lw	ra,44(sp)
200149b6:	5422                	lw	s0,40(sp)
200149b8:	6145                	addi	sp,sp,48
200149ba:	8082                	ret

200149bc <__metal_driver_riscv_plic0_get_priority>:
__metal_driver_riscv_plic0_get_priority():
E:/GitHub/HiFive01-RevB/FS_workspace/sifive_hifive1_revb_sifive_welcome/freedom-metal/src/drivers/riscv_plic0.c:76

unsigned int
__metal_driver_riscv_plic0_get_priority(struct metal_interrupt *controller,
                                        int id) {
200149bc:	7179                	addi	sp,sp,-48
200149be:	d606                	sw	ra,44(sp)
200149c0:	d422                	sw	s0,40(sp)
200149c2:	1800                	addi	s0,sp,48
200149c4:	fca42e23          	sw	a0,-36(s0)
200149c8:	fcb42c23          	sw	a1,-40(s0)
E:/GitHub/HiFive01-RevB/FS_workspace/sifive_hifive1_revb_sifive_welcome/freedom-metal/src/drivers/riscv_plic0.c:78
    unsigned long control_base =
        __metal_driver_sifive_plic0_control_base(controller);
200149cc:	fdc42503          	lw	a0,-36(s0)
200149d0:	3355                	jal	20014774 <__metal_driver_sifive_plic0_control_base>
200149d2:	fea42623          	sw	a0,-20(s0)
E:/GitHub/HiFive01-RevB/FS_workspace/sifive_hifive1_revb_sifive_welcome/freedom-metal/src/drivers/riscv_plic0.c:80

    return __METAL_ACCESS_ONCE(
200149d6:	fd842783          	lw	a5,-40(s0)
200149da:	078a                	slli	a5,a5,0x2
200149dc:	873e                	mv	a4,a5
200149de:	fec42783          	lw	a5,-20(s0)
200149e2:	97ba                	add	a5,a5,a4
200149e4:	439c                	lw	a5,0(a5)
E:/GitHub/HiFive01-RevB/FS_workspace/sifive_hifive1_revb_sifive_welcome/freedom-metal/src/drivers/riscv_plic0.c:83
        (__metal_io_u32 *)(control_base + METAL_RISCV_PLIC0_PRIORITY_BASE +
                           (id << METAL_PLIC_SOURCE_PRIORITY_SHIFT)));
}
200149e6:	853e                	mv	a0,a5
200149e8:	50b2                	lw	ra,44(sp)
200149ea:	5422                	lw	s0,40(sp)
200149ec:	6145                	addi	sp,sp,48
200149ee:	8082                	ret

200149f0 <__metal_plic0_enable>:
__metal_plic0_enable():
E:/GitHub/HiFive01-RevB/FS_workspace/sifive_hifive1_revb_sifive_welcome/freedom-metal/src/drivers/riscv_plic0.c:86

int __metal_plic0_enable(struct __metal_driver_riscv_plic0 *plic,
                         int context_id, int id, int enable) {
200149f0:	7179                	addi	sp,sp,-48
200149f2:	d606                	sw	ra,44(sp)
200149f4:	d422                	sw	s0,40(sp)
200149f6:	1800                	addi	s0,sp,48
200149f8:	fca42e23          	sw	a0,-36(s0)
200149fc:	fcb42c23          	sw	a1,-40(s0)
20014a00:	fcc42a23          	sw	a2,-44(s0)
20014a04:	fcd42823          	sw	a3,-48(s0)
E:/GitHub/HiFive01-RevB/FS_workspace/sifive_hifive1_revb_sifive_welcome/freedom-metal/src/drivers/riscv_plic0.c:88
    unsigned int current;
    unsigned long control_base = __metal_driver_sifive_plic0_control_base(
20014a08:	fdc42503          	lw	a0,-36(s0)
20014a0c:	d69ff0ef          	jal	ra,20014774 <__metal_driver_sifive_plic0_control_base>
20014a10:	fea42623          	sw	a0,-20(s0)
E:/GitHub/HiFive01-RevB/FS_workspace/sifive_hifive1_revb_sifive_welcome/freedom-metal/src/drivers/riscv_plic0.c:91
        (struct metal_interrupt *)plic);

    current = __METAL_ACCESS_ONCE(
20014a14:	fd842783          	lw	a5,-40(s0)
20014a18:	00779713          	slli	a4,a5,0x7
20014a1c:	fec42783          	lw	a5,-20(s0)
20014a20:	97ba                	add	a5,a5,a4
20014a22:	fd442703          	lw	a4,-44(s0)
20014a26:	8715                	srai	a4,a4,0x5
20014a28:	070a                	slli	a4,a4,0x2
20014a2a:	973e                	add	a4,a4,a5
20014a2c:	6789                	lui	a5,0x2
20014a2e:	97ba                	add	a5,a5,a4
20014a30:	439c                	lw	a5,0(a5)
20014a32:	fef42423          	sw	a5,-24(s0)
E:/GitHub/HiFive01-RevB/FS_workspace/sifive_hifive1_revb_sifive_welcome/freedom-metal/src/drivers/riscv_plic0.c:100
    __METAL_ACCESS_ONCE(
        (__metal_io_u32 *)(control_base + METAL_RISCV_PLIC0_ENABLE_BASE +
                           (context_id * METAL_RISCV_PLIC0_ENABLE_PER_HART) +
                           ((id >> METAL_PLIC_SOURCE_SHIFT) * 4))) =
        enable ? (current | (1 << (id & METAL_PLIC_SOURCE_MASK)))
               : (current & ~(1 << (id & METAL_PLIC_SOURCE_MASK)));
20014a36:	fd042783          	lw	a5,-48(s0)
20014a3a:	cf81                	beqz	a5,20014a52 <__metal_plic0_enable+0x62>
E:/GitHub/HiFive01-RevB/FS_workspace/sifive_hifive1_revb_sifive_welcome/freedom-metal/src/drivers/riscv_plic0.c:99 (discriminator 1)
        enable ? (current | (1 << (id & METAL_PLIC_SOURCE_MASK)))
20014a3c:	fd442783          	lw	a5,-44(s0)
20014a40:	8bfd                	andi	a5,a5,31
20014a42:	4705                	li	a4,1
20014a44:	00f717b3          	sll	a5,a4,a5
20014a48:	873e                	mv	a4,a5
E:/GitHub/HiFive01-RevB/FS_workspace/sifive_hifive1_revb_sifive_welcome/freedom-metal/src/drivers/riscv_plic0.c:100 (discriminator 1)
               : (current & ~(1 << (id & METAL_PLIC_SOURCE_MASK)));
20014a4a:	fe842783          	lw	a5,-24(s0)
20014a4e:	8fd9                	or	a5,a5,a4
20014a50:	a829                	j	20014a6a <__metal_plic0_enable+0x7a>
E:/GitHub/HiFive01-RevB/FS_workspace/sifive_hifive1_revb_sifive_welcome/freedom-metal/src/drivers/riscv_plic0.c:100 (discriminator 2)
20014a52:	fd442783          	lw	a5,-44(s0)
20014a56:	8bfd                	andi	a5,a5,31
20014a58:	4705                	li	a4,1
20014a5a:	00f717b3          	sll	a5,a4,a5
20014a5e:	fff7c793          	not	a5,a5
20014a62:	873e                	mv	a4,a5
20014a64:	fe842783          	lw	a5,-24(s0)
20014a68:	8ff9                	and	a5,a5,a4
E:/GitHub/HiFive01-RevB/FS_workspace/sifive_hifive1_revb_sifive_welcome/freedom-metal/src/drivers/riscv_plic0.c:95
    __METAL_ACCESS_ONCE(
20014a6a:	fd842703          	lw	a4,-40(s0)
20014a6e:	00771693          	slli	a3,a4,0x7
20014a72:	fec42703          	lw	a4,-20(s0)
20014a76:	9736                	add	a4,a4,a3
20014a78:	fd442683          	lw	a3,-44(s0)
20014a7c:	8695                	srai	a3,a3,0x5
20014a7e:	068a                	slli	a3,a3,0x2
20014a80:	96ba                	add	a3,a3,a4
20014a82:	6709                	lui	a4,0x2
20014a84:	9736                	add	a4,a4,a3
E:/GitHub/HiFive01-RevB/FS_workspace/sifive_hifive1_revb_sifive_welcome/freedom-metal/src/drivers/riscv_plic0.c:98
                           ((id >> METAL_PLIC_SOURCE_SHIFT) * 4))) =
20014a86:	c31c                	sw	a5,0(a4)
E:/GitHub/HiFive01-RevB/FS_workspace/sifive_hifive1_revb_sifive_welcome/freedom-metal/src/drivers/riscv_plic0.c:102

    return 0;
20014a88:	4781                	li	a5,0
E:/GitHub/HiFive01-RevB/FS_workspace/sifive_hifive1_revb_sifive_welcome/freedom-metal/src/drivers/riscv_plic0.c:103
}
20014a8a:	853e                	mv	a0,a5
20014a8c:	50b2                	lw	ra,44(sp)
20014a8e:	5422                	lw	s0,40(sp)
20014a90:	6145                	addi	sp,sp,48
20014a92:	8082                	ret

20014a94 <__metal_plic0_default_handler>:
__metal_plic0_default_handler():
E:/GitHub/HiFive01-RevB/FS_workspace/sifive_hifive1_revb_sifive_welcome/freedom-metal/src/drivers/riscv_plic0.c:105

void __metal_plic0_default_handler(int id, void *priv) { metal_shutdown(300); }
20014a94:	1101                	addi	sp,sp,-32
20014a96:	ce06                	sw	ra,28(sp)
20014a98:	cc22                	sw	s0,24(sp)
20014a9a:	1000                	addi	s0,sp,32
20014a9c:	fea42623          	sw	a0,-20(s0)
20014aa0:	feb42423          	sw	a1,-24(s0)
20014aa4:	12c00513          	li	a0,300
20014aa8:	550020ef          	jal	ra,20016ff8 <metal_shutdown>

20014aac <__metal_plic0_handler>:
__metal_plic0_handler():
E:/GitHub/HiFive01-RevB/FS_workspace/sifive_hifive1_revb_sifive_welcome/freedom-metal/src/drivers/riscv_plic0.c:107

void __metal_plic0_handler(int id, void *priv) {
20014aac:	7179                	addi	sp,sp,-48
20014aae:	d606                	sw	ra,44(sp)
20014ab0:	d422                	sw	s0,40(sp)
20014ab2:	1800                	addi	s0,sp,48
20014ab4:	fca42e23          	sw	a0,-36(s0)
20014ab8:	fcb42c23          	sw	a1,-40(s0)
E:/GitHub/HiFive01-RevB/FS_workspace/sifive_hifive1_revb_sifive_welcome/freedom-metal/src/drivers/riscv_plic0.c:108
    struct __metal_driver_riscv_plic0 *plic = priv;
20014abc:	fd842783          	lw	a5,-40(s0)
20014ac0:	fef42623          	sw	a5,-20(s0)
E:/GitHub/HiFive01-RevB/FS_workspace/sifive_hifive1_revb_sifive_welcome/freedom-metal/src/drivers/riscv_plic0.c:110
    int contextid =
        __metal_driver_sifive_plic0_context_ids(__metal_myhart_id());
20014ac4:	b4efe0ef          	jal	ra,20012e12 <__metal_myhart_id>
20014ac8:	87aa                	mv	a5,a0
20014aca:	853e                	mv	a0,a5
20014acc:	d6fff0ef          	jal	ra,2001483a <__metal_driver_sifive_plic0_context_ids>
20014ad0:	fea42423          	sw	a0,-24(s0)
E:/GitHub/HiFive01-RevB/FS_workspace/sifive_hifive1_revb_sifive_welcome/freedom-metal/src/drivers/riscv_plic0.c:111
    unsigned int idx = __metal_plic0_claim_interrupt(plic, contextid);
20014ad4:	fe842583          	lw	a1,-24(s0)
20014ad8:	fec42503          	lw	a0,-20(s0)
20014adc:	d7dff0ef          	jal	ra,20014858 <__metal_plic0_claim_interrupt>
20014ae0:	fea42223          	sw	a0,-28(s0)
E:/GitHub/HiFive01-RevB/FS_workspace/sifive_hifive1_revb_sifive_welcome/freedom-metal/src/drivers/riscv_plic0.c:112
    unsigned int num_interrupts = __metal_driver_sifive_plic0_num_interrupts(
20014ae4:	fec42503          	lw	a0,-20(s0)
20014ae8:	cb7ff0ef          	jal	ra,2001479e <__metal_driver_sifive_plic0_num_interrupts>
20014aec:	87aa                	mv	a5,a0
20014aee:	fef42023          	sw	a5,-32(s0)
E:/GitHub/HiFive01-RevB/FS_workspace/sifive_hifive1_revb_sifive_welcome/freedom-metal/src/drivers/riscv_plic0.c:115
        (struct metal_interrupt *)plic);

    if ((idx < num_interrupts) && (plic->metal_exint_table[idx])) {
20014af2:	fe442703          	lw	a4,-28(s0)
20014af6:	fe042783          	lw	a5,-32(s0)
20014afa:	04f77263          	bgeu	a4,a5,20014b3e <__metal_plic0_handler+0x92>
E:/GitHub/HiFive01-RevB/FS_workspace/sifive_hifive1_revb_sifive_welcome/freedom-metal/src/drivers/riscv_plic0.c:115 (discriminator 1)
20014afe:	fec42703          	lw	a4,-20(s0)
20014b02:	fe442783          	lw	a5,-28(s0)
20014b06:	078a                	slli	a5,a5,0x2
20014b08:	97ba                	add	a5,a5,a4
20014b0a:	479c                	lw	a5,8(a5)
20014b0c:	cb8d                	beqz	a5,20014b3e <__metal_plic0_handler+0x92>
E:/GitHub/HiFive01-RevB/FS_workspace/sifive_hifive1_revb_sifive_welcome/freedom-metal/src/drivers/riscv_plic0.c:116
        plic->metal_exint_table[idx](idx,
20014b0e:	fec42703          	lw	a4,-20(s0)
20014b12:	fe442783          	lw	a5,-28(s0)
20014b16:	078a                	slli	a5,a5,0x2
20014b18:	97ba                	add	a5,a5,a4
20014b1a:	0087a803          	lw	a6,8(a5) # 2008 <__heap_size+0x1808>
20014b1e:	fe442603          	lw	a2,-28(s0)
20014b22:	fec42683          	lw	a3,-20(s0)
20014b26:	fe442703          	lw	a4,-28(s0)
20014b2a:	87ba                	mv	a5,a4
20014b2c:	0786                	slli	a5,a5,0x1
20014b2e:	97ba                	add	a5,a5,a4
20014b30:	078e                	slli	a5,a5,0x3
20014b32:	97b6                	add	a5,a5,a3
20014b34:	0f07a783          	lw	a5,240(a5)
20014b38:	85be                	mv	a1,a5
20014b3a:	8532                	mv	a0,a2
20014b3c:	9802                	jalr	a6
E:/GitHub/HiFive01-RevB/FS_workspace/sifive_hifive1_revb_sifive_welcome/freedom-metal/src/drivers/riscv_plic0.c:120
                                     plic->metal_exdata_table[idx].exint_data);
    }

    __metal_plic0_complete_interrupt(plic, contextid, idx);
20014b3e:	fe442603          	lw	a2,-28(s0)
20014b42:	fe842583          	lw	a1,-24(s0)
20014b46:	fec42503          	lw	a0,-20(s0)
20014b4a:	d4bff0ef          	jal	ra,20014894 <__metal_plic0_complete_interrupt>
E:/GitHub/HiFive01-RevB/FS_workspace/sifive_hifive1_revb_sifive_welcome/freedom-metal/src/drivers/riscv_plic0.c:121
}
20014b4e:	0001                	nop
20014b50:	50b2                	lw	ra,44(sp)
20014b52:	5422                	lw	s0,40(sp)
20014b54:	6145                	addi	sp,sp,48
20014b56:	8082                	ret

20014b58 <__metal_driver_riscv_plic0_init>:
__metal_driver_riscv_plic0_init():
E:/GitHub/HiFive01-RevB/FS_workspace/sifive_hifive1_revb_sifive_welcome/freedom-metal/src/drivers/riscv_plic0.c:123

void __metal_driver_riscv_plic0_init(struct metal_interrupt *controller) {
20014b58:	7139                	addi	sp,sp,-64
20014b5a:	de06                	sw	ra,60(sp)
20014b5c:	dc22                	sw	s0,56(sp)
20014b5e:	0080                	addi	s0,sp,64
20014b60:	fca42623          	sw	a0,-52(s0)
E:/GitHub/HiFive01-RevB/FS_workspace/sifive_hifive1_revb_sifive_welcome/freedom-metal/src/drivers/riscv_plic0.c:124
    struct __metal_driver_riscv_plic0 *plic = (void *)(controller);
20014b64:	fcc42783          	lw	a5,-52(s0)
20014b68:	fef42223          	sw	a5,-28(s0)
E:/GitHub/HiFive01-RevB/FS_workspace/sifive_hifive1_revb_sifive_welcome/freedom-metal/src/drivers/riscv_plic0.c:126

    if (!plic->init_done) {
20014b6c:	fe442783          	lw	a5,-28(s0)
20014b70:	43dc                	lw	a5,4(a5)
20014b72:	12079b63          	bnez	a5,20014ca8 <__metal_driver_riscv_plic0_init+0x150>
E:/GitHub/HiFive01-RevB/FS_workspace/sifive_hifive1_revb_sifive_welcome/freedom-metal/src/drivers/riscv_plic0.c:130
        int num_interrupts, line;
        struct metal_interrupt *intc;

        for (int parent = 0; parent < __METAL_PLIC_NUM_PARENTS; parent++) {
20014b76:	fe042623          	sw	zero,-20(s0)
20014b7a:	aa39                	j	20014c98 <__metal_driver_riscv_plic0_init+0x140>
E:/GitHub/HiFive01-RevB/FS_workspace/sifive_hifive1_revb_sifive_welcome/freedom-metal/src/drivers/riscv_plic0.c:132
            num_interrupts =
                __metal_driver_sifive_plic0_num_interrupts(controller);
20014b7c:	fcc42503          	lw	a0,-52(s0)
20014b80:	c1fff0ef          	jal	ra,2001479e <__metal_driver_sifive_plic0_num_interrupts>
20014b84:	fea42023          	sw	a0,-32(s0)
E:/GitHub/HiFive01-RevB/FS_workspace/sifive_hifive1_revb_sifive_welcome/freedom-metal/src/drivers/riscv_plic0.c:133
            intc = __metal_driver_sifive_plic0_interrupt_parents(controller,
20014b88:	fec42583          	lw	a1,-20(s0)
20014b8c:	fcc42503          	lw	a0,-52(s0)
20014b90:	c61ff0ef          	jal	ra,200147f0 <__metal_driver_sifive_plic0_interrupt_parents>
20014b94:	fca42e23          	sw	a0,-36(s0)
E:/GitHub/HiFive01-RevB/FS_workspace/sifive_hifive1_revb_sifive_welcome/freedom-metal/src/drivers/riscv_plic0.c:136
                                                                 parent);
            line =
                __metal_driver_sifive_plic0_interrupt_lines(controller, parent);
20014b98:	fec42583          	lw	a1,-20(s0)
20014b9c:	fcc42503          	lw	a0,-52(s0)
20014ba0:	c79ff0ef          	jal	ra,20014818 <__metal_driver_sifive_plic0_interrupt_lines>
20014ba4:	fca42c23          	sw	a0,-40(s0)
E:/GitHub/HiFive01-RevB/FS_workspace/sifive_hifive1_revb_sifive_welcome/freedom-metal/src/drivers/riscv_plic0.c:139

            /* Initialize ist parent controller, aka cpu_intc. */
            intc->vtable->interrupt_init(intc);
20014ba8:	fdc42783          	lw	a5,-36(s0)
20014bac:	439c                	lw	a5,0(a5)
20014bae:	439c                	lw	a5,0(a5)
20014bb0:	fdc42503          	lw	a0,-36(s0)
20014bb4:	9782                	jalr	a5
E:/GitHub/HiFive01-RevB/FS_workspace/sifive_hifive1_revb_sifive_welcome/freedom-metal/src/drivers/riscv_plic0.c:141

            for (int i = 0; i < PLIC0_MAX_INTERRUPTS; i++) {
20014bb6:	fe042423          	sw	zero,-24(s0)
20014bba:	a88d                	j	20014c2c <__metal_driver_riscv_plic0_init+0xd4>
E:/GitHub/HiFive01-RevB/FS_workspace/sifive_hifive1_revb_sifive_welcome/freedom-metal/src/drivers/riscv_plic0.c:142
                __metal_plic0_enable(plic, parent, i, METAL_DISABLE);
20014bbc:	4681                	li	a3,0
20014bbe:	fe842603          	lw	a2,-24(s0)
20014bc2:	fec42583          	lw	a1,-20(s0)
20014bc6:	fe442503          	lw	a0,-28(s0)
20014bca:	351d                	jal	200149f0 <__metal_plic0_enable>
E:/GitHub/HiFive01-RevB/FS_workspace/sifive_hifive1_revb_sifive_welcome/freedom-metal/src/drivers/riscv_plic0.c:143
                if (i < num_interrupts) {
20014bcc:	fe842703          	lw	a4,-24(s0)
20014bd0:	fe042783          	lw	a5,-32(s0)
20014bd4:	04f75763          	bge	a4,a5,20014c22 <__metal_driver_riscv_plic0_init+0xca>
E:/GitHub/HiFive01-RevB/FS_workspace/sifive_hifive1_revb_sifive_welcome/freedom-metal/src/drivers/riscv_plic0.c:144
                    __metal_driver_riscv_plic0_set_priority(controller, i, 0);
20014bd8:	4601                	li	a2,0
20014bda:	fe842583          	lw	a1,-24(s0)
20014bde:	fcc42503          	lw	a0,-52(s0)
20014be2:	d79ff0ef          	jal	ra,2001495a <__metal_driver_riscv_plic0_set_priority>
E:/GitHub/HiFive01-RevB/FS_workspace/sifive_hifive1_revb_sifive_welcome/freedom-metal/src/drivers/riscv_plic0.c:145
                    plic->metal_exint_table[i] = NULL;
20014be6:	fe442703          	lw	a4,-28(s0)
20014bea:	fe842783          	lw	a5,-24(s0)
20014bee:	078a                	slli	a5,a5,0x2
20014bf0:	97ba                	add	a5,a5,a4
20014bf2:	0007a423          	sw	zero,8(a5)
E:/GitHub/HiFive01-RevB/FS_workspace/sifive_hifive1_revb_sifive_welcome/freedom-metal/src/drivers/riscv_plic0.c:146
                    plic->metal_exdata_table[i].sub_int = NULL;
20014bf6:	fe442683          	lw	a3,-28(s0)
20014bfa:	fe842703          	lw	a4,-24(s0)
20014bfe:	87ba                	mv	a5,a4
20014c00:	0786                	slli	a5,a5,0x1
20014c02:	97ba                	add	a5,a5,a4
20014c04:	078e                	slli	a5,a5,0x3
20014c06:	97b6                	add	a5,a5,a3
20014c08:	0e07a623          	sw	zero,236(a5)
E:/GitHub/HiFive01-RevB/FS_workspace/sifive_hifive1_revb_sifive_welcome/freedom-metal/src/drivers/riscv_plic0.c:147
                    plic->metal_exdata_table[i].exint_data = NULL;
20014c0c:	fe442683          	lw	a3,-28(s0)
20014c10:	fe842703          	lw	a4,-24(s0)
20014c14:	87ba                	mv	a5,a4
20014c16:	0786                	slli	a5,a5,0x1
20014c18:	97ba                	add	a5,a5,a4
20014c1a:	078e                	slli	a5,a5,0x3
20014c1c:	97b6                	add	a5,a5,a3
20014c1e:	0e07a823          	sw	zero,240(a5)
E:/GitHub/HiFive01-RevB/FS_workspace/sifive_hifive1_revb_sifive_welcome/freedom-metal/src/drivers/riscv_plic0.c:141 (discriminator 2)
            for (int i = 0; i < PLIC0_MAX_INTERRUPTS; i++) {
20014c22:	fe842783          	lw	a5,-24(s0)
20014c26:	0785                	addi	a5,a5,1
20014c28:	fef42423          	sw	a5,-24(s0)
E:/GitHub/HiFive01-RevB/FS_workspace/sifive_hifive1_revb_sifive_welcome/freedom-metal/src/drivers/riscv_plic0.c:141 (discriminator 1)
20014c2c:	fe842703          	lw	a4,-24(s0)
20014c30:	3ff00793          	li	a5,1023
20014c34:	f8e7d4e3          	bge	a5,a4,20014bbc <__metal_driver_riscv_plic0_init+0x64>
E:/GitHub/HiFive01-RevB/FS_workspace/sifive_hifive1_revb_sifive_welcome/freedom-metal/src/drivers/riscv_plic0.c:151 (discriminator 2)
                }
            }

            __metal_plic0_set_threshold(controller, parent, 0);
20014c38:	4601                	li	a2,0
20014c3a:	fec42583          	lw	a1,-20(s0)
20014c3e:	fcc42503          	lw	a0,-52(s0)
20014c42:	c99ff0ef          	jal	ra,200148da <__metal_plic0_set_threshold>
E:/GitHub/HiFive01-RevB/FS_workspace/sifive_hifive1_revb_sifive_welcome/freedom-metal/src/drivers/riscv_plic0.c:154 (discriminator 2)

            /* Register plic (ext) interrupt with with parent controller */
            intc->vtable->interrupt_register(intc, line, NULL, plic);
20014c46:	fdc42783          	lw	a5,-36(s0)
20014c4a:	439c                	lw	a5,0(a5)
20014c4c:	4fdc                	lw	a5,28(a5)
20014c4e:	fe442683          	lw	a3,-28(s0)
20014c52:	4601                	li	a2,0
20014c54:	fd842583          	lw	a1,-40(s0)
20014c58:	fdc42503          	lw	a0,-36(s0)
20014c5c:	9782                	jalr	a5
E:/GitHub/HiFive01-RevB/FS_workspace/sifive_hifive1_revb_sifive_welcome/freedom-metal/src/drivers/riscv_plic0.c:156 (discriminator 2)
            /* Register plic handler for dispatching its device interrupts */
            intc->vtable->interrupt_register(intc, line, __metal_plic0_handler,
20014c5e:	fdc42783          	lw	a5,-36(s0)
20014c62:	439c                	lw	a5,0(a5)
20014c64:	4fd8                	lw	a4,28(a5)
20014c66:	fe442683          	lw	a3,-28(s0)
20014c6a:	200157b7          	lui	a5,0x20015
20014c6e:	aac78613          	addi	a2,a5,-1364 # 20014aac <__metal_plic0_handler>
20014c72:	fd842583          	lw	a1,-40(s0)
20014c76:	fdc42503          	lw	a0,-36(s0)
20014c7a:	9702                	jalr	a4
E:/GitHub/HiFive01-RevB/FS_workspace/sifive_hifive1_revb_sifive_welcome/freedom-metal/src/drivers/riscv_plic0.c:159 (discriminator 2)
                                             plic);
            /* Enable plic (ext) interrupt with with parent controller */
            intc->vtable->interrupt_enable(intc, line);
20014c7c:	fdc42783          	lw	a5,-36(s0)
20014c80:	439c                	lw	a5,0(a5)
20014c82:	53dc                	lw	a5,36(a5)
20014c84:	fd842583          	lw	a1,-40(s0)
20014c88:	fdc42503          	lw	a0,-36(s0)
20014c8c:	9782                	jalr	a5
E:/GitHub/HiFive01-RevB/FS_workspace/sifive_hifive1_revb_sifive_welcome/freedom-metal/src/drivers/riscv_plic0.c:130 (discriminator 2)
        for (int parent = 0; parent < __METAL_PLIC_NUM_PARENTS; parent++) {
20014c8e:	fec42783          	lw	a5,-20(s0)
20014c92:	0785                	addi	a5,a5,1
20014c94:	fef42623          	sw	a5,-20(s0)
E:/GitHub/HiFive01-RevB/FS_workspace/sifive_hifive1_revb_sifive_welcome/freedom-metal/src/drivers/riscv_plic0.c:130 (discriminator 1)
20014c98:	fec42783          	lw	a5,-20(s0)
20014c9c:	eef050e3          	blez	a5,20014b7c <__metal_driver_riscv_plic0_init+0x24>
E:/GitHub/HiFive01-RevB/FS_workspace/sifive_hifive1_revb_sifive_welcome/freedom-metal/src/drivers/riscv_plic0.c:161
        }
        plic->init_done = 1;
20014ca0:	fe442783          	lw	a5,-28(s0)
20014ca4:	4705                	li	a4,1
20014ca6:	c3d8                	sw	a4,4(a5)
E:/GitHub/HiFive01-RevB/FS_workspace/sifive_hifive1_revb_sifive_welcome/freedom-metal/src/drivers/riscv_plic0.c:163
    }
}
20014ca8:	0001                	nop
20014caa:	50f2                	lw	ra,60(sp)
20014cac:	5462                	lw	s0,56(sp)
20014cae:	6121                	addi	sp,sp,64
20014cb0:	8082                	ret

20014cb2 <__metal_driver_riscv_plic0_register>:
__metal_driver_riscv_plic0_register():
E:/GitHub/HiFive01-RevB/FS_workspace/sifive_hifive1_revb_sifive_welcome/freedom-metal/src/drivers/riscv_plic0.c:167

int __metal_driver_riscv_plic0_register(struct metal_interrupt *controller,
                                        int id, metal_interrupt_handler_t isr,
                                        void *priv) {
20014cb2:	7179                	addi	sp,sp,-48
20014cb4:	d606                	sw	ra,44(sp)
20014cb6:	d422                	sw	s0,40(sp)
20014cb8:	1800                	addi	s0,sp,48
20014cba:	fca42e23          	sw	a0,-36(s0)
20014cbe:	fcb42c23          	sw	a1,-40(s0)
20014cc2:	fcc42a23          	sw	a2,-44(s0)
20014cc6:	fcd42823          	sw	a3,-48(s0)
E:/GitHub/HiFive01-RevB/FS_workspace/sifive_hifive1_revb_sifive_welcome/freedom-metal/src/drivers/riscv_plic0.c:168
    struct __metal_driver_riscv_plic0 *plic = (void *)(controller);
20014cca:	fdc42783          	lw	a5,-36(s0)
20014cce:	fef42623          	sw	a5,-20(s0)
E:/GitHub/HiFive01-RevB/FS_workspace/sifive_hifive1_revb_sifive_welcome/freedom-metal/src/drivers/riscv_plic0.c:170

    if (id >= __metal_driver_sifive_plic0_num_interrupts(controller)) {
20014cd2:	fdc42503          	lw	a0,-36(s0)
20014cd6:	ac9ff0ef          	jal	ra,2001479e <__metal_driver_sifive_plic0_num_interrupts>
20014cda:	872a                	mv	a4,a0
20014cdc:	fd842783          	lw	a5,-40(s0)
20014ce0:	00e7c463          	blt	a5,a4,20014ce8 <__metal_driver_riscv_plic0_register+0x36>
E:/GitHub/HiFive01-RevB/FS_workspace/sifive_hifive1_revb_sifive_welcome/freedom-metal/src/drivers/riscv_plic0.c:171
        return -1;
20014ce4:	57fd                	li	a5,-1
20014ce6:	a051                	j	20014d6a <__metal_driver_riscv_plic0_register+0xb8>
E:/GitHub/HiFive01-RevB/FS_workspace/sifive_hifive1_revb_sifive_welcome/freedom-metal/src/drivers/riscv_plic0.c:174
    }

    if (isr) {
20014ce8:	fd442783          	lw	a5,-44(s0)
20014cec:	cf9d                	beqz	a5,20014d2a <__metal_driver_riscv_plic0_register+0x78>
E:/GitHub/HiFive01-RevB/FS_workspace/sifive_hifive1_revb_sifive_welcome/freedom-metal/src/drivers/riscv_plic0.c:175
        __metal_driver_riscv_plic0_set_priority(controller, id, 2);
20014cee:	4609                	li	a2,2
20014cf0:	fd842583          	lw	a1,-40(s0)
20014cf4:	fdc42503          	lw	a0,-36(s0)
20014cf8:	c63ff0ef          	jal	ra,2001495a <__metal_driver_riscv_plic0_set_priority>
E:/GitHub/HiFive01-RevB/FS_workspace/sifive_hifive1_revb_sifive_welcome/freedom-metal/src/drivers/riscv_plic0.c:176
        plic->metal_exint_table[id] = isr;
20014cfc:	fec42703          	lw	a4,-20(s0)
20014d00:	fd842783          	lw	a5,-40(s0)
20014d04:	078a                	slli	a5,a5,0x2
20014d06:	97ba                	add	a5,a5,a4
20014d08:	fd442703          	lw	a4,-44(s0)
20014d0c:	c798                	sw	a4,8(a5)
E:/GitHub/HiFive01-RevB/FS_workspace/sifive_hifive1_revb_sifive_welcome/freedom-metal/src/drivers/riscv_plic0.c:177
        plic->metal_exdata_table[id].exint_data = priv;
20014d0e:	fec42683          	lw	a3,-20(s0)
20014d12:	fd842703          	lw	a4,-40(s0)
20014d16:	87ba                	mv	a5,a4
20014d18:	0786                	slli	a5,a5,0x1
20014d1a:	97ba                	add	a5,a5,a4
20014d1c:	078e                	slli	a5,a5,0x3
20014d1e:	97b6                	add	a5,a5,a3
20014d20:	fd042703          	lw	a4,-48(s0)
20014d24:	0ee7a823          	sw	a4,240(a5)
20014d28:	a081                	j	20014d68 <__metal_driver_riscv_plic0_register+0xb6>
E:/GitHub/HiFive01-RevB/FS_workspace/sifive_hifive1_revb_sifive_welcome/freedom-metal/src/drivers/riscv_plic0.c:179
    } else {
        __metal_driver_riscv_plic0_set_priority(controller, id, 1);
20014d2a:	4605                	li	a2,1
20014d2c:	fd842583          	lw	a1,-40(s0)
20014d30:	fdc42503          	lw	a0,-36(s0)
20014d34:	c27ff0ef          	jal	ra,2001495a <__metal_driver_riscv_plic0_set_priority>
E:/GitHub/HiFive01-RevB/FS_workspace/sifive_hifive1_revb_sifive_welcome/freedom-metal/src/drivers/riscv_plic0.c:180
        plic->metal_exint_table[id] = __metal_plic0_default_handler;
20014d38:	fec42703          	lw	a4,-20(s0)
20014d3c:	fd842783          	lw	a5,-40(s0)
20014d40:	078a                	slli	a5,a5,0x2
20014d42:	97ba                	add	a5,a5,a4
20014d44:	20015737          	lui	a4,0x20015
20014d48:	a9470713          	addi	a4,a4,-1388 # 20014a94 <__metal_plic0_default_handler>
20014d4c:	c798                	sw	a4,8(a5)
E:/GitHub/HiFive01-RevB/FS_workspace/sifive_hifive1_revb_sifive_welcome/freedom-metal/src/drivers/riscv_plic0.c:181
        plic->metal_exdata_table[id].sub_int = priv;
20014d4e:	fec42683          	lw	a3,-20(s0)
20014d52:	fd842703          	lw	a4,-40(s0)
20014d56:	87ba                	mv	a5,a4
20014d58:	0786                	slli	a5,a5,0x1
20014d5a:	97ba                	add	a5,a5,a4
20014d5c:	078e                	slli	a5,a5,0x3
20014d5e:	97b6                	add	a5,a5,a3
20014d60:	fd042703          	lw	a4,-48(s0)
20014d64:	0ee7a623          	sw	a4,236(a5)
E:/GitHub/HiFive01-RevB/FS_workspace/sifive_hifive1_revb_sifive_welcome/freedom-metal/src/drivers/riscv_plic0.c:184
    }

    return 0;
20014d68:	4781                	li	a5,0
E:/GitHub/HiFive01-RevB/FS_workspace/sifive_hifive1_revb_sifive_welcome/freedom-metal/src/drivers/riscv_plic0.c:185
}
20014d6a:	853e                	mv	a0,a5
20014d6c:	50b2                	lw	ra,44(sp)
20014d6e:	5422                	lw	s0,40(sp)
20014d70:	6145                	addi	sp,sp,48
20014d72:	8082                	ret

20014d74 <__metal_driver_riscv_plic0_enable>:
__metal_driver_riscv_plic0_enable():
E:/GitHub/HiFive01-RevB/FS_workspace/sifive_hifive1_revb_sifive_welcome/freedom-metal/src/drivers/riscv_plic0.c:188

int __metal_driver_riscv_plic0_enable(struct metal_interrupt *controller,
                                      int id) {
20014d74:	7179                	addi	sp,sp,-48
20014d76:	d606                	sw	ra,44(sp)
20014d78:	d422                	sw	s0,40(sp)
20014d7a:	1800                	addi	s0,sp,48
20014d7c:	fca42e23          	sw	a0,-36(s0)
20014d80:	fcb42c23          	sw	a1,-40(s0)
E:/GitHub/HiFive01-RevB/FS_workspace/sifive_hifive1_revb_sifive_welcome/freedom-metal/src/drivers/riscv_plic0.c:189
    struct __metal_driver_riscv_plic0 *plic = (void *)(controller);
20014d84:	fdc42783          	lw	a5,-36(s0)
20014d88:	fef42623          	sw	a5,-20(s0)
E:/GitHub/HiFive01-RevB/FS_workspace/sifive_hifive1_revb_sifive_welcome/freedom-metal/src/drivers/riscv_plic0.c:191

    if (id >= __metal_driver_sifive_plic0_num_interrupts(controller)) {
20014d8c:	fdc42503          	lw	a0,-36(s0)
20014d90:	a0fff0ef          	jal	ra,2001479e <__metal_driver_sifive_plic0_num_interrupts>
20014d94:	872a                	mv	a4,a0
20014d96:	fd842783          	lw	a5,-40(s0)
20014d9a:	00e7c463          	blt	a5,a4,20014da2 <__metal_driver_riscv_plic0_enable+0x2e>
E:/GitHub/HiFive01-RevB/FS_workspace/sifive_hifive1_revb_sifive_welcome/freedom-metal/src/drivers/riscv_plic0.c:192
        return -1;
20014d9e:	57fd                	li	a5,-1
20014da0:	a829                	j	20014dba <__metal_driver_riscv_plic0_enable+0x46>
E:/GitHub/HiFive01-RevB/FS_workspace/sifive_hifive1_revb_sifive_welcome/freedom-metal/src/drivers/riscv_plic0.c:195
    }

    __metal_plic0_enable(plic, __metal_myhart_id(), id, METAL_ENABLE);
20014da2:	870fe0ef          	jal	ra,20012e12 <__metal_myhart_id>
20014da6:	87aa                	mv	a5,a0
20014da8:	4685                	li	a3,1
20014daa:	fd842603          	lw	a2,-40(s0)
20014dae:	85be                	mv	a1,a5
20014db0:	fec42503          	lw	a0,-20(s0)
20014db4:	c3dff0ef          	jal	ra,200149f0 <__metal_plic0_enable>
E:/GitHub/HiFive01-RevB/FS_workspace/sifive_hifive1_revb_sifive_welcome/freedom-metal/src/drivers/riscv_plic0.c:196
    return 0;
20014db8:	4781                	li	a5,0
E:/GitHub/HiFive01-RevB/FS_workspace/sifive_hifive1_revb_sifive_welcome/freedom-metal/src/drivers/riscv_plic0.c:197
}
20014dba:	853e                	mv	a0,a5
20014dbc:	50b2                	lw	ra,44(sp)
20014dbe:	5422                	lw	s0,40(sp)
20014dc0:	6145                	addi	sp,sp,48
20014dc2:	8082                	ret

20014dc4 <__metal_driver_riscv_plic0_disable>:
__metal_driver_riscv_plic0_disable():
E:/GitHub/HiFive01-RevB/FS_workspace/sifive_hifive1_revb_sifive_welcome/freedom-metal/src/drivers/riscv_plic0.c:200

int __metal_driver_riscv_plic0_disable(struct metal_interrupt *controller,
                                       int id) {
20014dc4:	7179                	addi	sp,sp,-48
20014dc6:	d606                	sw	ra,44(sp)
20014dc8:	d422                	sw	s0,40(sp)
20014dca:	1800                	addi	s0,sp,48
20014dcc:	fca42e23          	sw	a0,-36(s0)
20014dd0:	fcb42c23          	sw	a1,-40(s0)
E:/GitHub/HiFive01-RevB/FS_workspace/sifive_hifive1_revb_sifive_welcome/freedom-metal/src/drivers/riscv_plic0.c:201
    struct __metal_driver_riscv_plic0 *plic = (void *)(controller);
20014dd4:	fdc42783          	lw	a5,-36(s0)
20014dd8:	fef42623          	sw	a5,-20(s0)
E:/GitHub/HiFive01-RevB/FS_workspace/sifive_hifive1_revb_sifive_welcome/freedom-metal/src/drivers/riscv_plic0.c:203

    if (id >= __metal_driver_sifive_plic0_num_interrupts(controller)) {
20014ddc:	fdc42503          	lw	a0,-36(s0)
20014de0:	9bfff0ef          	jal	ra,2001479e <__metal_driver_sifive_plic0_num_interrupts>
20014de4:	872a                	mv	a4,a0
20014de6:	fd842783          	lw	a5,-40(s0)
20014dea:	00e7c463          	blt	a5,a4,20014df2 <__metal_driver_riscv_plic0_disable+0x2e>
E:/GitHub/HiFive01-RevB/FS_workspace/sifive_hifive1_revb_sifive_welcome/freedom-metal/src/drivers/riscv_plic0.c:204
        return -1;
20014dee:	57fd                	li	a5,-1
20014df0:	a829                	j	20014e0a <__metal_driver_riscv_plic0_disable+0x46>
E:/GitHub/HiFive01-RevB/FS_workspace/sifive_hifive1_revb_sifive_welcome/freedom-metal/src/drivers/riscv_plic0.c:206
    }
    __metal_plic0_enable(plic, __metal_myhart_id(), id, METAL_DISABLE);
20014df2:	820fe0ef          	jal	ra,20012e12 <__metal_myhart_id>
20014df6:	87aa                	mv	a5,a0
20014df8:	4681                	li	a3,0
20014dfa:	fd842603          	lw	a2,-40(s0)
20014dfe:	85be                	mv	a1,a5
20014e00:	fec42503          	lw	a0,-20(s0)
20014e04:	bedff0ef          	jal	ra,200149f0 <__metal_plic0_enable>
E:/GitHub/HiFive01-RevB/FS_workspace/sifive_hifive1_revb_sifive_welcome/freedom-metal/src/drivers/riscv_plic0.c:207
    return 0;
20014e08:	4781                	li	a5,0
E:/GitHub/HiFive01-RevB/FS_workspace/sifive_hifive1_revb_sifive_welcome/freedom-metal/src/drivers/riscv_plic0.c:208
}
20014e0a:	853e                	mv	a0,a5
20014e0c:	50b2                	lw	ra,44(sp)
20014e0e:	5422                	lw	s0,40(sp)
20014e10:	6145                	addi	sp,sp,48
20014e12:	8082                	ret

20014e14 <__metal_driver_riscv_plic0_set_threshold>:
__metal_driver_riscv_plic0_set_threshold():
E:/GitHub/HiFive01-RevB/FS_workspace/sifive_hifive1_revb_sifive_welcome/freedom-metal/src/drivers/riscv_plic0.c:211

int __metal_driver_riscv_plic0_set_threshold(struct metal_interrupt *controller,
                                             unsigned int threshold) {
20014e14:	1101                	addi	sp,sp,-32
20014e16:	ce06                	sw	ra,28(sp)
20014e18:	cc22                	sw	s0,24(sp)
20014e1a:	1000                	addi	s0,sp,32
20014e1c:	fea42623          	sw	a0,-20(s0)
20014e20:	feb42423          	sw	a1,-24(s0)
E:/GitHub/HiFive01-RevB/FS_workspace/sifive_hifive1_revb_sifive_welcome/freedom-metal/src/drivers/riscv_plic0.c:212
    return __metal_plic0_set_threshold(controller, __metal_myhart_id(),
20014e24:	feffd0ef          	jal	ra,20012e12 <__metal_myhart_id>
20014e28:	87aa                	mv	a5,a0
20014e2a:	fe842603          	lw	a2,-24(s0)
20014e2e:	85be                	mv	a1,a5
20014e30:	fec42503          	lw	a0,-20(s0)
20014e34:	aa7ff0ef          	jal	ra,200148da <__metal_plic0_set_threshold>
20014e38:	87aa                	mv	a5,a0
E:/GitHub/HiFive01-RevB/FS_workspace/sifive_hifive1_revb_sifive_welcome/freedom-metal/src/drivers/riscv_plic0.c:214
                                       threshold);
}
20014e3a:	853e                	mv	a0,a5
20014e3c:	40f2                	lw	ra,28(sp)
20014e3e:	4462                	lw	s0,24(sp)
20014e40:	6105                	addi	sp,sp,32
20014e42:	8082                	ret

20014e44 <__metal_driver_riscv_plic0_get_threshold>:
__metal_driver_riscv_plic0_get_threshold():
E:/GitHub/HiFive01-RevB/FS_workspace/sifive_hifive1_revb_sifive_welcome/freedom-metal/src/drivers/riscv_plic0.c:217

unsigned int
__metal_driver_riscv_plic0_get_threshold(struct metal_interrupt *controller) {
20014e44:	1101                	addi	sp,sp,-32
20014e46:	ce06                	sw	ra,28(sp)
20014e48:	cc22                	sw	s0,24(sp)
20014e4a:	1000                	addi	s0,sp,32
20014e4c:	fea42623          	sw	a0,-20(s0)
E:/GitHub/HiFive01-RevB/FS_workspace/sifive_hifive1_revb_sifive_welcome/freedom-metal/src/drivers/riscv_plic0.c:218
    return __metal_plic0_get_threshold(controller, __metal_myhart_id());
20014e50:	fc3fd0ef          	jal	ra,20012e12 <__metal_myhart_id>
20014e54:	87aa                	mv	a5,a0
20014e56:	85be                	mv	a1,a5
20014e58:	fec42503          	lw	a0,-20(s0)
20014e5c:	ac5ff0ef          	jal	ra,20014920 <__metal_plic0_get_threshold>
20014e60:	87aa                	mv	a5,a0
E:/GitHub/HiFive01-RevB/FS_workspace/sifive_hifive1_revb_sifive_welcome/freedom-metal/src/drivers/riscv_plic0.c:219
}
20014e62:	853e                	mv	a0,a5
20014e64:	40f2                	lw	ra,28(sp)
20014e66:	4462                	lw	s0,24(sp)
20014e68:	6105                	addi	sp,sp,32
20014e6a:	8082                	ret

20014e6c <__metal_driver_riscv_plic0_affinity_enable>:
__metal_driver_riscv_plic0_affinity_enable():
E:/GitHub/HiFive01-RevB/FS_workspace/sifive_hifive1_revb_sifive_welcome/freedom-metal/src/drivers/riscv_plic0.c:223

metal_affinity
__metal_driver_riscv_plic0_affinity_enable(struct metal_interrupt *controller,
                                           metal_affinity bitmask, int id) {
20014e6c:	7179                	addi	sp,sp,-48
20014e6e:	d606                	sw	ra,44(sp)
20014e70:	d422                	sw	s0,40(sp)
20014e72:	1800                	addi	s0,sp,48
20014e74:	fca42e23          	sw	a0,-36(s0)
20014e78:	fcb42c23          	sw	a1,-40(s0)
20014e7c:	fcc42a23          	sw	a2,-44(s0)
E:/GitHub/HiFive01-RevB/FS_workspace/sifive_hifive1_revb_sifive_welcome/freedom-metal/src/drivers/riscv_plic0.c:224
    metal_affinity ret = {0};
20014e80:	fe042223          	sw	zero,-28(s0)
E:/GitHub/HiFive01-RevB/FS_workspace/sifive_hifive1_revb_sifive_welcome/freedom-metal/src/drivers/riscv_plic0.c:227
    int context;

    struct __metal_driver_riscv_plic0 *plic = (void *)(controller);
20014e84:	fdc42783          	lw	a5,-36(s0)
20014e88:	fef42423          	sw	a5,-24(s0)
E:/GitHub/HiFive01-RevB/FS_workspace/sifive_hifive1_revb_sifive_welcome/freedom-metal/src/drivers/riscv_plic0.c:229

    if (id >= __metal_driver_sifive_plic0_num_interrupts(controller)) {
20014e8c:	fdc42503          	lw	a0,-36(s0)
20014e90:	90fff0ef          	jal	ra,2001479e <__metal_driver_sifive_plic0_num_interrupts>
20014e94:	872a                	mv	a4,a0
20014e96:	fd442783          	lw	a5,-44(s0)
20014e9a:	00e7c863          	blt	a5,a4,20014eaa <__metal_driver_riscv_plic0_affinity_enable+0x3e>
E:/GitHub/HiFive01-RevB/FS_workspace/sifive_hifive1_revb_sifive_welcome/freedom-metal/src/drivers/riscv_plic0.c:230
        metal_affinity_set_val(ret, -1);
20014e9e:	57fd                	li	a5,-1
20014ea0:	fef42223          	sw	a5,-28(s0)
E:/GitHub/HiFive01-RevB/FS_workspace/sifive_hifive1_revb_sifive_welcome/freedom-metal/src/drivers/riscv_plic0.c:231
        return ret;
20014ea4:	fe442783          	lw	a5,-28(s0)
20014ea8:	a899                	j	20014efe <__metal_driver_riscv_plic0_affinity_enable+0x92>
E:/GitHub/HiFive01-RevB/FS_workspace/sifive_hifive1_revb_sifive_welcome/freedom-metal/src/drivers/riscv_plic0.c:234
    }

    for_each_metal_affinity(context, bitmask) {
20014eaa:	fe042623          	sw	zero,-20(s0)
20014eae:	a099                	j	20014ef4 <__metal_driver_riscv_plic0_affinity_enable+0x88>
E:/GitHub/HiFive01-RevB/FS_workspace/sifive_hifive1_revb_sifive_welcome/freedom-metal/src/drivers/riscv_plic0.c:235
        if (context != 0)
20014eb0:	fec42783          	lw	a5,-20(s0)
20014eb4:	c795                	beqz	a5,20014ee0 <__metal_driver_riscv_plic0_affinity_enable+0x74>
E:/GitHub/HiFive01-RevB/FS_workspace/sifive_hifive1_revb_sifive_welcome/freedom-metal/src/drivers/riscv_plic0.c:236
            metal_affinity_set_bit(
20014eb6:	4685                	li	a3,1
20014eb8:	fd442603          	lw	a2,-44(s0)
20014ebc:	fec42583          	lw	a1,-20(s0)
20014ec0:	fe842503          	lw	a0,-24(s0)
20014ec4:	b2dff0ef          	jal	ra,200149f0 <__metal_plic0_enable>
20014ec8:	87aa                	mv	a5,a0
20014eca:	0017f713          	andi	a4,a5,1
20014ece:	fec42783          	lw	a5,-20(s0)
20014ed2:	00f71733          	sll	a4,a4,a5
20014ed6:	fe442783          	lw	a5,-28(s0)
20014eda:	8fd9                	or	a5,a5,a4
20014edc:	fef42223          	sw	a5,-28(s0)
E:/GitHub/HiFive01-RevB/FS_workspace/sifive_hifive1_revb_sifive_welcome/freedom-metal/src/drivers/riscv_plic0.c:234 (discriminator 2)
    for_each_metal_affinity(context, bitmask) {
20014ee0:	fec42783          	lw	a5,-20(s0)
20014ee4:	0785                	addi	a5,a5,1
20014ee6:	fef42623          	sw	a5,-20(s0)
20014eea:	fd842783          	lw	a5,-40(s0)
20014eee:	8385                	srli	a5,a5,0x1
20014ef0:	fcf42c23          	sw	a5,-40(s0)
E:/GitHub/HiFive01-RevB/FS_workspace/sifive_hifive1_revb_sifive_welcome/freedom-metal/src/drivers/riscv_plic0.c:234 (discriminator 1)
20014ef4:	fd842783          	lw	a5,-40(s0)
20014ef8:	ffc5                	bnez	a5,20014eb0 <__metal_driver_riscv_plic0_affinity_enable+0x44>
E:/GitHub/HiFive01-RevB/FS_workspace/sifive_hifive1_revb_sifive_welcome/freedom-metal/src/drivers/riscv_plic0.c:241
                ret, context,
                __metal_plic0_enable(plic, context, id, METAL_ENABLE));
    }

    return ret;
20014efa:	fe442783          	lw	a5,-28(s0)
E:/GitHub/HiFive01-RevB/FS_workspace/sifive_hifive1_revb_sifive_welcome/freedom-metal/src/drivers/riscv_plic0.c:242 (discriminator 1)
}
20014efe:	853e                	mv	a0,a5
20014f00:	50b2                	lw	ra,44(sp)
20014f02:	5422                	lw	s0,40(sp)
20014f04:	6145                	addi	sp,sp,48
20014f06:	8082                	ret

20014f08 <__metal_driver_riscv_plic0_affinity_disable>:
__metal_driver_riscv_plic0_affinity_disable():
E:/GitHub/HiFive01-RevB/FS_workspace/sifive_hifive1_revb_sifive_welcome/freedom-metal/src/drivers/riscv_plic0.c:246

metal_affinity
__metal_driver_riscv_plic0_affinity_disable(struct metal_interrupt *controller,
                                            metal_affinity bitmask, int id) {
20014f08:	7179                	addi	sp,sp,-48
20014f0a:	d606                	sw	ra,44(sp)
20014f0c:	d422                	sw	s0,40(sp)
20014f0e:	1800                	addi	s0,sp,48
20014f10:	fca42e23          	sw	a0,-36(s0)
20014f14:	fcb42c23          	sw	a1,-40(s0)
20014f18:	fcc42a23          	sw	a2,-44(s0)
E:/GitHub/HiFive01-RevB/FS_workspace/sifive_hifive1_revb_sifive_welcome/freedom-metal/src/drivers/riscv_plic0.c:247
    metal_affinity ret = {0};
20014f1c:	fe042223          	sw	zero,-28(s0)
E:/GitHub/HiFive01-RevB/FS_workspace/sifive_hifive1_revb_sifive_welcome/freedom-metal/src/drivers/riscv_plic0.c:250
    int context;

    struct __metal_driver_riscv_plic0 *plic = (void *)(controller);
20014f20:	fdc42783          	lw	a5,-36(s0)
20014f24:	fef42423          	sw	a5,-24(s0)
E:/GitHub/HiFive01-RevB/FS_workspace/sifive_hifive1_revb_sifive_welcome/freedom-metal/src/drivers/riscv_plic0.c:252

    if (id >= __metal_driver_sifive_plic0_num_interrupts(controller)) {
20014f28:	fdc42503          	lw	a0,-36(s0)
20014f2c:	873ff0ef          	jal	ra,2001479e <__metal_driver_sifive_plic0_num_interrupts>
20014f30:	872a                	mv	a4,a0
20014f32:	fd442783          	lw	a5,-44(s0)
20014f36:	00e7c863          	blt	a5,a4,20014f46 <__metal_driver_riscv_plic0_affinity_disable+0x3e>
E:/GitHub/HiFive01-RevB/FS_workspace/sifive_hifive1_revb_sifive_welcome/freedom-metal/src/drivers/riscv_plic0.c:253
        metal_affinity_set_val(ret, -1);
20014f3a:	57fd                	li	a5,-1
20014f3c:	fef42223          	sw	a5,-28(s0)
E:/GitHub/HiFive01-RevB/FS_workspace/sifive_hifive1_revb_sifive_welcome/freedom-metal/src/drivers/riscv_plic0.c:254
        return ret;
20014f40:	fe442783          	lw	a5,-28(s0)
20014f44:	a899                	j	20014f9a <__metal_driver_riscv_plic0_affinity_disable+0x92>
E:/GitHub/HiFive01-RevB/FS_workspace/sifive_hifive1_revb_sifive_welcome/freedom-metal/src/drivers/riscv_plic0.c:257
    }

    for_each_metal_affinity(context, bitmask) {
20014f46:	fe042623          	sw	zero,-20(s0)
20014f4a:	a099                	j	20014f90 <__metal_driver_riscv_plic0_affinity_disable+0x88>
E:/GitHub/HiFive01-RevB/FS_workspace/sifive_hifive1_revb_sifive_welcome/freedom-metal/src/drivers/riscv_plic0.c:258
        if (context != 0)
20014f4c:	fec42783          	lw	a5,-20(s0)
20014f50:	c795                	beqz	a5,20014f7c <__metal_driver_riscv_plic0_affinity_disable+0x74>
E:/GitHub/HiFive01-RevB/FS_workspace/sifive_hifive1_revb_sifive_welcome/freedom-metal/src/drivers/riscv_plic0.c:259
            metal_affinity_set_bit(
20014f52:	4681                	li	a3,0
20014f54:	fd442603          	lw	a2,-44(s0)
20014f58:	fec42583          	lw	a1,-20(s0)
20014f5c:	fe842503          	lw	a0,-24(s0)
20014f60:	a91ff0ef          	jal	ra,200149f0 <__metal_plic0_enable>
20014f64:	87aa                	mv	a5,a0
20014f66:	0017f713          	andi	a4,a5,1
20014f6a:	fec42783          	lw	a5,-20(s0)
20014f6e:	00f71733          	sll	a4,a4,a5
20014f72:	fe442783          	lw	a5,-28(s0)
20014f76:	8fd9                	or	a5,a5,a4
20014f78:	fef42223          	sw	a5,-28(s0)
E:/GitHub/HiFive01-RevB/FS_workspace/sifive_hifive1_revb_sifive_welcome/freedom-metal/src/drivers/riscv_plic0.c:257 (discriminator 2)
    for_each_metal_affinity(context, bitmask) {
20014f7c:	fec42783          	lw	a5,-20(s0)
20014f80:	0785                	addi	a5,a5,1
20014f82:	fef42623          	sw	a5,-20(s0)
20014f86:	fd842783          	lw	a5,-40(s0)
20014f8a:	8385                	srli	a5,a5,0x1
20014f8c:	fcf42c23          	sw	a5,-40(s0)
E:/GitHub/HiFive01-RevB/FS_workspace/sifive_hifive1_revb_sifive_welcome/freedom-metal/src/drivers/riscv_plic0.c:257 (discriminator 1)
20014f90:	fd842783          	lw	a5,-40(s0)
20014f94:	ffc5                	bnez	a5,20014f4c <__metal_driver_riscv_plic0_affinity_disable+0x44>
E:/GitHub/HiFive01-RevB/FS_workspace/sifive_hifive1_revb_sifive_welcome/freedom-metal/src/drivers/riscv_plic0.c:264
                ret, context,
                __metal_plic0_enable(plic, context, id, METAL_DISABLE));
    }

    return ret;
20014f96:	fe442783          	lw	a5,-28(s0)
E:/GitHub/HiFive01-RevB/FS_workspace/sifive_hifive1_revb_sifive_welcome/freedom-metal/src/drivers/riscv_plic0.c:265 (discriminator 1)
}
20014f9a:	853e                	mv	a0,a5
20014f9c:	50b2                	lw	ra,44(sp)
20014f9e:	5422                	lw	s0,40(sp)
20014fa0:	6145                	addi	sp,sp,48
20014fa2:	8082                	ret

20014fa4 <__metal_driver_riscv_plic0_affinity_set_threshold>:
__metal_driver_riscv_plic0_affinity_set_threshold():
E:/GitHub/HiFive01-RevB/FS_workspace/sifive_hifive1_revb_sifive_welcome/freedom-metal/src/drivers/riscv_plic0.c:269

metal_affinity __metal_driver_riscv_plic0_affinity_set_threshold(
    struct metal_interrupt *controller, metal_affinity bitmask,
    unsigned int threshold) {
20014fa4:	7179                	addi	sp,sp,-48
20014fa6:	d606                	sw	ra,44(sp)
20014fa8:	d422                	sw	s0,40(sp)
20014faa:	1800                	addi	s0,sp,48
20014fac:	fca42e23          	sw	a0,-36(s0)
20014fb0:	fcb42c23          	sw	a1,-40(s0)
20014fb4:	fcc42a23          	sw	a2,-44(s0)
E:/GitHub/HiFive01-RevB/FS_workspace/sifive_hifive1_revb_sifive_welcome/freedom-metal/src/drivers/riscv_plic0.c:270
    metal_affinity ret = {0};
20014fb8:	fe042423          	sw	zero,-24(s0)
E:/GitHub/HiFive01-RevB/FS_workspace/sifive_hifive1_revb_sifive_welcome/freedom-metal/src/drivers/riscv_plic0.c:273
    int context;

    for_each_metal_affinity(context, bitmask) {
20014fbc:	fe042623          	sw	zero,-20(s0)
20014fc0:	a091                	j	20015004 <__metal_driver_riscv_plic0_affinity_set_threshold+0x60>
E:/GitHub/HiFive01-RevB/FS_workspace/sifive_hifive1_revb_sifive_welcome/freedom-metal/src/drivers/riscv_plic0.c:274
        if (context != 0)
20014fc2:	fec42783          	lw	a5,-20(s0)
20014fc6:	c78d                	beqz	a5,20014ff0 <__metal_driver_riscv_plic0_affinity_set_threshold+0x4c>
E:/GitHub/HiFive01-RevB/FS_workspace/sifive_hifive1_revb_sifive_welcome/freedom-metal/src/drivers/riscv_plic0.c:275
            metal_affinity_set_bit(
20014fc8:	fd442603          	lw	a2,-44(s0)
20014fcc:	fec42583          	lw	a1,-20(s0)
20014fd0:	fdc42503          	lw	a0,-36(s0)
20014fd4:	907ff0ef          	jal	ra,200148da <__metal_plic0_set_threshold>
20014fd8:	87aa                	mv	a5,a0
20014fda:	0017f713          	andi	a4,a5,1
20014fde:	fec42783          	lw	a5,-20(s0)
20014fe2:	00f71733          	sll	a4,a4,a5
20014fe6:	fe842783          	lw	a5,-24(s0)
20014fea:	8fd9                	or	a5,a5,a4
20014fec:	fef42423          	sw	a5,-24(s0)
E:/GitHub/HiFive01-RevB/FS_workspace/sifive_hifive1_revb_sifive_welcome/freedom-metal/src/drivers/riscv_plic0.c:273 (discriminator 2)
    for_each_metal_affinity(context, bitmask) {
20014ff0:	fec42783          	lw	a5,-20(s0)
20014ff4:	0785                	addi	a5,a5,1
20014ff6:	fef42623          	sw	a5,-20(s0)
20014ffa:	fd842783          	lw	a5,-40(s0)
20014ffe:	8385                	srli	a5,a5,0x1
20015000:	fcf42c23          	sw	a5,-40(s0)
E:/GitHub/HiFive01-RevB/FS_workspace/sifive_hifive1_revb_sifive_welcome/freedom-metal/src/drivers/riscv_plic0.c:273 (discriminator 1)
20015004:	fd842783          	lw	a5,-40(s0)
20015008:	ffcd                	bnez	a5,20014fc2 <__metal_driver_riscv_plic0_affinity_set_threshold+0x1e>
E:/GitHub/HiFive01-RevB/FS_workspace/sifive_hifive1_revb_sifive_welcome/freedom-metal/src/drivers/riscv_plic0.c:280
                ret, context,
                __metal_plic0_set_threshold(controller, context, threshold));
    }

    return ret;
2001500a:	fe842783          	lw	a5,-24(s0)
E:/GitHub/HiFive01-RevB/FS_workspace/sifive_hifive1_revb_sifive_welcome/freedom-metal/src/drivers/riscv_plic0.c:281
}
2001500e:	853e                	mv	a0,a5
20015010:	50b2                	lw	ra,44(sp)
20015012:	5422                	lw	s0,40(sp)
20015014:	6145                	addi	sp,sp,48
20015016:	8082                	ret

20015018 <__metal_driver_riscv_plic0_affinity_get_threshold>:
__metal_driver_riscv_plic0_affinity_get_threshold():
E:/GitHub/HiFive01-RevB/FS_workspace/sifive_hifive1_revb_sifive_welcome/freedom-metal/src/drivers/riscv_plic0.c:284

unsigned int __metal_driver_riscv_plic0_affinity_get_threshold(
    struct metal_interrupt *controller, int context_id) {
20015018:	1101                	addi	sp,sp,-32
2001501a:	ce06                	sw	ra,28(sp)
2001501c:	cc22                	sw	s0,24(sp)
2001501e:	1000                	addi	s0,sp,32
20015020:	fea42623          	sw	a0,-20(s0)
20015024:	feb42423          	sw	a1,-24(s0)
E:/GitHub/HiFive01-RevB/FS_workspace/sifive_hifive1_revb_sifive_welcome/freedom-metal/src/drivers/riscv_plic0.c:285
    __metal_plic0_get_threshold(controller, context_id);
20015028:	fe842583          	lw	a1,-24(s0)
2001502c:	fec42503          	lw	a0,-20(s0)
20015030:	8f1ff0ef          	jal	ra,20014920 <__metal_plic0_get_threshold>
E:/GitHub/HiFive01-RevB/FS_workspace/sifive_hifive1_revb_sifive_welcome/freedom-metal/src/drivers/riscv_plic0.c:286
    return 0;
20015034:	4781                	li	a5,0
E:/GitHub/HiFive01-RevB/FS_workspace/sifive_hifive1_revb_sifive_welcome/freedom-metal/src/drivers/riscv_plic0.c:287
}
20015036:	853e                	mv	a0,a5
20015038:	40f2                	lw	ra,28(sp)
2001503a:	4462                	lw	s0,24(sp)
2001503c:	6105                	addi	sp,sp,32
2001503e:	8082                	ret

20015040 <__metal_driver_sifive_fe310_g000_hfrosc_ref>:
__metal_driver_sifive_fe310_g000_hfrosc_ref():
E:\GitHub\HiFive01-RevB\FS_workspace\sifive_hifive1_revb_sifive_welcome\bsp\build\debug/./metal/machine.h:1242



/* --------------------- sifive_fe310_g000_hfrosc ------------ */
static __inline__ struct metal_clock * __metal_driver_sifive_fe310_g000_hfrosc_ref(const struct metal_clock *clock)
{
20015040:	1101                	addi	sp,sp,-32
20015042:	ce22                	sw	s0,28(sp)
20015044:	1000                	addi	s0,sp,32
20015046:	fea42623          	sw	a0,-20(s0)
E:\GitHub\HiFive01-RevB\FS_workspace\sifive_hifive1_revb_sifive_welcome\bsp\build\debug/./metal/machine.h:1243
		return (struct metal_clock *)&__metal_dt_clock_2.clock;
2001504a:	800007b7          	lui	a5,0x80000
2001504e:	07878793          	addi	a5,a5,120 # 80000078 <metal_segment_heap_target_end+0xffffe8d8>
E:\GitHub\HiFive01-RevB\FS_workspace\sifive_hifive1_revb_sifive_welcome\bsp\build\debug/./metal/machine.h:1244
}
20015052:	853e                	mv	a0,a5
20015054:	4472                	lw	s0,28(sp)
20015056:	6105                	addi	sp,sp,32
20015058:	8082                	ret

2001505a <__metal_driver_sifive_fe310_g000_hfrosc_config_base>:
__metal_driver_sifive_fe310_g000_hfrosc_config_base():
E:\GitHub\HiFive01-RevB\FS_workspace\sifive_hifive1_revb_sifive_welcome\bsp\build\debug/./metal/machine.h:1247

static __inline__ struct __metal_driver_sifive_fe310_g000_prci * __metal_driver_sifive_fe310_g000_hfrosc_config_base(const struct metal_clock *clock)
{
2001505a:	1101                	addi	sp,sp,-32
2001505c:	ce22                	sw	s0,28(sp)
2001505e:	1000                	addi	s0,sp,32
20015060:	fea42623          	sw	a0,-20(s0)
E:\GitHub\HiFive01-RevB\FS_workspace\sifive_hifive1_revb_sifive_welcome\bsp\build\debug/./metal/machine.h:1248
		return (struct __metal_driver_sifive_fe310_g000_prci *)&__metal_dt_prci_10008000;
20015064:	82818793          	addi	a5,gp,-2008 # 80000ad8 <__metal_dt_prci_10008000>
E:\GitHub\HiFive01-RevB\FS_workspace\sifive_hifive1_revb_sifive_welcome\bsp\build\debug/./metal/machine.h:1249
}
20015068:	853e                	mv	a0,a5
2001506a:	4472                	lw	s0,28(sp)
2001506c:	6105                	addi	sp,sp,32
2001506e:	8082                	ret

20015070 <__metal_driver_sifive_fe310_g000_hfrosc_config_offset>:
__metal_driver_sifive_fe310_g000_hfrosc_config_offset():
E:\GitHub\HiFive01-RevB\FS_workspace\sifive_hifive1_revb_sifive_welcome\bsp\build\debug/./metal/machine.h:1257
{
		return &__metal_driver_vtable_sifive_fe310_g000_prci;
}

static __inline__ long __metal_driver_sifive_fe310_g000_hfrosc_config_offset(const struct metal_clock *clock)
{
20015070:	1101                	addi	sp,sp,-32
20015072:	ce22                	sw	s0,28(sp)
20015074:	1000                	addi	s0,sp,32
20015076:	fea42623          	sw	a0,-20(s0)
E:\GitHub\HiFive01-RevB\FS_workspace\sifive_hifive1_revb_sifive_welcome\bsp\build\debug/./metal/machine.h:1258
		return METAL_SIFIVE_FE310_G000_PRCI_HFROSCCFG;
2001507a:	4781                	li	a5,0
E:\GitHub\HiFive01-RevB\FS_workspace\sifive_hifive1_revb_sifive_welcome\bsp\build\debug/./metal/machine.h:1259
}
2001507c:	853e                	mv	a0,a5
2001507e:	4472                	lw	s0,28(sp)
20015080:	6105                	addi	sp,sp,32
20015082:	8082                	ret

20015084 <__metal_driver_sifive_fe310_g000_prci_vtable>:
__metal_driver_sifive_fe310_g000_prci_vtable():
E:\GitHub\HiFive01-RevB\FS_workspace\sifive_hifive1_revb_sifive_welcome\bsp\build\debug/./metal/machine.h:1374
{
		return METAL_SIFIVE_FE310_G000_PRCI_10008000_SIZE;
}

static __inline__ const struct __metal_driver_vtable_sifive_fe310_g000_prci * __metal_driver_sifive_fe310_g000_prci_vtable( )
{
20015084:	1141                	addi	sp,sp,-16
20015086:	c622                	sw	s0,12(sp)
20015088:	0800                	addi	s0,sp,16
E:\GitHub\HiFive01-RevB\FS_workspace\sifive_hifive1_revb_sifive_welcome\bsp\build\debug/./metal/machine.h:1375
		return &__metal_driver_vtable_sifive_fe310_g000_prci;
2001508a:	200117b7          	lui	a5,0x20011
2001508e:	3cc78793          	addi	a5,a5,972 # 200113cc <__metal_driver_vtable_sifive_fe310_g000_prci>
E:\GitHub\HiFive01-RevB\FS_workspace\sifive_hifive1_revb_sifive_welcome\bsp\build\debug/./metal/machine.h:1376
}
20015092:	853e                	mv	a0,a5
20015094:	4432                	lw	s0,12(sp)
20015096:	0141                	addi	sp,sp,16
20015098:	8082                	ret

2001509a <__metal_driver_sifive_fe310_g000_hfrosc_get_rate_hz>:
__metal_driver_sifive_fe310_g000_hfrosc_get_rate_hz():
E:/GitHub/HiFive01-RevB/FS_workspace/sifive_hifive1_revb_sifive_welcome/freedom-metal/src/drivers/sifive_fe310-g000_hfrosc.c:17
#define CONFIG_TRIM 0x001F0000UL
#define CONFIG_ENABLE 0x40000000UL
#define CONFIG_READY 0x80000000UL

long __metal_driver_sifive_fe310_g000_hfrosc_get_rate_hz(
    const struct metal_clock *clock) {
2001509a:	7139                	addi	sp,sp,-64
2001509c:	de06                	sw	ra,60(sp)
2001509e:	dc22                	sw	s0,56(sp)
200150a0:	0080                	addi	s0,sp,64
200150a2:	fca42623          	sw	a0,-52(s0)
E:/GitHub/HiFive01-RevB/FS_workspace/sifive_hifive1_revb_sifive_welcome/freedom-metal/src/drivers/sifive_fe310-g000_hfrosc.c:19
    struct metal_clock *ref =
        __metal_driver_sifive_fe310_g000_hfrosc_ref(clock);
200150a6:	fcc42503          	lw	a0,-52(s0)
200150aa:	3f59                	jal	20015040 <__metal_driver_sifive_fe310_g000_hfrosc_ref>
200150ac:	fea42623          	sw	a0,-20(s0)
E:/GitHub/HiFive01-RevB/FS_workspace/sifive_hifive1_revb_sifive_welcome/freedom-metal/src/drivers/sifive_fe310-g000_hfrosc.c:21
    long config_offset =
        __metal_driver_sifive_fe310_g000_hfrosc_config_offset(clock);
200150b0:	fcc42503          	lw	a0,-52(s0)
200150b4:	3f75                	jal	20015070 <__metal_driver_sifive_fe310_g000_hfrosc_config_offset>
200150b6:	fea42423          	sw	a0,-24(s0)
E:/GitHub/HiFive01-RevB/FS_workspace/sifive_hifive1_revb_sifive_welcome/freedom-metal/src/drivers/sifive_fe310-g000_hfrosc.c:23
    struct __metal_driver_sifive_fe310_g000_prci *config_base =
        __metal_driver_sifive_fe310_g000_hfrosc_config_base(clock);
200150ba:	fcc42503          	lw	a0,-52(s0)
200150be:	3f71                	jal	2001505a <__metal_driver_sifive_fe310_g000_hfrosc_config_base>
200150c0:	fea42223          	sw	a0,-28(s0)
E:/GitHub/HiFive01-RevB/FS_workspace/sifive_hifive1_revb_sifive_welcome/freedom-metal/src/drivers/sifive_fe310-g000_hfrosc.c:25
    const struct __metal_driver_vtable_sifive_fe310_g000_prci *vtable =
        __metal_driver_sifive_fe310_g000_prci_vtable();
200150c4:	37c1                	jal	20015084 <__metal_driver_sifive_fe310_g000_prci_vtable>
200150c6:	fea42023          	sw	a0,-32(s0)
E:/GitHub/HiFive01-RevB/FS_workspace/sifive_hifive1_revb_sifive_welcome/freedom-metal/src/drivers/sifive_fe310-g000_hfrosc.c:26
    long cfg = vtable->get_reg(config_base, config_offset);
200150ca:	fe042783          	lw	a5,-32(s0)
200150ce:	439c                	lw	a5,0(a5)
200150d0:	fe842583          	lw	a1,-24(s0)
200150d4:	fe442503          	lw	a0,-28(s0)
200150d8:	9782                	jalr	a5
200150da:	fca42e23          	sw	a0,-36(s0)
E:/GitHub/HiFive01-RevB/FS_workspace/sifive_hifive1_revb_sifive_welcome/freedom-metal/src/drivers/sifive_fe310-g000_hfrosc.c:28

    if ((cfg & CONFIG_ENABLE) == 0)
200150de:	fdc42703          	lw	a4,-36(s0)
200150e2:	400007b7          	lui	a5,0x40000
200150e6:	8ff9                	and	a5,a5,a4
200150e8:	e399                	bnez	a5,200150ee <__metal_driver_sifive_fe310_g000_hfrosc_get_rate_hz+0x54>
E:/GitHub/HiFive01-RevB/FS_workspace/sifive_hifive1_revb_sifive_welcome/freedom-metal/src/drivers/sifive_fe310-g000_hfrosc.c:29
        return -1;
200150ea:	57fd                	li	a5,-1
200150ec:	a025                	j	20015114 <__metal_driver_sifive_fe310_g000_hfrosc_get_rate_hz+0x7a>
E:/GitHub/HiFive01-RevB/FS_workspace/sifive_hifive1_revb_sifive_welcome/freedom-metal/src/drivers/sifive_fe310-g000_hfrosc.c:30
    if ((cfg & CONFIG_READY) == 0)
200150ee:	fdc42783          	lw	a5,-36(s0)
200150f2:	0007c463          	bltz	a5,200150fa <__metal_driver_sifive_fe310_g000_hfrosc_get_rate_hz+0x60>
E:/GitHub/HiFive01-RevB/FS_workspace/sifive_hifive1_revb_sifive_welcome/freedom-metal/src/drivers/sifive_fe310-g000_hfrosc.c:31
        return -1;
200150f6:	57fd                	li	a5,-1
200150f8:	a831                	j	20015114 <__metal_driver_sifive_fe310_g000_hfrosc_get_rate_hz+0x7a>
E:/GitHub/HiFive01-RevB/FS_workspace/sifive_hifive1_revb_sifive_welcome/freedom-metal/src/drivers/sifive_fe310-g000_hfrosc.c:32
    return metal_clock_get_rate_hz(ref) / ((cfg & CONFIG_DIVIDER) + 1);
200150fa:	fec42503          	lw	a0,-20(s0)
200150fe:	4fd010ef          	jal	ra,20016dfa <metal_clock_get_rate_hz>
20015102:	87aa                	mv	a5,a0
20015104:	873e                	mv	a4,a5
20015106:	fdc42783          	lw	a5,-36(s0)
2001510a:	03f7f793          	andi	a5,a5,63
2001510e:	0785                	addi	a5,a5,1
20015110:	02f757b3          	divu	a5,a4,a5
E:/GitHub/HiFive01-RevB/FS_workspace/sifive_hifive1_revb_sifive_welcome/freedom-metal/src/drivers/sifive_fe310-g000_hfrosc.c:33
}
20015114:	853e                	mv	a0,a5
20015116:	50f2                	lw	ra,60(sp)
20015118:	5462                	lw	s0,56(sp)
2001511a:	6121                	addi	sp,sp,64
2001511c:	8082                	ret

2001511e <__metal_driver_sifive_fe310_g000_hfrosc_set_rate_hz>:
__metal_driver_sifive_fe310_g000_hfrosc_set_rate_hz():
E:/GitHub/HiFive01-RevB/FS_workspace/sifive_hifive1_revb_sifive_welcome/freedom-metal/src/drivers/sifive_fe310-g000_hfrosc.c:36

long __metal_driver_sifive_fe310_g000_hfrosc_set_rate_hz(
    struct metal_clock *clock, long rate) {
2001511e:	1101                	addi	sp,sp,-32
20015120:	ce06                	sw	ra,28(sp)
20015122:	cc22                	sw	s0,24(sp)
20015124:	1000                	addi	s0,sp,32
20015126:	fea42623          	sw	a0,-20(s0)
2001512a:	feb42423          	sw	a1,-24(s0)
E:/GitHub/HiFive01-RevB/FS_workspace/sifive_hifive1_revb_sifive_welcome/freedom-metal/src/drivers/sifive_fe310-g000_hfrosc.c:37
    return __metal_driver_sifive_fe310_g000_hfrosc_get_rate_hz(clock);
2001512e:	fec42503          	lw	a0,-20(s0)
20015132:	37a5                	jal	2001509a <__metal_driver_sifive_fe310_g000_hfrosc_get_rate_hz>
20015134:	87aa                	mv	a5,a0
E:/GitHub/HiFive01-RevB/FS_workspace/sifive_hifive1_revb_sifive_welcome/freedom-metal/src/drivers/sifive_fe310-g000_hfrosc.c:38
}
20015136:	853e                	mv	a0,a5
20015138:	40f2                	lw	ra,28(sp)
2001513a:	4462                	lw	s0,24(sp)
2001513c:	6105                	addi	sp,sp,32
2001513e:	8082                	ret

20015140 <__metal_driver_sifive_fe310_g000_hfxosc_ref>:
__metal_driver_sifive_fe310_g000_hfxosc_ref():
E:\GitHub\HiFive01-RevB\FS_workspace\sifive_hifive1_revb_sifive_welcome\bsp\build\debug/./metal/machine.h:1265
{
20015140:	1101                	addi	sp,sp,-32
20015142:	ce22                	sw	s0,28(sp)
20015144:	1000                	addi	s0,sp,32
20015146:	fea42623          	sw	a0,-20(s0)
E:\GitHub\HiFive01-RevB\FS_workspace\sifive_hifive1_revb_sifive_welcome\bsp\build\debug/./metal/machine.h:1266
		return (struct metal_clock *)&__metal_dt_clock_0.clock;
2001514a:	800007b7          	lui	a5,0x80000
2001514e:	06c78793          	addi	a5,a5,108 # 8000006c <metal_segment_heap_target_end+0xffffe8cc>
E:\GitHub\HiFive01-RevB\FS_workspace\sifive_hifive1_revb_sifive_welcome\bsp\build\debug/./metal/machine.h:1267
}
20015152:	853e                	mv	a0,a5
20015154:	4472                	lw	s0,28(sp)
20015156:	6105                	addi	sp,sp,32
20015158:	8082                	ret

2001515a <__metal_driver_sifive_fe310_g000_hfxosc_config_base>:
__metal_driver_sifive_fe310_g000_hfxosc_config_base():
E:\GitHub\HiFive01-RevB\FS_workspace\sifive_hifive1_revb_sifive_welcome\bsp\build\debug/./metal/machine.h:1270
{
2001515a:	1101                	addi	sp,sp,-32
2001515c:	ce22                	sw	s0,28(sp)
2001515e:	1000                	addi	s0,sp,32
20015160:	fea42623          	sw	a0,-20(s0)
E:\GitHub\HiFive01-RevB\FS_workspace\sifive_hifive1_revb_sifive_welcome\bsp\build\debug/./metal/machine.h:1271
		return (struct __metal_driver_sifive_fe310_g000_prci *)&__metal_dt_prci_10008000;
20015164:	82818793          	addi	a5,gp,-2008 # 80000ad8 <__metal_dt_prci_10008000>
E:\GitHub\HiFive01-RevB\FS_workspace\sifive_hifive1_revb_sifive_welcome\bsp\build\debug/./metal/machine.h:1272
}
20015168:	853e                	mv	a0,a5
2001516a:	4472                	lw	s0,28(sp)
2001516c:	6105                	addi	sp,sp,32
2001516e:	8082                	ret

20015170 <__metal_driver_sifive_fe310_g000_hfxosc_config_offset>:
__metal_driver_sifive_fe310_g000_hfxosc_config_offset():
E:\GitHub\HiFive01-RevB\FS_workspace\sifive_hifive1_revb_sifive_welcome\bsp\build\debug/./metal/machine.h:1275
{
20015170:	1101                	addi	sp,sp,-32
20015172:	ce22                	sw	s0,28(sp)
20015174:	1000                	addi	s0,sp,32
20015176:	fea42623          	sw	a0,-20(s0)
E:\GitHub\HiFive01-RevB\FS_workspace\sifive_hifive1_revb_sifive_welcome\bsp\build\debug/./metal/machine.h:1276
		return METAL_SIFIVE_FE310_G000_PRCI_HFXOSCCFG;
2001517a:	4791                	li	a5,4
E:\GitHub\HiFive01-RevB\FS_workspace\sifive_hifive1_revb_sifive_welcome\bsp\build\debug/./metal/machine.h:1277
}
2001517c:	853e                	mv	a0,a5
2001517e:	4472                	lw	s0,28(sp)
20015180:	6105                	addi	sp,sp,32
20015182:	8082                	ret

20015184 <__metal_driver_sifive_fe310_g000_prci_vtable>:
__metal_driver_sifive_fe310_g000_prci_vtable():
E:\GitHub\HiFive01-RevB\FS_workspace\sifive_hifive1_revb_sifive_welcome\bsp\build\debug/./metal/machine.h:1374
{
20015184:	1141                	addi	sp,sp,-16
20015186:	c622                	sw	s0,12(sp)
20015188:	0800                	addi	s0,sp,16
E:\GitHub\HiFive01-RevB\FS_workspace\sifive_hifive1_revb_sifive_welcome\bsp\build\debug/./metal/machine.h:1375
		return &__metal_driver_vtable_sifive_fe310_g000_prci;
2001518a:	200117b7          	lui	a5,0x20011
2001518e:	3cc78793          	addi	a5,a5,972 # 200113cc <__metal_driver_vtable_sifive_fe310_g000_prci>
E:\GitHub\HiFive01-RevB\FS_workspace\sifive_hifive1_revb_sifive_welcome\bsp\build\debug/./metal/machine.h:1376
}
20015192:	853e                	mv	a0,a5
20015194:	4432                	lw	s0,12(sp)
20015196:	0141                	addi	sp,sp,16
20015198:	8082                	ret

2001519a <__metal_driver_sifive_fe310_g000_hfxosc_get_rate_hz>:
__metal_driver_sifive_fe310_g000_hfxosc_get_rate_hz():
E:/GitHub/HiFive01-RevB/FS_workspace/sifive_hifive1_revb_sifive_welcome/freedom-metal/src/drivers/sifive_fe310-g000_hfxosc.c:15

#define CONFIG_ENABLE 0x40000000UL
#define CONFIG_READY 0x80000000UL

long __metal_driver_sifive_fe310_g000_hfxosc_get_rate_hz(
    const struct metal_clock *clock) {
2001519a:	7139                	addi	sp,sp,-64
2001519c:	de06                	sw	ra,60(sp)
2001519e:	dc22                	sw	s0,56(sp)
200151a0:	0080                	addi	s0,sp,64
200151a2:	fca42623          	sw	a0,-52(s0)
E:/GitHub/HiFive01-RevB/FS_workspace/sifive_hifive1_revb_sifive_welcome/freedom-metal/src/drivers/sifive_fe310-g000_hfxosc.c:17
    struct metal_clock *ref =
        __metal_driver_sifive_fe310_g000_hfxosc_ref(clock);
200151a6:	fcc42503          	lw	a0,-52(s0)
200151aa:	3f59                	jal	20015140 <__metal_driver_sifive_fe310_g000_hfxosc_ref>
200151ac:	fea42623          	sw	a0,-20(s0)
E:/GitHub/HiFive01-RevB/FS_workspace/sifive_hifive1_revb_sifive_welcome/freedom-metal/src/drivers/sifive_fe310-g000_hfxosc.c:19
    long config_offset =
        __metal_driver_sifive_fe310_g000_hfxosc_config_offset(clock);
200151b0:	fcc42503          	lw	a0,-52(s0)
200151b4:	3f75                	jal	20015170 <__metal_driver_sifive_fe310_g000_hfxosc_config_offset>
200151b6:	fea42423          	sw	a0,-24(s0)
E:/GitHub/HiFive01-RevB/FS_workspace/sifive_hifive1_revb_sifive_welcome/freedom-metal/src/drivers/sifive_fe310-g000_hfxosc.c:21
    struct __metal_driver_sifive_fe310_g000_prci *config_base =
        __metal_driver_sifive_fe310_g000_hfxosc_config_base(clock);
200151ba:	fcc42503          	lw	a0,-52(s0)
200151be:	3f71                	jal	2001515a <__metal_driver_sifive_fe310_g000_hfxosc_config_base>
200151c0:	fea42223          	sw	a0,-28(s0)
E:/GitHub/HiFive01-RevB/FS_workspace/sifive_hifive1_revb_sifive_welcome/freedom-metal/src/drivers/sifive_fe310-g000_hfxosc.c:23
    const struct __metal_driver_vtable_sifive_fe310_g000_prci *vtable =
        __metal_driver_sifive_fe310_g000_prci_vtable();
200151c4:	37c1                	jal	20015184 <__metal_driver_sifive_fe310_g000_prci_vtable>
200151c6:	fea42023          	sw	a0,-32(s0)
E:/GitHub/HiFive01-RevB/FS_workspace/sifive_hifive1_revb_sifive_welcome/freedom-metal/src/drivers/sifive_fe310-g000_hfxosc.c:24
    long cfg = vtable->get_reg(config_base, config_offset);
200151ca:	fe042783          	lw	a5,-32(s0)
200151ce:	439c                	lw	a5,0(a5)
200151d0:	fe842583          	lw	a1,-24(s0)
200151d4:	fe442503          	lw	a0,-28(s0)
200151d8:	9782                	jalr	a5
200151da:	fca42e23          	sw	a0,-36(s0)
E:/GitHub/HiFive01-RevB/FS_workspace/sifive_hifive1_revb_sifive_welcome/freedom-metal/src/drivers/sifive_fe310-g000_hfxosc.c:26

    if ((cfg & CONFIG_ENABLE) == 0)
200151de:	fdc42703          	lw	a4,-36(s0)
200151e2:	400007b7          	lui	a5,0x40000
200151e6:	8ff9                	and	a5,a5,a4
200151e8:	e399                	bnez	a5,200151ee <__metal_driver_sifive_fe310_g000_hfxosc_get_rate_hz+0x54>
E:/GitHub/HiFive01-RevB/FS_workspace/sifive_hifive1_revb_sifive_welcome/freedom-metal/src/drivers/sifive_fe310-g000_hfxosc.c:27
        return -1;
200151ea:	57fd                	li	a5,-1
200151ec:	a821                	j	20015204 <__metal_driver_sifive_fe310_g000_hfxosc_get_rate_hz+0x6a>
E:/GitHub/HiFive01-RevB/FS_workspace/sifive_hifive1_revb_sifive_welcome/freedom-metal/src/drivers/sifive_fe310-g000_hfxosc.c:28
    if ((cfg & CONFIG_READY) == 0)
200151ee:	fdc42783          	lw	a5,-36(s0)
200151f2:	0007c463          	bltz	a5,200151fa <__metal_driver_sifive_fe310_g000_hfxosc_get_rate_hz+0x60>
E:/GitHub/HiFive01-RevB/FS_workspace/sifive_hifive1_revb_sifive_welcome/freedom-metal/src/drivers/sifive_fe310-g000_hfxosc.c:29
        return -1;
200151f6:	57fd                	li	a5,-1
200151f8:	a031                	j	20015204 <__metal_driver_sifive_fe310_g000_hfxosc_get_rate_hz+0x6a>
E:/GitHub/HiFive01-RevB/FS_workspace/sifive_hifive1_revb_sifive_welcome/freedom-metal/src/drivers/sifive_fe310-g000_hfxosc.c:30
    return metal_clock_get_rate_hz(ref);
200151fa:	fec42503          	lw	a0,-20(s0)
200151fe:	3fd010ef          	jal	ra,20016dfa <metal_clock_get_rate_hz>
20015202:	87aa                	mv	a5,a0
E:/GitHub/HiFive01-RevB/FS_workspace/sifive_hifive1_revb_sifive_welcome/freedom-metal/src/drivers/sifive_fe310-g000_hfxosc.c:31
}
20015204:	853e                	mv	a0,a5
20015206:	50f2                	lw	ra,60(sp)
20015208:	5462                	lw	s0,56(sp)
2001520a:	6121                	addi	sp,sp,64
2001520c:	8082                	ret

2001520e <__metal_driver_sifive_fe310_g000_hfxosc_set_rate_hz>:
__metal_driver_sifive_fe310_g000_hfxosc_set_rate_hz():
E:/GitHub/HiFive01-RevB/FS_workspace/sifive_hifive1_revb_sifive_welcome/freedom-metal/src/drivers/sifive_fe310-g000_hfxosc.c:34

long __metal_driver_sifive_fe310_g000_hfxosc_set_rate_hz(
    struct metal_clock *clock, long rate) {
2001520e:	1101                	addi	sp,sp,-32
20015210:	ce06                	sw	ra,28(sp)
20015212:	cc22                	sw	s0,24(sp)
20015214:	1000                	addi	s0,sp,32
20015216:	fea42623          	sw	a0,-20(s0)
2001521a:	feb42423          	sw	a1,-24(s0)
E:/GitHub/HiFive01-RevB/FS_workspace/sifive_hifive1_revb_sifive_welcome/freedom-metal/src/drivers/sifive_fe310-g000_hfxosc.c:35
    return __metal_driver_sifive_fe310_g000_hfxosc_get_rate_hz(clock);
2001521e:	fec42503          	lw	a0,-20(s0)
20015222:	3fa5                	jal	2001519a <__metal_driver_sifive_fe310_g000_hfxosc_get_rate_hz>
20015224:	87aa                	mv	a5,a0
E:/GitHub/HiFive01-RevB/FS_workspace/sifive_hifive1_revb_sifive_welcome/freedom-metal/src/drivers/sifive_fe310-g000_hfxosc.c:36
}
20015226:	853e                	mv	a0,a5
20015228:	40f2                	lw	ra,28(sp)
2001522a:	4462                	lw	s0,24(sp)
2001522c:	6105                	addi	sp,sp,32
2001522e:	8082                	ret

20015230 <__metal_driver_sifive_fe310_g000_pll_pllsel0>:
__metal_driver_sifive_fe310_g000_pll_pllsel0():
E:\GitHub\HiFive01-RevB\FS_workspace\sifive_hifive1_revb_sifive_welcome\bsp\build\debug/./metal/machine.h:1326
{
20015230:	1101                	addi	sp,sp,-32
20015232:	ce22                	sw	s0,28(sp)
20015234:	1000                	addi	s0,sp,32
20015236:	fea42623          	sw	a0,-20(s0)
E:\GitHub\HiFive01-RevB\FS_workspace\sifive_hifive1_revb_sifive_welcome\bsp\build\debug/./metal/machine.h:1327
		return (struct metal_clock *)&__metal_dt_clock_3.clock;
2001523a:	800017b7          	lui	a5,0x80001
2001523e:	a8878793          	addi	a5,a5,-1400 # 80000a88 <metal_segment_heap_target_end+0xfffff2e8>
E:\GitHub\HiFive01-RevB\FS_workspace\sifive_hifive1_revb_sifive_welcome\bsp\build\debug/./metal/machine.h:1328
}
20015242:	853e                	mv	a0,a5
20015244:	4472                	lw	s0,28(sp)
20015246:	6105                	addi	sp,sp,32
20015248:	8082                	ret

2001524a <__metal_driver_sifive_fe310_g000_pll_pllref>:
__metal_driver_sifive_fe310_g000_pll_pllref():
E:\GitHub\HiFive01-RevB\FS_workspace\sifive_hifive1_revb_sifive_welcome\bsp\build\debug/./metal/machine.h:1331
{
2001524a:	1101                	addi	sp,sp,-32
2001524c:	ce22                	sw	s0,28(sp)
2001524e:	1000                	addi	s0,sp,32
20015250:	fea42623          	sw	a0,-20(s0)
E:\GitHub\HiFive01-RevB\FS_workspace\sifive_hifive1_revb_sifive_welcome\bsp\build\debug/./metal/machine.h:1332
		return (struct metal_clock *)&__metal_dt_clock_1.clock;
20015254:	800017b7          	lui	a5,0x80001
20015258:	a9478793          	addi	a5,a5,-1388 # 80000a94 <metal_segment_heap_target_end+0xfffff2f4>
E:\GitHub\HiFive01-RevB\FS_workspace\sifive_hifive1_revb_sifive_welcome\bsp\build\debug/./metal/machine.h:1333
}
2001525c:	853e                	mv	a0,a5
2001525e:	4472                	lw	s0,28(sp)
20015260:	6105                	addi	sp,sp,32
20015262:	8082                	ret

20015264 <__metal_driver_sifive_fe310_g000_pll_divider_base>:
__metal_driver_sifive_fe310_g000_pll_divider_base():
E:\GitHub\HiFive01-RevB\FS_workspace\sifive_hifive1_revb_sifive_welcome\bsp\build\debug/./metal/machine.h:1336
{
20015264:	1101                	addi	sp,sp,-32
20015266:	ce22                	sw	s0,28(sp)
20015268:	1000                	addi	s0,sp,32
2001526a:	fea42623          	sw	a0,-20(s0)
E:\GitHub\HiFive01-RevB\FS_workspace\sifive_hifive1_revb_sifive_welcome\bsp\build\debug/./metal/machine.h:1337
		return (struct __metal_driver_sifive_fe310_g000_prci *)&__metal_dt_prci_10008000;
2001526e:	82818793          	addi	a5,gp,-2008 # 80000ad8 <__metal_dt_prci_10008000>
E:\GitHub\HiFive01-RevB\FS_workspace\sifive_hifive1_revb_sifive_welcome\bsp\build\debug/./metal/machine.h:1338
}
20015272:	853e                	mv	a0,a5
20015274:	4472                	lw	s0,28(sp)
20015276:	6105                	addi	sp,sp,32
20015278:	8082                	ret

2001527a <__metal_driver_sifive_fe310_g000_pll_divider_offset>:
__metal_driver_sifive_fe310_g000_pll_divider_offset():
E:\GitHub\HiFive01-RevB\FS_workspace\sifive_hifive1_revb_sifive_welcome\bsp\build\debug/./metal/machine.h:1341
{
2001527a:	1101                	addi	sp,sp,-32
2001527c:	ce22                	sw	s0,28(sp)
2001527e:	1000                	addi	s0,sp,32
20015280:	fea42623          	sw	a0,-20(s0)
E:\GitHub\HiFive01-RevB\FS_workspace\sifive_hifive1_revb_sifive_welcome\bsp\build\debug/./metal/machine.h:1342
		return METAL_SIFIVE_FE310_G000_PRCI_PLLOUTDIV;
20015284:	47b1                	li	a5,12
E:\GitHub\HiFive01-RevB\FS_workspace\sifive_hifive1_revb_sifive_welcome\bsp\build\debug/./metal/machine.h:1343
}
20015286:	853e                	mv	a0,a5
20015288:	4472                	lw	s0,28(sp)
2001528a:	6105                	addi	sp,sp,32
2001528c:	8082                	ret

2001528e <__metal_driver_sifive_fe310_g000_pll_config_base>:
__metal_driver_sifive_fe310_g000_pll_config_base():
E:\GitHub\HiFive01-RevB\FS_workspace\sifive_hifive1_revb_sifive_welcome\bsp\build\debug/./metal/machine.h:1346
{
2001528e:	1141                	addi	sp,sp,-16
20015290:	c622                	sw	s0,12(sp)
20015292:	0800                	addi	s0,sp,16
E:\GitHub\HiFive01-RevB\FS_workspace\sifive_hifive1_revb_sifive_welcome\bsp\build\debug/./metal/machine.h:1347
		return (struct __metal_driver_sifive_fe310_g000_prci *)&__metal_dt_prci_10008000;
20015294:	82818793          	addi	a5,gp,-2008 # 80000ad8 <__metal_dt_prci_10008000>
E:\GitHub\HiFive01-RevB\FS_workspace\sifive_hifive1_revb_sifive_welcome\bsp\build\debug/./metal/machine.h:1348
}
20015298:	853e                	mv	a0,a5
2001529a:	4432                	lw	s0,12(sp)
2001529c:	0141                	addi	sp,sp,16
2001529e:	8082                	ret

200152a0 <__metal_driver_sifive_fe310_g000_pll_config_offset>:
__metal_driver_sifive_fe310_g000_pll_config_offset():
E:\GitHub\HiFive01-RevB\FS_workspace\sifive_hifive1_revb_sifive_welcome\bsp\build\debug/./metal/machine.h:1351
{
200152a0:	1141                	addi	sp,sp,-16
200152a2:	c622                	sw	s0,12(sp)
200152a4:	0800                	addi	s0,sp,16
E:\GitHub\HiFive01-RevB\FS_workspace\sifive_hifive1_revb_sifive_welcome\bsp\build\debug/./metal/machine.h:1352
		return METAL_SIFIVE_FE310_G000_PRCI_PLLCFG;
200152a6:	47a1                	li	a5,8
E:\GitHub\HiFive01-RevB\FS_workspace\sifive_hifive1_revb_sifive_welcome\bsp\build\debug/./metal/machine.h:1353
}
200152a8:	853e                	mv	a0,a5
200152aa:	4432                	lw	s0,12(sp)
200152ac:	0141                	addi	sp,sp,16
200152ae:	8082                	ret

200152b0 <__metal_driver_sifive_fe310_g000_pll_init_rate>:
__metal_driver_sifive_fe310_g000_pll_init_rate():
E:\GitHub\HiFive01-RevB\FS_workspace\sifive_hifive1_revb_sifive_welcome\bsp\build\debug/./metal/machine.h:1356
{
200152b0:	1141                	addi	sp,sp,-16
200152b2:	c622                	sw	s0,12(sp)
200152b4:	0800                	addi	s0,sp,16
E:\GitHub\HiFive01-RevB\FS_workspace\sifive_hifive1_revb_sifive_welcome\bsp\build\debug/./metal/machine.h:1357
		return 16000000;
200152b6:	00f427b7          	lui	a5,0xf42
200152ba:	40078793          	addi	a5,a5,1024 # f42400 <__heap_size+0xf41c00>
E:\GitHub\HiFive01-RevB\FS_workspace\sifive_hifive1_revb_sifive_welcome\bsp\build\debug/./metal/machine.h:1358
}
200152be:	853e                	mv	a0,a5
200152c0:	4432                	lw	s0,12(sp)
200152c2:	0141                	addi	sp,sp,16
200152c4:	8082                	ret

200152c6 <__metal_driver_sifive_fe310_g000_prci_base>:
__metal_driver_sifive_fe310_g000_prci_base():
E:\GitHub\HiFive01-RevB\FS_workspace\sifive_hifive1_revb_sifive_welcome\bsp\build\debug/./metal/machine.h:1364
{
200152c6:	1141                	addi	sp,sp,-16
200152c8:	c622                	sw	s0,12(sp)
200152ca:	0800                	addi	s0,sp,16
E:\GitHub\HiFive01-RevB\FS_workspace\sifive_hifive1_revb_sifive_welcome\bsp\build\debug/./metal/machine.h:1365
		return METAL_SIFIVE_FE310_G000_PRCI_10008000_BASE_ADDRESS;
200152cc:	100087b7          	lui	a5,0x10008
E:\GitHub\HiFive01-RevB\FS_workspace\sifive_hifive1_revb_sifive_welcome\bsp\build\debug/./metal/machine.h:1366
}
200152d0:	853e                	mv	a0,a5
200152d2:	4432                	lw	s0,12(sp)
200152d4:	0141                	addi	sp,sp,16
200152d6:	8082                	ret

200152d8 <__metal_driver_sifive_fe310_g000_prci_vtable>:
__metal_driver_sifive_fe310_g000_prci_vtable():
E:\GitHub\HiFive01-RevB\FS_workspace\sifive_hifive1_revb_sifive_welcome\bsp\build\debug/./metal/machine.h:1374
{
200152d8:	1141                	addi	sp,sp,-16
200152da:	c622                	sw	s0,12(sp)
200152dc:	0800                	addi	s0,sp,16
E:\GitHub\HiFive01-RevB\FS_workspace\sifive_hifive1_revb_sifive_welcome\bsp\build\debug/./metal/machine.h:1375
		return &__metal_driver_vtable_sifive_fe310_g000_prci;
200152de:	200117b7          	lui	a5,0x20011
200152e2:	3cc78793          	addi	a5,a5,972 # 200113cc <__metal_driver_vtable_sifive_fe310_g000_prci>
E:\GitHub\HiFive01-RevB\FS_workspace\sifive_hifive1_revb_sifive_welcome\bsp\build\debug/./metal/machine.h:1376
}
200152e6:	853e                	mv	a0,a5
200152e8:	4432                	lw	s0,12(sp)
200152ea:	0141                	addi	sp,sp,16
200152ec:	8082                	ret

200152ee <get_pll_config_freq>:
get_pll_config_freq():
E:/GitHub/HiFive01-RevB/FS_workspace/sifive_hifive1_revb_sifive_welcome/freedom-metal/src/drivers/sifive_fe310-g000_pll.c:141
                                const struct pll_config_t *config) {
200152ee:	1101                	addi	sp,sp,-32
200152f0:	ce22                	sw	s0,28(sp)
200152f2:	1000                	addi	s0,sp,32
200152f4:	fea42623          	sw	a0,-20(s0)
200152f8:	feb42423          	sw	a1,-24(s0)
E:/GitHub/HiFive01-RevB/FS_workspace/sifive_hifive1_revb_sifive_welcome/freedom-metal/src/drivers/sifive_fe310-g000_pll.c:142
    if (pll_input_rate < config->min_input_rate ||
200152fc:	fe842783          	lw	a5,-24(s0)
20015300:	479c                	lw	a5,8(a5)
20015302:	fec42703          	lw	a4,-20(s0)
20015306:	00f76963          	bltu	a4,a5,20015318 <get_pll_config_freq+0x2a>
E:/GitHub/HiFive01-RevB/FS_workspace/sifive_hifive1_revb_sifive_welcome/freedom-metal/src/drivers/sifive_fe310-g000_pll.c:143 (discriminator 1)
        pll_input_rate > config->max_input_rate)
2001530a:	fe842783          	lw	a5,-24(s0)
2001530e:	47dc                	lw	a5,12(a5)
E:/GitHub/HiFive01-RevB/FS_workspace/sifive_hifive1_revb_sifive_welcome/freedom-metal/src/drivers/sifive_fe310-g000_pll.c:142 (discriminator 1)
    if (pll_input_rate < config->min_input_rate ||
20015310:	fec42703          	lw	a4,-20(s0)
20015314:	00e7f463          	bgeu	a5,a4,2001531c <get_pll_config_freq+0x2e>
E:/GitHub/HiFive01-RevB/FS_workspace/sifive_hifive1_revb_sifive_welcome/freedom-metal/src/drivers/sifive_fe310-g000_pll.c:144
        return PLL_CONFIG_NOT_VALID;
20015318:	57fd                	li	a5,-1
2001531a:	a829                	j	20015334 <get_pll_config_freq+0x46>
E:/GitHub/HiFive01-RevB/FS_workspace/sifive_hifive1_revb_sifive_welcome/freedom-metal/src/drivers/sifive_fe310-g000_pll.c:146
    return pll_input_rate * config->multiplier / config->divisor;
2001531c:	fe842783          	lw	a5,-24(s0)
20015320:	4398                	lw	a4,0(a5)
20015322:	fec42783          	lw	a5,-20(s0)
20015326:	02f70733          	mul	a4,a4,a5
2001532a:	fe842783          	lw	a5,-24(s0)
2001532e:	43dc                	lw	a5,4(a5)
20015330:	02f757b3          	divu	a5,a4,a5
E:/GitHub/HiFive01-RevB/FS_workspace/sifive_hifive1_revb_sifive_welcome/freedom-metal/src/drivers/sifive_fe310-g000_pll.c:147
}
20015334:	853e                	mv	a0,a5
20015336:	4472                	lw	s0,28(sp)
20015338:	6105                	addi	sp,sp,32
2001533a:	8082                	ret

2001533c <__metal_driver_sifive_fe310_g000_pll_init>:
__metal_driver_sifive_fe310_g000_pll_init():
E:/GitHub/HiFive01-RevB/FS_workspace/sifive_hifive1_revb_sifive_welcome/freedom-metal/src/drivers/sifive_fe310-g000_pll.c:162
    struct __metal_driver_sifive_fe310_g000_pll *pll) {
2001533c:	7139                	addi	sp,sp,-64
2001533e:	de06                	sw	ra,60(sp)
20015340:	dc22                	sw	s0,56(sp)
20015342:	0080                	addi	s0,sp,64
20015344:	fca42623          	sw	a0,-52(s0)
E:/GitHub/HiFive01-RevB/FS_workspace/sifive_hifive1_revb_sifive_welcome/freedom-metal/src/drivers/sifive_fe310-g000_pll.c:164
        __metal_driver_sifive_fe310_g000_pll_pllref(&(pll->clock));
20015348:	fcc42783          	lw	a5,-52(s0)
2001534c:	853e                	mv	a0,a5
2001534e:	3df5                	jal	2001524a <__metal_driver_sifive_fe310_g000_pll_pllref>
20015350:	fea42623          	sw	a0,-20(s0)
E:/GitHub/HiFive01-RevB/FS_workspace/sifive_hifive1_revb_sifive_welcome/freedom-metal/src/drivers/sifive_fe310-g000_pll.c:165
    long init_rate = __metal_driver_sifive_fe310_g000_pll_init_rate();
20015354:	3fb1                	jal	200152b0 <__metal_driver_sifive_fe310_g000_pll_init_rate>
20015356:	fea42423          	sw	a0,-24(s0)
E:/GitHub/HiFive01-RevB/FS_workspace/sifive_hifive1_revb_sifive_welcome/freedom-metal/src/drivers/sifive_fe310-g000_pll.c:166
    long config_offset = __metal_driver_sifive_fe310_g000_pll_config_offset();
2001535a:	3799                	jal	200152a0 <__metal_driver_sifive_fe310_g000_pll_config_offset>
2001535c:	fea42223          	sw	a0,-28(s0)
E:/GitHub/HiFive01-RevB/FS_workspace/sifive_hifive1_revb_sifive_welcome/freedom-metal/src/drivers/sifive_fe310-g000_pll.c:167
    long base = __metal_driver_sifive_fe310_g000_prci_base();
20015360:	379d                	jal	200152c6 <__metal_driver_sifive_fe310_g000_prci_base>
20015362:	fea42023          	sw	a0,-32(s0)
E:/GitHub/HiFive01-RevB/FS_workspace/sifive_hifive1_revb_sifive_welcome/freedom-metal/src/drivers/sifive_fe310-g000_pll.c:169
    __metal_io_u32 *pllcfg = (__metal_io_u32 *)(base + config_offset);
20015366:	fe042703          	lw	a4,-32(s0)
2001536a:	fe442783          	lw	a5,-28(s0)
2001536e:	97ba                	add	a5,a5,a4
20015370:	fcf42e23          	sw	a5,-36(s0)
E:/GitHub/HiFive01-RevB/FS_workspace/sifive_hifive1_revb_sifive_welcome/freedom-metal/src/drivers/sifive_fe310-g000_pll.c:173
    _metal_clock_call_all_callbacks(pll->clock._pre_rate_change_callback);
20015374:	fcc42783          	lw	a5,-52(s0)
20015378:	43dc                	lw	a5,4(a5)
2001537a:	853e                	mv	a0,a5
2001537c:	1e9010ef          	jal	ra,20016d64 <_metal_clock_call_all_callbacks>
E:/GitHub/HiFive01-RevB/FS_workspace/sifive_hifive1_revb_sifive_welcome/freedom-metal/src/drivers/sifive_fe310-g000_pll.c:177
    if ((__METAL_ACCESS_ONCE(pllcfg) & PLL_SEL) != 0)
20015380:	fdc42783          	lw	a5,-36(s0)
20015384:	4398                	lw	a4,0(a5)
20015386:	67c1                	lui	a5,0x10
20015388:	8ff9                	and	a5,a5,a4
2001538a:	cb91                	beqz	a5,2001539e <__metal_driver_sifive_fe310_g000_pll_init+0x62>
E:/GitHub/HiFive01-RevB/FS_workspace/sifive_hifive1_revb_sifive_welcome/freedom-metal/src/drivers/sifive_fe310-g000_pll.c:178
        __METAL_ACCESS_ONCE(pllcfg) &= ~(PLL_SEL);
2001538c:	fdc42783          	lw	a5,-36(s0)
20015390:	4398                	lw	a4,0(a5)
20015392:	77c1                	lui	a5,0xffff0
20015394:	17fd                	addi	a5,a5,-1
20015396:	8f7d                	and	a4,a4,a5
20015398:	fdc42783          	lw	a5,-36(s0)
2001539c:	c398                	sw	a4,0(a5)
E:/GitHub/HiFive01-RevB/FS_workspace/sifive_hifive1_revb_sifive_welcome/freedom-metal/src/drivers/sifive_fe310-g000_pll.c:181
    if (pllref != NULL)
2001539e:	fec42783          	lw	a5,-20(s0)
200153a2:	cb91                	beqz	a5,200153b6 <__metal_driver_sifive_fe310_g000_pll_init+0x7a>
E:/GitHub/HiFive01-RevB/FS_workspace/sifive_hifive1_revb_sifive_welcome/freedom-metal/src/drivers/sifive_fe310-g000_pll.c:182
        __METAL_ACCESS_ONCE(pllcfg) |= PLL_REFSEL;
200153a4:	fdc42783          	lw	a5,-36(s0)
200153a8:	4398                	lw	a4,0(a5)
200153aa:	000207b7          	lui	a5,0x20
200153ae:	8f5d                	or	a4,a4,a5
200153b0:	fdc42783          	lw	a5,-36(s0)
200153b4:	c398                	sw	a4,0(a5)
E:/GitHub/HiFive01-RevB/FS_workspace/sifive_hifive1_revb_sifive_welcome/freedom-metal/src/drivers/sifive_fe310-g000_pll.c:187
    pll->clock.vtable->set_rate_hz(&(pll->clock), init_rate);
200153b6:	fcc42783          	lw	a5,-52(s0)
200153ba:	439c                	lw	a5,0(a5)
200153bc:	43d8                	lw	a4,4(a5)
200153be:	fcc42783          	lw	a5,-52(s0)
200153c2:	fe842583          	lw	a1,-24(s0)
200153c6:	853e                	mv	a0,a5
200153c8:	9702                	jalr	a4
E:/GitHub/HiFive01-RevB/FS_workspace/sifive_hifive1_revb_sifive_welcome/freedom-metal/src/drivers/sifive_fe310-g000_pll.c:190
    _metal_clock_call_all_callbacks(pll->clock._post_rate_change_callback);
200153ca:	fcc42783          	lw	a5,-52(s0)
200153ce:	479c                	lw	a5,8(a5)
200153d0:	853e                	mv	a0,a5
200153d2:	193010ef          	jal	ra,20016d64 <_metal_clock_call_all_callbacks>
E:/GitHub/HiFive01-RevB/FS_workspace/sifive_hifive1_revb_sifive_welcome/freedom-metal/src/drivers/sifive_fe310-g000_pll.c:191
}
200153d6:	0001                	nop
200153d8:	50f2                	lw	ra,60(sp)
200153da:	5462                	lw	s0,56(sp)
200153dc:	6121                	addi	sp,sp,64
200153de:	8082                	ret

200153e0 <__metal_driver_sifive_fe310_g000_pll_get_rate_hz>:
__metal_driver_sifive_fe310_g000_pll_get_rate_hz():
E:/GitHub/HiFive01-RevB/FS_workspace/sifive_hifive1_revb_sifive_welcome/freedom-metal/src/drivers/sifive_fe310-g000_pll.c:194
    const struct metal_clock *clock) {
200153e0:	711d                	addi	sp,sp,-96
200153e2:	ce86                	sw	ra,92(sp)
200153e4:	cca2                	sw	s0,88(sp)
200153e6:	1080                	addi	s0,sp,96
200153e8:	faa42623          	sw	a0,-84(s0)
E:/GitHub/HiFive01-RevB/FS_workspace/sifive_hifive1_revb_sifive_welcome/freedom-metal/src/drivers/sifive_fe310-g000_pll.c:196
        __metal_driver_sifive_fe310_g000_pll_pllref(clock);
200153ec:	fac42503          	lw	a0,-84(s0)
200153f0:	e5bff0ef          	jal	ra,2001524a <__metal_driver_sifive_fe310_g000_pll_pllref>
200153f4:	fea42623          	sw	a0,-20(s0)
E:/GitHub/HiFive01-RevB/FS_workspace/sifive_hifive1_revb_sifive_welcome/freedom-metal/src/drivers/sifive_fe310-g000_pll.c:198
        __metal_driver_sifive_fe310_g000_pll_pllsel0(clock);
200153f8:	fac42503          	lw	a0,-84(s0)
200153fc:	e35ff0ef          	jal	ra,20015230 <__metal_driver_sifive_fe310_g000_pll_pllsel0>
20015400:	fea42423          	sw	a0,-24(s0)
E:/GitHub/HiFive01-RevB/FS_workspace/sifive_hifive1_revb_sifive_welcome/freedom-metal/src/drivers/sifive_fe310-g000_pll.c:200
        __metal_driver_sifive_fe310_g000_pll_config_offset(clock);
20015404:	fac42503          	lw	a0,-84(s0)
20015408:	e99ff0ef          	jal	ra,200152a0 <__metal_driver_sifive_fe310_g000_pll_config_offset>
2001540c:	fea42223          	sw	a0,-28(s0)
E:/GitHub/HiFive01-RevB/FS_workspace/sifive_hifive1_revb_sifive_welcome/freedom-metal/src/drivers/sifive_fe310-g000_pll.c:202
        __metal_driver_sifive_fe310_g000_pll_config_base(clock);
20015410:	fac42503          	lw	a0,-84(s0)
20015414:	e7bff0ef          	jal	ra,2001528e <__metal_driver_sifive_fe310_g000_pll_config_base>
20015418:	fea42023          	sw	a0,-32(s0)
E:/GitHub/HiFive01-RevB/FS_workspace/sifive_hifive1_revb_sifive_welcome/freedom-metal/src/drivers/sifive_fe310-g000_pll.c:204
        __metal_driver_sifive_fe310_g000_pll_divider_offset(clock);
2001541c:	fac42503          	lw	a0,-84(s0)
20015420:	e5bff0ef          	jal	ra,2001527a <__metal_driver_sifive_fe310_g000_pll_divider_offset>
20015424:	fca42e23          	sw	a0,-36(s0)
E:/GitHub/HiFive01-RevB/FS_workspace/sifive_hifive1_revb_sifive_welcome/freedom-metal/src/drivers/sifive_fe310-g000_pll.c:206
        __metal_driver_sifive_fe310_g000_pll_divider_base(clock);
20015428:	fac42503          	lw	a0,-84(s0)
2001542c:	e39ff0ef          	jal	ra,20015264 <__metal_driver_sifive_fe310_g000_pll_divider_base>
20015430:	fca42c23          	sw	a0,-40(s0)
E:/GitHub/HiFive01-RevB/FS_workspace/sifive_hifive1_revb_sifive_welcome/freedom-metal/src/drivers/sifive_fe310-g000_pll.c:208
        __metal_driver_sifive_fe310_g000_prci_vtable();
20015434:	3555                	jal	200152d8 <__metal_driver_sifive_fe310_g000_prci_vtable>
20015436:	fca42a23          	sw	a0,-44(s0)
E:/GitHub/HiFive01-RevB/FS_workspace/sifive_hifive1_revb_sifive_welcome/freedom-metal/src/drivers/sifive_fe310-g000_pll.c:210
    long cfg = vtable->get_reg(config_base, config_offset);
2001543a:	fd442783          	lw	a5,-44(s0)
2001543e:	439c                	lw	a5,0(a5)
20015440:	fe442583          	lw	a1,-28(s0)
20015444:	fe042503          	lw	a0,-32(s0)
20015448:	9782                	jalr	a5
2001544a:	fca42823          	sw	a0,-48(s0)
E:/GitHub/HiFive01-RevB/FS_workspace/sifive_hifive1_revb_sifive_welcome/freedom-metal/src/drivers/sifive_fe310-g000_pll.c:211
    long div = vtable->get_reg(divider_base, divider_offset);
2001544e:	fd442783          	lw	a5,-44(s0)
20015452:	439c                	lw	a5,0(a5)
20015454:	fdc42583          	lw	a1,-36(s0)
20015458:	fd842503          	lw	a0,-40(s0)
2001545c:	9782                	jalr	a5
2001545e:	fca42623          	sw	a0,-52(s0)
E:/GitHub/HiFive01-RevB/FS_workspace/sifive_hifive1_revb_sifive_welcome/freedom-metal/src/drivers/sifive_fe310-g000_pll.c:215
    if (__METAL_GET_FIELD(cfg, PLL_SEL) == 0)
20015462:	fd042703          	lw	a4,-48(s0)
20015466:	67c1                	lui	a5,0x10
20015468:	8f7d                	and	a4,a4,a5
2001546a:	67c1                	lui	a5,0x10
2001546c:	00f77863          	bgeu	a4,a5,2001547c <__metal_driver_sifive_fe310_g000_pll_get_rate_hz+0x9c>
E:/GitHub/HiFive01-RevB/FS_workspace/sifive_hifive1_revb_sifive_welcome/freedom-metal/src/drivers/sifive_fe310-g000_pll.c:216
        return metal_clock_get_rate_hz(pllsel0);
20015470:	fe842503          	lw	a0,-24(s0)
20015474:	187010ef          	jal	ra,20016dfa <metal_clock_get_rate_hz>
20015478:	87aa                	mv	a5,a0
2001547a:	a8e1                	j	20015552 <__metal_driver_sifive_fe310_g000_pll_get_rate_hz+0x172>
E:/GitHub/HiFive01-RevB/FS_workspace/sifive_hifive1_revb_sifive_welcome/freedom-metal/src/drivers/sifive_fe310-g000_pll.c:221
        __METAL_GET_FIELD(cfg, PLL_REFSEL) ? pllref : pllsel0);
2001547c:	fd042703          	lw	a4,-48(s0)
20015480:	000207b7          	lui	a5,0x20
20015484:	8f7d                	and	a4,a4,a5
E:/GitHub/HiFive01-RevB/FS_workspace/sifive_hifive1_revb_sifive_welcome/freedom-metal/src/drivers/sifive_fe310-g000_pll.c:220
    long ref_hz = metal_clock_get_rate_hz(
20015486:	000207b7          	lui	a5,0x20
2001548a:	00f76563          	bltu	a4,a5,20015494 <__metal_driver_sifive_fe310_g000_pll_get_rate_hz+0xb4>
E:/GitHub/HiFive01-RevB/FS_workspace/sifive_hifive1_revb_sifive_welcome/freedom-metal/src/drivers/sifive_fe310-g000_pll.c:220 (discriminator 1)
2001548e:	fec42783          	lw	a5,-20(s0)
20015492:	a019                	j	20015498 <__metal_driver_sifive_fe310_g000_pll_get_rate_hz+0xb8>
E:/GitHub/HiFive01-RevB/FS_workspace/sifive_hifive1_revb_sifive_welcome/freedom-metal/src/drivers/sifive_fe310-g000_pll.c:220 (discriminator 2)
20015494:	fe842783          	lw	a5,-24(s0)
E:/GitHub/HiFive01-RevB/FS_workspace/sifive_hifive1_revb_sifive_welcome/freedom-metal/src/drivers/sifive_fe310-g000_pll.c:220 (discriminator 4)
20015498:	853e                	mv	a0,a5
2001549a:	161010ef          	jal	ra,20016dfa <metal_clock_get_rate_hz>
2001549e:	fca42423          	sw	a0,-56(s0)
E:/GitHub/HiFive01-RevB/FS_workspace/sifive_hifive1_revb_sifive_welcome/freedom-metal/src/drivers/sifive_fe310-g000_pll.c:225 (discriminator 4)
    if (__METAL_GET_FIELD(cfg, PLL_BYPASS))
200154a2:	fd042703          	lw	a4,-48(s0)
200154a6:	000407b7          	lui	a5,0x40
200154aa:	8f7d                	and	a4,a4,a5
200154ac:	000407b7          	lui	a5,0x40
200154b0:	00f76563          	bltu	a4,a5,200154ba <__metal_driver_sifive_fe310_g000_pll_get_rate_hz+0xda>
E:/GitHub/HiFive01-RevB/FS_workspace/sifive_hifive1_revb_sifive_welcome/freedom-metal/src/drivers/sifive_fe310-g000_pll.c:226
        return ref_hz;
200154b4:	fc842783          	lw	a5,-56(s0)
200154b8:	a869                	j	20015552 <__metal_driver_sifive_fe310_g000_pll_get_rate_hz+0x172>
E:/GitHub/HiFive01-RevB/FS_workspace/sifive_hifive1_revb_sifive_welcome/freedom-metal/src/drivers/sifive_fe310-g000_pll.c:229
    long div_r = __METAL_GET_FIELD(cfg, PLL_R) + 1;
200154ba:	fd042783          	lw	a5,-48(s0)
200154be:	8b9d                	andi	a5,a5,7
200154c0:	0785                	addi	a5,a5,1
200154c2:	fcf42223          	sw	a5,-60(s0)
E:/GitHub/HiFive01-RevB/FS_workspace/sifive_hifive1_revb_sifive_welcome/freedom-metal/src/drivers/sifive_fe310-g000_pll.c:230
    long mul_f = 2 * (__METAL_GET_FIELD(cfg, PLL_F) + 1);
200154c6:	fd042783          	lw	a5,-48(s0)
200154ca:	3f07f793          	andi	a5,a5,1008
200154ce:	8391                	srli	a5,a5,0x4
200154d0:	0785                	addi	a5,a5,1
200154d2:	0786                	slli	a5,a5,0x1
200154d4:	fcf42023          	sw	a5,-64(s0)
E:/GitHub/HiFive01-RevB/FS_workspace/sifive_hifive1_revb_sifive_welcome/freedom-metal/src/drivers/sifive_fe310-g000_pll.c:231
    if (__METAL_GET_FIELD(cfg, PLL_Q) == 0)
200154d8:	fd042703          	lw	a4,-48(s0)
200154dc:	6785                	lui	a5,0x1
200154de:	c0078793          	addi	a5,a5,-1024 # c00 <__heap_size+0x400>
200154e2:	8f7d                	and	a4,a4,a5
200154e4:	3ff00793          	li	a5,1023
200154e8:	00e7e463          	bltu	a5,a4,200154f0 <__metal_driver_sifive_fe310_g000_pll_get_rate_hz+0x110>
E:/GitHub/HiFive01-RevB/FS_workspace/sifive_hifive1_revb_sifive_welcome/freedom-metal/src/drivers/sifive_fe310-g000_pll.c:232
        return -1;
200154ec:	57fd                	li	a5,-1
200154ee:	a095                	j	20015552 <__metal_driver_sifive_fe310_g000_pll_get_rate_hz+0x172>
E:/GitHub/HiFive01-RevB/FS_workspace/sifive_hifive1_revb_sifive_welcome/freedom-metal/src/drivers/sifive_fe310-g000_pll.c:233
    long div_q = 1 << __METAL_GET_FIELD(cfg, PLL_Q);
200154f0:	fd042703          	lw	a4,-48(s0)
200154f4:	6785                	lui	a5,0x1
200154f6:	c0078793          	addi	a5,a5,-1024 # c00 <__heap_size+0x400>
200154fa:	8ff9                	and	a5,a5,a4
200154fc:	83a9                	srli	a5,a5,0xa
200154fe:	4705                	li	a4,1
20015500:	00f717b3          	sll	a5,a4,a5
20015504:	faf42e23          	sw	a5,-68(s0)
E:/GitHub/HiFive01-RevB/FS_workspace/sifive_hifive1_revb_sifive_welcome/freedom-metal/src/drivers/sifive_fe310-g000_pll.c:238
    long pllout = (((ref_hz / div_r) * mul_f) / div_q);
20015508:	fc842703          	lw	a4,-56(s0)
2001550c:	fc442783          	lw	a5,-60(s0)
20015510:	02f74733          	div	a4,a4,a5
20015514:	fc042783          	lw	a5,-64(s0)
20015518:	02f70733          	mul	a4,a4,a5
2001551c:	fbc42783          	lw	a5,-68(s0)
20015520:	02f747b3          	div	a5,a4,a5
20015524:	faf42c23          	sw	a5,-72(s0)
E:/GitHub/HiFive01-RevB/FS_workspace/sifive_hifive1_revb_sifive_welcome/freedom-metal/src/drivers/sifive_fe310-g000_pll.c:239
    if (__METAL_GET_FIELD(div, DIV_1))
20015528:	fcc42783          	lw	a5,-52(s0)
2001552c:	1007f713          	andi	a4,a5,256
20015530:	0ff00793          	li	a5,255
20015534:	00e7f563          	bgeu	a5,a4,2001553e <__metal_driver_sifive_fe310_g000_pll_get_rate_hz+0x15e>
E:/GitHub/HiFive01-RevB/FS_workspace/sifive_hifive1_revb_sifive_welcome/freedom-metal/src/drivers/sifive_fe310-g000_pll.c:240
        return pllout;
20015538:	fb842783          	lw	a5,-72(s0)
2001553c:	a819                	j	20015552 <__metal_driver_sifive_fe310_g000_pll_get_rate_hz+0x172>
E:/GitHub/HiFive01-RevB/FS_workspace/sifive_hifive1_revb_sifive_welcome/freedom-metal/src/drivers/sifive_fe310-g000_pll.c:242
    return pllout / (2 * (__METAL_GET_FIELD(div, DIV_DIV) + 1));
2001553e:	fb842703          	lw	a4,-72(s0)
20015542:	fcc42783          	lw	a5,-52(s0)
20015546:	03f7f793          	andi	a5,a5,63
2001554a:	0785                	addi	a5,a5,1
2001554c:	0786                	slli	a5,a5,0x1
2001554e:	02f757b3          	divu	a5,a4,a5
E:/GitHub/HiFive01-RevB/FS_workspace/sifive_hifive1_revb_sifive_welcome/freedom-metal/src/drivers/sifive_fe310-g000_pll.c:243
}
20015552:	853e                	mv	a0,a5
20015554:	40f6                	lw	ra,92(sp)
20015556:	4466                	lw	s0,88(sp)
20015558:	6125                	addi	sp,sp,96
2001555a:	8082                	ret

2001555c <find_closest_config>:
find_closest_config():
E:/GitHub/HiFive01-RevB/FS_workspace/sifive_hifive1_revb_sifive_welcome/freedom-metal/src/drivers/sifive_fe310-g000_pll.c:253
static int find_closest_config(long ref_hz, long rate) {
2001555c:	7139                	addi	sp,sp,-64
2001555e:	de06                	sw	ra,60(sp)
20015560:	dc22                	sw	s0,56(sp)
20015562:	0080                	addi	s0,sp,64
20015564:	fca42623          	sw	a0,-52(s0)
20015568:	fcb42423          	sw	a1,-56(s0)
E:/GitHub/HiFive01-RevB/FS_workspace/sifive_hifive1_revb_sifive_welcome/freedom-metal/src/drivers/sifive_fe310-g000_pll.c:254
    int closest_index = -1;
2001556c:	57fd                	li	a5,-1
2001556e:	fef42623          	sw	a5,-20(s0)
E:/GitHub/HiFive01-RevB/FS_workspace/sifive_hifive1_revb_sifive_welcome/freedom-metal/src/drivers/sifive_fe310-g000_pll.c:255
    long closest_diff = LONG_MAX;
20015572:	800007b7          	lui	a5,0x80000
20015576:	fff7c793          	not	a5,a5
2001557a:	fef42423          	sw	a5,-24(s0)
E:/GitHub/HiFive01-RevB/FS_workspace/sifive_hifive1_revb_sifive_welcome/freedom-metal/src/drivers/sifive_fe310-g000_pll.c:259
    for (int i = (sizeof(pll_configs) / sizeof(pll_configs[0])) - 1; i >= 0;
2001557e:	04300793          	li	a5,67
20015582:	fef42223          	sw	a5,-28(s0)
20015586:	a0b5                	j	200155f2 <find_closest_config+0x96>
E:/GitHub/HiFive01-RevB/FS_workspace/sifive_hifive1_revb_sifive_welcome/freedom-metal/src/drivers/sifive_fe310-g000_pll.c:261
        long config_freq = get_pll_config_freq(ref_hz, &(pll_configs[i]));
20015588:	fcc42683          	lw	a3,-52(s0)
2001558c:	fe442783          	lw	a5,-28(s0)
20015590:	00579713          	slli	a4,a5,0x5
20015594:	200117b7          	lui	a5,0x20011
20015598:	a2878793          	addi	a5,a5,-1496 # 20010a28 <pll_configs>
2001559c:	97ba                	add	a5,a5,a4
2001559e:	85be                	mv	a1,a5
200155a0:	8536                	mv	a0,a3
200155a2:	d4dff0ef          	jal	ra,200152ee <get_pll_config_freq>
200155a6:	fea42023          	sw	a0,-32(s0)
E:/GitHub/HiFive01-RevB/FS_workspace/sifive_hifive1_revb_sifive_welcome/freedom-metal/src/drivers/sifive_fe310-g000_pll.c:262
        if (config_freq != PLL_CONFIG_NOT_VALID) {
200155aa:	fe042703          	lw	a4,-32(s0)
200155ae:	57fd                	li	a5,-1
200155b0:	02f70c63          	beq	a4,a5,200155e8 <find_closest_config+0x8c>
E:/GitHub/HiFive01-RevB/FS_workspace/sifive_hifive1_revb_sifive_welcome/freedom-metal/src/drivers/sifive_fe310-g000_pll.c:263
            long freq_diff = labs(config_freq - rate);
200155b4:	fe042703          	lw	a4,-32(s0)
200155b8:	fc842783          	lw	a5,-56(s0)
200155bc:	8f1d                	sub	a4,a4,a5
200155be:	41f75793          	srai	a5,a4,0x1f
200155c2:	8f3d                	xor	a4,a4,a5
200155c4:	40f707b3          	sub	a5,a4,a5
200155c8:	fcf42e23          	sw	a5,-36(s0)
E:/GitHub/HiFive01-RevB/FS_workspace/sifive_hifive1_revb_sifive_welcome/freedom-metal/src/drivers/sifive_fe310-g000_pll.c:265
            if (freq_diff < closest_diff) {
200155cc:	fdc42703          	lw	a4,-36(s0)
200155d0:	fe842783          	lw	a5,-24(s0)
200155d4:	00f75a63          	bge	a4,a5,200155e8 <find_closest_config+0x8c>
E:/GitHub/HiFive01-RevB/FS_workspace/sifive_hifive1_revb_sifive_welcome/freedom-metal/src/drivers/sifive_fe310-g000_pll.c:266
                closest_index = i;
200155d8:	fe442783          	lw	a5,-28(s0)
200155dc:	fef42623          	sw	a5,-20(s0)
E:/GitHub/HiFive01-RevB/FS_workspace/sifive_hifive1_revb_sifive_welcome/freedom-metal/src/drivers/sifive_fe310-g000_pll.c:267
                closest_diff = freq_diff;
200155e0:	fdc42783          	lw	a5,-36(s0)
200155e4:	fef42423          	sw	a5,-24(s0)
E:/GitHub/HiFive01-RevB/FS_workspace/sifive_hifive1_revb_sifive_welcome/freedom-metal/src/drivers/sifive_fe310-g000_pll.c:260
         i--) {
200155e8:	fe442783          	lw	a5,-28(s0)
200155ec:	17fd                	addi	a5,a5,-1
200155ee:	fef42223          	sw	a5,-28(s0)
E:/GitHub/HiFive01-RevB/FS_workspace/sifive_hifive1_revb_sifive_welcome/freedom-metal/src/drivers/sifive_fe310-g000_pll.c:259 (discriminator 1)
    for (int i = (sizeof(pll_configs) / sizeof(pll_configs[0])) - 1; i >= 0;
200155f2:	fe442783          	lw	a5,-28(s0)
200155f6:	f807d9e3          	bgez	a5,20015588 <find_closest_config+0x2c>
E:/GitHub/HiFive01-RevB/FS_workspace/sifive_hifive1_revb_sifive_welcome/freedom-metal/src/drivers/sifive_fe310-g000_pll.c:272
    return closest_index;
200155fa:	fec42783          	lw	a5,-20(s0)
E:/GitHub/HiFive01-RevB/FS_workspace/sifive_hifive1_revb_sifive_welcome/freedom-metal/src/drivers/sifive_fe310-g000_pll.c:273
}
200155fe:	853e                	mv	a0,a5
20015600:	50f2                	lw	ra,60(sp)
20015602:	5462                	lw	s0,56(sp)
20015604:	6121                	addi	sp,sp,64
20015606:	8082                	ret

20015608 <configure_pll>:
configure_pll():
E:/GitHub/HiFive01-RevB/FS_workspace/sifive_hifive1_revb_sifive_welcome/freedom-metal/src/drivers/sifive_fe310-g000_pll.c:290
                          const struct pll_config_t *config) {
20015608:	7179                	addi	sp,sp,-48
2001560a:	d606                	sw	ra,44(sp)
2001560c:	d422                	sw	s0,40(sp)
2001560e:	1800                	addi	s0,sp,48
20015610:	fca42e23          	sw	a0,-36(s0)
20015614:	fcb42c23          	sw	a1,-40(s0)
20015618:	fcc42a23          	sw	a2,-44(s0)
E:/GitHub/HiFive01-RevB/FS_workspace/sifive_hifive1_revb_sifive_welcome/freedom-metal/src/drivers/sifive_fe310-g000_pll.c:291
    __METAL_ACCESS_ONCE(pllcfg) &= ~(PLL_R);
2001561c:	fdc42783          	lw	a5,-36(s0)
20015620:	439c                	lw	a5,0(a5)
20015622:	ff87f713          	andi	a4,a5,-8
20015626:	fdc42783          	lw	a5,-36(s0)
2001562a:	c398                	sw	a4,0(a5)
E:/GitHub/HiFive01-RevB/FS_workspace/sifive_hifive1_revb_sifive_welcome/freedom-metal/src/drivers/sifive_fe310-g000_pll.c:292
    __METAL_ACCESS_ONCE(pllcfg) |= PLL_R_SHIFT(config->r);
2001562c:	fdc42783          	lw	a5,-36(s0)
20015630:	4398                	lw	a4,0(a5)
20015632:	fd442783          	lw	a5,-44(s0)
20015636:	4b9c                	lw	a5,16(a5)
20015638:	8b9d                	andi	a5,a5,7
2001563a:	8f5d                	or	a4,a4,a5
2001563c:	fdc42783          	lw	a5,-36(s0)
20015640:	c398                	sw	a4,0(a5)
E:/GitHub/HiFive01-RevB/FS_workspace/sifive_hifive1_revb_sifive_welcome/freedom-metal/src/drivers/sifive_fe310-g000_pll.c:294
    __METAL_ACCESS_ONCE(pllcfg) &= ~(PLL_F);
20015642:	fdc42783          	lw	a5,-36(s0)
20015646:	439c                	lw	a5,0(a5)
20015648:	c0f7f713          	andi	a4,a5,-1009
2001564c:	fdc42783          	lw	a5,-36(s0)
20015650:	c398                	sw	a4,0(a5)
E:/GitHub/HiFive01-RevB/FS_workspace/sifive_hifive1_revb_sifive_welcome/freedom-metal/src/drivers/sifive_fe310-g000_pll.c:295
    __METAL_ACCESS_ONCE(pllcfg) |= PLL_F_SHIFT(config->f);
20015652:	fdc42783          	lw	a5,-36(s0)
20015656:	4398                	lw	a4,0(a5)
20015658:	fd442783          	lw	a5,-44(s0)
2001565c:	4bdc                	lw	a5,20(a5)
2001565e:	0792                	slli	a5,a5,0x4
20015660:	3f07f793          	andi	a5,a5,1008
20015664:	8f5d                	or	a4,a4,a5
20015666:	fdc42783          	lw	a5,-36(s0)
2001566a:	c398                	sw	a4,0(a5)
E:/GitHub/HiFive01-RevB/FS_workspace/sifive_hifive1_revb_sifive_welcome/freedom-metal/src/drivers/sifive_fe310-g000_pll.c:297
    __METAL_ACCESS_ONCE(pllcfg) &= ~(PLL_Q);
2001566c:	fdc42783          	lw	a5,-36(s0)
20015670:	4398                	lw	a4,0(a5)
20015672:	77fd                	lui	a5,0xfffff
20015674:	3ff78793          	addi	a5,a5,1023 # fffff3ff <metal_segment_heap_target_end+0x7fffdc5f>
20015678:	8f7d                	and	a4,a4,a5
2001567a:	fdc42783          	lw	a5,-36(s0)
2001567e:	c398                	sw	a4,0(a5)
E:/GitHub/HiFive01-RevB/FS_workspace/sifive_hifive1_revb_sifive_welcome/freedom-metal/src/drivers/sifive_fe310-g000_pll.c:298
    __METAL_ACCESS_ONCE(pllcfg) |= PLL_Q_SHIFT(config->q);
20015680:	fdc42783          	lw	a5,-36(s0)
20015684:	4398                	lw	a4,0(a5)
20015686:	fd442783          	lw	a5,-44(s0)
2001568a:	4f9c                	lw	a5,24(a5)
2001568c:	00a79693          	slli	a3,a5,0xa
20015690:	6785                	lui	a5,0x1
20015692:	c0078793          	addi	a5,a5,-1024 # c00 <__heap_size+0x400>
20015696:	8ff5                	and	a5,a5,a3
20015698:	8f5d                	or	a4,a4,a5
2001569a:	fdc42783          	lw	a5,-36(s0)
2001569e:	c398                	sw	a4,0(a5)
E:/GitHub/HiFive01-RevB/FS_workspace/sifive_hifive1_revb_sifive_welcome/freedom-metal/src/drivers/sifive_fe310-g000_pll.c:300
    if (config->d < 0) {
200156a0:	fd442783          	lw	a5,-44(s0)
200156a4:	4fdc                	lw	a5,28(a5)
200156a6:	0207db63          	bgez	a5,200156dc <configure_pll+0xd4>
E:/GitHub/HiFive01-RevB/FS_workspace/sifive_hifive1_revb_sifive_welcome/freedom-metal/src/drivers/sifive_fe310-g000_pll.c:302
        __METAL_ACCESS_ONCE(plloutdiv) |= DIV_1;
200156aa:	fd842783          	lw	a5,-40(s0)
200156ae:	439c                	lw	a5,0(a5)
200156b0:	1007e713          	ori	a4,a5,256
200156b4:	fd842783          	lw	a5,-40(s0)
200156b8:	c398                	sw	a4,0(a5)
E:/GitHub/HiFive01-RevB/FS_workspace/sifive_hifive1_revb_sifive_welcome/freedom-metal/src/drivers/sifive_fe310-g000_pll.c:304
        __METAL_ACCESS_ONCE(plloutdiv) &= ~(DIV_DIV);
200156ba:	fd842783          	lw	a5,-40(s0)
200156be:	439c                	lw	a5,0(a5)
200156c0:	fc07f713          	andi	a4,a5,-64
200156c4:	fd842783          	lw	a5,-40(s0)
200156c8:	c398                	sw	a4,0(a5)
E:/GitHub/HiFive01-RevB/FS_workspace/sifive_hifive1_revb_sifive_welcome/freedom-metal/src/drivers/sifive_fe310-g000_pll.c:305
        __METAL_ACCESS_ONCE(plloutdiv) |= PLL_DIV_SHIFT(1);
200156ca:	fd842783          	lw	a5,-40(s0)
200156ce:	439c                	lw	a5,0(a5)
200156d0:	0017e713          	ori	a4,a5,1
200156d4:	fd842783          	lw	a5,-40(s0)
200156d8:	c398                	sw	a4,0(a5)
200156da:	a82d                	j	20015714 <configure_pll+0x10c>
E:/GitHub/HiFive01-RevB/FS_workspace/sifive_hifive1_revb_sifive_welcome/freedom-metal/src/drivers/sifive_fe310-g000_pll.c:307
        __METAL_ACCESS_ONCE(plloutdiv) &= ~(DIV_1);
200156dc:	fd842783          	lw	a5,-40(s0)
200156e0:	439c                	lw	a5,0(a5)
200156e2:	eff7f713          	andi	a4,a5,-257
200156e6:	fd842783          	lw	a5,-40(s0)
200156ea:	c398                	sw	a4,0(a5)
E:/GitHub/HiFive01-RevB/FS_workspace/sifive_hifive1_revb_sifive_welcome/freedom-metal/src/drivers/sifive_fe310-g000_pll.c:309
        __METAL_ACCESS_ONCE(plloutdiv) &= ~(DIV_DIV);
200156ec:	fd842783          	lw	a5,-40(s0)
200156f0:	439c                	lw	a5,0(a5)
200156f2:	fc07f713          	andi	a4,a5,-64
200156f6:	fd842783          	lw	a5,-40(s0)
200156fa:	c398                	sw	a4,0(a5)
E:/GitHub/HiFive01-RevB/FS_workspace/sifive_hifive1_revb_sifive_welcome/freedom-metal/src/drivers/sifive_fe310-g000_pll.c:310
        __METAL_ACCESS_ONCE(plloutdiv) |= PLL_DIV_SHIFT(config->d);
200156fc:	fd842783          	lw	a5,-40(s0)
20015700:	4398                	lw	a4,0(a5)
20015702:	fd442783          	lw	a5,-44(s0)
20015706:	4fdc                	lw	a5,28(a5)
20015708:	03f7f793          	andi	a5,a5,63
2001570c:	8f5d                	or	a4,a4,a5
2001570e:	fd842783          	lw	a5,-40(s0)
20015712:	c398                	sw	a4,0(a5)
E:/GitHub/HiFive01-RevB/FS_workspace/sifive_hifive1_revb_sifive_welcome/freedom-metal/src/drivers/sifive_fe310-g000_pll.c:313
    __METAL_ACCESS_ONCE(pllcfg) &= ~(PLL_BYPASS);
20015714:	fdc42783          	lw	a5,-36(s0)
20015718:	4398                	lw	a4,0(a5)
2001571a:	fffc07b7          	lui	a5,0xfffc0
2001571e:	17fd                	addi	a5,a5,-1
20015720:	8f7d                	and	a4,a4,a5
20015722:	fdc42783          	lw	a5,-36(s0)
20015726:	c398                	sw	a4,0(a5)
E:/GitHub/HiFive01-RevB/FS_workspace/sifive_hifive1_revb_sifive_welcome/freedom-metal/src/drivers/sifive_fe310-g000_pll.c:318
    __metal_driver_riscv_clint0_command_request(__METAL_DT_RISCV_CLINT0_HANDLE,
20015728:	fe040793          	addi	a5,s0,-32
2001572c:	863e                	mv	a2,a5
2001572e:	4585                	li	a1,1
20015730:	800017b7          	lui	a5,0x80001
20015734:	ab878513          	addi	a0,a5,-1352 # 80000ab8 <metal_segment_heap_target_end+0xfffff318>
20015738:	c66fd0ef          	jal	ra,20012b9e <__metal_driver_riscv_clint0_command_request>
E:/GitHub/HiFive01-RevB/FS_workspace/sifive_hifive1_revb_sifive_welcome/freedom-metal/src/drivers/sifive_fe310-g000_pll.c:320
    mtime_end = mtime + PLL_LOCK_WAIT_TICKS;
2001573c:	fe042603          	lw	a2,-32(s0)
20015740:	fe442683          	lw	a3,-28(s0)
20015744:	4511                	li	a0,4
20015746:	4581                	li	a1,0
20015748:	00a60733          	add	a4,a2,a0
2001574c:	883a                	mv	a6,a4
2001574e:	00c83833          	sltu	a6,a6,a2
20015752:	00b687b3          	add	a5,a3,a1
20015756:	00f806b3          	add	a3,a6,a5
2001575a:	87b6                	mv	a5,a3
2001575c:	fee42423          	sw	a4,-24(s0)
20015760:	fef42623          	sw	a5,-20(s0)
E:/GitHub/HiFive01-RevB/FS_workspace/sifive_hifive1_revb_sifive_welcome/freedom-metal/src/drivers/sifive_fe310-g000_pll.c:321
    while (mtime <= mtime_end) {
20015764:	a819                	j	2001577a <configure_pll+0x172>
E:/GitHub/HiFive01-RevB/FS_workspace/sifive_hifive1_revb_sifive_welcome/freedom-metal/src/drivers/sifive_fe310-g000_pll.c:322
        __metal_driver_riscv_clint0_command_request(
20015766:	fe040793          	addi	a5,s0,-32
2001576a:	863e                	mv	a2,a5
2001576c:	4585                	li	a1,1
2001576e:	800017b7          	lui	a5,0x80001
20015772:	ab878513          	addi	a0,a5,-1352 # 80000ab8 <metal_segment_heap_target_end+0xfffff318>
20015776:	c28fd0ef          	jal	ra,20012b9e <__metal_driver_riscv_clint0_command_request>
E:/GitHub/HiFive01-RevB/FS_workspace/sifive_hifive1_revb_sifive_welcome/freedom-metal/src/drivers/sifive_fe310-g000_pll.c:321
    while (mtime <= mtime_end) {
2001577a:	fe042703          	lw	a4,-32(s0)
2001577e:	fe442783          	lw	a5,-28(s0)
20015782:	fec42683          	lw	a3,-20(s0)
20015786:	863e                	mv	a2,a5
20015788:	00c6ec63          	bltu	a3,a2,200157a0 <configure_pll+0x198>
2001578c:	fec42683          	lw	a3,-20(s0)
20015790:	863e                	mv	a2,a5
20015792:	fcc69ae3          	bne	a3,a2,20015766 <configure_pll+0x15e>
20015796:	fe842683          	lw	a3,-24(s0)
2001579a:	87ba                	mv	a5,a4
2001579c:	fcf6f5e3          	bgeu	a3,a5,20015766 <configure_pll+0x15e>
E:/GitHub/HiFive01-RevB/FS_workspace/sifive_hifive1_revb_sifive_welcome/freedom-metal/src/drivers/sifive_fe310-g000_pll.c:340
    while ((__METAL_ACCESS_ONCE(pllcfg) & PLL_LOCK) == 0)
200157a0:	0001                	nop
E:/GitHub/HiFive01-RevB/FS_workspace/sifive_hifive1_revb_sifive_welcome/freedom-metal/src/drivers/sifive_fe310-g000_pll.c:340 (discriminator 1)
200157a2:	fdc42783          	lw	a5,-36(s0)
200157a6:	439c                	lw	a5,0(a5)
200157a8:	fe07dde3          	bgez	a5,200157a2 <configure_pll+0x19a>
E:/GitHub/HiFive01-RevB/FS_workspace/sifive_hifive1_revb_sifive_welcome/freedom-metal/src/drivers/sifive_fe310-g000_pll.c:342
}
200157ac:	0001                	nop
200157ae:	0001                	nop
200157b0:	50b2                	lw	ra,44(sp)
200157b2:	5422                	lw	s0,40(sp)
200157b4:	6145                	addi	sp,sp,48
200157b6:	8082                	ret

200157b8 <__metal_driver_sifive_fe310_g000_pll_set_rate_hz>:
__metal_driver_sifive_fe310_g000_pll_set_rate_hz():
E:/GitHub/HiFive01-RevB/FS_workspace/sifive_hifive1_revb_sifive_welcome/freedom-metal/src/drivers/sifive_fe310-g000_pll.c:345
                                                      long rate) {
200157b8:	715d                	addi	sp,sp,-80
200157ba:	c686                	sw	ra,76(sp)
200157bc:	c4a2                	sw	s0,72(sp)
200157be:	0880                	addi	s0,sp,80
200157c0:	faa42e23          	sw	a0,-68(s0)
200157c4:	fab42c23          	sw	a1,-72(s0)
E:/GitHub/HiFive01-RevB/FS_workspace/sifive_hifive1_revb_sifive_welcome/freedom-metal/src/drivers/sifive_fe310-g000_pll.c:347
        __metal_driver_sifive_fe310_g000_pll_pllref(clock);
200157c8:	fbc42503          	lw	a0,-68(s0)
200157cc:	a7fff0ef          	jal	ra,2001524a <__metal_driver_sifive_fe310_g000_pll_pllref>
200157d0:	fea42623          	sw	a0,-20(s0)
E:/GitHub/HiFive01-RevB/FS_workspace/sifive_hifive1_revb_sifive_welcome/freedom-metal/src/drivers/sifive_fe310-g000_pll.c:349
        __metal_driver_sifive_fe310_g000_pll_pllsel0(clock);
200157d4:	fbc42503          	lw	a0,-68(s0)
200157d8:	a59ff0ef          	jal	ra,20015230 <__metal_driver_sifive_fe310_g000_pll_pllsel0>
200157dc:	fea42423          	sw	a0,-24(s0)
E:/GitHub/HiFive01-RevB/FS_workspace/sifive_hifive1_revb_sifive_welcome/freedom-metal/src/drivers/sifive_fe310-g000_pll.c:351
        __metal_driver_sifive_fe310_g000_pll_config_offset(clock);
200157e0:	fbc42503          	lw	a0,-68(s0)
200157e4:	abdff0ef          	jal	ra,200152a0 <__metal_driver_sifive_fe310_g000_pll_config_offset>
200157e8:	fea42223          	sw	a0,-28(s0)
E:/GitHub/HiFive01-RevB/FS_workspace/sifive_hifive1_revb_sifive_welcome/freedom-metal/src/drivers/sifive_fe310-g000_pll.c:353
        __metal_driver_sifive_fe310_g000_pll_divider_offset(clock);
200157ec:	fbc42503          	lw	a0,-68(s0)
200157f0:	a8bff0ef          	jal	ra,2001527a <__metal_driver_sifive_fe310_g000_pll_divider_offset>
200157f4:	fea42023          	sw	a0,-32(s0)
E:/GitHub/HiFive01-RevB/FS_workspace/sifive_hifive1_revb_sifive_welcome/freedom-metal/src/drivers/sifive_fe310-g000_pll.c:354
    long base = __metal_driver_sifive_fe310_g000_prci_base();
200157f8:	acfff0ef          	jal	ra,200152c6 <__metal_driver_sifive_fe310_g000_prci_base>
200157fc:	fca42e23          	sw	a0,-36(s0)
E:/GitHub/HiFive01-RevB/FS_workspace/sifive_hifive1_revb_sifive_welcome/freedom-metal/src/drivers/sifive_fe310-g000_pll.c:356
    __metal_io_u32 *pllcfg = (__metal_io_u32 *)(base + config_offset);
20015800:	fdc42703          	lw	a4,-36(s0)
20015804:	fe442783          	lw	a5,-28(s0)
20015808:	97ba                	add	a5,a5,a4
2001580a:	fcf42c23          	sw	a5,-40(s0)
E:/GitHub/HiFive01-RevB/FS_workspace/sifive_hifive1_revb_sifive_welcome/freedom-metal/src/drivers/sifive_fe310-g000_pll.c:357
    __metal_io_u32 *plloutdiv = (__metal_io_u32 *)(base + divider_offset);
2001580e:	fdc42703          	lw	a4,-36(s0)
20015812:	fe042783          	lw	a5,-32(s0)
20015816:	97ba                	add	a5,a5,a4
20015818:	fcf42a23          	sw	a5,-44(s0)
E:/GitHub/HiFive01-RevB/FS_workspace/sifive_hifive1_revb_sifive_welcome/freedom-metal/src/drivers/sifive_fe310-g000_pll.c:360
    if (__METAL_ACCESS_ONCE(pllcfg) & PLL_SEL)
2001581c:	fd842783          	lw	a5,-40(s0)
20015820:	4398                	lw	a4,0(a5)
20015822:	67c1                	lui	a5,0x10
20015824:	8ff9                	and	a5,a5,a4
20015826:	cb91                	beqz	a5,2001583a <__metal_driver_sifive_fe310_g000_pll_set_rate_hz+0x82>
E:/GitHub/HiFive01-RevB/FS_workspace/sifive_hifive1_revb_sifive_welcome/freedom-metal/src/drivers/sifive_fe310-g000_pll.c:361
        __METAL_ACCESS_ONCE(pllcfg) &= ~(PLL_SEL);
20015828:	fd842783          	lw	a5,-40(s0)
2001582c:	4398                	lw	a4,0(a5)
2001582e:	77c1                	lui	a5,0xffff0
20015830:	17fd                	addi	a5,a5,-1
20015832:	8f7d                	and	a4,a4,a5
20015834:	fd842783          	lw	a5,-40(s0)
20015838:	c398                	sw	a4,0(a5)
E:/GitHub/HiFive01-RevB/FS_workspace/sifive_hifive1_revb_sifive_welcome/freedom-metal/src/drivers/sifive_fe310-g000_pll.c:366
        __METAL_ACCESS_ONCE(pllcfg) & PLL_REFSEL ? pllref : pllsel0);
2001583a:	fd842783          	lw	a5,-40(s0)
2001583e:	4398                	lw	a4,0(a5)
20015840:	000207b7          	lui	a5,0x20
20015844:	8ff9                	and	a5,a5,a4
E:/GitHub/HiFive01-RevB/FS_workspace/sifive_hifive1_revb_sifive_welcome/freedom-metal/src/drivers/sifive_fe310-g000_pll.c:365
    long ref_hz = metal_clock_get_rate_hz(
20015846:	c781                	beqz	a5,2001584e <__metal_driver_sifive_fe310_g000_pll_set_rate_hz+0x96>
E:/GitHub/HiFive01-RevB/FS_workspace/sifive_hifive1_revb_sifive_welcome/freedom-metal/src/drivers/sifive_fe310-g000_pll.c:365 (discriminator 1)
20015848:	fec42783          	lw	a5,-20(s0)
2001584c:	a019                	j	20015852 <__metal_driver_sifive_fe310_g000_pll_set_rate_hz+0x9a>
E:/GitHub/HiFive01-RevB/FS_workspace/sifive_hifive1_revb_sifive_welcome/freedom-metal/src/drivers/sifive_fe310-g000_pll.c:365 (discriminator 2)
2001584e:	fe842783          	lw	a5,-24(s0)
E:/GitHub/HiFive01-RevB/FS_workspace/sifive_hifive1_revb_sifive_welcome/freedom-metal/src/drivers/sifive_fe310-g000_pll.c:365 (discriminator 4)
20015852:	853e                	mv	a0,a5
20015854:	5a6010ef          	jal	ra,20016dfa <metal_clock_get_rate_hz>
20015858:	fca42823          	sw	a0,-48(s0)
E:/GitHub/HiFive01-RevB/FS_workspace/sifive_hifive1_revb_sifive_welcome/freedom-metal/src/drivers/sifive_fe310-g000_pll.c:370 (discriminator 4)
    if ((ref_hz * 3 / 4) <= rate && (ref_hz * 5 / 4) >= rate) {
2001585c:	fd042703          	lw	a4,-48(s0)
20015860:	87ba                	mv	a5,a4
20015862:	0786                	slli	a5,a5,0x1
20015864:	97ba                	add	a5,a5,a4
20015866:	41f7d713          	srai	a4,a5,0x1f
2001586a:	8b0d                	andi	a4,a4,3
2001586c:	97ba                	add	a5,a5,a4
2001586e:	8789                	srai	a5,a5,0x2
20015870:	873e                	mv	a4,a5
20015872:	fb842783          	lw	a5,-72(s0)
20015876:	02e7cb63          	blt	a5,a4,200158ac <__metal_driver_sifive_fe310_g000_pll_set_rate_hz+0xf4>
E:/GitHub/HiFive01-RevB/FS_workspace/sifive_hifive1_revb_sifive_welcome/freedom-metal/src/drivers/sifive_fe310-g000_pll.c:370 (discriminator 1)
2001587a:	fd042703          	lw	a4,-48(s0)
2001587e:	87ba                	mv	a5,a4
20015880:	078a                	slli	a5,a5,0x2
20015882:	97ba                	add	a5,a5,a4
20015884:	41f7d713          	srai	a4,a5,0x1f
20015888:	8b0d                	andi	a4,a4,3
2001588a:	97ba                	add	a5,a5,a4
2001588c:	8789                	srai	a5,a5,0x2
2001588e:	873e                	mv	a4,a5
20015890:	fb842783          	lw	a5,-72(s0)
20015894:	00f74c63          	blt	a4,a5,200158ac <__metal_driver_sifive_fe310_g000_pll_set_rate_hz+0xf4>
E:/GitHub/HiFive01-RevB/FS_workspace/sifive_hifive1_revb_sifive_welcome/freedom-metal/src/drivers/sifive_fe310-g000_pll.c:371
        __METAL_ACCESS_ONCE(pllcfg) |= PLL_BYPASS;
20015898:	fd842783          	lw	a5,-40(s0)
2001589c:	4398                	lw	a4,0(a5)
2001589e:	000407b7          	lui	a5,0x40
200158a2:	8f5d                	or	a4,a4,a5
200158a4:	fd842783          	lw	a5,-40(s0)
200158a8:	c398                	sw	a4,0(a5)
200158aa:	a881                	j	200158fa <__metal_driver_sifive_fe310_g000_pll_set_rate_hz+0x142>
E:/GitHub/HiFive01-RevB/FS_workspace/sifive_hifive1_revb_sifive_welcome/freedom-metal/src/drivers/sifive_fe310-g000_pll.c:373
        int config_index = find_closest_config(ref_hz, rate);
200158ac:	fb842583          	lw	a1,-72(s0)
200158b0:	fd042503          	lw	a0,-48(s0)
200158b4:	ca9ff0ef          	jal	ra,2001555c <find_closest_config>
200158b8:	fca42623          	sw	a0,-52(s0)
E:/GitHub/HiFive01-RevB/FS_workspace/sifive_hifive1_revb_sifive_welcome/freedom-metal/src/drivers/sifive_fe310-g000_pll.c:374
        if (config_index != -1) {
200158bc:	fcc42703          	lw	a4,-52(s0)
200158c0:	57fd                	li	a5,-1
200158c2:	02f70363          	beq	a4,a5,200158e8 <__metal_driver_sifive_fe310_g000_pll_set_rate_hz+0x130>
E:/GitHub/HiFive01-RevB/FS_workspace/sifive_hifive1_revb_sifive_welcome/freedom-metal/src/drivers/sifive_fe310-g000_pll.c:375
            configure_pll(pllcfg, plloutdiv, &(pll_configs[config_index]));
200158c6:	fcc42783          	lw	a5,-52(s0)
200158ca:	00579713          	slli	a4,a5,0x5
200158ce:	200117b7          	lui	a5,0x20011
200158d2:	a2878793          	addi	a5,a5,-1496 # 20010a28 <pll_configs>
200158d6:	97ba                	add	a5,a5,a4
200158d8:	863e                	mv	a2,a5
200158da:	fd442583          	lw	a1,-44(s0)
200158de:	fd842503          	lw	a0,-40(s0)
200158e2:	d27ff0ef          	jal	ra,20015608 <configure_pll>
200158e6:	a811                	j	200158fa <__metal_driver_sifive_fe310_g000_pll_set_rate_hz+0x142>
E:/GitHub/HiFive01-RevB/FS_workspace/sifive_hifive1_revb_sifive_welcome/freedom-metal/src/drivers/sifive_fe310-g000_pll.c:378
            __METAL_ACCESS_ONCE(pllcfg) |= PLL_BYPASS;
200158e8:	fd842783          	lw	a5,-40(s0)
200158ec:	4398                	lw	a4,0(a5)
200158ee:	000407b7          	lui	a5,0x40
200158f2:	8f5d                	or	a4,a4,a5
200158f4:	fd842783          	lw	a5,-40(s0)
200158f8:	c398                	sw	a4,0(a5)
E:/GitHub/HiFive01-RevB/FS_workspace/sifive_hifive1_revb_sifive_welcome/freedom-metal/src/drivers/sifive_fe310-g000_pll.c:383
    __METAL_ACCESS_ONCE(pllcfg) |= PLL_SEL;
200158fa:	fd842783          	lw	a5,-40(s0)
200158fe:	4398                	lw	a4,0(a5)
20015900:	67c1                	lui	a5,0x10
20015902:	8f5d                	or	a4,a4,a5
20015904:	fd842783          	lw	a5,-40(s0)
20015908:	c398                	sw	a4,0(a5)
E:/GitHub/HiFive01-RevB/FS_workspace/sifive_hifive1_revb_sifive_welcome/freedom-metal/src/drivers/sifive_fe310-g000_pll.c:385
    return __metal_driver_sifive_fe310_g000_pll_get_rate_hz(clock);
2001590a:	fbc42503          	lw	a0,-68(s0)
2001590e:	ad3ff0ef          	jal	ra,200153e0 <__metal_driver_sifive_fe310_g000_pll_get_rate_hz>
20015912:	87aa                	mv	a5,a0
E:/GitHub/HiFive01-RevB/FS_workspace/sifive_hifive1_revb_sifive_welcome/freedom-metal/src/drivers/sifive_fe310-g000_pll.c:386
}
20015914:	853e                	mv	a0,a5
20015916:	40b6                	lw	ra,76(sp)
20015918:	4426                	lw	s0,72(sp)
2001591a:	6161                	addi	sp,sp,80
2001591c:	8082                	ret

2001591e <__metal_driver_sifive_fe310_g000_prci_base>:
__metal_driver_sifive_fe310_g000_prci_base():
E:\GitHub\HiFive01-RevB\FS_workspace\sifive_hifive1_revb_sifive_welcome\bsp\build\debug/./metal/machine.h:1364
{
2001591e:	1141                	addi	sp,sp,-16
20015920:	c622                	sw	s0,12(sp)
20015922:	0800                	addi	s0,sp,16
E:\GitHub\HiFive01-RevB\FS_workspace\sifive_hifive1_revb_sifive_welcome\bsp\build\debug/./metal/machine.h:1365
		return METAL_SIFIVE_FE310_G000_PRCI_10008000_BASE_ADDRESS;
20015924:	100087b7          	lui	a5,0x10008
E:\GitHub\HiFive01-RevB\FS_workspace\sifive_hifive1_revb_sifive_welcome\bsp\build\debug/./metal/machine.h:1366
}
20015928:	853e                	mv	a0,a5
2001592a:	4432                	lw	s0,12(sp)
2001592c:	0141                	addi	sp,sp,16
2001592e:	8082                	ret

20015930 <__metal_driver_sifive_fe310_g000_prci_get_reg>:
__metal_driver_sifive_fe310_g000_prci_get_reg():
E:/GitHub/HiFive01-RevB/FS_workspace/sifive_hifive1_revb_sifive_welcome/freedom-metal/src/drivers/sifive_fe310-g000_prci.c:12

#include <metal/drivers/sifive_fe310-g000_prci.h>
#include <metal/machine.h>

long __metal_driver_sifive_fe310_g000_prci_get_reg(
    const struct __metal_driver_sifive_fe310_g000_prci *prci, long offset) {
20015930:	7179                	addi	sp,sp,-48
20015932:	d606                	sw	ra,44(sp)
20015934:	d422                	sw	s0,40(sp)
20015936:	1800                	addi	s0,sp,48
20015938:	fca42e23          	sw	a0,-36(s0)
2001593c:	fcb42c23          	sw	a1,-40(s0)
E:/GitHub/HiFive01-RevB/FS_workspace/sifive_hifive1_revb_sifive_welcome/freedom-metal/src/drivers/sifive_fe310-g000_prci.c:13
    unsigned long base = __metal_driver_sifive_fe310_g000_prci_base();
20015940:	3ff9                	jal	2001591e <__metal_driver_sifive_fe310_g000_prci_base>
20015942:	87aa                	mv	a5,a0
20015944:	fef42623          	sw	a5,-20(s0)
E:/GitHub/HiFive01-RevB/FS_workspace/sifive_hifive1_revb_sifive_welcome/freedom-metal/src/drivers/sifive_fe310-g000_prci.c:14
    return __METAL_ACCESS_ONCE((__metal_io_u32 *)(base + offset));
20015948:	fd842703          	lw	a4,-40(s0)
2001594c:	fec42783          	lw	a5,-20(s0)
20015950:	97ba                	add	a5,a5,a4
20015952:	439c                	lw	a5,0(a5)
E:/GitHub/HiFive01-RevB/FS_workspace/sifive_hifive1_revb_sifive_welcome/freedom-metal/src/drivers/sifive_fe310-g000_prci.c:15
}
20015954:	853e                	mv	a0,a5
20015956:	50b2                	lw	ra,44(sp)
20015958:	5422                	lw	s0,40(sp)
2001595a:	6145                	addi	sp,sp,48
2001595c:	8082                	ret

2001595e <__metal_driver_sifive_fe310_g000_prci_set_reg>:
__metal_driver_sifive_fe310_g000_prci_set_reg():
E:/GitHub/HiFive01-RevB/FS_workspace/sifive_hifive1_revb_sifive_welcome/freedom-metal/src/drivers/sifive_fe310-g000_prci.c:19

long __metal_driver_sifive_fe310_g000_prci_set_reg(
    const struct __metal_driver_sifive_fe310_g000_prci *prci, long offset,
    long value) {
2001595e:	7179                	addi	sp,sp,-48
20015960:	d606                	sw	ra,44(sp)
20015962:	d422                	sw	s0,40(sp)
20015964:	1800                	addi	s0,sp,48
20015966:	fca42e23          	sw	a0,-36(s0)
2001596a:	fcb42c23          	sw	a1,-40(s0)
2001596e:	fcc42a23          	sw	a2,-44(s0)
E:/GitHub/HiFive01-RevB/FS_workspace/sifive_hifive1_revb_sifive_welcome/freedom-metal/src/drivers/sifive_fe310-g000_prci.c:20
    unsigned long base = __metal_driver_sifive_fe310_g000_prci_base();
20015972:	3775                	jal	2001591e <__metal_driver_sifive_fe310_g000_prci_base>
20015974:	87aa                	mv	a5,a0
20015976:	fef42623          	sw	a5,-20(s0)
E:/GitHub/HiFive01-RevB/FS_workspace/sifive_hifive1_revb_sifive_welcome/freedom-metal/src/drivers/sifive_fe310-g000_prci.c:21
    return __METAL_ACCESS_ONCE((__metal_io_u32 *)(base + offset)) = value;
2001597a:	fd842703          	lw	a4,-40(s0)
2001597e:	fec42783          	lw	a5,-20(s0)
20015982:	97ba                	add	a5,a5,a4
20015984:	873e                	mv	a4,a5
20015986:	fd442783          	lw	a5,-44(s0)
2001598a:	c31c                	sw	a5,0(a4)
E:/GitHub/HiFive01-RevB/FS_workspace/sifive_hifive1_revb_sifive_welcome/freedom-metal/src/drivers/sifive_fe310-g000_prci.c:22
}
2001598c:	853e                	mv	a0,a5
2001598e:	50b2                	lw	ra,44(sp)
20015990:	5422                	lw	s0,40(sp)
20015992:	6145                	addi	sp,sp,48
20015994:	8082                	ret

20015996 <__metal_driver_sifive_gpio_led_gpio>:
__metal_driver_sifive_gpio_led_gpio():
E:\GitHub\HiFive01-RevB\FS_workspace\sifive_hifive1_revb_sifive_welcome\bsp\build\debug/./metal/machine.h:579
{
20015996:	1101                	addi	sp,sp,-32
20015998:	ce22                	sw	s0,28(sp)
2001599a:	1000                	addi	s0,sp,32
2001599c:	fea42623          	sw	a0,-20(s0)
E:\GitHub\HiFive01-RevB\FS_workspace\sifive_hifive1_revb_sifive_welcome\bsp\build\debug/./metal/machine.h:580
	if ((uintptr_t)led == (uintptr_t)&__metal_dt_led_0) {
200159a0:	fec42703          	lw	a4,-20(s0)
200159a4:	81c18793          	addi	a5,gp,-2020 # 80000acc <__metal_dt_led_0>
200159a8:	00f71563          	bne	a4,a5,200159b2 <__metal_driver_sifive_gpio_led_gpio+0x1c>
E:\GitHub\HiFive01-RevB\FS_workspace\sifive_hifive1_revb_sifive_welcome\bsp\build\debug/./metal/machine.h:581
		return (struct metal_gpio *)&__metal_dt_gpio_10012000;
200159ac:	81818793          	addi	a5,gp,-2024 # 80000ac8 <__metal_dt_gpio_10012000>
200159b0:	a025                	j	200159d8 <__metal_driver_sifive_gpio_led_gpio+0x42>
E:\GitHub\HiFive01-RevB\FS_workspace\sifive_hifive1_revb_sifive_welcome\bsp\build\debug/./metal/machine.h:583
	else if ((uintptr_t)led == (uintptr_t)&__metal_dt_led_1) {
200159b2:	fec42703          	lw	a4,-20(s0)
200159b6:	82018793          	addi	a5,gp,-2016 # 80000ad0 <__metal_dt_led_1>
200159ba:	00f71563          	bne	a4,a5,200159c4 <__metal_driver_sifive_gpio_led_gpio+0x2e>
E:\GitHub\HiFive01-RevB\FS_workspace\sifive_hifive1_revb_sifive_welcome\bsp\build\debug/./metal/machine.h:584
		return (struct metal_gpio *)&__metal_dt_gpio_10012000;
200159be:	81818793          	addi	a5,gp,-2024 # 80000ac8 <__metal_dt_gpio_10012000>
200159c2:	a819                	j	200159d8 <__metal_driver_sifive_gpio_led_gpio+0x42>
E:\GitHub\HiFive01-RevB\FS_workspace\sifive_hifive1_revb_sifive_welcome\bsp\build\debug/./metal/machine.h:586
	else if ((uintptr_t)led == (uintptr_t)&__metal_dt_led_2) {
200159c4:	fec42703          	lw	a4,-20(s0)
200159c8:	82418793          	addi	a5,gp,-2012 # 80000ad4 <__metal_dt_led_2>
200159cc:	00f71563          	bne	a4,a5,200159d6 <__metal_driver_sifive_gpio_led_gpio+0x40>
E:\GitHub\HiFive01-RevB\FS_workspace\sifive_hifive1_revb_sifive_welcome\bsp\build\debug/./metal/machine.h:587
		return (struct metal_gpio *)&__metal_dt_gpio_10012000;
200159d0:	81818793          	addi	a5,gp,-2024 # 80000ac8 <__metal_dt_gpio_10012000>
200159d4:	a011                	j	200159d8 <__metal_driver_sifive_gpio_led_gpio+0x42>
E:\GitHub\HiFive01-RevB\FS_workspace\sifive_hifive1_revb_sifive_welcome\bsp\build\debug/./metal/machine.h:590
		return NULL;
200159d6:	4781                	li	a5,0
E:\GitHub\HiFive01-RevB\FS_workspace\sifive_hifive1_revb_sifive_welcome\bsp\build\debug/./metal/machine.h:592
}
200159d8:	853e                	mv	a0,a5
200159da:	4472                	lw	s0,28(sp)
200159dc:	6105                	addi	sp,sp,32
200159de:	8082                	ret

200159e0 <__metal_driver_sifive_gpio_led_pin>:
__metal_driver_sifive_gpio_led_pin():
E:\GitHub\HiFive01-RevB\FS_workspace\sifive_hifive1_revb_sifive_welcome\bsp\build\debug/./metal/machine.h:595
{
200159e0:	1101                	addi	sp,sp,-32
200159e2:	ce22                	sw	s0,28(sp)
200159e4:	1000                	addi	s0,sp,32
200159e6:	fea42623          	sw	a0,-20(s0)
E:\GitHub\HiFive01-RevB\FS_workspace\sifive_hifive1_revb_sifive_welcome\bsp\build\debug/./metal/machine.h:596
	if ((uintptr_t)led == (uintptr_t)&__metal_dt_led_0) {
200159ea:	fec42703          	lw	a4,-20(s0)
200159ee:	81c18793          	addi	a5,gp,-2020 # 80000acc <__metal_dt_led_0>
200159f2:	00f71463          	bne	a4,a5,200159fa <__metal_driver_sifive_gpio_led_pin+0x1a>
E:\GitHub\HiFive01-RevB\FS_workspace\sifive_hifive1_revb_sifive_welcome\bsp\build\debug/./metal/machine.h:597
		return 22;
200159f6:	47d9                	li	a5,22
200159f8:	a015                	j	20015a1c <__metal_driver_sifive_gpio_led_pin+0x3c>
E:\GitHub\HiFive01-RevB\FS_workspace\sifive_hifive1_revb_sifive_welcome\bsp\build\debug/./metal/machine.h:599
	else if ((uintptr_t)led == (uintptr_t)&__metal_dt_led_1) {
200159fa:	fec42703          	lw	a4,-20(s0)
200159fe:	82018793          	addi	a5,gp,-2016 # 80000ad0 <__metal_dt_led_1>
20015a02:	00f71463          	bne	a4,a5,20015a0a <__metal_driver_sifive_gpio_led_pin+0x2a>
E:\GitHub\HiFive01-RevB\FS_workspace\sifive_hifive1_revb_sifive_welcome\bsp\build\debug/./metal/machine.h:600
		return 19;
20015a06:	47cd                	li	a5,19
20015a08:	a811                	j	20015a1c <__metal_driver_sifive_gpio_led_pin+0x3c>
E:\GitHub\HiFive01-RevB\FS_workspace\sifive_hifive1_revb_sifive_welcome\bsp\build\debug/./metal/machine.h:602
	else if ((uintptr_t)led == (uintptr_t)&__metal_dt_led_2) {
20015a0a:	fec42703          	lw	a4,-20(s0)
20015a0e:	82418793          	addi	a5,gp,-2012 # 80000ad4 <__metal_dt_led_2>
20015a12:	00f71463          	bne	a4,a5,20015a1a <__metal_driver_sifive_gpio_led_pin+0x3a>
E:\GitHub\HiFive01-RevB\FS_workspace\sifive_hifive1_revb_sifive_welcome\bsp\build\debug/./metal/machine.h:603
		return 21;
20015a16:	47d5                	li	a5,21
20015a18:	a011                	j	20015a1c <__metal_driver_sifive_gpio_led_pin+0x3c>
E:\GitHub\HiFive01-RevB\FS_workspace\sifive_hifive1_revb_sifive_welcome\bsp\build\debug/./metal/machine.h:606
		return 0;
20015a1a:	4781                	li	a5,0
E:\GitHub\HiFive01-RevB\FS_workspace\sifive_hifive1_revb_sifive_welcome\bsp\build\debug/./metal/machine.h:608
}
20015a1c:	853e                	mv	a0,a5
20015a1e:	4472                	lw	s0,28(sp)
20015a20:	6105                	addi	sp,sp,32
20015a22:	8082                	ret

20015a24 <__metal_driver_sifive_gpio_led_label>:
__metal_driver_sifive_gpio_led_label():
E:\GitHub\HiFive01-RevB\FS_workspace\sifive_hifive1_revb_sifive_welcome\bsp\build\debug/./metal/machine.h:611
{
20015a24:	1101                	addi	sp,sp,-32
20015a26:	ce22                	sw	s0,28(sp)
20015a28:	1000                	addi	s0,sp,32
20015a2a:	fea42623          	sw	a0,-20(s0)
E:\GitHub\HiFive01-RevB\FS_workspace\sifive_hifive1_revb_sifive_welcome\bsp\build\debug/./metal/machine.h:612
	if ((uintptr_t)led == (uintptr_t)&__metal_dt_led_0) {
20015a2e:	fec42703          	lw	a4,-20(s0)
20015a32:	81c18793          	addi	a5,gp,-2020 # 80000acc <__metal_dt_led_0>
20015a36:	00f71763          	bne	a4,a5,20015a44 <__metal_driver_sifive_gpio_led_label+0x20>
E:\GitHub\HiFive01-RevB\FS_workspace\sifive_hifive1_revb_sifive_welcome\bsp\build\debug/./metal/machine.h:613
		return "LD0red";
20015a3a:	200117b7          	lui	a5,0x20011
20015a3e:	2b478793          	addi	a5,a5,692 # 200112b4 <__metal_driver_vtable_sifive_fe310_g000_pll+0xc>
20015a42:	a81d                	j	20015a78 <__metal_driver_sifive_gpio_led_label+0x54>
E:\GitHub\HiFive01-RevB\FS_workspace\sifive_hifive1_revb_sifive_welcome\bsp\build\debug/./metal/machine.h:615
	else if ((uintptr_t)led == (uintptr_t)&__metal_dt_led_1) {
20015a44:	fec42703          	lw	a4,-20(s0)
20015a48:	82018793          	addi	a5,gp,-2016 # 80000ad0 <__metal_dt_led_1>
20015a4c:	00f71763          	bne	a4,a5,20015a5a <__metal_driver_sifive_gpio_led_label+0x36>
E:\GitHub\HiFive01-RevB\FS_workspace\sifive_hifive1_revb_sifive_welcome\bsp\build\debug/./metal/machine.h:616
		return "LD0green";
20015a50:	200117b7          	lui	a5,0x20011
20015a54:	2bc78793          	addi	a5,a5,700 # 200112bc <__metal_driver_vtable_sifive_fe310_g000_pll+0x14>
20015a58:	a005                	j	20015a78 <__metal_driver_sifive_gpio_led_label+0x54>
E:\GitHub\HiFive01-RevB\FS_workspace\sifive_hifive1_revb_sifive_welcome\bsp\build\debug/./metal/machine.h:618
	else if ((uintptr_t)led == (uintptr_t)&__metal_dt_led_2) {
20015a5a:	fec42703          	lw	a4,-20(s0)
20015a5e:	82418793          	addi	a5,gp,-2012 # 80000ad4 <__metal_dt_led_2>
20015a62:	00f71763          	bne	a4,a5,20015a70 <__metal_driver_sifive_gpio_led_label+0x4c>
E:\GitHub\HiFive01-RevB\FS_workspace\sifive_hifive1_revb_sifive_welcome\bsp\build\debug/./metal/machine.h:619
		return "LD0blue";
20015a66:	200117b7          	lui	a5,0x20011
20015a6a:	2c878793          	addi	a5,a5,712 # 200112c8 <__metal_driver_vtable_sifive_fe310_g000_pll+0x20>
20015a6e:	a029                	j	20015a78 <__metal_driver_sifive_gpio_led_label+0x54>
E:\GitHub\HiFive01-RevB\FS_workspace\sifive_hifive1_revb_sifive_welcome\bsp\build\debug/./metal/machine.h:622
		return "";
20015a70:	200117b7          	lui	a5,0x20011
20015a74:	2d078793          	addi	a5,a5,720 # 200112d0 <__metal_driver_vtable_sifive_fe310_g000_pll+0x28>
E:\GitHub\HiFive01-RevB\FS_workspace\sifive_hifive1_revb_sifive_welcome\bsp\build\debug/./metal/machine.h:624
}
20015a78:	853e                	mv	a0,a5
20015a7a:	4472                	lw	s0,28(sp)
20015a7c:	6105                	addi	sp,sp,32
20015a7e:	8082                	ret

20015a80 <__metal_driver_led_exist>:
__metal_driver_led_exist():
E:/GitHub/HiFive01-RevB/FS_workspace/sifive_hifive1_revb_sifive_welcome/freedom-metal/src/drivers/sifive_gpio-leds.c:13
#include <metal/drivers/sifive_gpio-leds.h>
#include <metal/gpio.h>
#include <metal/machine.h>
#include <string.h>

int __metal_driver_led_exist(struct metal_led *led, char *label) {
20015a80:	1101                	addi	sp,sp,-32
20015a82:	ce06                	sw	ra,28(sp)
20015a84:	cc22                	sw	s0,24(sp)
20015a86:	1000                	addi	s0,sp,32
20015a88:	fea42623          	sw	a0,-20(s0)
20015a8c:	feb42423          	sw	a1,-24(s0)
E:/GitHub/HiFive01-RevB/FS_workspace/sifive_hifive1_revb_sifive_welcome/freedom-metal/src/drivers/sifive_gpio-leds.c:14
    if (strcmp(__metal_driver_sifive_gpio_led_label(led), label) == 0) {
20015a90:	fec42503          	lw	a0,-20(s0)
20015a94:	3f41                	jal	20015a24 <__metal_driver_sifive_gpio_led_label>
20015a96:	87aa                	mv	a5,a0
20015a98:	fe842583          	lw	a1,-24(s0)
20015a9c:	853e                	mv	a0,a5
20015a9e:	217010ef          	jal	ra,200174b4 <strcmp>
20015aa2:	87aa                	mv	a5,a0
20015aa4:	e399                	bnez	a5,20015aaa <__metal_driver_led_exist+0x2a>
E:/GitHub/HiFive01-RevB/FS_workspace/sifive_hifive1_revb_sifive_welcome/freedom-metal/src/drivers/sifive_gpio-leds.c:15
        return 1;
20015aa6:	4785                	li	a5,1
20015aa8:	a011                	j	20015aac <__metal_driver_led_exist+0x2c>
E:/GitHub/HiFive01-RevB/FS_workspace/sifive_hifive1_revb_sifive_welcome/freedom-metal/src/drivers/sifive_gpio-leds.c:17
    }
    return 0;
20015aaa:	4781                	li	a5,0
E:/GitHub/HiFive01-RevB/FS_workspace/sifive_hifive1_revb_sifive_welcome/freedom-metal/src/drivers/sifive_gpio-leds.c:18
}
20015aac:	853e                	mv	a0,a5
20015aae:	40f2                	lw	ra,28(sp)
20015ab0:	4462                	lw	s0,24(sp)
20015ab2:	6105                	addi	sp,sp,32
20015ab4:	8082                	ret

20015ab6 <__metal_driver_led_enable>:
__metal_driver_led_enable():
E:/GitHub/HiFive01-RevB/FS_workspace/sifive_hifive1_revb_sifive_welcome/freedom-metal/src/drivers/sifive_gpio-leds.c:20

void __metal_driver_led_enable(struct metal_led *led) {
20015ab6:	7179                	addi	sp,sp,-48
20015ab8:	d606                	sw	ra,44(sp)
20015aba:	d422                	sw	s0,40(sp)
20015abc:	1800                	addi	s0,sp,48
20015abe:	fca42e23          	sw	a0,-36(s0)
E:/GitHub/HiFive01-RevB/FS_workspace/sifive_hifive1_revb_sifive_welcome/freedom-metal/src/drivers/sifive_gpio-leds.c:24
    int pin;
    struct metal_gpio *gpio;

    pin = __metal_driver_sifive_gpio_led_pin(led);
20015ac2:	fdc42503          	lw	a0,-36(s0)
20015ac6:	f1bff0ef          	jal	ra,200159e0 <__metal_driver_sifive_gpio_led_pin>
20015aca:	fea42623          	sw	a0,-20(s0)
E:/GitHub/HiFive01-RevB/FS_workspace/sifive_hifive1_revb_sifive_welcome/freedom-metal/src/drivers/sifive_gpio-leds.c:25
    gpio = __metal_driver_sifive_gpio_led_gpio(led);
20015ace:	fdc42503          	lw	a0,-36(s0)
20015ad2:	ec5ff0ef          	jal	ra,20015996 <__metal_driver_sifive_gpio_led_gpio>
20015ad6:	fea42423          	sw	a0,-24(s0)
E:/GitHub/HiFive01-RevB/FS_workspace/sifive_hifive1_revb_sifive_welcome/freedom-metal/src/drivers/sifive_gpio-leds.c:27

    if (gpio != NULL) {
20015ada:	fe842783          	lw	a5,-24(s0)
20015ade:	cf89                	beqz	a5,20015af8 <__metal_driver_led_enable+0x42>
E:/GitHub/HiFive01-RevB/FS_workspace/sifive_hifive1_revb_sifive_welcome/freedom-metal/src/drivers/sifive_gpio-leds.c:29
        /* Configure LED as output */
        metal_gpio_disable_input((struct metal_gpio *)gpio, pin);
20015ae0:	fec42583          	lw	a1,-20(s0)
20015ae4:	fe842503          	lw	a0,-24(s0)
20015ae8:	3e8010ef          	jal	ra,20016ed0 <metal_gpio_disable_input>
E:/GitHub/HiFive01-RevB/FS_workspace/sifive_hifive1_revb_sifive_welcome/freedom-metal/src/drivers/sifive_gpio-leds.c:30
        metal_gpio_enable_output((struct metal_gpio *)gpio, pin);
20015aec:	fec42583          	lw	a1,-20(s0)
20015af0:	fe842503          	lw	a0,-24(s0)
20015af4:	41c010ef          	jal	ra,20016f10 <metal_gpio_enable_output>
E:/GitHub/HiFive01-RevB/FS_workspace/sifive_hifive1_revb_sifive_welcome/freedom-metal/src/drivers/sifive_gpio-leds.c:32
    }
}
20015af8:	0001                	nop
20015afa:	50b2                	lw	ra,44(sp)
20015afc:	5422                	lw	s0,40(sp)
20015afe:	6145                	addi	sp,sp,48
20015b00:	8082                	ret

20015b02 <__metal_driver_led_on>:
__metal_driver_led_on():
E:/GitHub/HiFive01-RevB/FS_workspace/sifive_hifive1_revb_sifive_welcome/freedom-metal/src/drivers/sifive_gpio-leds.c:34

void __metal_driver_led_on(struct metal_led *led) {
20015b02:	7179                	addi	sp,sp,-48
20015b04:	d606                	sw	ra,44(sp)
20015b06:	d422                	sw	s0,40(sp)
20015b08:	1800                	addi	s0,sp,48
20015b0a:	fca42e23          	sw	a0,-36(s0)
E:/GitHub/HiFive01-RevB/FS_workspace/sifive_hifive1_revb_sifive_welcome/freedom-metal/src/drivers/sifive_gpio-leds.c:38
    int pin;
    struct metal_gpio *gpio;

    pin = __metal_driver_sifive_gpio_led_pin(led);
20015b0e:	fdc42503          	lw	a0,-36(s0)
20015b12:	ecfff0ef          	jal	ra,200159e0 <__metal_driver_sifive_gpio_led_pin>
20015b16:	fea42623          	sw	a0,-20(s0)
E:/GitHub/HiFive01-RevB/FS_workspace/sifive_hifive1_revb_sifive_welcome/freedom-metal/src/drivers/sifive_gpio-leds.c:39
    gpio = __metal_driver_sifive_gpio_led_gpio(led);
20015b1a:	fdc42503          	lw	a0,-36(s0)
20015b1e:	e79ff0ef          	jal	ra,20015996 <__metal_driver_sifive_gpio_led_gpio>
20015b22:	fea42423          	sw	a0,-24(s0)
E:/GitHub/HiFive01-RevB/FS_workspace/sifive_hifive1_revb_sifive_welcome/freedom-metal/src/drivers/sifive_gpio-leds.c:41

    if (gpio != NULL) {
20015b26:	fe842783          	lw	a5,-24(s0)
20015b2a:	cb81                	beqz	a5,20015b3a <__metal_driver_led_on+0x38>
E:/GitHub/HiFive01-RevB/FS_workspace/sifive_hifive1_revb_sifive_welcome/freedom-metal/src/drivers/sifive_gpio-leds.c:42
        metal_gpio_set_pin((struct metal_gpio *)gpio, pin, 1);
20015b2c:	4605                	li	a2,1
20015b2e:	fec42583          	lw	a1,-20(s0)
20015b32:	fe842503          	lw	a0,-24(s0)
20015b36:	41a010ef          	jal	ra,20016f50 <metal_gpio_set_pin>
E:/GitHub/HiFive01-RevB/FS_workspace/sifive_hifive1_revb_sifive_welcome/freedom-metal/src/drivers/sifive_gpio-leds.c:44
    }
}
20015b3a:	0001                	nop
20015b3c:	50b2                	lw	ra,44(sp)
20015b3e:	5422                	lw	s0,40(sp)
20015b40:	6145                	addi	sp,sp,48
20015b42:	8082                	ret

20015b44 <__metal_driver_led_off>:
__metal_driver_led_off():
E:/GitHub/HiFive01-RevB/FS_workspace/sifive_hifive1_revb_sifive_welcome/freedom-metal/src/drivers/sifive_gpio-leds.c:46

void __metal_driver_led_off(struct metal_led *led) {
20015b44:	7179                	addi	sp,sp,-48
20015b46:	d606                	sw	ra,44(sp)
20015b48:	d422                	sw	s0,40(sp)
20015b4a:	1800                	addi	s0,sp,48
20015b4c:	fca42e23          	sw	a0,-36(s0)
E:/GitHub/HiFive01-RevB/FS_workspace/sifive_hifive1_revb_sifive_welcome/freedom-metal/src/drivers/sifive_gpio-leds.c:50
    int pin;
    struct metal_gpio *gpio;

    pin = __metal_driver_sifive_gpio_led_pin(led);
20015b50:	fdc42503          	lw	a0,-36(s0)
20015b54:	e8dff0ef          	jal	ra,200159e0 <__metal_driver_sifive_gpio_led_pin>
20015b58:	fea42623          	sw	a0,-20(s0)
E:/GitHub/HiFive01-RevB/FS_workspace/sifive_hifive1_revb_sifive_welcome/freedom-metal/src/drivers/sifive_gpio-leds.c:51
    gpio = __metal_driver_sifive_gpio_led_gpio(led);
20015b5c:	fdc42503          	lw	a0,-36(s0)
20015b60:	e37ff0ef          	jal	ra,20015996 <__metal_driver_sifive_gpio_led_gpio>
20015b64:	fea42423          	sw	a0,-24(s0)
E:/GitHub/HiFive01-RevB/FS_workspace/sifive_hifive1_revb_sifive_welcome/freedom-metal/src/drivers/sifive_gpio-leds.c:53

    if (gpio != NULL) {
20015b68:	fe842783          	lw	a5,-24(s0)
20015b6c:	cb81                	beqz	a5,20015b7c <__metal_driver_led_off+0x38>
E:/GitHub/HiFive01-RevB/FS_workspace/sifive_hifive1_revb_sifive_welcome/freedom-metal/src/drivers/sifive_gpio-leds.c:54
        metal_gpio_set_pin((struct metal_gpio *)gpio, pin, 0);
20015b6e:	4601                	li	a2,0
20015b70:	fec42583          	lw	a1,-20(s0)
20015b74:	fe842503          	lw	a0,-24(s0)
20015b78:	3d8010ef          	jal	ra,20016f50 <metal_gpio_set_pin>
E:/GitHub/HiFive01-RevB/FS_workspace/sifive_hifive1_revb_sifive_welcome/freedom-metal/src/drivers/sifive_gpio-leds.c:56
    }
}
20015b7c:	0001                	nop
20015b7e:	50b2                	lw	ra,44(sp)
20015b80:	5422                	lw	s0,40(sp)
20015b82:	6145                	addi	sp,sp,48
20015b84:	8082                	ret

20015b86 <__metal_driver_led_toggle>:
__metal_driver_led_toggle():
E:/GitHub/HiFive01-RevB/FS_workspace/sifive_hifive1_revb_sifive_welcome/freedom-metal/src/drivers/sifive_gpio-leds.c:58

void __metal_driver_led_toggle(struct metal_led *led) {
20015b86:	7179                	addi	sp,sp,-48
20015b88:	d606                	sw	ra,44(sp)
20015b8a:	d422                	sw	s0,40(sp)
20015b8c:	1800                	addi	s0,sp,48
20015b8e:	fca42e23          	sw	a0,-36(s0)
E:/GitHub/HiFive01-RevB/FS_workspace/sifive_hifive1_revb_sifive_welcome/freedom-metal/src/drivers/sifive_gpio-leds.c:62
    int pin;
    struct metal_gpio *gpio;

    pin = __metal_driver_sifive_gpio_led_pin(led);
20015b92:	fdc42503          	lw	a0,-36(s0)
20015b96:	e4bff0ef          	jal	ra,200159e0 <__metal_driver_sifive_gpio_led_pin>
20015b9a:	fea42623          	sw	a0,-20(s0)
E:/GitHub/HiFive01-RevB/FS_workspace/sifive_hifive1_revb_sifive_welcome/freedom-metal/src/drivers/sifive_gpio-leds.c:63
    gpio = __metal_driver_sifive_gpio_led_gpio(led);
20015b9e:	fdc42503          	lw	a0,-36(s0)
20015ba2:	df5ff0ef          	jal	ra,20015996 <__metal_driver_sifive_gpio_led_gpio>
20015ba6:	fea42423          	sw	a0,-24(s0)
E:/GitHub/HiFive01-RevB/FS_workspace/sifive_hifive1_revb_sifive_welcome/freedom-metal/src/drivers/sifive_gpio-leds.c:65

    if (gpio != NULL) {
20015baa:	fe842783          	lw	a5,-24(s0)
20015bae:	c799                	beqz	a5,20015bbc <__metal_driver_led_toggle+0x36>
E:/GitHub/HiFive01-RevB/FS_workspace/sifive_hifive1_revb_sifive_welcome/freedom-metal/src/drivers/sifive_gpio-leds.c:66
        metal_gpio_toggle_pin((struct metal_gpio *)gpio, pin);
20015bb0:	fec42583          	lw	a1,-20(s0)
20015bb4:	fe842503          	lw	a0,-24(s0)
20015bb8:	400010ef          	jal	ra,20016fb8 <metal_gpio_toggle_pin>
E:/GitHub/HiFive01-RevB/FS_workspace/sifive_hifive1_revb_sifive_welcome/freedom-metal/src/drivers/sifive_gpio-leds.c:68
    }
}
20015bbc:	0001                	nop
20015bbe:	50b2                	lw	ra,44(sp)
20015bc0:	5422                	lw	s0,40(sp)
20015bc2:	6145                	addi	sp,sp,48
20015bc4:	8082                	ret

20015bc6 <__metal_driver_sifive_gpio0_base>:
__metal_driver_sifive_gpio0_base():
E:\GitHub\HiFive01-RevB\FS_workspace\sifive_hifive1_revb_sifive_welcome\bsp\build\debug/./metal/machine.h:430
{
20015bc6:	1101                	addi	sp,sp,-32
20015bc8:	ce22                	sw	s0,28(sp)
20015bca:	1000                	addi	s0,sp,32
20015bcc:	fea42623          	sw	a0,-20(s0)
E:\GitHub\HiFive01-RevB\FS_workspace\sifive_hifive1_revb_sifive_welcome\bsp\build\debug/./metal/machine.h:431
	if ((uintptr_t)gpio == (uintptr_t)&__metal_dt_gpio_10012000) {
20015bd0:	fec42703          	lw	a4,-20(s0)
20015bd4:	81818793          	addi	a5,gp,-2024 # 80000ac8 <__metal_dt_gpio_10012000>
20015bd8:	00f71563          	bne	a4,a5,20015be2 <__metal_driver_sifive_gpio0_base+0x1c>
E:\GitHub\HiFive01-RevB\FS_workspace\sifive_hifive1_revb_sifive_welcome\bsp\build\debug/./metal/machine.h:432
		return METAL_SIFIVE_GPIO0_10012000_BASE_ADDRESS;
20015bdc:	100127b7          	lui	a5,0x10012
20015be0:	a011                	j	20015be4 <__metal_driver_sifive_gpio0_base+0x1e>
E:\GitHub\HiFive01-RevB\FS_workspace\sifive_hifive1_revb_sifive_welcome\bsp\build\debug/./metal/machine.h:435
		return 0;
20015be2:	4781                	li	a5,0
E:\GitHub\HiFive01-RevB\FS_workspace\sifive_hifive1_revb_sifive_welcome\bsp\build\debug/./metal/machine.h:437
}
20015be4:	853e                	mv	a0,a5
20015be6:	4472                	lw	s0,28(sp)
20015be8:	6105                	addi	sp,sp,32
20015bea:	8082                	ret

20015bec <__metal_driver_sifive_gpio0_interrupt_parent>:
__metal_driver_sifive_gpio0_interrupt_parent():
E:\GitHub\HiFive01-RevB\FS_workspace\sifive_hifive1_revb_sifive_welcome\bsp\build\debug/./metal/machine.h:460
{
20015bec:	1101                	addi	sp,sp,-32
20015bee:	ce22                	sw	s0,28(sp)
20015bf0:	1000                	addi	s0,sp,32
20015bf2:	fea42623          	sw	a0,-20(s0)
E:\GitHub\HiFive01-RevB\FS_workspace\sifive_hifive1_revb_sifive_welcome\bsp\build\debug/./metal/machine.h:461
	if ((uintptr_t)gpio == (uintptr_t)&__metal_dt_gpio_10012000) {
20015bf6:	fec42703          	lw	a4,-20(s0)
20015bfa:	81818793          	addi	a5,gp,-2024 # 80000ac8 <__metal_dt_gpio_10012000>
20015bfe:	00f71763          	bne	a4,a5,20015c0c <__metal_driver_sifive_gpio0_interrupt_parent+0x20>
E:\GitHub\HiFive01-RevB\FS_workspace\sifive_hifive1_revb_sifive_welcome\bsp\build\debug/./metal/machine.h:462
		return (struct metal_interrupt *)&__metal_dt_interrupt_controller_c000000.controller;
20015c02:	800007b7          	lui	a5,0x80000
20015c06:	47078793          	addi	a5,a5,1136 # 80000470 <metal_segment_heap_target_end+0xffffecd0>
20015c0a:	a011                	j	20015c0e <__metal_driver_sifive_gpio0_interrupt_parent+0x22>
E:\GitHub\HiFive01-RevB\FS_workspace\sifive_hifive1_revb_sifive_welcome\bsp\build\debug/./metal/machine.h:465
		return 0;
20015c0c:	4781                	li	a5,0
E:\GitHub\HiFive01-RevB\FS_workspace\sifive_hifive1_revb_sifive_welcome\bsp\build\debug/./metal/machine.h:467
}
20015c0e:	853e                	mv	a0,a5
20015c10:	4472                	lw	s0,28(sp)
20015c12:	6105                	addi	sp,sp,32
20015c14:	8082                	ret

20015c16 <__metal_driver_sifive_gpio0_interrupt_lines>:
__metal_driver_sifive_gpio0_interrupt_lines():
E:\GitHub\HiFive01-RevB\FS_workspace\sifive_hifive1_revb_sifive_welcome\bsp\build\debug/./metal/machine.h:470
{
20015c16:	1101                	addi	sp,sp,-32
20015c18:	ce22                	sw	s0,28(sp)
20015c1a:	1000                	addi	s0,sp,32
20015c1c:	fea42623          	sw	a0,-20(s0)
20015c20:	feb42423          	sw	a1,-24(s0)
E:\GitHub\HiFive01-RevB\FS_workspace\sifive_hifive1_revb_sifive_welcome\bsp\build\debug/./metal/machine.h:471
	if (((uintptr_t)gpio == (uintptr_t)&__metal_dt_gpio_10012000) && (idx == 0)) {
20015c24:	fec42703          	lw	a4,-20(s0)
20015c28:	81818793          	addi	a5,gp,-2024 # 80000ac8 <__metal_dt_gpio_10012000>
20015c2c:	00f71763          	bne	a4,a5,20015c3a <__metal_driver_sifive_gpio0_interrupt_lines+0x24>
E:\GitHub\HiFive01-RevB\FS_workspace\sifive_hifive1_revb_sifive_welcome\bsp\build\debug/./metal/machine.h:471 (discriminator 1)
20015c30:	fe842783          	lw	a5,-24(s0)
20015c34:	e399                	bnez	a5,20015c3a <__metal_driver_sifive_gpio0_interrupt_lines+0x24>
E:\GitHub\HiFive01-RevB\FS_workspace\sifive_hifive1_revb_sifive_welcome\bsp\build\debug/./metal/machine.h:472
		return 8;
20015c36:	47a1                	li	a5,8
20015c38:	ae15                	j	20015f6c <__metal_driver_sifive_gpio0_interrupt_lines+0x356>
E:\GitHub\HiFive01-RevB\FS_workspace\sifive_hifive1_revb_sifive_welcome\bsp\build\debug/./metal/machine.h:474
	else if ((((uintptr_t)gpio == (uintptr_t)&__metal_dt_gpio_10012000) && (idx == 1))) {
20015c3a:	fec42703          	lw	a4,-20(s0)
20015c3e:	81818793          	addi	a5,gp,-2024 # 80000ac8 <__metal_dt_gpio_10012000>
20015c42:	00f71963          	bne	a4,a5,20015c54 <__metal_driver_sifive_gpio0_interrupt_lines+0x3e>
E:\GitHub\HiFive01-RevB\FS_workspace\sifive_hifive1_revb_sifive_welcome\bsp\build\debug/./metal/machine.h:474 (discriminator 1)
20015c46:	fe842703          	lw	a4,-24(s0)
20015c4a:	4785                	li	a5,1
20015c4c:	00f71463          	bne	a4,a5,20015c54 <__metal_driver_sifive_gpio0_interrupt_lines+0x3e>
E:\GitHub\HiFive01-RevB\FS_workspace\sifive_hifive1_revb_sifive_welcome\bsp\build\debug/./metal/machine.h:475
		return 9;
20015c50:	47a5                	li	a5,9
20015c52:	ae29                	j	20015f6c <__metal_driver_sifive_gpio0_interrupt_lines+0x356>
E:\GitHub\HiFive01-RevB\FS_workspace\sifive_hifive1_revb_sifive_welcome\bsp\build\debug/./metal/machine.h:477
	else if ((((uintptr_t)gpio == (uintptr_t)&__metal_dt_gpio_10012000) && (idx == 2))) {
20015c54:	fec42703          	lw	a4,-20(s0)
20015c58:	81818793          	addi	a5,gp,-2024 # 80000ac8 <__metal_dt_gpio_10012000>
20015c5c:	00f71963          	bne	a4,a5,20015c6e <__metal_driver_sifive_gpio0_interrupt_lines+0x58>
E:\GitHub\HiFive01-RevB\FS_workspace\sifive_hifive1_revb_sifive_welcome\bsp\build\debug/./metal/machine.h:477 (discriminator 1)
20015c60:	fe842703          	lw	a4,-24(s0)
20015c64:	4789                	li	a5,2
20015c66:	00f71463          	bne	a4,a5,20015c6e <__metal_driver_sifive_gpio0_interrupt_lines+0x58>
E:\GitHub\HiFive01-RevB\FS_workspace\sifive_hifive1_revb_sifive_welcome\bsp\build\debug/./metal/machine.h:478
		return 10;
20015c6a:	47a9                	li	a5,10
20015c6c:	a601                	j	20015f6c <__metal_driver_sifive_gpio0_interrupt_lines+0x356>
E:\GitHub\HiFive01-RevB\FS_workspace\sifive_hifive1_revb_sifive_welcome\bsp\build\debug/./metal/machine.h:480
	else if ((((uintptr_t)gpio == (uintptr_t)&__metal_dt_gpio_10012000) && (idx == 3))) {
20015c6e:	fec42703          	lw	a4,-20(s0)
20015c72:	81818793          	addi	a5,gp,-2024 # 80000ac8 <__metal_dt_gpio_10012000>
20015c76:	00f71963          	bne	a4,a5,20015c88 <__metal_driver_sifive_gpio0_interrupt_lines+0x72>
E:\GitHub\HiFive01-RevB\FS_workspace\sifive_hifive1_revb_sifive_welcome\bsp\build\debug/./metal/machine.h:480 (discriminator 1)
20015c7a:	fe842703          	lw	a4,-24(s0)
20015c7e:	478d                	li	a5,3
20015c80:	00f71463          	bne	a4,a5,20015c88 <__metal_driver_sifive_gpio0_interrupt_lines+0x72>
E:\GitHub\HiFive01-RevB\FS_workspace\sifive_hifive1_revb_sifive_welcome\bsp\build\debug/./metal/machine.h:481
		return 11;
20015c84:	47ad                	li	a5,11
20015c86:	a4dd                	j	20015f6c <__metal_driver_sifive_gpio0_interrupt_lines+0x356>
E:\GitHub\HiFive01-RevB\FS_workspace\sifive_hifive1_revb_sifive_welcome\bsp\build\debug/./metal/machine.h:483
	else if ((((uintptr_t)gpio == (uintptr_t)&__metal_dt_gpio_10012000) && (idx == 4))) {
20015c88:	fec42703          	lw	a4,-20(s0)
20015c8c:	81818793          	addi	a5,gp,-2024 # 80000ac8 <__metal_dt_gpio_10012000>
20015c90:	00f71963          	bne	a4,a5,20015ca2 <__metal_driver_sifive_gpio0_interrupt_lines+0x8c>
E:\GitHub\HiFive01-RevB\FS_workspace\sifive_hifive1_revb_sifive_welcome\bsp\build\debug/./metal/machine.h:483 (discriminator 1)
20015c94:	fe842703          	lw	a4,-24(s0)
20015c98:	4791                	li	a5,4
20015c9a:	00f71463          	bne	a4,a5,20015ca2 <__metal_driver_sifive_gpio0_interrupt_lines+0x8c>
E:\GitHub\HiFive01-RevB\FS_workspace\sifive_hifive1_revb_sifive_welcome\bsp\build\debug/./metal/machine.h:484
		return 12;
20015c9e:	47b1                	li	a5,12
20015ca0:	a4f1                	j	20015f6c <__metal_driver_sifive_gpio0_interrupt_lines+0x356>
E:\GitHub\HiFive01-RevB\FS_workspace\sifive_hifive1_revb_sifive_welcome\bsp\build\debug/./metal/machine.h:486
	else if ((((uintptr_t)gpio == (uintptr_t)&__metal_dt_gpio_10012000) && (idx == 5))) {
20015ca2:	fec42703          	lw	a4,-20(s0)
20015ca6:	81818793          	addi	a5,gp,-2024 # 80000ac8 <__metal_dt_gpio_10012000>
20015caa:	00f71963          	bne	a4,a5,20015cbc <__metal_driver_sifive_gpio0_interrupt_lines+0xa6>
E:\GitHub\HiFive01-RevB\FS_workspace\sifive_hifive1_revb_sifive_welcome\bsp\build\debug/./metal/machine.h:486 (discriminator 1)
20015cae:	fe842703          	lw	a4,-24(s0)
20015cb2:	4795                	li	a5,5
20015cb4:	00f71463          	bne	a4,a5,20015cbc <__metal_driver_sifive_gpio0_interrupt_lines+0xa6>
E:\GitHub\HiFive01-RevB\FS_workspace\sifive_hifive1_revb_sifive_welcome\bsp\build\debug/./metal/machine.h:487
		return 13;
20015cb8:	47b5                	li	a5,13
20015cba:	ac4d                	j	20015f6c <__metal_driver_sifive_gpio0_interrupt_lines+0x356>
E:\GitHub\HiFive01-RevB\FS_workspace\sifive_hifive1_revb_sifive_welcome\bsp\build\debug/./metal/machine.h:489
	else if ((((uintptr_t)gpio == (uintptr_t)&__metal_dt_gpio_10012000) && (idx == 6))) {
20015cbc:	fec42703          	lw	a4,-20(s0)
20015cc0:	81818793          	addi	a5,gp,-2024 # 80000ac8 <__metal_dt_gpio_10012000>
20015cc4:	00f71963          	bne	a4,a5,20015cd6 <__metal_driver_sifive_gpio0_interrupt_lines+0xc0>
E:\GitHub\HiFive01-RevB\FS_workspace\sifive_hifive1_revb_sifive_welcome\bsp\build\debug/./metal/machine.h:489 (discriminator 1)
20015cc8:	fe842703          	lw	a4,-24(s0)
20015ccc:	4799                	li	a5,6
20015cce:	00f71463          	bne	a4,a5,20015cd6 <__metal_driver_sifive_gpio0_interrupt_lines+0xc0>
E:\GitHub\HiFive01-RevB\FS_workspace\sifive_hifive1_revb_sifive_welcome\bsp\build\debug/./metal/machine.h:490
		return 14;
20015cd2:	47b9                	li	a5,14
20015cd4:	ac61                	j	20015f6c <__metal_driver_sifive_gpio0_interrupt_lines+0x356>
E:\GitHub\HiFive01-RevB\FS_workspace\sifive_hifive1_revb_sifive_welcome\bsp\build\debug/./metal/machine.h:492
	else if ((((uintptr_t)gpio == (uintptr_t)&__metal_dt_gpio_10012000) && (idx == 7))) {
20015cd6:	fec42703          	lw	a4,-20(s0)
20015cda:	81818793          	addi	a5,gp,-2024 # 80000ac8 <__metal_dt_gpio_10012000>
20015cde:	00f71963          	bne	a4,a5,20015cf0 <__metal_driver_sifive_gpio0_interrupt_lines+0xda>
E:\GitHub\HiFive01-RevB\FS_workspace\sifive_hifive1_revb_sifive_welcome\bsp\build\debug/./metal/machine.h:492 (discriminator 1)
20015ce2:	fe842703          	lw	a4,-24(s0)
20015ce6:	479d                	li	a5,7
20015ce8:	00f71463          	bne	a4,a5,20015cf0 <__metal_driver_sifive_gpio0_interrupt_lines+0xda>
E:\GitHub\HiFive01-RevB\FS_workspace\sifive_hifive1_revb_sifive_welcome\bsp\build\debug/./metal/machine.h:493
		return 15;
20015cec:	47bd                	li	a5,15
20015cee:	acbd                	j	20015f6c <__metal_driver_sifive_gpio0_interrupt_lines+0x356>
E:\GitHub\HiFive01-RevB\FS_workspace\sifive_hifive1_revb_sifive_welcome\bsp\build\debug/./metal/machine.h:495
	else if ((((uintptr_t)gpio == (uintptr_t)&__metal_dt_gpio_10012000) && (idx == 8))) {
20015cf0:	fec42703          	lw	a4,-20(s0)
20015cf4:	81818793          	addi	a5,gp,-2024 # 80000ac8 <__metal_dt_gpio_10012000>
20015cf8:	00f71963          	bne	a4,a5,20015d0a <__metal_driver_sifive_gpio0_interrupt_lines+0xf4>
E:\GitHub\HiFive01-RevB\FS_workspace\sifive_hifive1_revb_sifive_welcome\bsp\build\debug/./metal/machine.h:495 (discriminator 1)
20015cfc:	fe842703          	lw	a4,-24(s0)
20015d00:	47a1                	li	a5,8
20015d02:	00f71463          	bne	a4,a5,20015d0a <__metal_driver_sifive_gpio0_interrupt_lines+0xf4>
E:\GitHub\HiFive01-RevB\FS_workspace\sifive_hifive1_revb_sifive_welcome\bsp\build\debug/./metal/machine.h:496
		return 16;
20015d06:	47c1                	li	a5,16
20015d08:	a495                	j	20015f6c <__metal_driver_sifive_gpio0_interrupt_lines+0x356>
E:\GitHub\HiFive01-RevB\FS_workspace\sifive_hifive1_revb_sifive_welcome\bsp\build\debug/./metal/machine.h:498
	else if ((((uintptr_t)gpio == (uintptr_t)&__metal_dt_gpio_10012000) && (idx == 9))) {
20015d0a:	fec42703          	lw	a4,-20(s0)
20015d0e:	81818793          	addi	a5,gp,-2024 # 80000ac8 <__metal_dt_gpio_10012000>
20015d12:	00f71963          	bne	a4,a5,20015d24 <__metal_driver_sifive_gpio0_interrupt_lines+0x10e>
E:\GitHub\HiFive01-RevB\FS_workspace\sifive_hifive1_revb_sifive_welcome\bsp\build\debug/./metal/machine.h:498 (discriminator 1)
20015d16:	fe842703          	lw	a4,-24(s0)
20015d1a:	47a5                	li	a5,9
20015d1c:	00f71463          	bne	a4,a5,20015d24 <__metal_driver_sifive_gpio0_interrupt_lines+0x10e>
E:\GitHub\HiFive01-RevB\FS_workspace\sifive_hifive1_revb_sifive_welcome\bsp\build\debug/./metal/machine.h:499
		return 17;
20015d20:	47c5                	li	a5,17
20015d22:	a4a9                	j	20015f6c <__metal_driver_sifive_gpio0_interrupt_lines+0x356>
E:\GitHub\HiFive01-RevB\FS_workspace\sifive_hifive1_revb_sifive_welcome\bsp\build\debug/./metal/machine.h:501
	else if ((((uintptr_t)gpio == (uintptr_t)&__metal_dt_gpio_10012000) && (idx == 10))) {
20015d24:	fec42703          	lw	a4,-20(s0)
20015d28:	81818793          	addi	a5,gp,-2024 # 80000ac8 <__metal_dt_gpio_10012000>
20015d2c:	00f71963          	bne	a4,a5,20015d3e <__metal_driver_sifive_gpio0_interrupt_lines+0x128>
E:\GitHub\HiFive01-RevB\FS_workspace\sifive_hifive1_revb_sifive_welcome\bsp\build\debug/./metal/machine.h:501 (discriminator 1)
20015d30:	fe842703          	lw	a4,-24(s0)
20015d34:	47a9                	li	a5,10
20015d36:	00f71463          	bne	a4,a5,20015d3e <__metal_driver_sifive_gpio0_interrupt_lines+0x128>
E:\GitHub\HiFive01-RevB\FS_workspace\sifive_hifive1_revb_sifive_welcome\bsp\build\debug/./metal/machine.h:502
		return 18;
20015d3a:	47c9                	li	a5,18
20015d3c:	ac05                	j	20015f6c <__metal_driver_sifive_gpio0_interrupt_lines+0x356>
E:\GitHub\HiFive01-RevB\FS_workspace\sifive_hifive1_revb_sifive_welcome\bsp\build\debug/./metal/machine.h:504
	else if ((((uintptr_t)gpio == (uintptr_t)&__metal_dt_gpio_10012000) && (idx == 11))) {
20015d3e:	fec42703          	lw	a4,-20(s0)
20015d42:	81818793          	addi	a5,gp,-2024 # 80000ac8 <__metal_dt_gpio_10012000>
20015d46:	00f71963          	bne	a4,a5,20015d58 <__metal_driver_sifive_gpio0_interrupt_lines+0x142>
E:\GitHub\HiFive01-RevB\FS_workspace\sifive_hifive1_revb_sifive_welcome\bsp\build\debug/./metal/machine.h:504 (discriminator 1)
20015d4a:	fe842703          	lw	a4,-24(s0)
20015d4e:	47ad                	li	a5,11
20015d50:	00f71463          	bne	a4,a5,20015d58 <__metal_driver_sifive_gpio0_interrupt_lines+0x142>
E:\GitHub\HiFive01-RevB\FS_workspace\sifive_hifive1_revb_sifive_welcome\bsp\build\debug/./metal/machine.h:505
		return 19;
20015d54:	47cd                	li	a5,19
20015d56:	ac19                	j	20015f6c <__metal_driver_sifive_gpio0_interrupt_lines+0x356>
E:\GitHub\HiFive01-RevB\FS_workspace\sifive_hifive1_revb_sifive_welcome\bsp\build\debug/./metal/machine.h:507
	else if ((((uintptr_t)gpio == (uintptr_t)&__metal_dt_gpio_10012000) && (idx == 12))) {
20015d58:	fec42703          	lw	a4,-20(s0)
20015d5c:	81818793          	addi	a5,gp,-2024 # 80000ac8 <__metal_dt_gpio_10012000>
20015d60:	00f71963          	bne	a4,a5,20015d72 <__metal_driver_sifive_gpio0_interrupt_lines+0x15c>
E:\GitHub\HiFive01-RevB\FS_workspace\sifive_hifive1_revb_sifive_welcome\bsp\build\debug/./metal/machine.h:507 (discriminator 1)
20015d64:	fe842703          	lw	a4,-24(s0)
20015d68:	47b1                	li	a5,12
20015d6a:	00f71463          	bne	a4,a5,20015d72 <__metal_driver_sifive_gpio0_interrupt_lines+0x15c>
E:\GitHub\HiFive01-RevB\FS_workspace\sifive_hifive1_revb_sifive_welcome\bsp\build\debug/./metal/machine.h:508
		return 20;
20015d6e:	47d1                	li	a5,20
20015d70:	aaf5                	j	20015f6c <__metal_driver_sifive_gpio0_interrupt_lines+0x356>
E:\GitHub\HiFive01-RevB\FS_workspace\sifive_hifive1_revb_sifive_welcome\bsp\build\debug/./metal/machine.h:510
	else if ((((uintptr_t)gpio == (uintptr_t)&__metal_dt_gpio_10012000) && (idx == 13))) {
20015d72:	fec42703          	lw	a4,-20(s0)
20015d76:	81818793          	addi	a5,gp,-2024 # 80000ac8 <__metal_dt_gpio_10012000>
20015d7a:	00f71963          	bne	a4,a5,20015d8c <__metal_driver_sifive_gpio0_interrupt_lines+0x176>
E:\GitHub\HiFive01-RevB\FS_workspace\sifive_hifive1_revb_sifive_welcome\bsp\build\debug/./metal/machine.h:510 (discriminator 1)
20015d7e:	fe842703          	lw	a4,-24(s0)
20015d82:	47b5                	li	a5,13
20015d84:	00f71463          	bne	a4,a5,20015d8c <__metal_driver_sifive_gpio0_interrupt_lines+0x176>
E:\GitHub\HiFive01-RevB\FS_workspace\sifive_hifive1_revb_sifive_welcome\bsp\build\debug/./metal/machine.h:511
		return 21;
20015d88:	47d5                	li	a5,21
20015d8a:	a2cd                	j	20015f6c <__metal_driver_sifive_gpio0_interrupt_lines+0x356>
E:\GitHub\HiFive01-RevB\FS_workspace\sifive_hifive1_revb_sifive_welcome\bsp\build\debug/./metal/machine.h:513
	else if ((((uintptr_t)gpio == (uintptr_t)&__metal_dt_gpio_10012000) && (idx == 14))) {
20015d8c:	fec42703          	lw	a4,-20(s0)
20015d90:	81818793          	addi	a5,gp,-2024 # 80000ac8 <__metal_dt_gpio_10012000>
20015d94:	00f71963          	bne	a4,a5,20015da6 <__metal_driver_sifive_gpio0_interrupt_lines+0x190>
E:\GitHub\HiFive01-RevB\FS_workspace\sifive_hifive1_revb_sifive_welcome\bsp\build\debug/./metal/machine.h:513 (discriminator 1)
20015d98:	fe842703          	lw	a4,-24(s0)
20015d9c:	47b9                	li	a5,14
20015d9e:	00f71463          	bne	a4,a5,20015da6 <__metal_driver_sifive_gpio0_interrupt_lines+0x190>
E:\GitHub\HiFive01-RevB\FS_workspace\sifive_hifive1_revb_sifive_welcome\bsp\build\debug/./metal/machine.h:514
		return 22;
20015da2:	47d9                	li	a5,22
20015da4:	a2e1                	j	20015f6c <__metal_driver_sifive_gpio0_interrupt_lines+0x356>
E:\GitHub\HiFive01-RevB\FS_workspace\sifive_hifive1_revb_sifive_welcome\bsp\build\debug/./metal/machine.h:516
	else if ((((uintptr_t)gpio == (uintptr_t)&__metal_dt_gpio_10012000) && (idx == 15))) {
20015da6:	fec42703          	lw	a4,-20(s0)
20015daa:	81818793          	addi	a5,gp,-2024 # 80000ac8 <__metal_dt_gpio_10012000>
20015dae:	00f71963          	bne	a4,a5,20015dc0 <__metal_driver_sifive_gpio0_interrupt_lines+0x1aa>
E:\GitHub\HiFive01-RevB\FS_workspace\sifive_hifive1_revb_sifive_welcome\bsp\build\debug/./metal/machine.h:516 (discriminator 1)
20015db2:	fe842703          	lw	a4,-24(s0)
20015db6:	47bd                	li	a5,15
20015db8:	00f71463          	bne	a4,a5,20015dc0 <__metal_driver_sifive_gpio0_interrupt_lines+0x1aa>
E:\GitHub\HiFive01-RevB\FS_workspace\sifive_hifive1_revb_sifive_welcome\bsp\build\debug/./metal/machine.h:517
		return 23;
20015dbc:	47dd                	li	a5,23
20015dbe:	a27d                	j	20015f6c <__metal_driver_sifive_gpio0_interrupt_lines+0x356>
E:\GitHub\HiFive01-RevB\FS_workspace\sifive_hifive1_revb_sifive_welcome\bsp\build\debug/./metal/machine.h:519
	else if ((((uintptr_t)gpio == (uintptr_t)&__metal_dt_gpio_10012000) && (idx == 16))) {
20015dc0:	fec42703          	lw	a4,-20(s0)
20015dc4:	81818793          	addi	a5,gp,-2024 # 80000ac8 <__metal_dt_gpio_10012000>
20015dc8:	00f71963          	bne	a4,a5,20015dda <__metal_driver_sifive_gpio0_interrupt_lines+0x1c4>
E:\GitHub\HiFive01-RevB\FS_workspace\sifive_hifive1_revb_sifive_welcome\bsp\build\debug/./metal/machine.h:519 (discriminator 1)
20015dcc:	fe842703          	lw	a4,-24(s0)
20015dd0:	47c1                	li	a5,16
20015dd2:	00f71463          	bne	a4,a5,20015dda <__metal_driver_sifive_gpio0_interrupt_lines+0x1c4>
E:\GitHub\HiFive01-RevB\FS_workspace\sifive_hifive1_revb_sifive_welcome\bsp\build\debug/./metal/machine.h:520
		return 24;
20015dd6:	47e1                	li	a5,24
20015dd8:	aa51                	j	20015f6c <__metal_driver_sifive_gpio0_interrupt_lines+0x356>
E:\GitHub\HiFive01-RevB\FS_workspace\sifive_hifive1_revb_sifive_welcome\bsp\build\debug/./metal/machine.h:522
	else if ((((uintptr_t)gpio == (uintptr_t)&__metal_dt_gpio_10012000) && (idx == 17))) {
20015dda:	fec42703          	lw	a4,-20(s0)
20015dde:	81818793          	addi	a5,gp,-2024 # 80000ac8 <__metal_dt_gpio_10012000>
20015de2:	00f71963          	bne	a4,a5,20015df4 <__metal_driver_sifive_gpio0_interrupt_lines+0x1de>
E:\GitHub\HiFive01-RevB\FS_workspace\sifive_hifive1_revb_sifive_welcome\bsp\build\debug/./metal/machine.h:522 (discriminator 1)
20015de6:	fe842703          	lw	a4,-24(s0)
20015dea:	47c5                	li	a5,17
20015dec:	00f71463          	bne	a4,a5,20015df4 <__metal_driver_sifive_gpio0_interrupt_lines+0x1de>
E:\GitHub\HiFive01-RevB\FS_workspace\sifive_hifive1_revb_sifive_welcome\bsp\build\debug/./metal/machine.h:523
		return 25;
20015df0:	47e5                	li	a5,25
20015df2:	aaad                	j	20015f6c <__metal_driver_sifive_gpio0_interrupt_lines+0x356>
E:\GitHub\HiFive01-RevB\FS_workspace\sifive_hifive1_revb_sifive_welcome\bsp\build\debug/./metal/machine.h:525
	else if ((((uintptr_t)gpio == (uintptr_t)&__metal_dt_gpio_10012000) && (idx == 18))) {
20015df4:	fec42703          	lw	a4,-20(s0)
20015df8:	81818793          	addi	a5,gp,-2024 # 80000ac8 <__metal_dt_gpio_10012000>
20015dfc:	00f71963          	bne	a4,a5,20015e0e <__metal_driver_sifive_gpio0_interrupt_lines+0x1f8>
E:\GitHub\HiFive01-RevB\FS_workspace\sifive_hifive1_revb_sifive_welcome\bsp\build\debug/./metal/machine.h:525 (discriminator 1)
20015e00:	fe842703          	lw	a4,-24(s0)
20015e04:	47c9                	li	a5,18
20015e06:	00f71463          	bne	a4,a5,20015e0e <__metal_driver_sifive_gpio0_interrupt_lines+0x1f8>
E:\GitHub\HiFive01-RevB\FS_workspace\sifive_hifive1_revb_sifive_welcome\bsp\build\debug/./metal/machine.h:526
		return 26;
20015e0a:	47e9                	li	a5,26
20015e0c:	a285                	j	20015f6c <__metal_driver_sifive_gpio0_interrupt_lines+0x356>
E:\GitHub\HiFive01-RevB\FS_workspace\sifive_hifive1_revb_sifive_welcome\bsp\build\debug/./metal/machine.h:528
	else if ((((uintptr_t)gpio == (uintptr_t)&__metal_dt_gpio_10012000) && (idx == 19))) {
20015e0e:	fec42703          	lw	a4,-20(s0)
20015e12:	81818793          	addi	a5,gp,-2024 # 80000ac8 <__metal_dt_gpio_10012000>
20015e16:	00f71963          	bne	a4,a5,20015e28 <__metal_driver_sifive_gpio0_interrupt_lines+0x212>
E:\GitHub\HiFive01-RevB\FS_workspace\sifive_hifive1_revb_sifive_welcome\bsp\build\debug/./metal/machine.h:528 (discriminator 1)
20015e1a:	fe842703          	lw	a4,-24(s0)
20015e1e:	47cd                	li	a5,19
20015e20:	00f71463          	bne	a4,a5,20015e28 <__metal_driver_sifive_gpio0_interrupt_lines+0x212>
E:\GitHub\HiFive01-RevB\FS_workspace\sifive_hifive1_revb_sifive_welcome\bsp\build\debug/./metal/machine.h:529
		return 27;
20015e24:	47ed                	li	a5,27
20015e26:	a299                	j	20015f6c <__metal_driver_sifive_gpio0_interrupt_lines+0x356>
E:\GitHub\HiFive01-RevB\FS_workspace\sifive_hifive1_revb_sifive_welcome\bsp\build\debug/./metal/machine.h:531
	else if ((((uintptr_t)gpio == (uintptr_t)&__metal_dt_gpio_10012000) && (idx == 20))) {
20015e28:	fec42703          	lw	a4,-20(s0)
20015e2c:	81818793          	addi	a5,gp,-2024 # 80000ac8 <__metal_dt_gpio_10012000>
20015e30:	00f71963          	bne	a4,a5,20015e42 <__metal_driver_sifive_gpio0_interrupt_lines+0x22c>
E:\GitHub\HiFive01-RevB\FS_workspace\sifive_hifive1_revb_sifive_welcome\bsp\build\debug/./metal/machine.h:531 (discriminator 1)
20015e34:	fe842703          	lw	a4,-24(s0)
20015e38:	47d1                	li	a5,20
20015e3a:	00f71463          	bne	a4,a5,20015e42 <__metal_driver_sifive_gpio0_interrupt_lines+0x22c>
E:\GitHub\HiFive01-RevB\FS_workspace\sifive_hifive1_revb_sifive_welcome\bsp\build\debug/./metal/machine.h:532
		return 28;
20015e3e:	47f1                	li	a5,28
20015e40:	a235                	j	20015f6c <__metal_driver_sifive_gpio0_interrupt_lines+0x356>
E:\GitHub\HiFive01-RevB\FS_workspace\sifive_hifive1_revb_sifive_welcome\bsp\build\debug/./metal/machine.h:534
	else if ((((uintptr_t)gpio == (uintptr_t)&__metal_dt_gpio_10012000) && (idx == 21))) {
20015e42:	fec42703          	lw	a4,-20(s0)
20015e46:	81818793          	addi	a5,gp,-2024 # 80000ac8 <__metal_dt_gpio_10012000>
20015e4a:	00f71963          	bne	a4,a5,20015e5c <__metal_driver_sifive_gpio0_interrupt_lines+0x246>
E:\GitHub\HiFive01-RevB\FS_workspace\sifive_hifive1_revb_sifive_welcome\bsp\build\debug/./metal/machine.h:534 (discriminator 1)
20015e4e:	fe842703          	lw	a4,-24(s0)
20015e52:	47d5                	li	a5,21
20015e54:	00f71463          	bne	a4,a5,20015e5c <__metal_driver_sifive_gpio0_interrupt_lines+0x246>
E:\GitHub\HiFive01-RevB\FS_workspace\sifive_hifive1_revb_sifive_welcome\bsp\build\debug/./metal/machine.h:535
		return 29;
20015e58:	47f5                	li	a5,29
20015e5a:	aa09                	j	20015f6c <__metal_driver_sifive_gpio0_interrupt_lines+0x356>
E:\GitHub\HiFive01-RevB\FS_workspace\sifive_hifive1_revb_sifive_welcome\bsp\build\debug/./metal/machine.h:537
	else if ((((uintptr_t)gpio == (uintptr_t)&__metal_dt_gpio_10012000) && (idx == 22))) {
20015e5c:	fec42703          	lw	a4,-20(s0)
20015e60:	81818793          	addi	a5,gp,-2024 # 80000ac8 <__metal_dt_gpio_10012000>
20015e64:	00f71963          	bne	a4,a5,20015e76 <__metal_driver_sifive_gpio0_interrupt_lines+0x260>
E:\GitHub\HiFive01-RevB\FS_workspace\sifive_hifive1_revb_sifive_welcome\bsp\build\debug/./metal/machine.h:537 (discriminator 1)
20015e68:	fe842703          	lw	a4,-24(s0)
20015e6c:	47d9                	li	a5,22
20015e6e:	00f71463          	bne	a4,a5,20015e76 <__metal_driver_sifive_gpio0_interrupt_lines+0x260>
E:\GitHub\HiFive01-RevB\FS_workspace\sifive_hifive1_revb_sifive_welcome\bsp\build\debug/./metal/machine.h:538
		return 30;
20015e72:	47f9                	li	a5,30
20015e74:	a8e5                	j	20015f6c <__metal_driver_sifive_gpio0_interrupt_lines+0x356>
E:\GitHub\HiFive01-RevB\FS_workspace\sifive_hifive1_revb_sifive_welcome\bsp\build\debug/./metal/machine.h:540
	else if ((((uintptr_t)gpio == (uintptr_t)&__metal_dt_gpio_10012000) && (idx == 23))) {
20015e76:	fec42703          	lw	a4,-20(s0)
20015e7a:	81818793          	addi	a5,gp,-2024 # 80000ac8 <__metal_dt_gpio_10012000>
20015e7e:	00f71963          	bne	a4,a5,20015e90 <__metal_driver_sifive_gpio0_interrupt_lines+0x27a>
E:\GitHub\HiFive01-RevB\FS_workspace\sifive_hifive1_revb_sifive_welcome\bsp\build\debug/./metal/machine.h:540 (discriminator 1)
20015e82:	fe842703          	lw	a4,-24(s0)
20015e86:	47dd                	li	a5,23
20015e88:	00f71463          	bne	a4,a5,20015e90 <__metal_driver_sifive_gpio0_interrupt_lines+0x27a>
E:\GitHub\HiFive01-RevB\FS_workspace\sifive_hifive1_revb_sifive_welcome\bsp\build\debug/./metal/machine.h:541
		return 31;
20015e8c:	47fd                	li	a5,31
20015e8e:	a8f9                	j	20015f6c <__metal_driver_sifive_gpio0_interrupt_lines+0x356>
E:\GitHub\HiFive01-RevB\FS_workspace\sifive_hifive1_revb_sifive_welcome\bsp\build\debug/./metal/machine.h:543
	else if ((((uintptr_t)gpio == (uintptr_t)&__metal_dt_gpio_10012000) && (idx == 24))) {
20015e90:	fec42703          	lw	a4,-20(s0)
20015e94:	81818793          	addi	a5,gp,-2024 # 80000ac8 <__metal_dt_gpio_10012000>
20015e98:	00f71a63          	bne	a4,a5,20015eac <__metal_driver_sifive_gpio0_interrupt_lines+0x296>
E:\GitHub\HiFive01-RevB\FS_workspace\sifive_hifive1_revb_sifive_welcome\bsp\build\debug/./metal/machine.h:543 (discriminator 1)
20015e9c:	fe842703          	lw	a4,-24(s0)
20015ea0:	47e1                	li	a5,24
20015ea2:	00f71563          	bne	a4,a5,20015eac <__metal_driver_sifive_gpio0_interrupt_lines+0x296>
E:\GitHub\HiFive01-RevB\FS_workspace\sifive_hifive1_revb_sifive_welcome\bsp\build\debug/./metal/machine.h:544
		return 32;
20015ea6:	02000793          	li	a5,32
20015eaa:	a0c9                	j	20015f6c <__metal_driver_sifive_gpio0_interrupt_lines+0x356>
E:\GitHub\HiFive01-RevB\FS_workspace\sifive_hifive1_revb_sifive_welcome\bsp\build\debug/./metal/machine.h:546
	else if ((((uintptr_t)gpio == (uintptr_t)&__metal_dt_gpio_10012000) && (idx == 25))) {
20015eac:	fec42703          	lw	a4,-20(s0)
20015eb0:	81818793          	addi	a5,gp,-2024 # 80000ac8 <__metal_dt_gpio_10012000>
20015eb4:	00f71a63          	bne	a4,a5,20015ec8 <__metal_driver_sifive_gpio0_interrupt_lines+0x2b2>
E:\GitHub\HiFive01-RevB\FS_workspace\sifive_hifive1_revb_sifive_welcome\bsp\build\debug/./metal/machine.h:546 (discriminator 1)
20015eb8:	fe842703          	lw	a4,-24(s0)
20015ebc:	47e5                	li	a5,25
20015ebe:	00f71563          	bne	a4,a5,20015ec8 <__metal_driver_sifive_gpio0_interrupt_lines+0x2b2>
E:\GitHub\HiFive01-RevB\FS_workspace\sifive_hifive1_revb_sifive_welcome\bsp\build\debug/./metal/machine.h:547
		return 33;
20015ec2:	02100793          	li	a5,33
20015ec6:	a05d                	j	20015f6c <__metal_driver_sifive_gpio0_interrupt_lines+0x356>
E:\GitHub\HiFive01-RevB\FS_workspace\sifive_hifive1_revb_sifive_welcome\bsp\build\debug/./metal/machine.h:549
	else if ((((uintptr_t)gpio == (uintptr_t)&__metal_dt_gpio_10012000) && (idx == 26))) {
20015ec8:	fec42703          	lw	a4,-20(s0)
20015ecc:	81818793          	addi	a5,gp,-2024 # 80000ac8 <__metal_dt_gpio_10012000>
20015ed0:	00f71a63          	bne	a4,a5,20015ee4 <__metal_driver_sifive_gpio0_interrupt_lines+0x2ce>
E:\GitHub\HiFive01-RevB\FS_workspace\sifive_hifive1_revb_sifive_welcome\bsp\build\debug/./metal/machine.h:549 (discriminator 1)
20015ed4:	fe842703          	lw	a4,-24(s0)
20015ed8:	47e9                	li	a5,26
20015eda:	00f71563          	bne	a4,a5,20015ee4 <__metal_driver_sifive_gpio0_interrupt_lines+0x2ce>
E:\GitHub\HiFive01-RevB\FS_workspace\sifive_hifive1_revb_sifive_welcome\bsp\build\debug/./metal/machine.h:550
		return 34;
20015ede:	02200793          	li	a5,34
20015ee2:	a069                	j	20015f6c <__metal_driver_sifive_gpio0_interrupt_lines+0x356>
E:\GitHub\HiFive01-RevB\FS_workspace\sifive_hifive1_revb_sifive_welcome\bsp\build\debug/./metal/machine.h:552
	else if ((((uintptr_t)gpio == (uintptr_t)&__metal_dt_gpio_10012000) && (idx == 27))) {
20015ee4:	fec42703          	lw	a4,-20(s0)
20015ee8:	81818793          	addi	a5,gp,-2024 # 80000ac8 <__metal_dt_gpio_10012000>
20015eec:	00f71a63          	bne	a4,a5,20015f00 <__metal_driver_sifive_gpio0_interrupt_lines+0x2ea>
E:\GitHub\HiFive01-RevB\FS_workspace\sifive_hifive1_revb_sifive_welcome\bsp\build\debug/./metal/machine.h:552 (discriminator 1)
20015ef0:	fe842703          	lw	a4,-24(s0)
20015ef4:	47ed                	li	a5,27
20015ef6:	00f71563          	bne	a4,a5,20015f00 <__metal_driver_sifive_gpio0_interrupt_lines+0x2ea>
E:\GitHub\HiFive01-RevB\FS_workspace\sifive_hifive1_revb_sifive_welcome\bsp\build\debug/./metal/machine.h:553
		return 35;
20015efa:	02300793          	li	a5,35
20015efe:	a0bd                	j	20015f6c <__metal_driver_sifive_gpio0_interrupt_lines+0x356>
E:\GitHub\HiFive01-RevB\FS_workspace\sifive_hifive1_revb_sifive_welcome\bsp\build\debug/./metal/machine.h:555
	else if ((((uintptr_t)gpio == (uintptr_t)&__metal_dt_gpio_10012000) && (idx == 28))) {
20015f00:	fec42703          	lw	a4,-20(s0)
20015f04:	81818793          	addi	a5,gp,-2024 # 80000ac8 <__metal_dt_gpio_10012000>
20015f08:	00f71a63          	bne	a4,a5,20015f1c <__metal_driver_sifive_gpio0_interrupt_lines+0x306>
E:\GitHub\HiFive01-RevB\FS_workspace\sifive_hifive1_revb_sifive_welcome\bsp\build\debug/./metal/machine.h:555 (discriminator 1)
20015f0c:	fe842703          	lw	a4,-24(s0)
20015f10:	47f1                	li	a5,28
20015f12:	00f71563          	bne	a4,a5,20015f1c <__metal_driver_sifive_gpio0_interrupt_lines+0x306>
E:\GitHub\HiFive01-RevB\FS_workspace\sifive_hifive1_revb_sifive_welcome\bsp\build\debug/./metal/machine.h:556
		return 36;
20015f16:	02400793          	li	a5,36
20015f1a:	a889                	j	20015f6c <__metal_driver_sifive_gpio0_interrupt_lines+0x356>
E:\GitHub\HiFive01-RevB\FS_workspace\sifive_hifive1_revb_sifive_welcome\bsp\build\debug/./metal/machine.h:558
	else if ((((uintptr_t)gpio == (uintptr_t)&__metal_dt_gpio_10012000) && (idx == 29))) {
20015f1c:	fec42703          	lw	a4,-20(s0)
20015f20:	81818793          	addi	a5,gp,-2024 # 80000ac8 <__metal_dt_gpio_10012000>
20015f24:	00f71963          	bne	a4,a5,20015f36 <__metal_driver_sifive_gpio0_interrupt_lines+0x320>
E:\GitHub\HiFive01-RevB\FS_workspace\sifive_hifive1_revb_sifive_welcome\bsp\build\debug/./metal/machine.h:558 (discriminator 1)
20015f28:	fe842703          	lw	a4,-24(s0)
20015f2c:	47f5                	li	a5,29
20015f2e:	00f71463          	bne	a4,a5,20015f36 <__metal_driver_sifive_gpio0_interrupt_lines+0x320>
E:\GitHub\HiFive01-RevB\FS_workspace\sifive_hifive1_revb_sifive_welcome\bsp\build\debug/./metal/machine.h:559
		return 27;
20015f32:	47ed                	li	a5,27
20015f34:	a825                	j	20015f6c <__metal_driver_sifive_gpio0_interrupt_lines+0x356>
E:\GitHub\HiFive01-RevB\FS_workspace\sifive_hifive1_revb_sifive_welcome\bsp\build\debug/./metal/machine.h:561
	else if ((((uintptr_t)gpio == (uintptr_t)&__metal_dt_gpio_10012000) && (idx == 30))) {
20015f36:	fec42703          	lw	a4,-20(s0)
20015f3a:	81818793          	addi	a5,gp,-2024 # 80000ac8 <__metal_dt_gpio_10012000>
20015f3e:	00f71963          	bne	a4,a5,20015f50 <__metal_driver_sifive_gpio0_interrupt_lines+0x33a>
E:\GitHub\HiFive01-RevB\FS_workspace\sifive_hifive1_revb_sifive_welcome\bsp\build\debug/./metal/machine.h:561 (discriminator 1)
20015f42:	fe842703          	lw	a4,-24(s0)
20015f46:	47f9                	li	a5,30
20015f48:	00f71463          	bne	a4,a5,20015f50 <__metal_driver_sifive_gpio0_interrupt_lines+0x33a>
E:\GitHub\HiFive01-RevB\FS_workspace\sifive_hifive1_revb_sifive_welcome\bsp\build\debug/./metal/machine.h:562
		return 28;
20015f4c:	47f1                	li	a5,28
20015f4e:	a839                	j	20015f6c <__metal_driver_sifive_gpio0_interrupt_lines+0x356>
E:\GitHub\HiFive01-RevB\FS_workspace\sifive_hifive1_revb_sifive_welcome\bsp\build\debug/./metal/machine.h:564
	else if ((((uintptr_t)gpio == (uintptr_t)&__metal_dt_gpio_10012000) && (idx == 31))) {
20015f50:	fec42703          	lw	a4,-20(s0)
20015f54:	81818793          	addi	a5,gp,-2024 # 80000ac8 <__metal_dt_gpio_10012000>
20015f58:	00f71963          	bne	a4,a5,20015f6a <__metal_driver_sifive_gpio0_interrupt_lines+0x354>
E:\GitHub\HiFive01-RevB\FS_workspace\sifive_hifive1_revb_sifive_welcome\bsp\build\debug/./metal/machine.h:564 (discriminator 1)
20015f5c:	fe842703          	lw	a4,-24(s0)
20015f60:	47fd                	li	a5,31
20015f62:	00f71463          	bne	a4,a5,20015f6a <__metal_driver_sifive_gpio0_interrupt_lines+0x354>
E:\GitHub\HiFive01-RevB\FS_workspace\sifive_hifive1_revb_sifive_welcome\bsp\build\debug/./metal/machine.h:565
		return 29;
20015f66:	47f5                	li	a5,29
20015f68:	a011                	j	20015f6c <__metal_driver_sifive_gpio0_interrupt_lines+0x356>
E:\GitHub\HiFive01-RevB\FS_workspace\sifive_hifive1_revb_sifive_welcome\bsp\build\debug/./metal/machine.h:568
		return 0;
20015f6a:	4781                	li	a5,0
E:\GitHub\HiFive01-RevB\FS_workspace\sifive_hifive1_revb_sifive_welcome\bsp\build\debug/./metal/machine.h:570
}
20015f6c:	853e                	mv	a0,a5
20015f6e:	4472                	lw	s0,28(sp)
20015f70:	6105                	addi	sp,sp,32
20015f72:	8082                	ret

20015f74 <__metal_driver_sifive_gpio0_enable_input>:
__metal_driver_sifive_gpio0_enable_input():
E:/GitHub/HiFive01-RevB/FS_workspace/sifive_hifive1_revb_sifive_welcome/freedom-metal/src/drivers/sifive_gpio0.c:13
#include <metal/drivers/sifive_gpio0.h>
#include <metal/io.h>
#include <metal/machine.h>

int __metal_driver_sifive_gpio0_enable_input(struct metal_gpio *ggpio,
                                             long source) {
20015f74:	7179                	addi	sp,sp,-48
20015f76:	d606                	sw	ra,44(sp)
20015f78:	d422                	sw	s0,40(sp)
20015f7a:	1800                	addi	s0,sp,48
20015f7c:	fca42e23          	sw	a0,-36(s0)
20015f80:	fcb42c23          	sw	a1,-40(s0)
E:/GitHub/HiFive01-RevB/FS_workspace/sifive_hifive1_revb_sifive_welcome/freedom-metal/src/drivers/sifive_gpio0.c:14
    long base = __metal_driver_sifive_gpio0_base(ggpio);
20015f84:	fdc42503          	lw	a0,-36(s0)
20015f88:	c3fff0ef          	jal	ra,20015bc6 <__metal_driver_sifive_gpio0_base>
20015f8c:	87aa                	mv	a5,a0
20015f8e:	fef42623          	sw	a5,-20(s0)
E:/GitHub/HiFive01-RevB/FS_workspace/sifive_hifive1_revb_sifive_welcome/freedom-metal/src/drivers/sifive_gpio0.c:17

    __METAL_ACCESS_ONCE(
        (__metal_io_u32 *)(base + METAL_SIFIVE_GPIO0_INPUT_EN)) |= source;
20015f92:	fec42783          	lw	a5,-20(s0)
20015f96:	0791                	addi	a5,a5,4
20015f98:	4398                	lw	a4,0(a5)
20015f9a:	fd842783          	lw	a5,-40(s0)
20015f9e:	fec42683          	lw	a3,-20(s0)
20015fa2:	0691                	addi	a3,a3,4
20015fa4:	8fd9                	or	a5,a5,a4
20015fa6:	c29c                	sw	a5,0(a3)
E:/GitHub/HiFive01-RevB/FS_workspace/sifive_hifive1_revb_sifive_welcome/freedom-metal/src/drivers/sifive_gpio0.c:19

    return 0;
20015fa8:	4781                	li	a5,0
E:/GitHub/HiFive01-RevB/FS_workspace/sifive_hifive1_revb_sifive_welcome/freedom-metal/src/drivers/sifive_gpio0.c:20
}
20015faa:	853e                	mv	a0,a5
20015fac:	50b2                	lw	ra,44(sp)
20015fae:	5422                	lw	s0,40(sp)
20015fb0:	6145                	addi	sp,sp,48
20015fb2:	8082                	ret

20015fb4 <__metal_driver_sifive_gpio0_disable_input>:
__metal_driver_sifive_gpio0_disable_input():
E:/GitHub/HiFive01-RevB/FS_workspace/sifive_hifive1_revb_sifive_welcome/freedom-metal/src/drivers/sifive_gpio0.c:23

int __metal_driver_sifive_gpio0_disable_input(struct metal_gpio *ggpio,
                                              long source) {
20015fb4:	7179                	addi	sp,sp,-48
20015fb6:	d606                	sw	ra,44(sp)
20015fb8:	d422                	sw	s0,40(sp)
20015fba:	1800                	addi	s0,sp,48
20015fbc:	fca42e23          	sw	a0,-36(s0)
20015fc0:	fcb42c23          	sw	a1,-40(s0)
E:/GitHub/HiFive01-RevB/FS_workspace/sifive_hifive1_revb_sifive_welcome/freedom-metal/src/drivers/sifive_gpio0.c:24
    long base = __metal_driver_sifive_gpio0_base(ggpio);
20015fc4:	fdc42503          	lw	a0,-36(s0)
20015fc8:	bffff0ef          	jal	ra,20015bc6 <__metal_driver_sifive_gpio0_base>
20015fcc:	87aa                	mv	a5,a0
20015fce:	fef42623          	sw	a5,-20(s0)
E:/GitHub/HiFive01-RevB/FS_workspace/sifive_hifive1_revb_sifive_welcome/freedom-metal/src/drivers/sifive_gpio0.c:27

    __METAL_ACCESS_ONCE(
        (__metal_io_u32 *)(base + METAL_SIFIVE_GPIO0_INPUT_EN)) &= ~source;
20015fd2:	fec42783          	lw	a5,-20(s0)
20015fd6:	0791                	addi	a5,a5,4
20015fd8:	439c                	lw	a5,0(a5)
20015fda:	fd842703          	lw	a4,-40(s0)
20015fde:	fff74713          	not	a4,a4
20015fe2:	86ba                	mv	a3,a4
20015fe4:	fec42703          	lw	a4,-20(s0)
20015fe8:	0711                	addi	a4,a4,4
20015fea:	8ff5                	and	a5,a5,a3
20015fec:	c31c                	sw	a5,0(a4)
E:/GitHub/HiFive01-RevB/FS_workspace/sifive_hifive1_revb_sifive_welcome/freedom-metal/src/drivers/sifive_gpio0.c:29

    return 0;
20015fee:	4781                	li	a5,0
E:/GitHub/HiFive01-RevB/FS_workspace/sifive_hifive1_revb_sifive_welcome/freedom-metal/src/drivers/sifive_gpio0.c:30
}
20015ff0:	853e                	mv	a0,a5
20015ff2:	50b2                	lw	ra,44(sp)
20015ff4:	5422                	lw	s0,40(sp)
20015ff6:	6145                	addi	sp,sp,48
20015ff8:	8082                	ret

20015ffa <__metal_driver_sifive_gpio0_input>:
__metal_driver_sifive_gpio0_input():
E:/GitHub/HiFive01-RevB/FS_workspace/sifive_hifive1_revb_sifive_welcome/freedom-metal/src/drivers/sifive_gpio0.c:32

long __metal_driver_sifive_gpio0_input(struct metal_gpio *ggpio) {
20015ffa:	7179                	addi	sp,sp,-48
20015ffc:	d606                	sw	ra,44(sp)
20015ffe:	d422                	sw	s0,40(sp)
20016000:	1800                	addi	s0,sp,48
20016002:	fca42e23          	sw	a0,-36(s0)
E:/GitHub/HiFive01-RevB/FS_workspace/sifive_hifive1_revb_sifive_welcome/freedom-metal/src/drivers/sifive_gpio0.c:33
    long base = __metal_driver_sifive_gpio0_base(ggpio);
20016006:	fdc42503          	lw	a0,-36(s0)
2001600a:	bbdff0ef          	jal	ra,20015bc6 <__metal_driver_sifive_gpio0_base>
2001600e:	87aa                	mv	a5,a0
20016010:	fef42623          	sw	a5,-20(s0)
E:/GitHub/HiFive01-RevB/FS_workspace/sifive_hifive1_revb_sifive_welcome/freedom-metal/src/drivers/sifive_gpio0.c:35

    return __METAL_ACCESS_ONCE(
20016014:	fec42783          	lw	a5,-20(s0)
20016018:	439c                	lw	a5,0(a5)
E:/GitHub/HiFive01-RevB/FS_workspace/sifive_hifive1_revb_sifive_welcome/freedom-metal/src/drivers/sifive_gpio0.c:37
        (__metal_io_u32 *)(base + METAL_SIFIVE_GPIO0_VALUE));
}
2001601a:	853e                	mv	a0,a5
2001601c:	50b2                	lw	ra,44(sp)
2001601e:	5422                	lw	s0,40(sp)
20016020:	6145                	addi	sp,sp,48
20016022:	8082                	ret

20016024 <__metal_driver_sifive_gpio0_output>:
__metal_driver_sifive_gpio0_output():
E:/GitHub/HiFive01-RevB/FS_workspace/sifive_hifive1_revb_sifive_welcome/freedom-metal/src/drivers/sifive_gpio0.c:39

long __metal_driver_sifive_gpio0_output(struct metal_gpio *ggpio) {
20016024:	7179                	addi	sp,sp,-48
20016026:	d606                	sw	ra,44(sp)
20016028:	d422                	sw	s0,40(sp)
2001602a:	1800                	addi	s0,sp,48
2001602c:	fca42e23          	sw	a0,-36(s0)
E:/GitHub/HiFive01-RevB/FS_workspace/sifive_hifive1_revb_sifive_welcome/freedom-metal/src/drivers/sifive_gpio0.c:40
    long base = __metal_driver_sifive_gpio0_base(ggpio);
20016030:	fdc42503          	lw	a0,-36(s0)
20016034:	b93ff0ef          	jal	ra,20015bc6 <__metal_driver_sifive_gpio0_base>
20016038:	87aa                	mv	a5,a0
2001603a:	fef42623          	sw	a5,-20(s0)
E:/GitHub/HiFive01-RevB/FS_workspace/sifive_hifive1_revb_sifive_welcome/freedom-metal/src/drivers/sifive_gpio0.c:42

    return __METAL_ACCESS_ONCE(
2001603e:	fec42783          	lw	a5,-20(s0)
20016042:	07b1                	addi	a5,a5,12
20016044:	439c                	lw	a5,0(a5)
E:/GitHub/HiFive01-RevB/FS_workspace/sifive_hifive1_revb_sifive_welcome/freedom-metal/src/drivers/sifive_gpio0.c:44
        (__metal_io_u32 *)(base + METAL_SIFIVE_GPIO0_PORT));
}
20016046:	853e                	mv	a0,a5
20016048:	50b2                	lw	ra,44(sp)
2001604a:	5422                	lw	s0,40(sp)
2001604c:	6145                	addi	sp,sp,48
2001604e:	8082                	ret

20016050 <__metal_driver_sifive_gpio0_disable_output>:
__metal_driver_sifive_gpio0_disable_output():
E:/GitHub/HiFive01-RevB/FS_workspace/sifive_hifive1_revb_sifive_welcome/freedom-metal/src/drivers/sifive_gpio0.c:47

int __metal_driver_sifive_gpio0_disable_output(struct metal_gpio *ggpio,
                                               long source) {
20016050:	7179                	addi	sp,sp,-48
20016052:	d606                	sw	ra,44(sp)
20016054:	d422                	sw	s0,40(sp)
20016056:	1800                	addi	s0,sp,48
20016058:	fca42e23          	sw	a0,-36(s0)
2001605c:	fcb42c23          	sw	a1,-40(s0)
E:/GitHub/HiFive01-RevB/FS_workspace/sifive_hifive1_revb_sifive_welcome/freedom-metal/src/drivers/sifive_gpio0.c:48
    long base = __metal_driver_sifive_gpio0_base(ggpio);
20016060:	fdc42503          	lw	a0,-36(s0)
20016064:	b63ff0ef          	jal	ra,20015bc6 <__metal_driver_sifive_gpio0_base>
20016068:	87aa                	mv	a5,a0
2001606a:	fef42623          	sw	a5,-20(s0)
E:/GitHub/HiFive01-RevB/FS_workspace/sifive_hifive1_revb_sifive_welcome/freedom-metal/src/drivers/sifive_gpio0.c:51

    __METAL_ACCESS_ONCE(
        (__metal_io_u32 *)(base + METAL_SIFIVE_GPIO0_OUTPUT_EN)) &= ~source;
2001606e:	fec42783          	lw	a5,-20(s0)
20016072:	07a1                	addi	a5,a5,8
20016074:	439c                	lw	a5,0(a5)
20016076:	fd842703          	lw	a4,-40(s0)
2001607a:	fff74713          	not	a4,a4
2001607e:	86ba                	mv	a3,a4
20016080:	fec42703          	lw	a4,-20(s0)
20016084:	0721                	addi	a4,a4,8
20016086:	8ff5                	and	a5,a5,a3
20016088:	c31c                	sw	a5,0(a4)
E:/GitHub/HiFive01-RevB/FS_workspace/sifive_hifive1_revb_sifive_welcome/freedom-metal/src/drivers/sifive_gpio0.c:53

    return 0;
2001608a:	4781                	li	a5,0
E:/GitHub/HiFive01-RevB/FS_workspace/sifive_hifive1_revb_sifive_welcome/freedom-metal/src/drivers/sifive_gpio0.c:54
}
2001608c:	853e                	mv	a0,a5
2001608e:	50b2                	lw	ra,44(sp)
20016090:	5422                	lw	s0,40(sp)
20016092:	6145                	addi	sp,sp,48
20016094:	8082                	ret

20016096 <__metal_driver_sifive_gpio0_enable_output>:
__metal_driver_sifive_gpio0_enable_output():
E:/GitHub/HiFive01-RevB/FS_workspace/sifive_hifive1_revb_sifive_welcome/freedom-metal/src/drivers/sifive_gpio0.c:57

int __metal_driver_sifive_gpio0_enable_output(struct metal_gpio *ggpio,
                                              long source) {
20016096:	7179                	addi	sp,sp,-48
20016098:	d606                	sw	ra,44(sp)
2001609a:	d422                	sw	s0,40(sp)
2001609c:	1800                	addi	s0,sp,48
2001609e:	fca42e23          	sw	a0,-36(s0)
200160a2:	fcb42c23          	sw	a1,-40(s0)
E:/GitHub/HiFive01-RevB/FS_workspace/sifive_hifive1_revb_sifive_welcome/freedom-metal/src/drivers/sifive_gpio0.c:58
    long base = __metal_driver_sifive_gpio0_base(ggpio);
200160a6:	fdc42503          	lw	a0,-36(s0)
200160aa:	b1dff0ef          	jal	ra,20015bc6 <__metal_driver_sifive_gpio0_base>
200160ae:	87aa                	mv	a5,a0
200160b0:	fef42623          	sw	a5,-20(s0)
E:/GitHub/HiFive01-RevB/FS_workspace/sifive_hifive1_revb_sifive_welcome/freedom-metal/src/drivers/sifive_gpio0.c:61

    __METAL_ACCESS_ONCE(
        (__metal_io_u32 *)(base + METAL_SIFIVE_GPIO0_OUTPUT_EN)) |= source;
200160b4:	fec42783          	lw	a5,-20(s0)
200160b8:	07a1                	addi	a5,a5,8
200160ba:	4398                	lw	a4,0(a5)
200160bc:	fd842783          	lw	a5,-40(s0)
200160c0:	fec42683          	lw	a3,-20(s0)
200160c4:	06a1                	addi	a3,a3,8
200160c6:	8fd9                	or	a5,a5,a4
200160c8:	c29c                	sw	a5,0(a3)
E:/GitHub/HiFive01-RevB/FS_workspace/sifive_hifive1_revb_sifive_welcome/freedom-metal/src/drivers/sifive_gpio0.c:63

    return 0;
200160ca:	4781                	li	a5,0
E:/GitHub/HiFive01-RevB/FS_workspace/sifive_hifive1_revb_sifive_welcome/freedom-metal/src/drivers/sifive_gpio0.c:64
}
200160cc:	853e                	mv	a0,a5
200160ce:	50b2                	lw	ra,44(sp)
200160d0:	5422                	lw	s0,40(sp)
200160d2:	6145                	addi	sp,sp,48
200160d4:	8082                	ret

200160d6 <__metal_driver_sifive_gpio0_output_set>:
__metal_driver_sifive_gpio0_output_set():
E:/GitHub/HiFive01-RevB/FS_workspace/sifive_hifive1_revb_sifive_welcome/freedom-metal/src/drivers/sifive_gpio0.c:67

int __metal_driver_sifive_gpio0_output_set(struct metal_gpio *ggpio,
                                           long value) {
200160d6:	7179                	addi	sp,sp,-48
200160d8:	d606                	sw	ra,44(sp)
200160da:	d422                	sw	s0,40(sp)
200160dc:	1800                	addi	s0,sp,48
200160de:	fca42e23          	sw	a0,-36(s0)
200160e2:	fcb42c23          	sw	a1,-40(s0)
E:/GitHub/HiFive01-RevB/FS_workspace/sifive_hifive1_revb_sifive_welcome/freedom-metal/src/drivers/sifive_gpio0.c:68
    long base = __metal_driver_sifive_gpio0_base(ggpio);
200160e6:	fdc42503          	lw	a0,-36(s0)
200160ea:	addff0ef          	jal	ra,20015bc6 <__metal_driver_sifive_gpio0_base>
200160ee:	87aa                	mv	a5,a0
200160f0:	fef42623          	sw	a5,-20(s0)
E:/GitHub/HiFive01-RevB/FS_workspace/sifive_hifive1_revb_sifive_welcome/freedom-metal/src/drivers/sifive_gpio0.c:70

    __METAL_ACCESS_ONCE((__metal_io_u32 *)(base + METAL_SIFIVE_GPIO0_PORT)) |=
200160f4:	fec42783          	lw	a5,-20(s0)
200160f8:	07b1                	addi	a5,a5,12
200160fa:	4398                	lw	a4,0(a5)
200160fc:	fd842783          	lw	a5,-40(s0)
20016100:	fec42683          	lw	a3,-20(s0)
20016104:	06b1                	addi	a3,a3,12
20016106:	8fd9                	or	a5,a5,a4
20016108:	c29c                	sw	a5,0(a3)
E:/GitHub/HiFive01-RevB/FS_workspace/sifive_hifive1_revb_sifive_welcome/freedom-metal/src/drivers/sifive_gpio0.c:73
        value;

    return 0;
2001610a:	4781                	li	a5,0
E:/GitHub/HiFive01-RevB/FS_workspace/sifive_hifive1_revb_sifive_welcome/freedom-metal/src/drivers/sifive_gpio0.c:74
}
2001610c:	853e                	mv	a0,a5
2001610e:	50b2                	lw	ra,44(sp)
20016110:	5422                	lw	s0,40(sp)
20016112:	6145                	addi	sp,sp,48
20016114:	8082                	ret

20016116 <__metal_driver_sifive_gpio0_output_clear>:
__metal_driver_sifive_gpio0_output_clear():
E:/GitHub/HiFive01-RevB/FS_workspace/sifive_hifive1_revb_sifive_welcome/freedom-metal/src/drivers/sifive_gpio0.c:77

int __metal_driver_sifive_gpio0_output_clear(struct metal_gpio *ggpio,
                                             long value) {
20016116:	7179                	addi	sp,sp,-48
20016118:	d606                	sw	ra,44(sp)
2001611a:	d422                	sw	s0,40(sp)
2001611c:	1800                	addi	s0,sp,48
2001611e:	fca42e23          	sw	a0,-36(s0)
20016122:	fcb42c23          	sw	a1,-40(s0)
E:/GitHub/HiFive01-RevB/FS_workspace/sifive_hifive1_revb_sifive_welcome/freedom-metal/src/drivers/sifive_gpio0.c:78
    long base = __metal_driver_sifive_gpio0_base(ggpio);
20016126:	fdc42503          	lw	a0,-36(s0)
2001612a:	a9dff0ef          	jal	ra,20015bc6 <__metal_driver_sifive_gpio0_base>
2001612e:	87aa                	mv	a5,a0
20016130:	fef42623          	sw	a5,-20(s0)
E:/GitHub/HiFive01-RevB/FS_workspace/sifive_hifive1_revb_sifive_welcome/freedom-metal/src/drivers/sifive_gpio0.c:80

    __METAL_ACCESS_ONCE((__metal_io_u32 *)(base + METAL_SIFIVE_GPIO0_PORT)) &=
20016134:	fec42783          	lw	a5,-20(s0)
20016138:	07b1                	addi	a5,a5,12
2001613a:	439c                	lw	a5,0(a5)
E:/GitHub/HiFive01-RevB/FS_workspace/sifive_hifive1_revb_sifive_welcome/freedom-metal/src/drivers/sifive_gpio0.c:81
        ~value;
2001613c:	fd842703          	lw	a4,-40(s0)
20016140:	fff74713          	not	a4,a4
20016144:	86ba                	mv	a3,a4
E:/GitHub/HiFive01-RevB/FS_workspace/sifive_hifive1_revb_sifive_welcome/freedom-metal/src/drivers/sifive_gpio0.c:80
    __METAL_ACCESS_ONCE((__metal_io_u32 *)(base + METAL_SIFIVE_GPIO0_PORT)) &=
20016146:	fec42703          	lw	a4,-20(s0)
2001614a:	0731                	addi	a4,a4,12
2001614c:	8ff5                	and	a5,a5,a3
2001614e:	c31c                	sw	a5,0(a4)
E:/GitHub/HiFive01-RevB/FS_workspace/sifive_hifive1_revb_sifive_welcome/freedom-metal/src/drivers/sifive_gpio0.c:83

    return 0;
20016150:	4781                	li	a5,0
E:/GitHub/HiFive01-RevB/FS_workspace/sifive_hifive1_revb_sifive_welcome/freedom-metal/src/drivers/sifive_gpio0.c:84
}
20016152:	853e                	mv	a0,a5
20016154:	50b2                	lw	ra,44(sp)
20016156:	5422                	lw	s0,40(sp)
20016158:	6145                	addi	sp,sp,48
2001615a:	8082                	ret

2001615c <__metal_driver_sifive_gpio0_output_toggle>:
__metal_driver_sifive_gpio0_output_toggle():
E:/GitHub/HiFive01-RevB/FS_workspace/sifive_hifive1_revb_sifive_welcome/freedom-metal/src/drivers/sifive_gpio0.c:87

int __metal_driver_sifive_gpio0_output_toggle(struct metal_gpio *ggpio,
                                              long value) {
2001615c:	7179                	addi	sp,sp,-48
2001615e:	d606                	sw	ra,44(sp)
20016160:	d422                	sw	s0,40(sp)
20016162:	1800                	addi	s0,sp,48
20016164:	fca42e23          	sw	a0,-36(s0)
20016168:	fcb42c23          	sw	a1,-40(s0)
E:/GitHub/HiFive01-RevB/FS_workspace/sifive_hifive1_revb_sifive_welcome/freedom-metal/src/drivers/sifive_gpio0.c:88
    long base = __metal_driver_sifive_gpio0_base(ggpio);
2001616c:	fdc42503          	lw	a0,-36(s0)
20016170:	a57ff0ef          	jal	ra,20015bc6 <__metal_driver_sifive_gpio0_base>
20016174:	87aa                	mv	a5,a0
20016176:	fef42623          	sw	a5,-20(s0)
E:/GitHub/HiFive01-RevB/FS_workspace/sifive_hifive1_revb_sifive_welcome/freedom-metal/src/drivers/sifive_gpio0.c:91

    __METAL_ACCESS_ONCE((__metal_io_u32 *)(base + METAL_SIFIVE_GPIO0_PORT)) =
        __METAL_ACCESS_ONCE(
2001617a:	fec42783          	lw	a5,-20(s0)
2001617e:	07b1                	addi	a5,a5,12
20016180:	4398                	lw	a4,0(a5)
E:/GitHub/HiFive01-RevB/FS_workspace/sifive_hifive1_revb_sifive_welcome/freedom-metal/src/drivers/sifive_gpio0.c:92
            (__metal_io_u32 *)(base + METAL_SIFIVE_GPIO0_PORT)) ^
20016182:	fd842783          	lw	a5,-40(s0)
E:/GitHub/HiFive01-RevB/FS_workspace/sifive_hifive1_revb_sifive_welcome/freedom-metal/src/drivers/sifive_gpio0.c:90
    __METAL_ACCESS_ONCE((__metal_io_u32 *)(base + METAL_SIFIVE_GPIO0_PORT)) =
20016186:	fec42683          	lw	a3,-20(s0)
2001618a:	06b1                	addi	a3,a3,12
E:/GitHub/HiFive01-RevB/FS_workspace/sifive_hifive1_revb_sifive_welcome/freedom-metal/src/drivers/sifive_gpio0.c:92
            (__metal_io_u32 *)(base + METAL_SIFIVE_GPIO0_PORT)) ^
2001618c:	8fb9                	xor	a5,a5,a4
E:/GitHub/HiFive01-RevB/FS_workspace/sifive_hifive1_revb_sifive_welcome/freedom-metal/src/drivers/sifive_gpio0.c:90
    __METAL_ACCESS_ONCE((__metal_io_u32 *)(base + METAL_SIFIVE_GPIO0_PORT)) =
2001618e:	c29c                	sw	a5,0(a3)
E:/GitHub/HiFive01-RevB/FS_workspace/sifive_hifive1_revb_sifive_welcome/freedom-metal/src/drivers/sifive_gpio0.c:95
        value;

    return 0;
20016190:	4781                	li	a5,0
E:/GitHub/HiFive01-RevB/FS_workspace/sifive_hifive1_revb_sifive_welcome/freedom-metal/src/drivers/sifive_gpio0.c:96
}
20016192:	853e                	mv	a0,a5
20016194:	50b2                	lw	ra,44(sp)
20016196:	5422                	lw	s0,40(sp)
20016198:	6145                	addi	sp,sp,48
2001619a:	8082                	ret

2001619c <__metal_driver_sifive_gpio0_enable_io>:
__metal_driver_sifive_gpio0_enable_io():
E:/GitHub/HiFive01-RevB/FS_workspace/sifive_hifive1_revb_sifive_welcome/freedom-metal/src/drivers/sifive_gpio0.c:99

int __metal_driver_sifive_gpio0_enable_io(struct metal_gpio *ggpio, long source,
                                          long dest) {
2001619c:	7179                	addi	sp,sp,-48
2001619e:	d606                	sw	ra,44(sp)
200161a0:	d422                	sw	s0,40(sp)
200161a2:	1800                	addi	s0,sp,48
200161a4:	fca42e23          	sw	a0,-36(s0)
200161a8:	fcb42c23          	sw	a1,-40(s0)
200161ac:	fcc42a23          	sw	a2,-44(s0)
E:/GitHub/HiFive01-RevB/FS_workspace/sifive_hifive1_revb_sifive_welcome/freedom-metal/src/drivers/sifive_gpio0.c:100
    long base = __metal_driver_sifive_gpio0_base(ggpio);
200161b0:	fdc42503          	lw	a0,-36(s0)
200161b4:	a13ff0ef          	jal	ra,20015bc6 <__metal_driver_sifive_gpio0_base>
200161b8:	87aa                	mv	a5,a0
200161ba:	fef42623          	sw	a5,-20(s0)
E:/GitHub/HiFive01-RevB/FS_workspace/sifive_hifive1_revb_sifive_welcome/freedom-metal/src/drivers/sifive_gpio0.c:103

    __METAL_ACCESS_ONCE(
        (__metal_io_u32 *)(base + METAL_SIFIVE_GPIO0_IOF_SEL)) |= source;
200161be:	fec42783          	lw	a5,-20(s0)
200161c2:	03c78793          	addi	a5,a5,60
200161c6:	4398                	lw	a4,0(a5)
200161c8:	fd842783          	lw	a5,-40(s0)
200161cc:	fec42683          	lw	a3,-20(s0)
200161d0:	03c68693          	addi	a3,a3,60
200161d4:	8fd9                	or	a5,a5,a4
200161d6:	c29c                	sw	a5,0(a3)
E:/GitHub/HiFive01-RevB/FS_workspace/sifive_hifive1_revb_sifive_welcome/freedom-metal/src/drivers/sifive_gpio0.c:104
    __METAL_ACCESS_ONCE((__metal_io_u32 *)(base + METAL_SIFIVE_GPIO0_IOF_EN)) |=
200161d8:	fec42783          	lw	a5,-20(s0)
200161dc:	03878793          	addi	a5,a5,56
200161e0:	4398                	lw	a4,0(a5)
200161e2:	fd442783          	lw	a5,-44(s0)
200161e6:	fec42683          	lw	a3,-20(s0)
200161ea:	03868693          	addi	a3,a3,56
200161ee:	8fd9                	or	a5,a5,a4
200161f0:	c29c                	sw	a5,0(a3)
E:/GitHub/HiFive01-RevB/FS_workspace/sifive_hifive1_revb_sifive_welcome/freedom-metal/src/drivers/sifive_gpio0.c:107
        dest;

    return 0;
200161f2:	4781                	li	a5,0
E:/GitHub/HiFive01-RevB/FS_workspace/sifive_hifive1_revb_sifive_welcome/freedom-metal/src/drivers/sifive_gpio0.c:108
}
200161f4:	853e                	mv	a0,a5
200161f6:	50b2                	lw	ra,44(sp)
200161f8:	5422                	lw	s0,40(sp)
200161fa:	6145                	addi	sp,sp,48
200161fc:	8082                	ret

200161fe <__metal_driver_sifive_gpio0_disable_io>:
__metal_driver_sifive_gpio0_disable_io():
E:/GitHub/HiFive01-RevB/FS_workspace/sifive_hifive1_revb_sifive_welcome/freedom-metal/src/drivers/sifive_gpio0.c:111

int __metal_driver_sifive_gpio0_disable_io(struct metal_gpio *ggpio,
                                           long source) {
200161fe:	7179                	addi	sp,sp,-48
20016200:	d606                	sw	ra,44(sp)
20016202:	d422                	sw	s0,40(sp)
20016204:	1800                	addi	s0,sp,48
20016206:	fca42e23          	sw	a0,-36(s0)
2001620a:	fcb42c23          	sw	a1,-40(s0)
E:/GitHub/HiFive01-RevB/FS_workspace/sifive_hifive1_revb_sifive_welcome/freedom-metal/src/drivers/sifive_gpio0.c:112
    long base = __metal_driver_sifive_gpio0_base(ggpio);
2001620e:	fdc42503          	lw	a0,-36(s0)
20016212:	9b5ff0ef          	jal	ra,20015bc6 <__metal_driver_sifive_gpio0_base>
20016216:	87aa                	mv	a5,a0
20016218:	fef42623          	sw	a5,-20(s0)
E:/GitHub/HiFive01-RevB/FS_workspace/sifive_hifive1_revb_sifive_welcome/freedom-metal/src/drivers/sifive_gpio0.c:114

    __METAL_ACCESS_ONCE((__metal_io_u32 *)(base + METAL_SIFIVE_GPIO0_IOF_EN)) &=
2001621c:	fec42783          	lw	a5,-20(s0)
20016220:	03878793          	addi	a5,a5,56
20016224:	439c                	lw	a5,0(a5)
E:/GitHub/HiFive01-RevB/FS_workspace/sifive_hifive1_revb_sifive_welcome/freedom-metal/src/drivers/sifive_gpio0.c:115
        ~source;
20016226:	fd842703          	lw	a4,-40(s0)
2001622a:	fff74713          	not	a4,a4
2001622e:	86ba                	mv	a3,a4
E:/GitHub/HiFive01-RevB/FS_workspace/sifive_hifive1_revb_sifive_welcome/freedom-metal/src/drivers/sifive_gpio0.c:114
    __METAL_ACCESS_ONCE((__metal_io_u32 *)(base + METAL_SIFIVE_GPIO0_IOF_EN)) &=
20016230:	fec42703          	lw	a4,-20(s0)
20016234:	03870713          	addi	a4,a4,56
20016238:	8ff5                	and	a5,a5,a3
2001623a:	c31c                	sw	a5,0(a4)
E:/GitHub/HiFive01-RevB/FS_workspace/sifive_hifive1_revb_sifive_welcome/freedom-metal/src/drivers/sifive_gpio0.c:117

    return 0;
2001623c:	4781                	li	a5,0
E:/GitHub/HiFive01-RevB/FS_workspace/sifive_hifive1_revb_sifive_welcome/freedom-metal/src/drivers/sifive_gpio0.c:118
}
2001623e:	853e                	mv	a0,a5
20016240:	50b2                	lw	ra,44(sp)
20016242:	5422                	lw	s0,40(sp)
20016244:	6145                	addi	sp,sp,48
20016246:	8082                	ret

20016248 <__metal_driver_sifive_gpio0_config_int>:
__metal_driver_sifive_gpio0_config_int():
E:/GitHub/HiFive01-RevB/FS_workspace/sifive_hifive1_revb_sifive_welcome/freedom-metal/src/drivers/sifive_gpio0.c:121

int __metal_driver_sifive_gpio0_config_int(struct metal_gpio *ggpio,
                                           long source, int intr_type) {
20016248:	7179                	addi	sp,sp,-48
2001624a:	d606                	sw	ra,44(sp)
2001624c:	d422                	sw	s0,40(sp)
2001624e:	1800                	addi	s0,sp,48
20016250:	fca42e23          	sw	a0,-36(s0)
20016254:	fcb42c23          	sw	a1,-40(s0)
20016258:	fcc42a23          	sw	a2,-44(s0)
E:/GitHub/HiFive01-RevB/FS_workspace/sifive_hifive1_revb_sifive_welcome/freedom-metal/src/drivers/sifive_gpio0.c:122
    long base = __metal_driver_sifive_gpio0_base(ggpio);
2001625c:	fdc42503          	lw	a0,-36(s0)
20016260:	967ff0ef          	jal	ra,20015bc6 <__metal_driver_sifive_gpio0_base>
20016264:	87aa                	mv	a5,a0
20016266:	fef42623          	sw	a5,-20(s0)
2001626a:	fd442703          	lw	a4,-44(s0)
2001626e:	479d                	li	a5,7
20016270:	1ce7e963          	bltu	a5,a4,20016442 <__metal_driver_sifive_gpio0_config_int+0x1fa>
20016274:	fd442783          	lw	a5,-44(s0)
20016278:	00279713          	slli	a4,a5,0x2
2001627c:	200117b7          	lui	a5,0x20011
20016280:	2e878793          	addi	a5,a5,744 # 200112e8 <__metal_driver_vtable_sifive_led+0x14>
20016284:	97ba                	add	a5,a5,a4
20016286:	439c                	lw	a5,0(a5)
20016288:	8782                	jr	a5
E:/GitHub/HiFive01-RevB/FS_workspace/sifive_hifive1_revb_sifive_welcome/freedom-metal/src/drivers/sifive_gpio0.c:127

    switch (intr_type) {
    case METAL_GPIO_INT_DISABLE:
        __METAL_ACCESS_ONCE(
            (__metal_io_u32 *)(base + METAL_SIFIVE_GPIO0_RISE_IE)) &= ~source;
2001628a:	fec42783          	lw	a5,-20(s0)
2001628e:	07e1                	addi	a5,a5,24
20016290:	439c                	lw	a5,0(a5)
20016292:	fd842703          	lw	a4,-40(s0)
20016296:	fff74713          	not	a4,a4
2001629a:	86ba                	mv	a3,a4
2001629c:	fec42703          	lw	a4,-20(s0)
200162a0:	0761                	addi	a4,a4,24
200162a2:	8ff5                	and	a5,a5,a3
200162a4:	c31c                	sw	a5,0(a4)
E:/GitHub/HiFive01-RevB/FS_workspace/sifive_hifive1_revb_sifive_welcome/freedom-metal/src/drivers/sifive_gpio0.c:129
        __METAL_ACCESS_ONCE(
            (__metal_io_u32 *)(base + METAL_SIFIVE_GPIO0_FALL_IE)) &= ~source;
200162a6:	fec42783          	lw	a5,-20(s0)
200162aa:	02078793          	addi	a5,a5,32
200162ae:	439c                	lw	a5,0(a5)
200162b0:	fd842703          	lw	a4,-40(s0)
200162b4:	fff74713          	not	a4,a4
200162b8:	86ba                	mv	a3,a4
200162ba:	fec42703          	lw	a4,-20(s0)
200162be:	02070713          	addi	a4,a4,32
200162c2:	8ff5                	and	a5,a5,a3
200162c4:	c31c                	sw	a5,0(a4)
E:/GitHub/HiFive01-RevB/FS_workspace/sifive_hifive1_revb_sifive_welcome/freedom-metal/src/drivers/sifive_gpio0.c:131
        __METAL_ACCESS_ONCE(
            (__metal_io_u32 *)(base + METAL_SIFIVE_GPIO0_HIGH_IE)) &= ~source;
200162c6:	fec42783          	lw	a5,-20(s0)
200162ca:	02878793          	addi	a5,a5,40
200162ce:	439c                	lw	a5,0(a5)
200162d0:	fd842703          	lw	a4,-40(s0)
200162d4:	fff74713          	not	a4,a4
200162d8:	86ba                	mv	a3,a4
200162da:	fec42703          	lw	a4,-20(s0)
200162de:	02870713          	addi	a4,a4,40
200162e2:	8ff5                	and	a5,a5,a3
200162e4:	c31c                	sw	a5,0(a4)
E:/GitHub/HiFive01-RevB/FS_workspace/sifive_hifive1_revb_sifive_welcome/freedom-metal/src/drivers/sifive_gpio0.c:133
        __METAL_ACCESS_ONCE(
            (__metal_io_u32 *)(base + METAL_SIFIVE_GPIO0_LOW_IE)) &= ~source;
200162e6:	fec42783          	lw	a5,-20(s0)
200162ea:	03078793          	addi	a5,a5,48
200162ee:	439c                	lw	a5,0(a5)
200162f0:	fd842703          	lw	a4,-40(s0)
200162f4:	fff74713          	not	a4,a4
200162f8:	86ba                	mv	a3,a4
200162fa:	fec42703          	lw	a4,-20(s0)
200162fe:	03070713          	addi	a4,a4,48
20016302:	8ff5                	and	a5,a5,a3
20016304:	c31c                	sw	a5,0(a4)
E:/GitHub/HiFive01-RevB/FS_workspace/sifive_hifive1_revb_sifive_welcome/freedom-metal/src/drivers/sifive_gpio0.c:134
        break;
20016306:	aa35                	j	20016442 <__metal_driver_sifive_gpio0_config_int+0x1fa>
E:/GitHub/HiFive01-RevB/FS_workspace/sifive_hifive1_revb_sifive_welcome/freedom-metal/src/drivers/sifive_gpio0.c:137
    case METAL_GPIO_INT_RISING:
        __METAL_ACCESS_ONCE(
            (__metal_io_u32 *)(base + METAL_SIFIVE_GPIO0_RISE_IE)) |= source;
20016308:	fec42783          	lw	a5,-20(s0)
2001630c:	07e1                	addi	a5,a5,24
2001630e:	4398                	lw	a4,0(a5)
20016310:	fd842783          	lw	a5,-40(s0)
20016314:	fec42683          	lw	a3,-20(s0)
20016318:	06e1                	addi	a3,a3,24
2001631a:	8fd9                	or	a5,a5,a4
2001631c:	c29c                	sw	a5,0(a3)
E:/GitHub/HiFive01-RevB/FS_workspace/sifive_hifive1_revb_sifive_welcome/freedom-metal/src/drivers/sifive_gpio0.c:138
        break;
2001631e:	a215                	j	20016442 <__metal_driver_sifive_gpio0_config_int+0x1fa>
E:/GitHub/HiFive01-RevB/FS_workspace/sifive_hifive1_revb_sifive_welcome/freedom-metal/src/drivers/sifive_gpio0.c:141
    case METAL_GPIO_INT_FALLING:
        __METAL_ACCESS_ONCE(
            (__metal_io_u32 *)(base + METAL_SIFIVE_GPIO0_FALL_IE)) |= source;
20016320:	fec42783          	lw	a5,-20(s0)
20016324:	02078793          	addi	a5,a5,32
20016328:	4398                	lw	a4,0(a5)
2001632a:	fd842783          	lw	a5,-40(s0)
2001632e:	fec42683          	lw	a3,-20(s0)
20016332:	02068693          	addi	a3,a3,32
20016336:	8fd9                	or	a5,a5,a4
20016338:	c29c                	sw	a5,0(a3)
E:/GitHub/HiFive01-RevB/FS_workspace/sifive_hifive1_revb_sifive_welcome/freedom-metal/src/drivers/sifive_gpio0.c:142
        break;
2001633a:	a221                	j	20016442 <__metal_driver_sifive_gpio0_config_int+0x1fa>
E:/GitHub/HiFive01-RevB/FS_workspace/sifive_hifive1_revb_sifive_welcome/freedom-metal/src/drivers/sifive_gpio0.c:145
    case METAL_GPIO_INT_BOTH_EDGE:
        __METAL_ACCESS_ONCE(
            (__metal_io_u32 *)(base + METAL_SIFIVE_GPIO0_RISE_IE)) |= source;
2001633c:	fec42783          	lw	a5,-20(s0)
20016340:	07e1                	addi	a5,a5,24
20016342:	4398                	lw	a4,0(a5)
20016344:	fd842783          	lw	a5,-40(s0)
20016348:	fec42683          	lw	a3,-20(s0)
2001634c:	06e1                	addi	a3,a3,24
2001634e:	8fd9                	or	a5,a5,a4
20016350:	c29c                	sw	a5,0(a3)
E:/GitHub/HiFive01-RevB/FS_workspace/sifive_hifive1_revb_sifive_welcome/freedom-metal/src/drivers/sifive_gpio0.c:147
        __METAL_ACCESS_ONCE(
            (__metal_io_u32 *)(base + METAL_SIFIVE_GPIO0_FALL_IE)) |= source;
20016352:	fec42783          	lw	a5,-20(s0)
20016356:	02078793          	addi	a5,a5,32
2001635a:	4398                	lw	a4,0(a5)
2001635c:	fd842783          	lw	a5,-40(s0)
20016360:	fec42683          	lw	a3,-20(s0)
20016364:	02068693          	addi	a3,a3,32
20016368:	8fd9                	or	a5,a5,a4
2001636a:	c29c                	sw	a5,0(a3)
E:/GitHub/HiFive01-RevB/FS_workspace/sifive_hifive1_revb_sifive_welcome/freedom-metal/src/drivers/sifive_gpio0.c:148
        break;
2001636c:	a8d9                	j	20016442 <__metal_driver_sifive_gpio0_config_int+0x1fa>
E:/GitHub/HiFive01-RevB/FS_workspace/sifive_hifive1_revb_sifive_welcome/freedom-metal/src/drivers/sifive_gpio0.c:151
    case METAL_GPIO_INT_HIGH:
        __METAL_ACCESS_ONCE(
            (__metal_io_u32 *)(base + METAL_SIFIVE_GPIO0_HIGH_IE)) |= source;
2001636e:	fec42783          	lw	a5,-20(s0)
20016372:	02878793          	addi	a5,a5,40
20016376:	4398                	lw	a4,0(a5)
20016378:	fd842783          	lw	a5,-40(s0)
2001637c:	fec42683          	lw	a3,-20(s0)
20016380:	02868693          	addi	a3,a3,40
20016384:	8fd9                	or	a5,a5,a4
20016386:	c29c                	sw	a5,0(a3)
E:/GitHub/HiFive01-RevB/FS_workspace/sifive_hifive1_revb_sifive_welcome/freedom-metal/src/drivers/sifive_gpio0.c:152
        break;
20016388:	a86d                	j	20016442 <__metal_driver_sifive_gpio0_config_int+0x1fa>
E:/GitHub/HiFive01-RevB/FS_workspace/sifive_hifive1_revb_sifive_welcome/freedom-metal/src/drivers/sifive_gpio0.c:155
    case METAL_GPIO_INT_LOW:
        __METAL_ACCESS_ONCE(
            (__metal_io_u32 *)(base + METAL_SIFIVE_GPIO0_LOW_IE)) |= source;
2001638a:	fec42783          	lw	a5,-20(s0)
2001638e:	03078793          	addi	a5,a5,48
20016392:	4398                	lw	a4,0(a5)
20016394:	fd842783          	lw	a5,-40(s0)
20016398:	fec42683          	lw	a3,-20(s0)
2001639c:	03068693          	addi	a3,a3,48
200163a0:	8fd9                	or	a5,a5,a4
200163a2:	c29c                	sw	a5,0(a3)
E:/GitHub/HiFive01-RevB/FS_workspace/sifive_hifive1_revb_sifive_welcome/freedom-metal/src/drivers/sifive_gpio0.c:156
        break;
200163a4:	a879                	j	20016442 <__metal_driver_sifive_gpio0_config_int+0x1fa>
E:/GitHub/HiFive01-RevB/FS_workspace/sifive_hifive1_revb_sifive_welcome/freedom-metal/src/drivers/sifive_gpio0.c:159
    case METAL_GPIO_INT_BOTH_LEVEL:
        __METAL_ACCESS_ONCE(
            (__metal_io_u32 *)(base + METAL_SIFIVE_GPIO0_HIGH_IE)) |= source;
200163a6:	fec42783          	lw	a5,-20(s0)
200163aa:	02878793          	addi	a5,a5,40
200163ae:	4398                	lw	a4,0(a5)
200163b0:	fd842783          	lw	a5,-40(s0)
200163b4:	fec42683          	lw	a3,-20(s0)
200163b8:	02868693          	addi	a3,a3,40
200163bc:	8fd9                	or	a5,a5,a4
200163be:	c29c                	sw	a5,0(a3)
E:/GitHub/HiFive01-RevB/FS_workspace/sifive_hifive1_revb_sifive_welcome/freedom-metal/src/drivers/sifive_gpio0.c:161
        __METAL_ACCESS_ONCE(
            (__metal_io_u32 *)(base + METAL_SIFIVE_GPIO0_LOW_IE)) |= source;
200163c0:	fec42783          	lw	a5,-20(s0)
200163c4:	03078793          	addi	a5,a5,48
200163c8:	4398                	lw	a4,0(a5)
200163ca:	fd842783          	lw	a5,-40(s0)
200163ce:	fec42683          	lw	a3,-20(s0)
200163d2:	03068693          	addi	a3,a3,48
200163d6:	8fd9                	or	a5,a5,a4
200163d8:	c29c                	sw	a5,0(a3)
E:/GitHub/HiFive01-RevB/FS_workspace/sifive_hifive1_revb_sifive_welcome/freedom-metal/src/drivers/sifive_gpio0.c:162
        break;
200163da:	a0a5                	j	20016442 <__metal_driver_sifive_gpio0_config_int+0x1fa>
E:/GitHub/HiFive01-RevB/FS_workspace/sifive_hifive1_revb_sifive_welcome/freedom-metal/src/drivers/sifive_gpio0.c:165
    case METAL_GPIO_INT_MAX:
        __METAL_ACCESS_ONCE(
            (__metal_io_u32 *)(base + METAL_SIFIVE_GPIO0_RISE_IE)) |= source;
200163dc:	fec42783          	lw	a5,-20(s0)
200163e0:	07e1                	addi	a5,a5,24
200163e2:	4398                	lw	a4,0(a5)
200163e4:	fd842783          	lw	a5,-40(s0)
200163e8:	fec42683          	lw	a3,-20(s0)
200163ec:	06e1                	addi	a3,a3,24
200163ee:	8fd9                	or	a5,a5,a4
200163f0:	c29c                	sw	a5,0(a3)
E:/GitHub/HiFive01-RevB/FS_workspace/sifive_hifive1_revb_sifive_welcome/freedom-metal/src/drivers/sifive_gpio0.c:167
        __METAL_ACCESS_ONCE(
            (__metal_io_u32 *)(base + METAL_SIFIVE_GPIO0_FALL_IE)) |= source;
200163f2:	fec42783          	lw	a5,-20(s0)
200163f6:	02078793          	addi	a5,a5,32
200163fa:	4398                	lw	a4,0(a5)
200163fc:	fd842783          	lw	a5,-40(s0)
20016400:	fec42683          	lw	a3,-20(s0)
20016404:	02068693          	addi	a3,a3,32
20016408:	8fd9                	or	a5,a5,a4
2001640a:	c29c                	sw	a5,0(a3)
E:/GitHub/HiFive01-RevB/FS_workspace/sifive_hifive1_revb_sifive_welcome/freedom-metal/src/drivers/sifive_gpio0.c:169
        __METAL_ACCESS_ONCE(
            (__metal_io_u32 *)(base + METAL_SIFIVE_GPIO0_HIGH_IE)) |= source;
2001640c:	fec42783          	lw	a5,-20(s0)
20016410:	02878793          	addi	a5,a5,40
20016414:	4398                	lw	a4,0(a5)
20016416:	fd842783          	lw	a5,-40(s0)
2001641a:	fec42683          	lw	a3,-20(s0)
2001641e:	02868693          	addi	a3,a3,40
20016422:	8fd9                	or	a5,a5,a4
20016424:	c29c                	sw	a5,0(a3)
E:/GitHub/HiFive01-RevB/FS_workspace/sifive_hifive1_revb_sifive_welcome/freedom-metal/src/drivers/sifive_gpio0.c:171
        __METAL_ACCESS_ONCE(
            (__metal_io_u32 *)(base + METAL_SIFIVE_GPIO0_LOW_IE)) |= source;
20016426:	fec42783          	lw	a5,-20(s0)
2001642a:	03078793          	addi	a5,a5,48
2001642e:	4398                	lw	a4,0(a5)
20016430:	fd842783          	lw	a5,-40(s0)
20016434:	fec42683          	lw	a3,-20(s0)
20016438:	03068693          	addi	a3,a3,48
2001643c:	8fd9                	or	a5,a5,a4
2001643e:	c29c                	sw	a5,0(a3)
E:/GitHub/HiFive01-RevB/FS_workspace/sifive_hifive1_revb_sifive_welcome/freedom-metal/src/drivers/sifive_gpio0.c:172
        break;
20016440:	0001                	nop
E:/GitHub/HiFive01-RevB/FS_workspace/sifive_hifive1_revb_sifive_welcome/freedom-metal/src/drivers/sifive_gpio0.c:174
    }
    return 0;
20016442:	4781                	li	a5,0
E:/GitHub/HiFive01-RevB/FS_workspace/sifive_hifive1_revb_sifive_welcome/freedom-metal/src/drivers/sifive_gpio0.c:175
}
20016444:	853e                	mv	a0,a5
20016446:	50b2                	lw	ra,44(sp)
20016448:	5422                	lw	s0,40(sp)
2001644a:	6145                	addi	sp,sp,48
2001644c:	8082                	ret

2001644e <__metal_driver_sifive_gpio0_clear_int>:
__metal_driver_sifive_gpio0_clear_int():
E:/GitHub/HiFive01-RevB/FS_workspace/sifive_hifive1_revb_sifive_welcome/freedom-metal/src/drivers/sifive_gpio0.c:178

int __metal_driver_sifive_gpio0_clear_int(struct metal_gpio *ggpio, long source,
                                          int intr_type) {
2001644e:	7179                	addi	sp,sp,-48
20016450:	d606                	sw	ra,44(sp)
20016452:	d422                	sw	s0,40(sp)
20016454:	1800                	addi	s0,sp,48
20016456:	fca42e23          	sw	a0,-36(s0)
2001645a:	fcb42c23          	sw	a1,-40(s0)
2001645e:	fcc42a23          	sw	a2,-44(s0)
E:/GitHub/HiFive01-RevB/FS_workspace/sifive_hifive1_revb_sifive_welcome/freedom-metal/src/drivers/sifive_gpio0.c:179
    long base = __metal_driver_sifive_gpio0_base(ggpio);
20016462:	fdc42503          	lw	a0,-36(s0)
20016466:	f60ff0ef          	jal	ra,20015bc6 <__metal_driver_sifive_gpio0_base>
2001646a:	87aa                	mv	a5,a0
2001646c:	fef42623          	sw	a5,-20(s0)
20016470:	fd442703          	lw	a4,-44(s0)
20016474:	479d                	li	a5,7
20016476:	14e7ea63          	bltu	a5,a4,200165ca <__metal_driver_sifive_gpio0_clear_int+0x17c>
2001647a:	fd442783          	lw	a5,-44(s0)
2001647e:	00279713          	slli	a4,a5,0x2
20016482:	200117b7          	lui	a5,0x20011
20016486:	30878793          	addi	a5,a5,776 # 20011308 <__metal_driver_vtable_sifive_led+0x34>
2001648a:	97ba                	add	a5,a5,a4
2001648c:	439c                	lw	a5,0(a5)
2001648e:	8782                	jr	a5
E:/GitHub/HiFive01-RevB/FS_workspace/sifive_hifive1_revb_sifive_welcome/freedom-metal/src/drivers/sifive_gpio0.c:184

    switch (intr_type) {
    case METAL_GPIO_INT_RISING:
        __METAL_ACCESS_ONCE(
            (__metal_io_u32 *)(base + METAL_SIFIVE_GPIO0_RISE_IP)) |= source;
20016490:	fec42783          	lw	a5,-20(s0)
20016494:	07f1                	addi	a5,a5,28
20016496:	4398                	lw	a4,0(a5)
20016498:	fd842783          	lw	a5,-40(s0)
2001649c:	fec42683          	lw	a3,-20(s0)
200164a0:	06f1                	addi	a3,a3,28
200164a2:	8fd9                	or	a5,a5,a4
200164a4:	c29c                	sw	a5,0(a3)
E:/GitHub/HiFive01-RevB/FS_workspace/sifive_hifive1_revb_sifive_welcome/freedom-metal/src/drivers/sifive_gpio0.c:185
        break;
200164a6:	a215                	j	200165ca <__metal_driver_sifive_gpio0_clear_int+0x17c>
E:/GitHub/HiFive01-RevB/FS_workspace/sifive_hifive1_revb_sifive_welcome/freedom-metal/src/drivers/sifive_gpio0.c:188
    case METAL_GPIO_INT_FALLING:
        __METAL_ACCESS_ONCE(
            (__metal_io_u32 *)(base + METAL_SIFIVE_GPIO0_FALL_IP)) |= source;
200164a8:	fec42783          	lw	a5,-20(s0)
200164ac:	02478793          	addi	a5,a5,36
200164b0:	4398                	lw	a4,0(a5)
200164b2:	fd842783          	lw	a5,-40(s0)
200164b6:	fec42683          	lw	a3,-20(s0)
200164ba:	02468693          	addi	a3,a3,36
200164be:	8fd9                	or	a5,a5,a4
200164c0:	c29c                	sw	a5,0(a3)
E:/GitHub/HiFive01-RevB/FS_workspace/sifive_hifive1_revb_sifive_welcome/freedom-metal/src/drivers/sifive_gpio0.c:189
        break;
200164c2:	a221                	j	200165ca <__metal_driver_sifive_gpio0_clear_int+0x17c>
E:/GitHub/HiFive01-RevB/FS_workspace/sifive_hifive1_revb_sifive_welcome/freedom-metal/src/drivers/sifive_gpio0.c:192
    case METAL_GPIO_INT_BOTH_EDGE:
        __METAL_ACCESS_ONCE(
            (__metal_io_u32 *)(base + METAL_SIFIVE_GPIO0_RISE_IP)) |= source;
200164c4:	fec42783          	lw	a5,-20(s0)
200164c8:	07f1                	addi	a5,a5,28
200164ca:	4398                	lw	a4,0(a5)
200164cc:	fd842783          	lw	a5,-40(s0)
200164d0:	fec42683          	lw	a3,-20(s0)
200164d4:	06f1                	addi	a3,a3,28
200164d6:	8fd9                	or	a5,a5,a4
200164d8:	c29c                	sw	a5,0(a3)
E:/GitHub/HiFive01-RevB/FS_workspace/sifive_hifive1_revb_sifive_welcome/freedom-metal/src/drivers/sifive_gpio0.c:194
        __METAL_ACCESS_ONCE(
            (__metal_io_u32 *)(base + METAL_SIFIVE_GPIO0_FALL_IP)) |= source;
200164da:	fec42783          	lw	a5,-20(s0)
200164de:	02478793          	addi	a5,a5,36
200164e2:	4398                	lw	a4,0(a5)
200164e4:	fd842783          	lw	a5,-40(s0)
200164e8:	fec42683          	lw	a3,-20(s0)
200164ec:	02468693          	addi	a3,a3,36
200164f0:	8fd9                	or	a5,a5,a4
200164f2:	c29c                	sw	a5,0(a3)
E:/GitHub/HiFive01-RevB/FS_workspace/sifive_hifive1_revb_sifive_welcome/freedom-metal/src/drivers/sifive_gpio0.c:195
        break;
200164f4:	a8d9                	j	200165ca <__metal_driver_sifive_gpio0_clear_int+0x17c>
E:/GitHub/HiFive01-RevB/FS_workspace/sifive_hifive1_revb_sifive_welcome/freedom-metal/src/drivers/sifive_gpio0.c:198
    case METAL_GPIO_INT_HIGH:
        __METAL_ACCESS_ONCE(
            (__metal_io_u32 *)(base + METAL_SIFIVE_GPIO0_HIGH_IP)) |= source;
200164f6:	fec42783          	lw	a5,-20(s0)
200164fa:	02c78793          	addi	a5,a5,44
200164fe:	4398                	lw	a4,0(a5)
20016500:	fd842783          	lw	a5,-40(s0)
20016504:	fec42683          	lw	a3,-20(s0)
20016508:	02c68693          	addi	a3,a3,44
2001650c:	8fd9                	or	a5,a5,a4
2001650e:	c29c                	sw	a5,0(a3)
E:/GitHub/HiFive01-RevB/FS_workspace/sifive_hifive1_revb_sifive_welcome/freedom-metal/src/drivers/sifive_gpio0.c:199
        break;
20016510:	a86d                	j	200165ca <__metal_driver_sifive_gpio0_clear_int+0x17c>
E:/GitHub/HiFive01-RevB/FS_workspace/sifive_hifive1_revb_sifive_welcome/freedom-metal/src/drivers/sifive_gpio0.c:202
    case METAL_GPIO_INT_LOW:
        __METAL_ACCESS_ONCE(
            (__metal_io_u32 *)(base + METAL_SIFIVE_GPIO0_LOW_IP)) |= source;
20016512:	fec42783          	lw	a5,-20(s0)
20016516:	03478793          	addi	a5,a5,52
2001651a:	4398                	lw	a4,0(a5)
2001651c:	fd842783          	lw	a5,-40(s0)
20016520:	fec42683          	lw	a3,-20(s0)
20016524:	03468693          	addi	a3,a3,52
20016528:	8fd9                	or	a5,a5,a4
2001652a:	c29c                	sw	a5,0(a3)
E:/GitHub/HiFive01-RevB/FS_workspace/sifive_hifive1_revb_sifive_welcome/freedom-metal/src/drivers/sifive_gpio0.c:203
        break;
2001652c:	a879                	j	200165ca <__metal_driver_sifive_gpio0_clear_int+0x17c>
E:/GitHub/HiFive01-RevB/FS_workspace/sifive_hifive1_revb_sifive_welcome/freedom-metal/src/drivers/sifive_gpio0.c:206
    case METAL_GPIO_INT_BOTH_LEVEL:
        __METAL_ACCESS_ONCE(
            (__metal_io_u32 *)(base + METAL_SIFIVE_GPIO0_HIGH_IP)) |= source;
2001652e:	fec42783          	lw	a5,-20(s0)
20016532:	02c78793          	addi	a5,a5,44
20016536:	4398                	lw	a4,0(a5)
20016538:	fd842783          	lw	a5,-40(s0)
2001653c:	fec42683          	lw	a3,-20(s0)
20016540:	02c68693          	addi	a3,a3,44
20016544:	8fd9                	or	a5,a5,a4
20016546:	c29c                	sw	a5,0(a3)
E:/GitHub/HiFive01-RevB/FS_workspace/sifive_hifive1_revb_sifive_welcome/freedom-metal/src/drivers/sifive_gpio0.c:208
        __METAL_ACCESS_ONCE(
            (__metal_io_u32 *)(base + METAL_SIFIVE_GPIO0_LOW_IP)) |= source;
20016548:	fec42783          	lw	a5,-20(s0)
2001654c:	03478793          	addi	a5,a5,52
20016550:	4398                	lw	a4,0(a5)
20016552:	fd842783          	lw	a5,-40(s0)
20016556:	fec42683          	lw	a3,-20(s0)
2001655a:	03468693          	addi	a3,a3,52
2001655e:	8fd9                	or	a5,a5,a4
20016560:	c29c                	sw	a5,0(a3)
E:/GitHub/HiFive01-RevB/FS_workspace/sifive_hifive1_revb_sifive_welcome/freedom-metal/src/drivers/sifive_gpio0.c:209
        break;
20016562:	a0a5                	j	200165ca <__metal_driver_sifive_gpio0_clear_int+0x17c>
E:/GitHub/HiFive01-RevB/FS_workspace/sifive_hifive1_revb_sifive_welcome/freedom-metal/src/drivers/sifive_gpio0.c:212
    case METAL_GPIO_INT_MAX:
        __METAL_ACCESS_ONCE(
            (__metal_io_u32 *)(base + METAL_SIFIVE_GPIO0_RISE_IP)) |= source;
20016564:	fec42783          	lw	a5,-20(s0)
20016568:	07f1                	addi	a5,a5,28
2001656a:	4398                	lw	a4,0(a5)
2001656c:	fd842783          	lw	a5,-40(s0)
20016570:	fec42683          	lw	a3,-20(s0)
20016574:	06f1                	addi	a3,a3,28
20016576:	8fd9                	or	a5,a5,a4
20016578:	c29c                	sw	a5,0(a3)
E:/GitHub/HiFive01-RevB/FS_workspace/sifive_hifive1_revb_sifive_welcome/freedom-metal/src/drivers/sifive_gpio0.c:214
        __METAL_ACCESS_ONCE(
            (__metal_io_u32 *)(base + METAL_SIFIVE_GPIO0_FALL_IP)) |= source;
2001657a:	fec42783          	lw	a5,-20(s0)
2001657e:	02478793          	addi	a5,a5,36
20016582:	4398                	lw	a4,0(a5)
20016584:	fd842783          	lw	a5,-40(s0)
20016588:	fec42683          	lw	a3,-20(s0)
2001658c:	02468693          	addi	a3,a3,36
20016590:	8fd9                	or	a5,a5,a4
20016592:	c29c                	sw	a5,0(a3)
E:/GitHub/HiFive01-RevB/FS_workspace/sifive_hifive1_revb_sifive_welcome/freedom-metal/src/drivers/sifive_gpio0.c:216
        __METAL_ACCESS_ONCE(
            (__metal_io_u32 *)(base + METAL_SIFIVE_GPIO0_HIGH_IP)) |= source;
20016594:	fec42783          	lw	a5,-20(s0)
20016598:	02c78793          	addi	a5,a5,44
2001659c:	4398                	lw	a4,0(a5)
2001659e:	fd842783          	lw	a5,-40(s0)
200165a2:	fec42683          	lw	a3,-20(s0)
200165a6:	02c68693          	addi	a3,a3,44
200165aa:	8fd9                	or	a5,a5,a4
200165ac:	c29c                	sw	a5,0(a3)
E:/GitHub/HiFive01-RevB/FS_workspace/sifive_hifive1_revb_sifive_welcome/freedom-metal/src/drivers/sifive_gpio0.c:218
        __METAL_ACCESS_ONCE(
            (__metal_io_u32 *)(base + METAL_SIFIVE_GPIO0_LOW_IP)) |= source;
200165ae:	fec42783          	lw	a5,-20(s0)
200165b2:	03478793          	addi	a5,a5,52
200165b6:	4398                	lw	a4,0(a5)
200165b8:	fd842783          	lw	a5,-40(s0)
200165bc:	fec42683          	lw	a3,-20(s0)
200165c0:	03468693          	addi	a3,a3,52
200165c4:	8fd9                	or	a5,a5,a4
200165c6:	c29c                	sw	a5,0(a3)
E:/GitHub/HiFive01-RevB/FS_workspace/sifive_hifive1_revb_sifive_welcome/freedom-metal/src/drivers/sifive_gpio0.c:219
        break;
200165c8:	0001                	nop
E:/GitHub/HiFive01-RevB/FS_workspace/sifive_hifive1_revb_sifive_welcome/freedom-metal/src/drivers/sifive_gpio0.c:221
    }
    return 0;
200165ca:	4781                	li	a5,0
E:/GitHub/HiFive01-RevB/FS_workspace/sifive_hifive1_revb_sifive_welcome/freedom-metal/src/drivers/sifive_gpio0.c:222
}
200165cc:	853e                	mv	a0,a5
200165ce:	50b2                	lw	ra,44(sp)
200165d0:	5422                	lw	s0,40(sp)
200165d2:	6145                	addi	sp,sp,48
200165d4:	8082                	ret

200165d6 <__metal_driver_gpio_interrupt_controller>:
__metal_driver_gpio_interrupt_controller():
E:/GitHub/HiFive01-RevB/FS_workspace/sifive_hifive1_revb_sifive_welcome/freedom-metal/src/drivers/sifive_gpio0.c:225

struct metal_interrupt *
__metal_driver_gpio_interrupt_controller(struct metal_gpio *gpio) {
200165d6:	1101                	addi	sp,sp,-32
200165d8:	ce06                	sw	ra,28(sp)
200165da:	cc22                	sw	s0,24(sp)
200165dc:	1000                	addi	s0,sp,32
200165de:	fea42623          	sw	a0,-20(s0)
E:/GitHub/HiFive01-RevB/FS_workspace/sifive_hifive1_revb_sifive_welcome/freedom-metal/src/drivers/sifive_gpio0.c:226
    return __metal_driver_sifive_gpio0_interrupt_parent(gpio);
200165e2:	fec42503          	lw	a0,-20(s0)
200165e6:	e06ff0ef          	jal	ra,20015bec <__metal_driver_sifive_gpio0_interrupt_parent>
200165ea:	87aa                	mv	a5,a0
E:/GitHub/HiFive01-RevB/FS_workspace/sifive_hifive1_revb_sifive_welcome/freedom-metal/src/drivers/sifive_gpio0.c:227
}
200165ec:	853e                	mv	a0,a5
200165ee:	40f2                	lw	ra,28(sp)
200165f0:	4462                	lw	s0,24(sp)
200165f2:	6105                	addi	sp,sp,32
200165f4:	8082                	ret

200165f6 <__metal_driver_gpio_get_interrupt_id>:
__metal_driver_gpio_get_interrupt_id():
E:/GitHub/HiFive01-RevB/FS_workspace/sifive_hifive1_revb_sifive_welcome/freedom-metal/src/drivers/sifive_gpio0.c:229

int __metal_driver_gpio_get_interrupt_id(struct metal_gpio *gpio, int pin) {
200165f6:	7179                	addi	sp,sp,-48
200165f8:	d606                	sw	ra,44(sp)
200165fa:	d422                	sw	s0,40(sp)
200165fc:	1800                	addi	s0,sp,48
200165fe:	fca42e23          	sw	a0,-36(s0)
20016602:	fcb42c23          	sw	a1,-40(s0)
E:/GitHub/HiFive01-RevB/FS_workspace/sifive_hifive1_revb_sifive_welcome/freedom-metal/src/drivers/sifive_gpio0.c:231
    int irq;
    irq = __metal_driver_sifive_gpio0_interrupt_lines(gpio, pin);
20016606:	fd842583          	lw	a1,-40(s0)
2001660a:	fdc42503          	lw	a0,-36(s0)
2001660e:	e08ff0ef          	jal	ra,20015c16 <__metal_driver_sifive_gpio0_interrupt_lines>
20016612:	fea42623          	sw	a0,-20(s0)
E:/GitHub/HiFive01-RevB/FS_workspace/sifive_hifive1_revb_sifive_welcome/freedom-metal/src/drivers/sifive_gpio0.c:232
    return irq;
20016616:	fec42783          	lw	a5,-20(s0)
E:/GitHub/HiFive01-RevB/FS_workspace/sifive_hifive1_revb_sifive_welcome/freedom-metal/src/drivers/sifive_gpio0.c:233
}
2001661a:	853e                	mv	a0,a5
2001661c:	50b2                	lw	ra,44(sp)
2001661e:	5422                	lw	s0,40(sp)
20016620:	6145                	addi	sp,sp,48
20016622:	8082                	ret

20016624 <__metal_driver_sifive_uart0_control_base>:
__metal_driver_sifive_uart0_control_base():
E:\GitHub\HiFive01-RevB\FS_workspace\sifive_hifive1_revb_sifive_welcome\bsp\build\debug/./metal/machine.h:1066
{
20016624:	1101                	addi	sp,sp,-32
20016626:	ce22                	sw	s0,28(sp)
20016628:	1000                	addi	s0,sp,32
2001662a:	fea42623          	sw	a0,-20(s0)
E:\GitHub\HiFive01-RevB\FS_workspace\sifive_hifive1_revb_sifive_welcome\bsp\build\debug/./metal/machine.h:1067
	if ((uintptr_t)uart == (uintptr_t)&__metal_dt_serial_10013000) {
2001662e:	fec42703          	lw	a4,-20(s0)
20016632:	800017b7          	lui	a5,0x80001
20016636:	a4878793          	addi	a5,a5,-1464 # 80000a48 <metal_segment_heap_target_end+0xfffff2a8>
2001663a:	00f71563          	bne	a4,a5,20016644 <__metal_driver_sifive_uart0_control_base+0x20>
E:\GitHub\HiFive01-RevB\FS_workspace\sifive_hifive1_revb_sifive_welcome\bsp\build\debug/./metal/machine.h:1068
		return METAL_SIFIVE_UART0_10013000_BASE_ADDRESS;
2001663e:	100137b7          	lui	a5,0x10013
20016642:	a829                	j	2001665c <__metal_driver_sifive_uart0_control_base+0x38>
E:\GitHub\HiFive01-RevB\FS_workspace\sifive_hifive1_revb_sifive_welcome\bsp\build\debug/./metal/machine.h:1070
	else if ((uintptr_t)uart == (uintptr_t)&__metal_dt_serial_10023000) {
20016644:	fec42703          	lw	a4,-20(s0)
20016648:	800017b7          	lui	a5,0x80001
2001664c:	a6878793          	addi	a5,a5,-1432 # 80000a68 <metal_segment_heap_target_end+0xfffff2c8>
20016650:	00f71563          	bne	a4,a5,2001665a <__metal_driver_sifive_uart0_control_base+0x36>
E:\GitHub\HiFive01-RevB\FS_workspace\sifive_hifive1_revb_sifive_welcome\bsp\build\debug/./metal/machine.h:1071
		return METAL_SIFIVE_UART0_10023000_BASE_ADDRESS;
20016654:	100237b7          	lui	a5,0x10023
20016658:	a011                	j	2001665c <__metal_driver_sifive_uart0_control_base+0x38>
E:\GitHub\HiFive01-RevB\FS_workspace\sifive_hifive1_revb_sifive_welcome\bsp\build\debug/./metal/machine.h:1074
		return 0;
2001665a:	4781                	li	a5,0
E:\GitHub\HiFive01-RevB\FS_workspace\sifive_hifive1_revb_sifive_welcome\bsp\build\debug/./metal/machine.h:1076
}
2001665c:	853e                	mv	a0,a5
2001665e:	4472                	lw	s0,28(sp)
20016660:	6105                	addi	sp,sp,32
20016662:	8082                	ret

20016664 <__metal_driver_sifive_uart0_interrupt_parent>:
__metal_driver_sifive_uart0_interrupt_parent():
E:\GitHub\HiFive01-RevB\FS_workspace\sifive_hifive1_revb_sifive_welcome\bsp\build\debug/./metal/machine.h:1105
{
20016664:	1101                	addi	sp,sp,-32
20016666:	ce22                	sw	s0,28(sp)
20016668:	1000                	addi	s0,sp,32
2001666a:	fea42623          	sw	a0,-20(s0)
E:\GitHub\HiFive01-RevB\FS_workspace\sifive_hifive1_revb_sifive_welcome\bsp\build\debug/./metal/machine.h:1106
	if ((uintptr_t)uart == (uintptr_t)&__metal_dt_serial_10013000) {
2001666e:	fec42703          	lw	a4,-20(s0)
20016672:	800017b7          	lui	a5,0x80001
20016676:	a4878793          	addi	a5,a5,-1464 # 80000a48 <metal_segment_heap_target_end+0xfffff2a8>
2001667a:	00f71763          	bne	a4,a5,20016688 <__metal_driver_sifive_uart0_interrupt_parent+0x24>
E:\GitHub\HiFive01-RevB\FS_workspace\sifive_hifive1_revb_sifive_welcome\bsp\build\debug/./metal/machine.h:1107
		return (struct metal_interrupt *)&__metal_dt_interrupt_controller_c000000.controller;
2001667e:	800007b7          	lui	a5,0x80000
20016682:	47078793          	addi	a5,a5,1136 # 80000470 <metal_segment_heap_target_end+0xffffecd0>
20016686:	a839                	j	200166a4 <__metal_driver_sifive_uart0_interrupt_parent+0x40>
E:\GitHub\HiFive01-RevB\FS_workspace\sifive_hifive1_revb_sifive_welcome\bsp\build\debug/./metal/machine.h:1109
	else if ((uintptr_t)uart == (uintptr_t)&__metal_dt_serial_10023000) {
20016688:	fec42703          	lw	a4,-20(s0)
2001668c:	800017b7          	lui	a5,0x80001
20016690:	a6878793          	addi	a5,a5,-1432 # 80000a68 <metal_segment_heap_target_end+0xfffff2c8>
20016694:	00f71763          	bne	a4,a5,200166a2 <__metal_driver_sifive_uart0_interrupt_parent+0x3e>
E:\GitHub\HiFive01-RevB\FS_workspace\sifive_hifive1_revb_sifive_welcome\bsp\build\debug/./metal/machine.h:1110
		return (struct metal_interrupt *)&__metal_dt_interrupt_controller_c000000.controller;
20016698:	800007b7          	lui	a5,0x80000
2001669c:	47078793          	addi	a5,a5,1136 # 80000470 <metal_segment_heap_target_end+0xffffecd0>
200166a0:	a011                	j	200166a4 <__metal_driver_sifive_uart0_interrupt_parent+0x40>
E:\GitHub\HiFive01-RevB\FS_workspace\sifive_hifive1_revb_sifive_welcome\bsp\build\debug/./metal/machine.h:1113
		return 0;
200166a2:	4781                	li	a5,0
E:\GitHub\HiFive01-RevB\FS_workspace\sifive_hifive1_revb_sifive_welcome\bsp\build\debug/./metal/machine.h:1115
}
200166a4:	853e                	mv	a0,a5
200166a6:	4472                	lw	s0,28(sp)
200166a8:	6105                	addi	sp,sp,32
200166aa:	8082                	ret

200166ac <__metal_driver_sifive_uart0_interrupt_line>:
__metal_driver_sifive_uart0_interrupt_line():
E:\GitHub\HiFive01-RevB\FS_workspace\sifive_hifive1_revb_sifive_welcome\bsp\build\debug/./metal/machine.h:1118
{
200166ac:	1101                	addi	sp,sp,-32
200166ae:	ce22                	sw	s0,28(sp)
200166b0:	1000                	addi	s0,sp,32
200166b2:	fea42623          	sw	a0,-20(s0)
E:\GitHub\HiFive01-RevB\FS_workspace\sifive_hifive1_revb_sifive_welcome\bsp\build\debug/./metal/machine.h:1119
	if ((uintptr_t)uart == (uintptr_t)&__metal_dt_serial_10013000) {
200166b6:	fec42703          	lw	a4,-20(s0)
200166ba:	800017b7          	lui	a5,0x80001
200166be:	a4878793          	addi	a5,a5,-1464 # 80000a48 <metal_segment_heap_target_end+0xfffff2a8>
200166c2:	00f71463          	bne	a4,a5,200166ca <__metal_driver_sifive_uart0_interrupt_line+0x1e>
E:\GitHub\HiFive01-RevB\FS_workspace\sifive_hifive1_revb_sifive_welcome\bsp\build\debug/./metal/machine.h:1120
		return 3;
200166c6:	478d                	li	a5,3
200166c8:	a821                	j	200166e0 <__metal_driver_sifive_uart0_interrupt_line+0x34>
E:\GitHub\HiFive01-RevB\FS_workspace\sifive_hifive1_revb_sifive_welcome\bsp\build\debug/./metal/machine.h:1122
	else if ((uintptr_t)uart == (uintptr_t)&__metal_dt_serial_10023000) {
200166ca:	fec42703          	lw	a4,-20(s0)
200166ce:	800017b7          	lui	a5,0x80001
200166d2:	a6878793          	addi	a5,a5,-1432 # 80000a68 <metal_segment_heap_target_end+0xfffff2c8>
200166d6:	00f71463          	bne	a4,a5,200166de <__metal_driver_sifive_uart0_interrupt_line+0x32>
E:\GitHub\HiFive01-RevB\FS_workspace\sifive_hifive1_revb_sifive_welcome\bsp\build\debug/./metal/machine.h:1123
		return 4;
200166da:	4791                	li	a5,4
200166dc:	a011                	j	200166e0 <__metal_driver_sifive_uart0_interrupt_line+0x34>
E:\GitHub\HiFive01-RevB\FS_workspace\sifive_hifive1_revb_sifive_welcome\bsp\build\debug/./metal/machine.h:1126
		return 0;
200166de:	4781                	li	a5,0
E:\GitHub\HiFive01-RevB\FS_workspace\sifive_hifive1_revb_sifive_welcome\bsp\build\debug/./metal/machine.h:1128
}
200166e0:	853e                	mv	a0,a5
200166e2:	4472                	lw	s0,28(sp)
200166e4:	6105                	addi	sp,sp,32
200166e6:	8082                	ret

200166e8 <__metal_driver_sifive_uart0_clock>:
__metal_driver_sifive_uart0_clock():
E:\GitHub\HiFive01-RevB\FS_workspace\sifive_hifive1_revb_sifive_welcome\bsp\build\debug/./metal/machine.h:1131
{
200166e8:	1101                	addi	sp,sp,-32
200166ea:	ce22                	sw	s0,28(sp)
200166ec:	1000                	addi	s0,sp,32
200166ee:	fea42623          	sw	a0,-20(s0)
E:\GitHub\HiFive01-RevB\FS_workspace\sifive_hifive1_revb_sifive_welcome\bsp\build\debug/./metal/machine.h:1132
	if ((uintptr_t)uart == (uintptr_t)&__metal_dt_serial_10013000) {
200166f2:	fec42703          	lw	a4,-20(s0)
200166f6:	800017b7          	lui	a5,0x80001
200166fa:	a4878793          	addi	a5,a5,-1464 # 80000a48 <metal_segment_heap_target_end+0xfffff2a8>
200166fe:	00f71763          	bne	a4,a5,2001670c <__metal_driver_sifive_uart0_clock+0x24>
E:\GitHub\HiFive01-RevB\FS_workspace\sifive_hifive1_revb_sifive_welcome\bsp\build\debug/./metal/machine.h:1133
		return (struct metal_clock *)&__metal_dt_clock_4.clock;
20016702:	800017b7          	lui	a5,0x80001
20016706:	aa078793          	addi	a5,a5,-1376 # 80000aa0 <metal_segment_heap_target_end+0xfffff300>
2001670a:	a839                	j	20016728 <__metal_driver_sifive_uart0_clock+0x40>
E:\GitHub\HiFive01-RevB\FS_workspace\sifive_hifive1_revb_sifive_welcome\bsp\build\debug/./metal/machine.h:1135
	else if ((uintptr_t)uart == (uintptr_t)&__metal_dt_serial_10023000) {
2001670c:	fec42703          	lw	a4,-20(s0)
20016710:	800017b7          	lui	a5,0x80001
20016714:	a6878793          	addi	a5,a5,-1432 # 80000a68 <metal_segment_heap_target_end+0xfffff2c8>
20016718:	00f71763          	bne	a4,a5,20016726 <__metal_driver_sifive_uart0_clock+0x3e>
E:\GitHub\HiFive01-RevB\FS_workspace\sifive_hifive1_revb_sifive_welcome\bsp\build\debug/./metal/machine.h:1136
		return (struct metal_clock *)&__metal_dt_clock_4.clock;
2001671c:	800017b7          	lui	a5,0x80001
20016720:	aa078793          	addi	a5,a5,-1376 # 80000aa0 <metal_segment_heap_target_end+0xfffff300>
20016724:	a011                	j	20016728 <__metal_driver_sifive_uart0_clock+0x40>
E:\GitHub\HiFive01-RevB\FS_workspace\sifive_hifive1_revb_sifive_welcome\bsp\build\debug/./metal/machine.h:1139
		return 0;
20016726:	4781                	li	a5,0
E:\GitHub\HiFive01-RevB\FS_workspace\sifive_hifive1_revb_sifive_welcome\bsp\build\debug/./metal/machine.h:1141
}
20016728:	853e                	mv	a0,a5
2001672a:	4472                	lw	s0,28(sp)
2001672c:	6105                	addi	sp,sp,32
2001672e:	8082                	ret

20016730 <__metal_driver_sifive_uart0_pinmux>:
__metal_driver_sifive_uart0_pinmux():
E:\GitHub\HiFive01-RevB\FS_workspace\sifive_hifive1_revb_sifive_welcome\bsp\build\debug/./metal/machine.h:1144
{
20016730:	1101                	addi	sp,sp,-32
20016732:	ce22                	sw	s0,28(sp)
20016734:	1000                	addi	s0,sp,32
20016736:	fea42623          	sw	a0,-20(s0)
E:\GitHub\HiFive01-RevB\FS_workspace\sifive_hifive1_revb_sifive_welcome\bsp\build\debug/./metal/machine.h:1145
	if ((uintptr_t)uart == (uintptr_t)&__metal_dt_serial_10013000) {
2001673a:	fec42703          	lw	a4,-20(s0)
2001673e:	800017b7          	lui	a5,0x80001
20016742:	a4878793          	addi	a5,a5,-1464 # 80000a48 <metal_segment_heap_target_end+0xfffff2a8>
20016746:	00f71563          	bne	a4,a5,20016750 <__metal_driver_sifive_uart0_pinmux+0x20>
E:\GitHub\HiFive01-RevB\FS_workspace\sifive_hifive1_revb_sifive_welcome\bsp\build\debug/./metal/machine.h:1146
		return (struct __metal_driver_sifive_gpio0 *)&__metal_dt_gpio_10012000;
2001674a:	81818793          	addi	a5,gp,-2024 # 80000ac8 <__metal_dt_gpio_10012000>
2001674e:	a829                	j	20016768 <__metal_driver_sifive_uart0_pinmux+0x38>
E:\GitHub\HiFive01-RevB\FS_workspace\sifive_hifive1_revb_sifive_welcome\bsp\build\debug/./metal/machine.h:1148
	else if ((uintptr_t)uart == (uintptr_t)&__metal_dt_serial_10023000) {
20016750:	fec42703          	lw	a4,-20(s0)
20016754:	800017b7          	lui	a5,0x80001
20016758:	a6878793          	addi	a5,a5,-1432 # 80000a68 <metal_segment_heap_target_end+0xfffff2c8>
2001675c:	00f71563          	bne	a4,a5,20016766 <__metal_driver_sifive_uart0_pinmux+0x36>
E:\GitHub\HiFive01-RevB\FS_workspace\sifive_hifive1_revb_sifive_welcome\bsp\build\debug/./metal/machine.h:1149
		return (struct __metal_driver_sifive_gpio0 *)&__metal_dt_gpio_10012000;
20016760:	81818793          	addi	a5,gp,-2024 # 80000ac8 <__metal_dt_gpio_10012000>
20016764:	a011                	j	20016768 <__metal_driver_sifive_uart0_pinmux+0x38>
E:\GitHub\HiFive01-RevB\FS_workspace\sifive_hifive1_revb_sifive_welcome\bsp\build\debug/./metal/machine.h:1152
		return 0;
20016766:	4781                	li	a5,0
E:\GitHub\HiFive01-RevB\FS_workspace\sifive_hifive1_revb_sifive_welcome\bsp\build\debug/./metal/machine.h:1154
}
20016768:	853e                	mv	a0,a5
2001676a:	4472                	lw	s0,28(sp)
2001676c:	6105                	addi	sp,sp,32
2001676e:	8082                	ret

20016770 <__metal_driver_sifive_uart0_pinmux_output_selector>:
__metal_driver_sifive_uart0_pinmux_output_selector():
E:\GitHub\HiFive01-RevB\FS_workspace\sifive_hifive1_revb_sifive_welcome\bsp\build\debug/./metal/machine.h:1157
{
20016770:	1101                	addi	sp,sp,-32
20016772:	ce22                	sw	s0,28(sp)
20016774:	1000                	addi	s0,sp,32
20016776:	fea42623          	sw	a0,-20(s0)
E:\GitHub\HiFive01-RevB\FS_workspace\sifive_hifive1_revb_sifive_welcome\bsp\build\debug/./metal/machine.h:1158
	if ((uintptr_t)uart == (uintptr_t)&__metal_dt_serial_10013000) {
2001677a:	fec42703          	lw	a4,-20(s0)
2001677e:	800017b7          	lui	a5,0x80001
20016782:	a4878793          	addi	a5,a5,-1464 # 80000a48 <metal_segment_heap_target_end+0xfffff2a8>
20016786:	00f71463          	bne	a4,a5,2001678e <__metal_driver_sifive_uart0_pinmux_output_selector+0x1e>
E:\GitHub\HiFive01-RevB\FS_workspace\sifive_hifive1_revb_sifive_welcome\bsp\build\debug/./metal/machine.h:1159
		return 0;
2001678a:	4781                	li	a5,0
2001678c:	a821                	j	200167a4 <__metal_driver_sifive_uart0_pinmux_output_selector+0x34>
E:\GitHub\HiFive01-RevB\FS_workspace\sifive_hifive1_revb_sifive_welcome\bsp\build\debug/./metal/machine.h:1161
	else if ((uintptr_t)uart == (uintptr_t)&__metal_dt_serial_10023000) {
2001678e:	fec42703          	lw	a4,-20(s0)
20016792:	800017b7          	lui	a5,0x80001
20016796:	a6878793          	addi	a5,a5,-1432 # 80000a68 <metal_segment_heap_target_end+0xfffff2c8>
2001679a:	00f71463          	bne	a4,a5,200167a2 <__metal_driver_sifive_uart0_pinmux_output_selector+0x32>
E:\GitHub\HiFive01-RevB\FS_workspace\sifive_hifive1_revb_sifive_welcome\bsp\build\debug/./metal/machine.h:1162
		return 0;
2001679e:	4781                	li	a5,0
200167a0:	a011                	j	200167a4 <__metal_driver_sifive_uart0_pinmux_output_selector+0x34>
E:\GitHub\HiFive01-RevB\FS_workspace\sifive_hifive1_revb_sifive_welcome\bsp\build\debug/./metal/machine.h:1165
		return 0;
200167a2:	4781                	li	a5,0
E:\GitHub\HiFive01-RevB\FS_workspace\sifive_hifive1_revb_sifive_welcome\bsp\build\debug/./metal/machine.h:1167
}
200167a4:	853e                	mv	a0,a5
200167a6:	4472                	lw	s0,28(sp)
200167a8:	6105                	addi	sp,sp,32
200167aa:	8082                	ret

200167ac <__metal_driver_sifive_uart0_pinmux_source_selector>:
__metal_driver_sifive_uart0_pinmux_source_selector():
E:\GitHub\HiFive01-RevB\FS_workspace\sifive_hifive1_revb_sifive_welcome\bsp\build\debug/./metal/machine.h:1170
{
200167ac:	1101                	addi	sp,sp,-32
200167ae:	ce22                	sw	s0,28(sp)
200167b0:	1000                	addi	s0,sp,32
200167b2:	fea42623          	sw	a0,-20(s0)
E:\GitHub\HiFive01-RevB\FS_workspace\sifive_hifive1_revb_sifive_welcome\bsp\build\debug/./metal/machine.h:1171
	if ((uintptr_t)uart == (uintptr_t)&__metal_dt_serial_10013000) {
200167b6:	fec42703          	lw	a4,-20(s0)
200167ba:	800017b7          	lui	a5,0x80001
200167be:	a4878793          	addi	a5,a5,-1464 # 80000a48 <metal_segment_heap_target_end+0xfffff2a8>
200167c2:	00f71563          	bne	a4,a5,200167cc <__metal_driver_sifive_uart0_pinmux_source_selector+0x20>
E:\GitHub\HiFive01-RevB\FS_workspace\sifive_hifive1_revb_sifive_welcome\bsp\build\debug/./metal/machine.h:1172
		return 196608;
200167c6:	000307b7          	lui	a5,0x30
200167ca:	a829                	j	200167e4 <__metal_driver_sifive_uart0_pinmux_source_selector+0x38>
E:\GitHub\HiFive01-RevB\FS_workspace\sifive_hifive1_revb_sifive_welcome\bsp\build\debug/./metal/machine.h:1174
	else if ((uintptr_t)uart == (uintptr_t)&__metal_dt_serial_10023000) {
200167cc:	fec42703          	lw	a4,-20(s0)
200167d0:	800017b7          	lui	a5,0x80001
200167d4:	a6878793          	addi	a5,a5,-1432 # 80000a68 <metal_segment_heap_target_end+0xfffff2c8>
200167d8:	00f71563          	bne	a4,a5,200167e2 <__metal_driver_sifive_uart0_pinmux_source_selector+0x36>
E:\GitHub\HiFive01-RevB\FS_workspace\sifive_hifive1_revb_sifive_welcome\bsp\build\debug/./metal/machine.h:1175
		return 8650752;
200167dc:	008407b7          	lui	a5,0x840
200167e0:	a011                	j	200167e4 <__metal_driver_sifive_uart0_pinmux_source_selector+0x38>
E:\GitHub\HiFive01-RevB\FS_workspace\sifive_hifive1_revb_sifive_welcome\bsp\build\debug/./metal/machine.h:1178
		return 0;
200167e2:	4781                	li	a5,0
E:\GitHub\HiFive01-RevB\FS_workspace\sifive_hifive1_revb_sifive_welcome\bsp\build\debug/./metal/machine.h:1180
}
200167e4:	853e                	mv	a0,a5
200167e6:	4472                	lw	s0,28(sp)
200167e8:	6105                	addi	sp,sp,32
200167ea:	8082                	ret

200167ec <__metal_driver_sifive_uart0_interrupt_controller>:
__metal_driver_sifive_uart0_interrupt_controller():
E:/GitHub/HiFive01-RevB/FS_workspace/sifive_hifive1_revb_sifive_welcome/freedom-metal/src/drivers/sifive_uart0.c:37
    (__METAL_ACCESS_ONCE((__metal_io_u8 *)UART_REG(offset)))
#define UART_REGW(offset)                                                      \
    (__METAL_ACCESS_ONCE((__metal_io_u32 *)UART_REG(offset)))

struct metal_interrupt *
__metal_driver_sifive_uart0_interrupt_controller(struct metal_uart *uart) {
200167ec:	1101                	addi	sp,sp,-32
200167ee:	ce06                	sw	ra,28(sp)
200167f0:	cc22                	sw	s0,24(sp)
200167f2:	1000                	addi	s0,sp,32
200167f4:	fea42623          	sw	a0,-20(s0)
E:/GitHub/HiFive01-RevB/FS_workspace/sifive_hifive1_revb_sifive_welcome/freedom-metal/src/drivers/sifive_uart0.c:38
    return __metal_driver_sifive_uart0_interrupt_parent(uart);
200167f8:	fec42503          	lw	a0,-20(s0)
200167fc:	e69ff0ef          	jal	ra,20016664 <__metal_driver_sifive_uart0_interrupt_parent>
20016800:	87aa                	mv	a5,a0
E:/GitHub/HiFive01-RevB/FS_workspace/sifive_hifive1_revb_sifive_welcome/freedom-metal/src/drivers/sifive_uart0.c:39
}
20016802:	853e                	mv	a0,a5
20016804:	40f2                	lw	ra,28(sp)
20016806:	4462                	lw	s0,24(sp)
20016808:	6105                	addi	sp,sp,32
2001680a:	8082                	ret

2001680c <__metal_driver_sifive_uart0_get_interrupt_id>:
__metal_driver_sifive_uart0_get_interrupt_id():
E:/GitHub/HiFive01-RevB/FS_workspace/sifive_hifive1_revb_sifive_welcome/freedom-metal/src/drivers/sifive_uart0.c:41

int __metal_driver_sifive_uart0_get_interrupt_id(struct metal_uart *uart) {
2001680c:	1101                	addi	sp,sp,-32
2001680e:	ce06                	sw	ra,28(sp)
20016810:	cc22                	sw	s0,24(sp)
20016812:	1000                	addi	s0,sp,32
20016814:	fea42623          	sw	a0,-20(s0)
E:/GitHub/HiFive01-RevB/FS_workspace/sifive_hifive1_revb_sifive_welcome/freedom-metal/src/drivers/sifive_uart0.c:42
    return __metal_driver_sifive_uart0_interrupt_line(uart);
20016818:	fec42503          	lw	a0,-20(s0)
2001681c:	e91ff0ef          	jal	ra,200166ac <__metal_driver_sifive_uart0_interrupt_line>
20016820:	87aa                	mv	a5,a0
E:/GitHub/HiFive01-RevB/FS_workspace/sifive_hifive1_revb_sifive_welcome/freedom-metal/src/drivers/sifive_uart0.c:43
}
20016822:	853e                	mv	a0,a5
20016824:	40f2                	lw	ra,28(sp)
20016826:	4462                	lw	s0,24(sp)
20016828:	6105                	addi	sp,sp,32
2001682a:	8082                	ret

2001682c <__metal_driver_sifive_uart0_tx_interrupt_enable>:
__metal_driver_sifive_uart0_tx_interrupt_enable():
E:/GitHub/HiFive01-RevB/FS_workspace/sifive_hifive1_revb_sifive_welcome/freedom-metal/src/drivers/sifive_uart0.c:45

int __metal_driver_sifive_uart0_tx_interrupt_enable(struct metal_uart *uart) {
2001682c:	7179                	addi	sp,sp,-48
2001682e:	d606                	sw	ra,44(sp)
20016830:	d422                	sw	s0,40(sp)
20016832:	1800                	addi	s0,sp,48
20016834:	fca42e23          	sw	a0,-36(s0)
E:/GitHub/HiFive01-RevB/FS_workspace/sifive_hifive1_revb_sifive_welcome/freedom-metal/src/drivers/sifive_uart0.c:46
    long control_base = __metal_driver_sifive_uart0_control_base(uart);
20016838:	fdc42503          	lw	a0,-36(s0)
2001683c:	de9ff0ef          	jal	ra,20016624 <__metal_driver_sifive_uart0_control_base>
20016840:	87aa                	mv	a5,a0
20016842:	fef42623          	sw	a5,-20(s0)
E:/GitHub/HiFive01-RevB/FS_workspace/sifive_hifive1_revb_sifive_welcome/freedom-metal/src/drivers/sifive_uart0.c:48

    UART_REGW(METAL_SIFIVE_UART0_IE) |= UART_TXWM;
20016846:	fec42783          	lw	a5,-20(s0)
2001684a:	07c1                	addi	a5,a5,16
2001684c:	439c                	lw	a5,0(a5)
2001684e:	fec42703          	lw	a4,-20(s0)
20016852:	0741                	addi	a4,a4,16
20016854:	0017e793          	ori	a5,a5,1
20016858:	c31c                	sw	a5,0(a4)
E:/GitHub/HiFive01-RevB/FS_workspace/sifive_hifive1_revb_sifive_welcome/freedom-metal/src/drivers/sifive_uart0.c:49
    return 0;
2001685a:	4781                	li	a5,0
E:/GitHub/HiFive01-RevB/FS_workspace/sifive_hifive1_revb_sifive_welcome/freedom-metal/src/drivers/sifive_uart0.c:50
}
2001685c:	853e                	mv	a0,a5
2001685e:	50b2                	lw	ra,44(sp)
20016860:	5422                	lw	s0,40(sp)
20016862:	6145                	addi	sp,sp,48
20016864:	8082                	ret

20016866 <__metal_driver_sifive_uart0_tx_interrupt_disable>:
__metal_driver_sifive_uart0_tx_interrupt_disable():
E:/GitHub/HiFive01-RevB/FS_workspace/sifive_hifive1_revb_sifive_welcome/freedom-metal/src/drivers/sifive_uart0.c:52

int __metal_driver_sifive_uart0_tx_interrupt_disable(struct metal_uart *uart) {
20016866:	7179                	addi	sp,sp,-48
20016868:	d606                	sw	ra,44(sp)
2001686a:	d422                	sw	s0,40(sp)
2001686c:	1800                	addi	s0,sp,48
2001686e:	fca42e23          	sw	a0,-36(s0)
E:/GitHub/HiFive01-RevB/FS_workspace/sifive_hifive1_revb_sifive_welcome/freedom-metal/src/drivers/sifive_uart0.c:53
    long control_base = __metal_driver_sifive_uart0_control_base(uart);
20016872:	fdc42503          	lw	a0,-36(s0)
20016876:	dafff0ef          	jal	ra,20016624 <__metal_driver_sifive_uart0_control_base>
2001687a:	87aa                	mv	a5,a0
2001687c:	fef42623          	sw	a5,-20(s0)
E:/GitHub/HiFive01-RevB/FS_workspace/sifive_hifive1_revb_sifive_welcome/freedom-metal/src/drivers/sifive_uart0.c:55

    UART_REGW(METAL_SIFIVE_UART0_IE) &= ~UART_TXWM;
20016880:	fec42783          	lw	a5,-20(s0)
20016884:	07c1                	addi	a5,a5,16
20016886:	439c                	lw	a5,0(a5)
20016888:	fec42703          	lw	a4,-20(s0)
2001688c:	0741                	addi	a4,a4,16
2001688e:	9bf9                	andi	a5,a5,-2
20016890:	c31c                	sw	a5,0(a4)
E:/GitHub/HiFive01-RevB/FS_workspace/sifive_hifive1_revb_sifive_welcome/freedom-metal/src/drivers/sifive_uart0.c:56
    return 0;
20016892:	4781                	li	a5,0
E:/GitHub/HiFive01-RevB/FS_workspace/sifive_hifive1_revb_sifive_welcome/freedom-metal/src/drivers/sifive_uart0.c:57
}
20016894:	853e                	mv	a0,a5
20016896:	50b2                	lw	ra,44(sp)
20016898:	5422                	lw	s0,40(sp)
2001689a:	6145                	addi	sp,sp,48
2001689c:	8082                	ret

2001689e <__metal_driver_sifive_uart0_rx_interrupt_enable>:
__metal_driver_sifive_uart0_rx_interrupt_enable():
E:/GitHub/HiFive01-RevB/FS_workspace/sifive_hifive1_revb_sifive_welcome/freedom-metal/src/drivers/sifive_uart0.c:59

int __metal_driver_sifive_uart0_rx_interrupt_enable(struct metal_uart *uart) {
2001689e:	7179                	addi	sp,sp,-48
200168a0:	d606                	sw	ra,44(sp)
200168a2:	d422                	sw	s0,40(sp)
200168a4:	1800                	addi	s0,sp,48
200168a6:	fca42e23          	sw	a0,-36(s0)
E:/GitHub/HiFive01-RevB/FS_workspace/sifive_hifive1_revb_sifive_welcome/freedom-metal/src/drivers/sifive_uart0.c:60
    long control_base = __metal_driver_sifive_uart0_control_base(uart);
200168aa:	fdc42503          	lw	a0,-36(s0)
200168ae:	d77ff0ef          	jal	ra,20016624 <__metal_driver_sifive_uart0_control_base>
200168b2:	87aa                	mv	a5,a0
200168b4:	fef42623          	sw	a5,-20(s0)
E:/GitHub/HiFive01-RevB/FS_workspace/sifive_hifive1_revb_sifive_welcome/freedom-metal/src/drivers/sifive_uart0.c:62

    UART_REGW(METAL_SIFIVE_UART0_IE) |= UART_RXWM;
200168b8:	fec42783          	lw	a5,-20(s0)
200168bc:	07c1                	addi	a5,a5,16
200168be:	439c                	lw	a5,0(a5)
200168c0:	fec42703          	lw	a4,-20(s0)
200168c4:	0741                	addi	a4,a4,16
200168c6:	0027e793          	ori	a5,a5,2
200168ca:	c31c                	sw	a5,0(a4)
E:/GitHub/HiFive01-RevB/FS_workspace/sifive_hifive1_revb_sifive_welcome/freedom-metal/src/drivers/sifive_uart0.c:63
    return 0;
200168cc:	4781                	li	a5,0
E:/GitHub/HiFive01-RevB/FS_workspace/sifive_hifive1_revb_sifive_welcome/freedom-metal/src/drivers/sifive_uart0.c:64
}
200168ce:	853e                	mv	a0,a5
200168d0:	50b2                	lw	ra,44(sp)
200168d2:	5422                	lw	s0,40(sp)
200168d4:	6145                	addi	sp,sp,48
200168d6:	8082                	ret

200168d8 <__metal_driver_sifive_uart0_rx_interrupt_disable>:
__metal_driver_sifive_uart0_rx_interrupt_disable():
E:/GitHub/HiFive01-RevB/FS_workspace/sifive_hifive1_revb_sifive_welcome/freedom-metal/src/drivers/sifive_uart0.c:66

int __metal_driver_sifive_uart0_rx_interrupt_disable(struct metal_uart *uart) {
200168d8:	7179                	addi	sp,sp,-48
200168da:	d606                	sw	ra,44(sp)
200168dc:	d422                	sw	s0,40(sp)
200168de:	1800                	addi	s0,sp,48
200168e0:	fca42e23          	sw	a0,-36(s0)
E:/GitHub/HiFive01-RevB/FS_workspace/sifive_hifive1_revb_sifive_welcome/freedom-metal/src/drivers/sifive_uart0.c:67
    long control_base = __metal_driver_sifive_uart0_control_base(uart);
200168e4:	fdc42503          	lw	a0,-36(s0)
200168e8:	d3dff0ef          	jal	ra,20016624 <__metal_driver_sifive_uart0_control_base>
200168ec:	87aa                	mv	a5,a0
200168ee:	fef42623          	sw	a5,-20(s0)
E:/GitHub/HiFive01-RevB/FS_workspace/sifive_hifive1_revb_sifive_welcome/freedom-metal/src/drivers/sifive_uart0.c:69

    UART_REGW(METAL_SIFIVE_UART0_IE) &= ~UART_RXWM;
200168f2:	fec42783          	lw	a5,-20(s0)
200168f6:	07c1                	addi	a5,a5,16
200168f8:	439c                	lw	a5,0(a5)
200168fa:	fec42703          	lw	a4,-20(s0)
200168fe:	0741                	addi	a4,a4,16
20016900:	9bf5                	andi	a5,a5,-3
20016902:	c31c                	sw	a5,0(a4)
E:/GitHub/HiFive01-RevB/FS_workspace/sifive_hifive1_revb_sifive_welcome/freedom-metal/src/drivers/sifive_uart0.c:70
    return 0;
20016904:	4781                	li	a5,0
E:/GitHub/HiFive01-RevB/FS_workspace/sifive_hifive1_revb_sifive_welcome/freedom-metal/src/drivers/sifive_uart0.c:71
}
20016906:	853e                	mv	a0,a5
20016908:	50b2                	lw	ra,44(sp)
2001690a:	5422                	lw	s0,40(sp)
2001690c:	6145                	addi	sp,sp,48
2001690e:	8082                	ret

20016910 <__metal_driver_sifive_uart0_txready>:
__metal_driver_sifive_uart0_txready():
E:/GitHub/HiFive01-RevB/FS_workspace/sifive_hifive1_revb_sifive_welcome/freedom-metal/src/drivers/sifive_uart0.c:73

int __metal_driver_sifive_uart0_txready(struct metal_uart *uart) {
20016910:	7179                	addi	sp,sp,-48
20016912:	d606                	sw	ra,44(sp)
20016914:	d422                	sw	s0,40(sp)
20016916:	1800                	addi	s0,sp,48
20016918:	fca42e23          	sw	a0,-36(s0)
E:/GitHub/HiFive01-RevB/FS_workspace/sifive_hifive1_revb_sifive_welcome/freedom-metal/src/drivers/sifive_uart0.c:74
    long control_base = __metal_driver_sifive_uart0_control_base(uart);
2001691c:	fdc42503          	lw	a0,-36(s0)
20016920:	d05ff0ef          	jal	ra,20016624 <__metal_driver_sifive_uart0_control_base>
20016924:	87aa                	mv	a5,a0
20016926:	fef42623          	sw	a5,-20(s0)
E:/GitHub/HiFive01-RevB/FS_workspace/sifive_hifive1_revb_sifive_welcome/freedom-metal/src/drivers/sifive_uart0.c:76

    return !!((UART_REGW(METAL_SIFIVE_UART0_TXDATA) & UART_TXFULL));
2001692a:	fec42783          	lw	a5,-20(s0)
2001692e:	439c                	lw	a5,0(a5)
20016930:	83fd                	srli	a5,a5,0x1f
20016932:	0ff7f793          	zext.b	a5,a5
E:/GitHub/HiFive01-RevB/FS_workspace/sifive_hifive1_revb_sifive_welcome/freedom-metal/src/drivers/sifive_uart0.c:77
}
20016936:	853e                	mv	a0,a5
20016938:	50b2                	lw	ra,44(sp)
2001693a:	5422                	lw	s0,40(sp)
2001693c:	6145                	addi	sp,sp,48
2001693e:	8082                	ret

20016940 <__metal_driver_sifive_uart0_set_tx_watermark>:
__metal_driver_sifive_uart0_set_tx_watermark():
E:/GitHub/HiFive01-RevB/FS_workspace/sifive_hifive1_revb_sifive_welcome/freedom-metal/src/drivers/sifive_uart0.c:80

int __metal_driver_sifive_uart0_set_tx_watermark(struct metal_uart *uart,
                                                 size_t level) {
20016940:	7179                	addi	sp,sp,-48
20016942:	d606                	sw	ra,44(sp)
20016944:	d422                	sw	s0,40(sp)
20016946:	1800                	addi	s0,sp,48
20016948:	fca42e23          	sw	a0,-36(s0)
2001694c:	fcb42c23          	sw	a1,-40(s0)
E:/GitHub/HiFive01-RevB/FS_workspace/sifive_hifive1_revb_sifive_welcome/freedom-metal/src/drivers/sifive_uart0.c:81
    long control_base = __metal_driver_sifive_uart0_control_base(uart);
20016950:	fdc42503          	lw	a0,-36(s0)
20016954:	cd1ff0ef          	jal	ra,20016624 <__metal_driver_sifive_uart0_control_base>
20016958:	87aa                	mv	a5,a0
2001695a:	fef42623          	sw	a5,-20(s0)
E:/GitHub/HiFive01-RevB/FS_workspace/sifive_hifive1_revb_sifive_welcome/freedom-metal/src/drivers/sifive_uart0.c:83

    UART_REGW(METAL_SIFIVE_UART0_TXCTRL) |= UART_TXCNT(level);
2001695e:	fec42783          	lw	a5,-20(s0)
20016962:	07a1                	addi	a5,a5,8
20016964:	4398                	lw	a4,0(a5)
20016966:	fd842783          	lw	a5,-40(s0)
2001696a:	01079693          	slli	a3,a5,0x10
2001696e:	000707b7          	lui	a5,0x70
20016972:	8ff5                	and	a5,a5,a3
20016974:	fec42683          	lw	a3,-20(s0)
20016978:	06a1                	addi	a3,a3,8
2001697a:	8fd9                	or	a5,a5,a4
2001697c:	c29c                	sw	a5,0(a3)
E:/GitHub/HiFive01-RevB/FS_workspace/sifive_hifive1_revb_sifive_welcome/freedom-metal/src/drivers/sifive_uart0.c:84
    return 0;
2001697e:	4781                	li	a5,0
E:/GitHub/HiFive01-RevB/FS_workspace/sifive_hifive1_revb_sifive_welcome/freedom-metal/src/drivers/sifive_uart0.c:85
}
20016980:	853e                	mv	a0,a5
20016982:	50b2                	lw	ra,44(sp)
20016984:	5422                	lw	s0,40(sp)
20016986:	6145                	addi	sp,sp,48
20016988:	8082                	ret

2001698a <__metal_driver_sifive_uart0_get_tx_watermark>:
__metal_driver_sifive_uart0_get_tx_watermark():
E:/GitHub/HiFive01-RevB/FS_workspace/sifive_hifive1_revb_sifive_welcome/freedom-metal/src/drivers/sifive_uart0.c:87

size_t __metal_driver_sifive_uart0_get_tx_watermark(struct metal_uart *uart) {
2001698a:	7179                	addi	sp,sp,-48
2001698c:	d606                	sw	ra,44(sp)
2001698e:	d422                	sw	s0,40(sp)
20016990:	1800                	addi	s0,sp,48
20016992:	fca42e23          	sw	a0,-36(s0)
E:/GitHub/HiFive01-RevB/FS_workspace/sifive_hifive1_revb_sifive_welcome/freedom-metal/src/drivers/sifive_uart0.c:88
    long control_base = __metal_driver_sifive_uart0_control_base(uart);
20016996:	fdc42503          	lw	a0,-36(s0)
2001699a:	c8bff0ef          	jal	ra,20016624 <__metal_driver_sifive_uart0_control_base>
2001699e:	87aa                	mv	a5,a0
200169a0:	fef42623          	sw	a5,-20(s0)
E:/GitHub/HiFive01-RevB/FS_workspace/sifive_hifive1_revb_sifive_welcome/freedom-metal/src/drivers/sifive_uart0.c:90

    return ((UART_REGW(METAL_SIFIVE_UART0_TXCTRL) >> 16) & 0x7);
200169a4:	fec42783          	lw	a5,-20(s0)
200169a8:	07a1                	addi	a5,a5,8
200169aa:	439c                	lw	a5,0(a5)
200169ac:	83c1                	srli	a5,a5,0x10
200169ae:	8b9d                	andi	a5,a5,7
E:/GitHub/HiFive01-RevB/FS_workspace/sifive_hifive1_revb_sifive_welcome/freedom-metal/src/drivers/sifive_uart0.c:91
}
200169b0:	853e                	mv	a0,a5
200169b2:	50b2                	lw	ra,44(sp)
200169b4:	5422                	lw	s0,40(sp)
200169b6:	6145                	addi	sp,sp,48
200169b8:	8082                	ret

200169ba <__metal_driver_sifive_uart0_set_rx_watermark>:
__metal_driver_sifive_uart0_set_rx_watermark():
E:/GitHub/HiFive01-RevB/FS_workspace/sifive_hifive1_revb_sifive_welcome/freedom-metal/src/drivers/sifive_uart0.c:94

int __metal_driver_sifive_uart0_set_rx_watermark(struct metal_uart *uart,
                                                 size_t level) {
200169ba:	7179                	addi	sp,sp,-48
200169bc:	d606                	sw	ra,44(sp)
200169be:	d422                	sw	s0,40(sp)
200169c0:	1800                	addi	s0,sp,48
200169c2:	fca42e23          	sw	a0,-36(s0)
200169c6:	fcb42c23          	sw	a1,-40(s0)
E:/GitHub/HiFive01-RevB/FS_workspace/sifive_hifive1_revb_sifive_welcome/freedom-metal/src/drivers/sifive_uart0.c:95
    long control_base = __metal_driver_sifive_uart0_control_base(uart);
200169ca:	fdc42503          	lw	a0,-36(s0)
200169ce:	c57ff0ef          	jal	ra,20016624 <__metal_driver_sifive_uart0_control_base>
200169d2:	87aa                	mv	a5,a0
200169d4:	fef42623          	sw	a5,-20(s0)
E:/GitHub/HiFive01-RevB/FS_workspace/sifive_hifive1_revb_sifive_welcome/freedom-metal/src/drivers/sifive_uart0.c:97

    UART_REGW(METAL_SIFIVE_UART0_RXCTRL) |= UART_RXCNT(level);
200169d8:	fec42783          	lw	a5,-20(s0)
200169dc:	07b1                	addi	a5,a5,12
200169de:	4398                	lw	a4,0(a5)
200169e0:	fd842783          	lw	a5,-40(s0)
200169e4:	01079693          	slli	a3,a5,0x10
200169e8:	000707b7          	lui	a5,0x70
200169ec:	8ff5                	and	a5,a5,a3
200169ee:	fec42683          	lw	a3,-20(s0)
200169f2:	06b1                	addi	a3,a3,12
200169f4:	8fd9                	or	a5,a5,a4
200169f6:	c29c                	sw	a5,0(a3)
E:/GitHub/HiFive01-RevB/FS_workspace/sifive_hifive1_revb_sifive_welcome/freedom-metal/src/drivers/sifive_uart0.c:98
    return 0;
200169f8:	4781                	li	a5,0
E:/GitHub/HiFive01-RevB/FS_workspace/sifive_hifive1_revb_sifive_welcome/freedom-metal/src/drivers/sifive_uart0.c:99
}
200169fa:	853e                	mv	a0,a5
200169fc:	50b2                	lw	ra,44(sp)
200169fe:	5422                	lw	s0,40(sp)
20016a00:	6145                	addi	sp,sp,48
20016a02:	8082                	ret

20016a04 <__metal_driver_sifive_uart0_get_rx_watermark>:
__metal_driver_sifive_uart0_get_rx_watermark():
E:/GitHub/HiFive01-RevB/FS_workspace/sifive_hifive1_revb_sifive_welcome/freedom-metal/src/drivers/sifive_uart0.c:101

size_t __metal_driver_sifive_uart0_get_rx_watermark(struct metal_uart *uart) {
20016a04:	7179                	addi	sp,sp,-48
20016a06:	d606                	sw	ra,44(sp)
20016a08:	d422                	sw	s0,40(sp)
20016a0a:	1800                	addi	s0,sp,48
20016a0c:	fca42e23          	sw	a0,-36(s0)
E:/GitHub/HiFive01-RevB/FS_workspace/sifive_hifive1_revb_sifive_welcome/freedom-metal/src/drivers/sifive_uart0.c:102
    long control_base = __metal_driver_sifive_uart0_control_base(uart);
20016a10:	fdc42503          	lw	a0,-36(s0)
20016a14:	c11ff0ef          	jal	ra,20016624 <__metal_driver_sifive_uart0_control_base>
20016a18:	87aa                	mv	a5,a0
20016a1a:	fef42623          	sw	a5,-20(s0)
E:/GitHub/HiFive01-RevB/FS_workspace/sifive_hifive1_revb_sifive_welcome/freedom-metal/src/drivers/sifive_uart0.c:104

    return ((UART_REGW(METAL_SIFIVE_UART0_RXCTRL) >> 16) & 0x7);
20016a1e:	fec42783          	lw	a5,-20(s0)
20016a22:	07b1                	addi	a5,a5,12
20016a24:	439c                	lw	a5,0(a5)
20016a26:	83c1                	srli	a5,a5,0x10
20016a28:	8b9d                	andi	a5,a5,7
E:/GitHub/HiFive01-RevB/FS_workspace/sifive_hifive1_revb_sifive_welcome/freedom-metal/src/drivers/sifive_uart0.c:105
}
20016a2a:	853e                	mv	a0,a5
20016a2c:	50b2                	lw	ra,44(sp)
20016a2e:	5422                	lw	s0,40(sp)
20016a30:	6145                	addi	sp,sp,48
20016a32:	8082                	ret

20016a34 <__metal_driver_sifive_uart0_putc>:
__metal_driver_sifive_uart0_putc():
E:/GitHub/HiFive01-RevB/FS_workspace/sifive_hifive1_revb_sifive_welcome/freedom-metal/src/drivers/sifive_uart0.c:107

int __metal_driver_sifive_uart0_putc(struct metal_uart *uart, int c) {
20016a34:	7179                	addi	sp,sp,-48
20016a36:	d606                	sw	ra,44(sp)
20016a38:	d422                	sw	s0,40(sp)
20016a3a:	1800                	addi	s0,sp,48
20016a3c:	fca42e23          	sw	a0,-36(s0)
20016a40:	fcb42c23          	sw	a1,-40(s0)
E:/GitHub/HiFive01-RevB/FS_workspace/sifive_hifive1_revb_sifive_welcome/freedom-metal/src/drivers/sifive_uart0.c:108
    long control_base = __metal_driver_sifive_uart0_control_base(uart);
20016a44:	fdc42503          	lw	a0,-36(s0)
20016a48:	bddff0ef          	jal	ra,20016624 <__metal_driver_sifive_uart0_control_base>
20016a4c:	87aa                	mv	a5,a0
20016a4e:	fef42623          	sw	a5,-20(s0)
E:/GitHub/HiFive01-RevB/FS_workspace/sifive_hifive1_revb_sifive_welcome/freedom-metal/src/drivers/sifive_uart0.c:110

    while (__metal_driver_sifive_uart0_txready(uart) != 0) {
20016a52:	0001                	nop
E:/GitHub/HiFive01-RevB/FS_workspace/sifive_hifive1_revb_sifive_welcome/freedom-metal/src/drivers/sifive_uart0.c:110 (discriminator 1)
20016a54:	fdc42503          	lw	a0,-36(s0)
20016a58:	eb9ff0ef          	jal	ra,20016910 <__metal_driver_sifive_uart0_txready>
20016a5c:	87aa                	mv	a5,a0
20016a5e:	fbfd                	bnez	a5,20016a54 <__metal_driver_sifive_uart0_putc+0x20>
E:/GitHub/HiFive01-RevB/FS_workspace/sifive_hifive1_revb_sifive_welcome/freedom-metal/src/drivers/sifive_uart0.c:113
        /* wait */
    }
    UART_REGW(METAL_SIFIVE_UART0_TXDATA) = c;
20016a60:	fec42783          	lw	a5,-20(s0)
20016a64:	fd842703          	lw	a4,-40(s0)
20016a68:	c398                	sw	a4,0(a5)
E:/GitHub/HiFive01-RevB/FS_workspace/sifive_hifive1_revb_sifive_welcome/freedom-metal/src/drivers/sifive_uart0.c:114
    return 0;
20016a6a:	4781                	li	a5,0
E:/GitHub/HiFive01-RevB/FS_workspace/sifive_hifive1_revb_sifive_welcome/freedom-metal/src/drivers/sifive_uart0.c:115
}
20016a6c:	853e                	mv	a0,a5
20016a6e:	50b2                	lw	ra,44(sp)
20016a70:	5422                	lw	s0,40(sp)
20016a72:	6145                	addi	sp,sp,48
20016a74:	8082                	ret

20016a76 <__metal_driver_sifive_uart0_getc>:
__metal_driver_sifive_uart0_getc():
E:/GitHub/HiFive01-RevB/FS_workspace/sifive_hifive1_revb_sifive_welcome/freedom-metal/src/drivers/sifive_uart0.c:117

int __metal_driver_sifive_uart0_getc(struct metal_uart *uart, int *c) {
20016a76:	7179                	addi	sp,sp,-48
20016a78:	d606                	sw	ra,44(sp)
20016a7a:	d422                	sw	s0,40(sp)
20016a7c:	1800                	addi	s0,sp,48
20016a7e:	fca42e23          	sw	a0,-36(s0)
20016a82:	fcb42c23          	sw	a1,-40(s0)
E:/GitHub/HiFive01-RevB/FS_workspace/sifive_hifive1_revb_sifive_welcome/freedom-metal/src/drivers/sifive_uart0.c:119
    uint32_t ch;
    long control_base = __metal_driver_sifive_uart0_control_base(uart);
20016a86:	fdc42503          	lw	a0,-36(s0)
20016a8a:	b9bff0ef          	jal	ra,20016624 <__metal_driver_sifive_uart0_control_base>
20016a8e:	87aa                	mv	a5,a0
20016a90:	fef42623          	sw	a5,-20(s0)
E:/GitHub/HiFive01-RevB/FS_workspace/sifive_hifive1_revb_sifive_welcome/freedom-metal/src/drivers/sifive_uart0.c:121
    /* No seperate status register, we get status and the byte at same time */
    ch = UART_REGW(METAL_SIFIVE_UART0_RXDATA);
20016a94:	fec42783          	lw	a5,-20(s0)
20016a98:	0791                	addi	a5,a5,4
20016a9a:	439c                	lw	a5,0(a5)
20016a9c:	fef42423          	sw	a5,-24(s0)
E:/GitHub/HiFive01-RevB/FS_workspace/sifive_hifive1_revb_sifive_welcome/freedom-metal/src/drivers/sifive_uart0.c:123
    ;
    if (ch & UART_RXEMPTY) {
20016aa0:	fe842783          	lw	a5,-24(s0)
20016aa4:	0007d763          	bgez	a5,20016ab2 <__metal_driver_sifive_uart0_getc+0x3c>
E:/GitHub/HiFive01-RevB/FS_workspace/sifive_hifive1_revb_sifive_welcome/freedom-metal/src/drivers/sifive_uart0.c:124
        *c = -1; /* aka: EOF in most of the world */
20016aa8:	fd842783          	lw	a5,-40(s0)
20016aac:	577d                	li	a4,-1
20016aae:	c398                	sw	a4,0(a5)
20016ab0:	a801                	j	20016ac0 <__metal_driver_sifive_uart0_getc+0x4a>
E:/GitHub/HiFive01-RevB/FS_workspace/sifive_hifive1_revb_sifive_welcome/freedom-metal/src/drivers/sifive_uart0.c:126
    } else {
        *c = ch & 0x0ff;
20016ab2:	fe842783          	lw	a5,-24(s0)
20016ab6:	0ff7f713          	zext.b	a4,a5
20016aba:	fd842783          	lw	a5,-40(s0)
20016abe:	c398                	sw	a4,0(a5)
E:/GitHub/HiFive01-RevB/FS_workspace/sifive_hifive1_revb_sifive_welcome/freedom-metal/src/drivers/sifive_uart0.c:128
    }
    return 0;
20016ac0:	4781                	li	a5,0
E:/GitHub/HiFive01-RevB/FS_workspace/sifive_hifive1_revb_sifive_welcome/freedom-metal/src/drivers/sifive_uart0.c:129
}
20016ac2:	853e                	mv	a0,a5
20016ac4:	50b2                	lw	ra,44(sp)
20016ac6:	5422                	lw	s0,40(sp)
20016ac8:	6145                	addi	sp,sp,48
20016aca:	8082                	ret

20016acc <__metal_driver_sifive_uart0_get_baud_rate>:
__metal_driver_sifive_uart0_get_baud_rate():
E:/GitHub/HiFive01-RevB/FS_workspace/sifive_hifive1_revb_sifive_welcome/freedom-metal/src/drivers/sifive_uart0.c:131

int __metal_driver_sifive_uart0_get_baud_rate(struct metal_uart *guart) {
20016acc:	7179                	addi	sp,sp,-48
20016ace:	d622                	sw	s0,44(sp)
20016ad0:	1800                	addi	s0,sp,48
20016ad2:	fca42e23          	sw	a0,-36(s0)
E:/GitHub/HiFive01-RevB/FS_workspace/sifive_hifive1_revb_sifive_welcome/freedom-metal/src/drivers/sifive_uart0.c:132
    struct __metal_driver_sifive_uart0 *uart = (void *)guart;
20016ad6:	fdc42783          	lw	a5,-36(s0)
20016ada:	fef42623          	sw	a5,-20(s0)
E:/GitHub/HiFive01-RevB/FS_workspace/sifive_hifive1_revb_sifive_welcome/freedom-metal/src/drivers/sifive_uart0.c:133
    return uart->baud_rate;
20016ade:	fec42783          	lw	a5,-20(s0)
20016ae2:	43dc                	lw	a5,4(a5)
E:/GitHub/HiFive01-RevB/FS_workspace/sifive_hifive1_revb_sifive_welcome/freedom-metal/src/drivers/sifive_uart0.c:134
}
20016ae4:	853e                	mv	a0,a5
20016ae6:	5432                	lw	s0,44(sp)
20016ae8:	6145                	addi	sp,sp,48
20016aea:	8082                	ret

20016aec <__metal_driver_sifive_uart0_set_baud_rate>:
__metal_driver_sifive_uart0_set_baud_rate():
E:/GitHub/HiFive01-RevB/FS_workspace/sifive_hifive1_revb_sifive_welcome/freedom-metal/src/drivers/sifive_uart0.c:137

int __metal_driver_sifive_uart0_set_baud_rate(struct metal_uart *guart,
                                              int baud_rate) {
20016aec:	7179                	addi	sp,sp,-48
20016aee:	d606                	sw	ra,44(sp)
20016af0:	d422                	sw	s0,40(sp)
20016af2:	1800                	addi	s0,sp,48
20016af4:	fca42e23          	sw	a0,-36(s0)
20016af8:	fcb42c23          	sw	a1,-40(s0)
E:/GitHub/HiFive01-RevB/FS_workspace/sifive_hifive1_revb_sifive_welcome/freedom-metal/src/drivers/sifive_uart0.c:138
    struct __metal_driver_sifive_uart0 *uart = (void *)guart;
20016afc:	fdc42783          	lw	a5,-36(s0)
20016b00:	fef42623          	sw	a5,-20(s0)
E:/GitHub/HiFive01-RevB/FS_workspace/sifive_hifive1_revb_sifive_welcome/freedom-metal/src/drivers/sifive_uart0.c:139
    long control_base = __metal_driver_sifive_uart0_control_base(guart);
20016b04:	fdc42503          	lw	a0,-36(s0)
20016b08:	b1dff0ef          	jal	ra,20016624 <__metal_driver_sifive_uart0_control_base>
20016b0c:	87aa                	mv	a5,a0
20016b0e:	fef42423          	sw	a5,-24(s0)
E:/GitHub/HiFive01-RevB/FS_workspace/sifive_hifive1_revb_sifive_welcome/freedom-metal/src/drivers/sifive_uart0.c:140
    struct metal_clock *clock = __metal_driver_sifive_uart0_clock(guart);
20016b12:	fdc42503          	lw	a0,-36(s0)
20016b16:	bd3ff0ef          	jal	ra,200166e8 <__metal_driver_sifive_uart0_clock>
20016b1a:	fea42223          	sw	a0,-28(s0)
E:/GitHub/HiFive01-RevB/FS_workspace/sifive_hifive1_revb_sifive_welcome/freedom-metal/src/drivers/sifive_uart0.c:142

    uart->baud_rate = baud_rate;
20016b1e:	fd842703          	lw	a4,-40(s0)
20016b22:	fec42783          	lw	a5,-20(s0)
20016b26:	c3d8                	sw	a4,4(a5)
E:/GitHub/HiFive01-RevB/FS_workspace/sifive_hifive1_revb_sifive_welcome/freedom-metal/src/drivers/sifive_uart0.c:144

    if (clock != NULL) {
20016b28:	fe442783          	lw	a5,-28(s0)
20016b2c:	cbb1                	beqz	a5,20016b80 <__metal_driver_sifive_uart0_set_baud_rate+0x94>
E:/GitHub/HiFive01-RevB/FS_workspace/sifive_hifive1_revb_sifive_welcome/freedom-metal/src/drivers/sifive_uart0.c:145
        long clock_rate = clock->vtable->get_rate_hz(clock);
20016b2e:	fe442783          	lw	a5,-28(s0)
20016b32:	439c                	lw	a5,0(a5)
20016b34:	439c                	lw	a5,0(a5)
20016b36:	fe442503          	lw	a0,-28(s0)
20016b3a:	9782                	jalr	a5
20016b3c:	fea42023          	sw	a0,-32(s0)
E:/GitHub/HiFive01-RevB/FS_workspace/sifive_hifive1_revb_sifive_welcome/freedom-metal/src/drivers/sifive_uart0.c:146
        UART_REGW(METAL_SIFIVE_UART0_DIV) = clock_rate / baud_rate - 1;
20016b40:	fe042703          	lw	a4,-32(s0)
20016b44:	fd842783          	lw	a5,-40(s0)
20016b48:	02f747b3          	div	a5,a4,a5
20016b4c:	fff78713          	addi	a4,a5,-1 # 6ffff <__heap_size+0x6f7ff>
20016b50:	fe842783          	lw	a5,-24(s0)
20016b54:	07e1                	addi	a5,a5,24
20016b56:	c398                	sw	a4,0(a5)
E:/GitHub/HiFive01-RevB/FS_workspace/sifive_hifive1_revb_sifive_welcome/freedom-metal/src/drivers/sifive_uart0.c:147
        UART_REGW(METAL_SIFIVE_UART0_TXCTRL) |= UART_TXEN;
20016b58:	fe842783          	lw	a5,-24(s0)
20016b5c:	07a1                	addi	a5,a5,8
20016b5e:	439c                	lw	a5,0(a5)
20016b60:	fe842703          	lw	a4,-24(s0)
20016b64:	0721                	addi	a4,a4,8
20016b66:	0017e793          	ori	a5,a5,1
20016b6a:	c31c                	sw	a5,0(a4)
E:/GitHub/HiFive01-RevB/FS_workspace/sifive_hifive1_revb_sifive_welcome/freedom-metal/src/drivers/sifive_uart0.c:148
        UART_REGW(METAL_SIFIVE_UART0_RXCTRL) |= UART_RXEN;
20016b6c:	fe842783          	lw	a5,-24(s0)
20016b70:	07b1                	addi	a5,a5,12
20016b72:	439c                	lw	a5,0(a5)
20016b74:	fe842703          	lw	a4,-24(s0)
20016b78:	0731                	addi	a4,a4,12
20016b7a:	0017e793          	ori	a5,a5,1
20016b7e:	c31c                	sw	a5,0(a4)
E:/GitHub/HiFive01-RevB/FS_workspace/sifive_hifive1_revb_sifive_welcome/freedom-metal/src/drivers/sifive_uart0.c:150
    }
    return 0;
20016b80:	4781                	li	a5,0
E:/GitHub/HiFive01-RevB/FS_workspace/sifive_hifive1_revb_sifive_welcome/freedom-metal/src/drivers/sifive_uart0.c:151
}
20016b82:	853e                	mv	a0,a5
20016b84:	50b2                	lw	ra,44(sp)
20016b86:	5422                	lw	s0,40(sp)
20016b88:	6145                	addi	sp,sp,48
20016b8a:	8082                	ret

20016b8c <pre_rate_change_callback_func>:
pre_rate_change_callback_func():
E:/GitHub/HiFive01-RevB/FS_workspace/sifive_hifive1_revb_sifive_welcome/freedom-metal/src/drivers/sifive_uart0.c:153

static void pre_rate_change_callback_func(void *priv) {
20016b8c:	7139                	addi	sp,sp,-64
20016b8e:	de06                	sw	ra,60(sp)
20016b90:	dc22                	sw	s0,56(sp)
20016b92:	0080                	addi	s0,sp,64
20016b94:	fca42623          	sw	a0,-52(s0)
E:/GitHub/HiFive01-RevB/FS_workspace/sifive_hifive1_revb_sifive_welcome/freedom-metal/src/drivers/sifive_uart0.c:154
    struct __metal_driver_sifive_uart0 *uart = priv;
20016b98:	fcc42783          	lw	a5,-52(s0)
20016b9c:	fef42623          	sw	a5,-20(s0)
E:/GitHub/HiFive01-RevB/FS_workspace/sifive_hifive1_revb_sifive_welcome/freedom-metal/src/drivers/sifive_uart0.c:156
    long control_base =
        __metal_driver_sifive_uart0_control_base((struct metal_uart *)priv);
20016ba0:	fcc42503          	lw	a0,-52(s0)
20016ba4:	a81ff0ef          	jal	ra,20016624 <__metal_driver_sifive_uart0_control_base>
20016ba8:	87aa                	mv	a5,a0
E:/GitHub/HiFive01-RevB/FS_workspace/sifive_hifive1_revb_sifive_welcome/freedom-metal/src/drivers/sifive_uart0.c:155
    long control_base =
20016baa:	fef42423          	sw	a5,-24(s0)
E:/GitHub/HiFive01-RevB/FS_workspace/sifive_hifive1_revb_sifive_welcome/freedom-metal/src/drivers/sifive_uart0.c:158
    struct metal_clock *clock =
        __metal_driver_sifive_uart0_clock((struct metal_uart *)priv);
20016bae:	fcc42503          	lw	a0,-52(s0)
20016bb2:	b37ff0ef          	jal	ra,200166e8 <__metal_driver_sifive_uart0_clock>
20016bb6:	fea42223          	sw	a0,-28(s0)
E:/GitHub/HiFive01-RevB/FS_workspace/sifive_hifive1_revb_sifive_welcome/freedom-metal/src/drivers/sifive_uart0.c:163

    /* Detect when the TXDATA is empty by setting the transmit watermark count
     * to one and waiting until an interrupt is pending */

    UART_REGW(METAL_SIFIVE_UART0_TXCTRL) &= ~(UART_TXCNT(0x7));
20016bba:	fe842783          	lw	a5,-24(s0)
20016bbe:	07a1                	addi	a5,a5,8
20016bc0:	4398                	lw	a4,0(a5)
20016bc2:	fe842783          	lw	a5,-24(s0)
20016bc6:	07a1                	addi	a5,a5,8
20016bc8:	86be                	mv	a3,a5
20016bca:	fff907b7          	lui	a5,0xfff90
20016bce:	17fd                	addi	a5,a5,-1
20016bd0:	8ff9                	and	a5,a5,a4
20016bd2:	c29c                	sw	a5,0(a3)
E:/GitHub/HiFive01-RevB/FS_workspace/sifive_hifive1_revb_sifive_welcome/freedom-metal/src/drivers/sifive_uart0.c:164
    UART_REGW(METAL_SIFIVE_UART0_TXCTRL) |= UART_TXCNT(1);
20016bd4:	fe842783          	lw	a5,-24(s0)
20016bd8:	07a1                	addi	a5,a5,8
20016bda:	4398                	lw	a4,0(a5)
20016bdc:	fe842783          	lw	a5,-24(s0)
20016be0:	07a1                	addi	a5,a5,8
20016be2:	86be                	mv	a3,a5
20016be4:	67c1                	lui	a5,0x10
20016be6:	8fd9                	or	a5,a5,a4
20016be8:	c29c                	sw	a5,0(a3)
E:/GitHub/HiFive01-RevB/FS_workspace/sifive_hifive1_revb_sifive_welcome/freedom-metal/src/drivers/sifive_uart0.c:166

    while ((UART_REGW(METAL_SIFIVE_UART0_IP) & UART_TXWM) == 0)
20016bea:	0001                	nop
E:/GitHub/HiFive01-RevB/FS_workspace/sifive_hifive1_revb_sifive_welcome/freedom-metal/src/drivers/sifive_uart0.c:166 (discriminator 1)
20016bec:	fe842783          	lw	a5,-24(s0)
20016bf0:	07d1                	addi	a5,a5,20
20016bf2:	439c                	lw	a5,0(a5)
20016bf4:	8b85                	andi	a5,a5,1
20016bf6:	dbfd                	beqz	a5,20016bec <pre_rate_change_callback_func+0x60>
E:/GitHub/HiFive01-RevB/FS_workspace/sifive_hifive1_revb_sifive_welcome/freedom-metal/src/drivers/sifive_uart0.c:174
    /* When the TXDATA clears, the UART is still shifting out the last byte.
     * Calculate the time we must drain to finish transmitting and then wait
     * that long. */

    long bits_per_symbol =
        (UART_REGW(METAL_SIFIVE_UART0_TXCTRL) & (1 << 1)) ? 9 : 10;
20016bf8:	fe842783          	lw	a5,-24(s0)
20016bfc:	07a1                	addi	a5,a5,8
20016bfe:	439c                	lw	a5,0(a5)
20016c00:	8b89                	andi	a5,a5,2
20016c02:	c399                	beqz	a5,20016c08 <pre_rate_change_callback_func+0x7c>
E:/GitHub/HiFive01-RevB/FS_workspace/sifive_hifive1_revb_sifive_welcome/freedom-metal/src/drivers/sifive_uart0.c:174 (discriminator 1)
20016c04:	47a5                	li	a5,9
20016c06:	a011                	j	20016c0a <pre_rate_change_callback_func+0x7e>
E:/GitHub/HiFive01-RevB/FS_workspace/sifive_hifive1_revb_sifive_welcome/freedom-metal/src/drivers/sifive_uart0.c:174 (discriminator 2)
20016c08:	47a9                	li	a5,10
E:/GitHub/HiFive01-RevB/FS_workspace/sifive_hifive1_revb_sifive_welcome/freedom-metal/src/drivers/sifive_uart0.c:173
    long bits_per_symbol =
20016c0a:	fef42023          	sw	a5,-32(s0)
E:/GitHub/HiFive01-RevB/FS_workspace/sifive_hifive1_revb_sifive_welcome/freedom-metal/src/drivers/sifive_uart0.c:175
    long clk_freq = clock->vtable->get_rate_hz(clock);
20016c0e:	fe442783          	lw	a5,-28(s0)
20016c12:	439c                	lw	a5,0(a5)
20016c14:	439c                	lw	a5,0(a5)
20016c16:	fe442503          	lw	a0,-28(s0)
20016c1a:	9782                	jalr	a5
20016c1c:	fca42e23          	sw	a0,-36(s0)
E:/GitHub/HiFive01-RevB/FS_workspace/sifive_hifive1_revb_sifive_welcome/freedom-metal/src/drivers/sifive_uart0.c:176
    long cycles_to_wait = bits_per_symbol * clk_freq / uart->baud_rate;
20016c20:	fe042703          	lw	a4,-32(s0)
20016c24:	fdc42783          	lw	a5,-36(s0)
20016c28:	02f707b3          	mul	a5,a4,a5
20016c2c:	873e                	mv	a4,a5
20016c2e:	fec42783          	lw	a5,-20(s0)
20016c32:	43dc                	lw	a5,4(a5)
20016c34:	02f757b3          	divu	a5,a4,a5
20016c38:	fcf42c23          	sw	a5,-40(s0)
E:/GitHub/HiFive01-RevB/FS_workspace/sifive_hifive1_revb_sifive_welcome/freedom-metal/src/drivers/sifive_uart0.c:178

    for (volatile long x = 0; x < cycles_to_wait; x++)
20016c3c:	fc042a23          	sw	zero,-44(s0)
20016c40:	a039                	j	20016c4e <pre_rate_change_callback_func+0xc2>
E:/GitHub/HiFive01-RevB/FS_workspace/sifive_hifive1_revb_sifive_welcome/freedom-metal/src/drivers/sifive_uart0.c:179 (discriminator 3)
        __asm__("nop");
20016c42:	0001                	nop
E:/GitHub/HiFive01-RevB/FS_workspace/sifive_hifive1_revb_sifive_welcome/freedom-metal/src/drivers/sifive_uart0.c:178 (discriminator 3)
    for (volatile long x = 0; x < cycles_to_wait; x++)
20016c44:	fd442783          	lw	a5,-44(s0)
20016c48:	0785                	addi	a5,a5,1
20016c4a:	fcf42a23          	sw	a5,-44(s0)
E:/GitHub/HiFive01-RevB/FS_workspace/sifive_hifive1_revb_sifive_welcome/freedom-metal/src/drivers/sifive_uart0.c:178 (discriminator 1)
20016c4e:	fd442783          	lw	a5,-44(s0)
20016c52:	fd842703          	lw	a4,-40(s0)
20016c56:	fee7c6e3          	blt	a5,a4,20016c42 <pre_rate_change_callback_func+0xb6>
E:/GitHub/HiFive01-RevB/FS_workspace/sifive_hifive1_revb_sifive_welcome/freedom-metal/src/drivers/sifive_uart0.c:180
}
20016c5a:	0001                	nop
20016c5c:	0001                	nop
20016c5e:	50f2                	lw	ra,60(sp)
20016c60:	5462                	lw	s0,56(sp)
20016c62:	6121                	addi	sp,sp,64
20016c64:	8082                	ret

20016c66 <post_rate_change_callback_func>:
post_rate_change_callback_func():
E:/GitHub/HiFive01-RevB/FS_workspace/sifive_hifive1_revb_sifive_welcome/freedom-metal/src/drivers/sifive_uart0.c:182

static void post_rate_change_callback_func(void *priv) {
20016c66:	7179                	addi	sp,sp,-48
20016c68:	d606                	sw	ra,44(sp)
20016c6a:	d422                	sw	s0,40(sp)
20016c6c:	1800                	addi	s0,sp,48
20016c6e:	fca42e23          	sw	a0,-36(s0)
E:/GitHub/HiFive01-RevB/FS_workspace/sifive_hifive1_revb_sifive_welcome/freedom-metal/src/drivers/sifive_uart0.c:183
    struct __metal_driver_sifive_uart0 *uart = priv;
20016c72:	fdc42783          	lw	a5,-36(s0)
20016c76:	fef42623          	sw	a5,-20(s0)
E:/GitHub/HiFive01-RevB/FS_workspace/sifive_hifive1_revb_sifive_welcome/freedom-metal/src/drivers/sifive_uart0.c:184
    metal_uart_set_baud_rate(&uart->uart, uart->baud_rate);
20016c7a:	fec42703          	lw	a4,-20(s0)
20016c7e:	fec42783          	lw	a5,-20(s0)
20016c82:	43dc                	lw	a5,4(a5)
20016c84:	85be                	mv	a1,a5
20016c86:	853a                	mv	a0,a4
20016c88:	2ee1                	jal	20017060 <metal_uart_set_baud_rate>
E:/GitHub/HiFive01-RevB/FS_workspace/sifive_hifive1_revb_sifive_welcome/freedom-metal/src/drivers/sifive_uart0.c:185
}
20016c8a:	0001                	nop
20016c8c:	50b2                	lw	ra,44(sp)
20016c8e:	5422                	lw	s0,40(sp)
20016c90:	6145                	addi	sp,sp,48
20016c92:	8082                	ret

20016c94 <__metal_driver_sifive_uart0_init>:
__metal_driver_sifive_uart0_init():
E:/GitHub/HiFive01-RevB/FS_workspace/sifive_hifive1_revb_sifive_welcome/freedom-metal/src/drivers/sifive_uart0.c:187

void __metal_driver_sifive_uart0_init(struct metal_uart *guart, int baud_rate) {
20016c94:	7139                	addi	sp,sp,-64
20016c96:	de06                	sw	ra,60(sp)
20016c98:	dc22                	sw	s0,56(sp)
20016c9a:	0080                	addi	s0,sp,64
20016c9c:	fca42623          	sw	a0,-52(s0)
20016ca0:	fcb42423          	sw	a1,-56(s0)
E:/GitHub/HiFive01-RevB/FS_workspace/sifive_hifive1_revb_sifive_welcome/freedom-metal/src/drivers/sifive_uart0.c:188
    struct __metal_driver_sifive_uart0 *uart = (void *)(guart);
20016ca4:	fcc42783          	lw	a5,-52(s0)
20016ca8:	fef42623          	sw	a5,-20(s0)
E:/GitHub/HiFive01-RevB/FS_workspace/sifive_hifive1_revb_sifive_welcome/freedom-metal/src/drivers/sifive_uart0.c:189
    struct metal_clock *clock = __metal_driver_sifive_uart0_clock(guart);
20016cac:	fcc42503          	lw	a0,-52(s0)
20016cb0:	a39ff0ef          	jal	ra,200166e8 <__metal_driver_sifive_uart0_clock>
20016cb4:	fea42423          	sw	a0,-24(s0)
E:/GitHub/HiFive01-RevB/FS_workspace/sifive_hifive1_revb_sifive_welcome/freedom-metal/src/drivers/sifive_uart0.c:191
    struct __metal_driver_sifive_gpio0 *pinmux =
        __metal_driver_sifive_uart0_pinmux(guart);
20016cb8:	fcc42503          	lw	a0,-52(s0)
20016cbc:	a75ff0ef          	jal	ra,20016730 <__metal_driver_sifive_uart0_pinmux>
20016cc0:	fea42223          	sw	a0,-28(s0)
E:/GitHub/HiFive01-RevB/FS_workspace/sifive_hifive1_revb_sifive_welcome/freedom-metal/src/drivers/sifive_uart0.c:193

    if (clock != NULL) {
20016cc4:	fe842783          	lw	a5,-24(s0)
20016cc8:	c7b9                	beqz	a5,20016d16 <__metal_driver_sifive_uart0_init+0x82>
E:/GitHub/HiFive01-RevB/FS_workspace/sifive_hifive1_revb_sifive_welcome/freedom-metal/src/drivers/sifive_uart0.c:194
        uart->pre_rate_change_callback.callback =
20016cca:	fec42783          	lw	a5,-20(s0)
20016cce:	20017737          	lui	a4,0x20017
20016cd2:	b8c70713          	addi	a4,a4,-1140 # 20016b8c <pre_rate_change_callback_func>
20016cd6:	c798                	sw	a4,8(a5)
E:/GitHub/HiFive01-RevB/FS_workspace/sifive_hifive1_revb_sifive_welcome/freedom-metal/src/drivers/sifive_uart0.c:196
            &pre_rate_change_callback_func;
        uart->pre_rate_change_callback.priv = guart;
20016cd8:	fec42783          	lw	a5,-20(s0)
20016cdc:	fcc42703          	lw	a4,-52(s0)
20016ce0:	c7d8                	sw	a4,12(a5)
E:/GitHub/HiFive01-RevB/FS_workspace/sifive_hifive1_revb_sifive_welcome/freedom-metal/src/drivers/sifive_uart0.c:197
        metal_clock_register_pre_rate_change_callback(
20016ce2:	fec42783          	lw	a5,-20(s0)
20016ce6:	07a1                	addi	a5,a5,8
20016ce8:	85be                	mv	a1,a5
20016cea:	fe842503          	lw	a0,-24(s0)
20016cee:	2abd                	jal	20016e6c <metal_clock_register_pre_rate_change_callback>
E:/GitHub/HiFive01-RevB/FS_workspace/sifive_hifive1_revb_sifive_welcome/freedom-metal/src/drivers/sifive_uart0.c:200
            clock, &(uart->pre_rate_change_callback));

        uart->post_rate_change_callback.callback =
20016cf0:	fec42783          	lw	a5,-20(s0)
20016cf4:	20017737          	lui	a4,0x20017
20016cf8:	c6670713          	addi	a4,a4,-922 # 20016c66 <post_rate_change_callback_func>
20016cfc:	cbd8                	sw	a4,20(a5)
E:/GitHub/HiFive01-RevB/FS_workspace/sifive_hifive1_revb_sifive_welcome/freedom-metal/src/drivers/sifive_uart0.c:202
            &post_rate_change_callback_func;
        uart->post_rate_change_callback.priv = guart;
20016cfe:	fec42783          	lw	a5,-20(s0)
20016d02:	fcc42703          	lw	a4,-52(s0)
20016d06:	cf98                	sw	a4,24(a5)
E:/GitHub/HiFive01-RevB/FS_workspace/sifive_hifive1_revb_sifive_welcome/freedom-metal/src/drivers/sifive_uart0.c:203
        metal_clock_register_post_rate_change_callback(
20016d08:	fec42783          	lw	a5,-20(s0)
20016d0c:	07d1                	addi	a5,a5,20
20016d0e:	85be                	mv	a1,a5
20016d10:	fe842503          	lw	a0,-24(s0)
20016d14:	2269                	jal	20016e9e <metal_clock_register_post_rate_change_callback>
E:/GitHub/HiFive01-RevB/FS_workspace/sifive_hifive1_revb_sifive_welcome/freedom-metal/src/drivers/sifive_uart0.c:207
            clock, &(uart->post_rate_change_callback));
    }

    metal_uart_set_baud_rate(&(uart->uart), baud_rate);
20016d16:	fec42783          	lw	a5,-20(s0)
20016d1a:	fc842583          	lw	a1,-56(s0)
20016d1e:	853e                	mv	a0,a5
20016d20:	2681                	jal	20017060 <metal_uart_set_baud_rate>
E:/GitHub/HiFive01-RevB/FS_workspace/sifive_hifive1_revb_sifive_welcome/freedom-metal/src/drivers/sifive_uart0.c:209

    if (pinmux != NULL) {
20016d22:	fe442783          	lw	a5,-28(s0)
20016d26:	cb95                	beqz	a5,20016d5a <__metal_driver_sifive_uart0_init+0xc6>
E:/GitHub/HiFive01-RevB/FS_workspace/sifive_hifive1_revb_sifive_welcome/freedom-metal/src/drivers/sifive_uart0.c:211
        long pinmux_output_selector =
            __metal_driver_sifive_uart0_pinmux_output_selector(guart);
20016d28:	fcc42503          	lw	a0,-52(s0)
20016d2c:	a45ff0ef          	jal	ra,20016770 <__metal_driver_sifive_uart0_pinmux_output_selector>
20016d30:	87aa                	mv	a5,a0
E:/GitHub/HiFive01-RevB/FS_workspace/sifive_hifive1_revb_sifive_welcome/freedom-metal/src/drivers/sifive_uart0.c:210
        long pinmux_output_selector =
20016d32:	fef42023          	sw	a5,-32(s0)
E:/GitHub/HiFive01-RevB/FS_workspace/sifive_hifive1_revb_sifive_welcome/freedom-metal/src/drivers/sifive_uart0.c:213
        long pinmux_source_selector =
            __metal_driver_sifive_uart0_pinmux_source_selector(guart);
20016d36:	fcc42503          	lw	a0,-52(s0)
20016d3a:	a73ff0ef          	jal	ra,200167ac <__metal_driver_sifive_uart0_pinmux_source_selector>
20016d3e:	87aa                	mv	a5,a0
E:/GitHub/HiFive01-RevB/FS_workspace/sifive_hifive1_revb_sifive_welcome/freedom-metal/src/drivers/sifive_uart0.c:212
        long pinmux_source_selector =
20016d40:	fcf42e23          	sw	a5,-36(s0)
E:/GitHub/HiFive01-RevB/FS_workspace/sifive_hifive1_revb_sifive_welcome/freedom-metal/src/drivers/sifive_uart0.c:214
        pinmux->gpio.vtable->enable_io((struct metal_gpio *)pinmux,
20016d44:	fe442783          	lw	a5,-28(s0)
20016d48:	439c                	lw	a5,0(a5)
20016d4a:	53dc                	lw	a5,36(a5)
20016d4c:	fdc42603          	lw	a2,-36(s0)
20016d50:	fe042583          	lw	a1,-32(s0)
20016d54:	fe442503          	lw	a0,-28(s0)
20016d58:	9782                	jalr	a5
E:/GitHub/HiFive01-RevB/FS_workspace/sifive_hifive1_revb_sifive_welcome/freedom-metal/src/drivers/sifive_uart0.c:218
                                       pinmux_output_selector,
                                       pinmux_source_selector);
    }
}
20016d5a:	0001                	nop
20016d5c:	50f2                	lw	ra,60(sp)
20016d5e:	5462                	lw	s0,56(sp)
20016d60:	6121                	addi	sp,sp,64
20016d62:	8082                	ret

20016d64 <_metal_clock_call_all_callbacks>:
_metal_clock_call_all_callbacks():
E:/GitHub/HiFive01-RevB/FS_workspace/sifive_hifive1_revb_sifive_welcome/freedom-metal/metal/clock.h:50

/*!
 * @brief Call all callbacks in the linked list, if any are registered
 */
__inline__ void
_metal_clock_call_all_callbacks(const metal_clock_callback *const list) {
20016d64:	7179                	addi	sp,sp,-48
20016d66:	d606                	sw	ra,44(sp)
20016d68:	d422                	sw	s0,40(sp)
20016d6a:	1800                	addi	s0,sp,48
20016d6c:	fca42e23          	sw	a0,-36(s0)
E:/GitHub/HiFive01-RevB/FS_workspace/sifive_hifive1_revb_sifive_welcome/freedom-metal/metal/clock.h:51
    const metal_clock_callback *current = list;
20016d70:	fdc42783          	lw	a5,-36(s0)
20016d74:	fef42623          	sw	a5,-20(s0)
E:/GitHub/HiFive01-RevB/FS_workspace/sifive_hifive1_revb_sifive_welcome/freedom-metal/metal/clock.h:52
    while (current) {
20016d78:	a831                	j	20016d94 <_metal_clock_call_all_callbacks+0x30>
E:/GitHub/HiFive01-RevB/FS_workspace/sifive_hifive1_revb_sifive_welcome/freedom-metal/metal/clock.h:53
        current->callback(current->priv);
20016d7a:	fec42783          	lw	a5,-20(s0)
20016d7e:	4398                	lw	a4,0(a5)
20016d80:	fec42783          	lw	a5,-20(s0)
20016d84:	43dc                	lw	a5,4(a5)
20016d86:	853e                	mv	a0,a5
20016d88:	9702                	jalr	a4
E:/GitHub/HiFive01-RevB/FS_workspace/sifive_hifive1_revb_sifive_welcome/freedom-metal/metal/clock.h:54
        current = current->_next;
20016d8a:	fec42783          	lw	a5,-20(s0)
20016d8e:	479c                	lw	a5,8(a5)
20016d90:	fef42623          	sw	a5,-20(s0)
E:/GitHub/HiFive01-RevB/FS_workspace/sifive_hifive1_revb_sifive_welcome/freedom-metal/metal/clock.h:52
    while (current) {
20016d94:	fec42783          	lw	a5,-20(s0)
20016d98:	f3ed                	bnez	a5,20016d7a <_metal_clock_call_all_callbacks+0x16>
E:/GitHub/HiFive01-RevB/FS_workspace/sifive_hifive1_revb_sifive_welcome/freedom-metal/metal/clock.h:56
    }
}
20016d9a:	0001                	nop
20016d9c:	0001                	nop
20016d9e:	50b2                	lw	ra,44(sp)
20016da0:	5422                	lw	s0,40(sp)
20016da2:	6145                	addi	sp,sp,48
20016da4:	8082                	ret

20016da6 <_metal_clock_append_to_callbacks>:
_metal_clock_append_to_callbacks():
E:/GitHub/HiFive01-RevB/FS_workspace/sifive_hifive1_revb_sifive_welcome/freedom-metal/metal/clock.h:63
/*!
 * @brief Append a callback to the linked list and return the head of the list
 */
__inline__ metal_clock_callback *
_metal_clock_append_to_callbacks(metal_clock_callback *list,
                                 metal_clock_callback *const cb) {
20016da6:	7179                	addi	sp,sp,-48
20016da8:	d622                	sw	s0,44(sp)
20016daa:	1800                	addi	s0,sp,48
20016dac:	fca42e23          	sw	a0,-36(s0)
20016db0:	fcb42c23          	sw	a1,-40(s0)
E:/GitHub/HiFive01-RevB/FS_workspace/sifive_hifive1_revb_sifive_welcome/freedom-metal/metal/clock.h:64
    cb->_next = NULL;
20016db4:	fd842783          	lw	a5,-40(s0)
20016db8:	0007a423          	sw	zero,8(a5) # 10008 <__heap_size+0xf808>
E:/GitHub/HiFive01-RevB/FS_workspace/sifive_hifive1_revb_sifive_welcome/freedom-metal/metal/clock.h:66

    if (!list) {
20016dbc:	fdc42783          	lw	a5,-36(s0)
20016dc0:	e781                	bnez	a5,20016dc8 <_metal_clock_append_to_callbacks+0x22>
E:/GitHub/HiFive01-RevB/FS_workspace/sifive_hifive1_revb_sifive_welcome/freedom-metal/metal/clock.h:67
        return cb;
20016dc2:	fd842783          	lw	a5,-40(s0)
20016dc6:	a035                	j	20016df2 <_metal_clock_append_to_callbacks+0x4c>
E:/GitHub/HiFive01-RevB/FS_workspace/sifive_hifive1_revb_sifive_welcome/freedom-metal/metal/clock.h:70
    }

    metal_clock_callback *current = list;
20016dc8:	fdc42783          	lw	a5,-36(s0)
20016dcc:	fef42623          	sw	a5,-20(s0)
E:/GitHub/HiFive01-RevB/FS_workspace/sifive_hifive1_revb_sifive_welcome/freedom-metal/metal/clock.h:72

    while ((current->_next) != NULL) {
20016dd0:	a031                	j	20016ddc <_metal_clock_append_to_callbacks+0x36>
E:/GitHub/HiFive01-RevB/FS_workspace/sifive_hifive1_revb_sifive_welcome/freedom-metal/metal/clock.h:73
        current = current->_next;
20016dd2:	fec42783          	lw	a5,-20(s0)
20016dd6:	479c                	lw	a5,8(a5)
20016dd8:	fef42623          	sw	a5,-20(s0)
E:/GitHub/HiFive01-RevB/FS_workspace/sifive_hifive1_revb_sifive_welcome/freedom-metal/metal/clock.h:72
    while ((current->_next) != NULL) {
20016ddc:	fec42783          	lw	a5,-20(s0)
20016de0:	479c                	lw	a5,8(a5)
20016de2:	fbe5                	bnez	a5,20016dd2 <_metal_clock_append_to_callbacks+0x2c>
E:/GitHub/HiFive01-RevB/FS_workspace/sifive_hifive1_revb_sifive_welcome/freedom-metal/metal/clock.h:76
    }

    current->_next = cb;
20016de4:	fec42783          	lw	a5,-20(s0)
20016de8:	fd842703          	lw	a4,-40(s0)
20016dec:	c798                	sw	a4,8(a5)
E:/GitHub/HiFive01-RevB/FS_workspace/sifive_hifive1_revb_sifive_welcome/freedom-metal/metal/clock.h:78

    return list;
20016dee:	fdc42783          	lw	a5,-36(s0)
E:/GitHub/HiFive01-RevB/FS_workspace/sifive_hifive1_revb_sifive_welcome/freedom-metal/metal/clock.h:79
}
20016df2:	853e                	mv	a0,a5
20016df4:	5432                	lw	s0,44(sp)
20016df6:	6145                	addi	sp,sp,48
20016df8:	8082                	ret

20016dfa <metal_clock_get_rate_hz>:
metal_clock_get_rate_hz():
E:/GitHub/HiFive01-RevB/FS_workspace/sifive_hifive1_revb_sifive_welcome/freedom-metal/metal/clock.h:110
 * @brief Returns the current rate of the given clock
 *
 * @param clk The handle for the clock
 * @return The current rate of the clock in Hz
 */
__inline__ long metal_clock_get_rate_hz(const struct metal_clock *clk) {
20016dfa:	1101                	addi	sp,sp,-32
20016dfc:	ce06                	sw	ra,28(sp)
20016dfe:	cc22                	sw	s0,24(sp)
20016e00:	1000                	addi	s0,sp,32
20016e02:	fea42623          	sw	a0,-20(s0)
E:/GitHub/HiFive01-RevB/FS_workspace/sifive_hifive1_revb_sifive_welcome/freedom-metal/metal/clock.h:111
    return clk->vtable->get_rate_hz(clk);
20016e06:	fec42783          	lw	a5,-20(s0)
20016e0a:	439c                	lw	a5,0(a5)
20016e0c:	439c                	lw	a5,0(a5)
20016e0e:	fec42503          	lw	a0,-20(s0)
20016e12:	9782                	jalr	a5
20016e14:	87aa                	mv	a5,a0
E:/GitHub/HiFive01-RevB/FS_workspace/sifive_hifive1_revb_sifive_welcome/freedom-metal/metal/clock.h:112
}
20016e16:	853e                	mv	a0,a5
20016e18:	40f2                	lw	ra,28(sp)
20016e1a:	4462                	lw	s0,24(sp)
20016e1c:	6105                	addi	sp,sp,32
20016e1e:	8082                	ret

20016e20 <metal_clock_set_rate_hz>:
metal_clock_set_rate_hz():
E:/GitHub/HiFive01-RevB/FS_workspace/sifive_hifive1_revb_sifive_welcome/freedom-metal/metal/clock.h:128
 * could be anything!
 *
 * Prior to and after the rate change of the clock, this will call the
 * registered pre- and post-rate change callbacks.
 */
__inline__ long metal_clock_set_rate_hz(struct metal_clock *clk, long hz) {
20016e20:	7179                	addi	sp,sp,-48
20016e22:	d606                	sw	ra,44(sp)
20016e24:	d422                	sw	s0,40(sp)
20016e26:	1800                	addi	s0,sp,48
20016e28:	fca42e23          	sw	a0,-36(s0)
20016e2c:	fcb42c23          	sw	a1,-40(s0)
E:/GitHub/HiFive01-RevB/FS_workspace/sifive_hifive1_revb_sifive_welcome/freedom-metal/metal/clock.h:129
    _metal_clock_call_all_callbacks(clk->_pre_rate_change_callback);
20016e30:	fdc42783          	lw	a5,-36(s0)
20016e34:	43dc                	lw	a5,4(a5)
20016e36:	853e                	mv	a0,a5
20016e38:	f2dff0ef          	jal	ra,20016d64 <_metal_clock_call_all_callbacks>
E:/GitHub/HiFive01-RevB/FS_workspace/sifive_hifive1_revb_sifive_welcome/freedom-metal/metal/clock.h:131

    long out = clk->vtable->set_rate_hz(clk, hz);
20016e3c:	fdc42783          	lw	a5,-36(s0)
20016e40:	439c                	lw	a5,0(a5)
20016e42:	43dc                	lw	a5,4(a5)
20016e44:	fd842583          	lw	a1,-40(s0)
20016e48:	fdc42503          	lw	a0,-36(s0)
20016e4c:	9782                	jalr	a5
20016e4e:	fea42623          	sw	a0,-20(s0)
E:/GitHub/HiFive01-RevB/FS_workspace/sifive_hifive1_revb_sifive_welcome/freedom-metal/metal/clock.h:133

    _metal_clock_call_all_callbacks(clk->_post_rate_change_callback);
20016e52:	fdc42783          	lw	a5,-36(s0)
20016e56:	479c                	lw	a5,8(a5)
20016e58:	853e                	mv	a0,a5
20016e5a:	f0bff0ef          	jal	ra,20016d64 <_metal_clock_call_all_callbacks>
E:/GitHub/HiFive01-RevB/FS_workspace/sifive_hifive1_revb_sifive_welcome/freedom-metal/metal/clock.h:135

    return out;
20016e5e:	fec42783          	lw	a5,-20(s0)
E:/GitHub/HiFive01-RevB/FS_workspace/sifive_hifive1_revb_sifive_welcome/freedom-metal/metal/clock.h:136
}
20016e62:	853e                	mv	a0,a5
20016e64:	50b2                	lw	ra,44(sp)
20016e66:	5422                	lw	s0,40(sp)
20016e68:	6145                	addi	sp,sp,48
20016e6a:	8082                	ret

20016e6c <metal_clock_register_pre_rate_change_callback>:
metal_clock_register_pre_rate_change_callback():
E:/GitHub/HiFive01-RevB/FS_workspace/sifive_hifive1_revb_sifive_welcome/freedom-metal/metal/clock.h:146
 * @param clk The handle for the clock
 * @param cb The callback to be registered
 */
__inline__ void
metal_clock_register_pre_rate_change_callback(struct metal_clock *clk,
                                              metal_clock_callback *cb) {
20016e6c:	1101                	addi	sp,sp,-32
20016e6e:	ce06                	sw	ra,28(sp)
20016e70:	cc22                	sw	s0,24(sp)
20016e72:	1000                	addi	s0,sp,32
20016e74:	fea42623          	sw	a0,-20(s0)
20016e78:	feb42423          	sw	a1,-24(s0)
E:/GitHub/HiFive01-RevB/FS_workspace/sifive_hifive1_revb_sifive_welcome/freedom-metal/metal/clock.h:148
    clk->_pre_rate_change_callback =
        _metal_clock_append_to_callbacks(clk->_pre_rate_change_callback, cb);
20016e7c:	fec42783          	lw	a5,-20(s0)
20016e80:	43dc                	lw	a5,4(a5)
20016e82:	fe842583          	lw	a1,-24(s0)
20016e86:	853e                	mv	a0,a5
20016e88:	f1fff0ef          	jal	ra,20016da6 <_metal_clock_append_to_callbacks>
20016e8c:	872a                	mv	a4,a0
E:/GitHub/HiFive01-RevB/FS_workspace/sifive_hifive1_revb_sifive_welcome/freedom-metal/metal/clock.h:147
    clk->_pre_rate_change_callback =
20016e8e:	fec42783          	lw	a5,-20(s0)
20016e92:	c3d8                	sw	a4,4(a5)
E:/GitHub/HiFive01-RevB/FS_workspace/sifive_hifive1_revb_sifive_welcome/freedom-metal/metal/clock.h:149
}
20016e94:	0001                	nop
20016e96:	40f2                	lw	ra,28(sp)
20016e98:	4462                	lw	s0,24(sp)
20016e9a:	6105                	addi	sp,sp,32
20016e9c:	8082                	ret

20016e9e <metal_clock_register_post_rate_change_callback>:
metal_clock_register_post_rate_change_callback():
E:/GitHub/HiFive01-RevB/FS_workspace/sifive_hifive1_revb_sifive_welcome/freedom-metal/metal/clock.h:159
 * @param clk The handle for the clock
 * @param cb The callback to be registered
 */
__inline__ void
metal_clock_register_post_rate_change_callback(struct metal_clock *clk,
                                               metal_clock_callback *cb) {
20016e9e:	1101                	addi	sp,sp,-32
20016ea0:	ce06                	sw	ra,28(sp)
20016ea2:	cc22                	sw	s0,24(sp)
20016ea4:	1000                	addi	s0,sp,32
20016ea6:	fea42623          	sw	a0,-20(s0)
20016eaa:	feb42423          	sw	a1,-24(s0)
E:/GitHub/HiFive01-RevB/FS_workspace/sifive_hifive1_revb_sifive_welcome/freedom-metal/metal/clock.h:161
    clk->_post_rate_change_callback =
        _metal_clock_append_to_callbacks(clk->_post_rate_change_callback, cb);
20016eae:	fec42783          	lw	a5,-20(s0)
20016eb2:	479c                	lw	a5,8(a5)
20016eb4:	fe842583          	lw	a1,-24(s0)
20016eb8:	853e                	mv	a0,a5
20016eba:	eedff0ef          	jal	ra,20016da6 <_metal_clock_append_to_callbacks>
20016ebe:	872a                	mv	a4,a0
E:/GitHub/HiFive01-RevB/FS_workspace/sifive_hifive1_revb_sifive_welcome/freedom-metal/metal/clock.h:160
    clk->_post_rate_change_callback =
20016ec0:	fec42783          	lw	a5,-20(s0)
20016ec4:	c798                	sw	a4,8(a5)
E:/GitHub/HiFive01-RevB/FS_workspace/sifive_hifive1_revb_sifive_welcome/freedom-metal/metal/clock.h:162
}
20016ec6:	0001                	nop
20016ec8:	40f2                	lw	ra,28(sp)
20016eca:	4462                	lw	s0,24(sp)
20016ecc:	6105                	addi	sp,sp,32
20016ece:	8082                	ret

20016ed0 <metal_gpio_disable_input>:
metal_gpio_disable_input():
E:/GitHub/HiFive01-RevB/FS_workspace/sifive_hifive1_revb_sifive_welcome/freedom-metal/metal/gpio.h:79
 * @brief Disable input on a pin
 * @param gpio The handle for the GPIO interface
 * @param pin The pin number indexed from 0
 * @return 0 if the input is successfully disabled
 */
__inline__ int metal_gpio_disable_input(struct metal_gpio *gpio, int pin) {
20016ed0:	1101                	addi	sp,sp,-32
20016ed2:	ce06                	sw	ra,28(sp)
20016ed4:	cc22                	sw	s0,24(sp)
20016ed6:	1000                	addi	s0,sp,32
20016ed8:	fea42623          	sw	a0,-20(s0)
20016edc:	feb42423          	sw	a1,-24(s0)
E:/GitHub/HiFive01-RevB/FS_workspace/sifive_hifive1_revb_sifive_welcome/freedom-metal/metal/gpio.h:80
    if (!gpio) {
20016ee0:	fec42783          	lw	a5,-20(s0)
20016ee4:	e399                	bnez	a5,20016eea <metal_gpio_disable_input+0x1a>
E:/GitHub/HiFive01-RevB/FS_workspace/sifive_hifive1_revb_sifive_welcome/freedom-metal/metal/gpio.h:81
        return 1;
20016ee6:	4785                	li	a5,1
20016ee8:	a839                	j	20016f06 <metal_gpio_disable_input+0x36>
E:/GitHub/HiFive01-RevB/FS_workspace/sifive_hifive1_revb_sifive_welcome/freedom-metal/metal/gpio.h:84
    }

    return gpio->vtable->disable_input(gpio, (1 << pin));
20016eea:	fec42783          	lw	a5,-20(s0)
20016eee:	439c                	lw	a5,0(a5)
20016ef0:	4394                	lw	a3,0(a5)
20016ef2:	fe842783          	lw	a5,-24(s0)
20016ef6:	4705                	li	a4,1
20016ef8:	00f717b3          	sll	a5,a4,a5
20016efc:	85be                	mv	a1,a5
20016efe:	fec42503          	lw	a0,-20(s0)
20016f02:	9682                	jalr	a3
20016f04:	87aa                	mv	a5,a0
E:/GitHub/HiFive01-RevB/FS_workspace/sifive_hifive1_revb_sifive_welcome/freedom-metal/metal/gpio.h:85
}
20016f06:	853e                	mv	a0,a5
20016f08:	40f2                	lw	ra,28(sp)
20016f0a:	4462                	lw	s0,24(sp)
20016f0c:	6105                	addi	sp,sp,32
20016f0e:	8082                	ret

20016f10 <metal_gpio_enable_output>:
metal_gpio_enable_output():
E:/GitHub/HiFive01-RevB/FS_workspace/sifive_hifive1_revb_sifive_welcome/freedom-metal/metal/gpio.h:93
 * @brief Enable output on a pin
 * @param gpio The handle for the GPIO interface
 * @param pin The pin number indexed from 0
 * @return 0 if the output is successfully enabled
 */
__inline__ int metal_gpio_enable_output(struct metal_gpio *gpio, int pin) {
20016f10:	1101                	addi	sp,sp,-32
20016f12:	ce06                	sw	ra,28(sp)
20016f14:	cc22                	sw	s0,24(sp)
20016f16:	1000                	addi	s0,sp,32
20016f18:	fea42623          	sw	a0,-20(s0)
20016f1c:	feb42423          	sw	a1,-24(s0)
E:/GitHub/HiFive01-RevB/FS_workspace/sifive_hifive1_revb_sifive_welcome/freedom-metal/metal/gpio.h:94
    if (!gpio) {
20016f20:	fec42783          	lw	a5,-20(s0)
20016f24:	e399                	bnez	a5,20016f2a <metal_gpio_enable_output+0x1a>
E:/GitHub/HiFive01-RevB/FS_workspace/sifive_hifive1_revb_sifive_welcome/freedom-metal/metal/gpio.h:95
        return 1;
20016f26:	4785                	li	a5,1
20016f28:	a839                	j	20016f46 <metal_gpio_enable_output+0x36>
E:/GitHub/HiFive01-RevB/FS_workspace/sifive_hifive1_revb_sifive_welcome/freedom-metal/metal/gpio.h:98
    }

    return gpio->vtable->enable_output(gpio, (1 << pin));
20016f2a:	fec42783          	lw	a5,-20(s0)
20016f2e:	439c                	lw	a5,0(a5)
20016f30:	4bd4                	lw	a3,20(a5)
20016f32:	fe842783          	lw	a5,-24(s0)
20016f36:	4705                	li	a4,1
20016f38:	00f717b3          	sll	a5,a4,a5
20016f3c:	85be                	mv	a1,a5
20016f3e:	fec42503          	lw	a0,-20(s0)
20016f42:	9682                	jalr	a3
20016f44:	87aa                	mv	a5,a0
E:/GitHub/HiFive01-RevB/FS_workspace/sifive_hifive1_revb_sifive_welcome/freedom-metal/metal/gpio.h:99
}
20016f46:	853e                	mv	a0,a5
20016f48:	40f2                	lw	ra,28(sp)
20016f4a:	4462                	lw	s0,24(sp)
20016f4c:	6105                	addi	sp,sp,32
20016f4e:	8082                	ret

20016f50 <metal_gpio_set_pin>:
metal_gpio_set_pin():
E:/GitHub/HiFive01-RevB/FS_workspace/sifive_hifive1_revb_sifive_welcome/freedom-metal/metal/gpio.h:122
 * @param gpio The handle for the GPIO interface
 * @param pin The pin number indexed from 0
 * @param value The value to set the pin to
 * @return 0 if the output is successfully set
 */
__inline__ int metal_gpio_set_pin(struct metal_gpio *gpio, int pin, int value) {
20016f50:	1101                	addi	sp,sp,-32
20016f52:	ce06                	sw	ra,28(sp)
20016f54:	cc22                	sw	s0,24(sp)
20016f56:	1000                	addi	s0,sp,32
20016f58:	fea42623          	sw	a0,-20(s0)
20016f5c:	feb42423          	sw	a1,-24(s0)
20016f60:	fec42223          	sw	a2,-28(s0)
E:/GitHub/HiFive01-RevB/FS_workspace/sifive_hifive1_revb_sifive_welcome/freedom-metal/metal/gpio.h:123
    if (!gpio) {
20016f64:	fec42783          	lw	a5,-20(s0)
20016f68:	e399                	bnez	a5,20016f6e <metal_gpio_set_pin+0x1e>
E:/GitHub/HiFive01-RevB/FS_workspace/sifive_hifive1_revb_sifive_welcome/freedom-metal/metal/gpio.h:124
        return 1;
20016f6a:	4785                	li	a5,1
20016f6c:	a089                	j	20016fae <metal_gpio_set_pin+0x5e>
E:/GitHub/HiFive01-RevB/FS_workspace/sifive_hifive1_revb_sifive_welcome/freedom-metal/metal/gpio.h:127
    }

    if (value == 0) {
20016f6e:	fe442783          	lw	a5,-28(s0)
20016f72:	e385                	bnez	a5,20016f92 <metal_gpio_set_pin+0x42>
E:/GitHub/HiFive01-RevB/FS_workspace/sifive_hifive1_revb_sifive_welcome/freedom-metal/metal/gpio.h:128
        return gpio->vtable->output_clear(gpio, (1 << pin));
20016f74:	fec42783          	lw	a5,-20(s0)
20016f78:	439c                	lw	a5,0(a5)
20016f7a:	4fd4                	lw	a3,28(a5)
20016f7c:	fe842783          	lw	a5,-24(s0)
20016f80:	4705                	li	a4,1
20016f82:	00f717b3          	sll	a5,a4,a5
20016f86:	85be                	mv	a1,a5
20016f88:	fec42503          	lw	a0,-20(s0)
20016f8c:	9682                	jalr	a3
20016f8e:	87aa                	mv	a5,a0
20016f90:	a839                	j	20016fae <metal_gpio_set_pin+0x5e>
E:/GitHub/HiFive01-RevB/FS_workspace/sifive_hifive1_revb_sifive_welcome/freedom-metal/metal/gpio.h:130
    } else {
        return gpio->vtable->output_set(gpio, (1 << pin));
20016f92:	fec42783          	lw	a5,-20(s0)
20016f96:	439c                	lw	a5,0(a5)
20016f98:	4f94                	lw	a3,24(a5)
20016f9a:	fe842783          	lw	a5,-24(s0)
20016f9e:	4705                	li	a4,1
20016fa0:	00f717b3          	sll	a5,a4,a5
20016fa4:	85be                	mv	a1,a5
20016fa6:	fec42503          	lw	a0,-20(s0)
20016faa:	9682                	jalr	a3
20016fac:	87aa                	mv	a5,a0
E:/GitHub/HiFive01-RevB/FS_workspace/sifive_hifive1_revb_sifive_welcome/freedom-metal/metal/gpio.h:132
    }
}
20016fae:	853e                	mv	a0,a5
20016fb0:	40f2                	lw	ra,28(sp)
20016fb2:	4462                	lw	s0,24(sp)
20016fb4:	6105                	addi	sp,sp,32
20016fb6:	8082                	ret

20016fb8 <metal_gpio_toggle_pin>:
metal_gpio_toggle_pin():
E:/GitHub/HiFive01-RevB/FS_workspace/sifive_hifive1_revb_sifive_welcome/freedom-metal/metal/gpio.h:194
 * @brief Toggles the value of the GPIO pin
 * @param gpio The handle for the GPIO interface
 * @param pin The pin number indexed from 0
 * @return 0 if the pin is successfully toggled
 */
__inline__ int metal_gpio_toggle_pin(struct metal_gpio *gpio, int pin) {
20016fb8:	1101                	addi	sp,sp,-32
20016fba:	ce06                	sw	ra,28(sp)
20016fbc:	cc22                	sw	s0,24(sp)
20016fbe:	1000                	addi	s0,sp,32
20016fc0:	fea42623          	sw	a0,-20(s0)
20016fc4:	feb42423          	sw	a1,-24(s0)
E:/GitHub/HiFive01-RevB/FS_workspace/sifive_hifive1_revb_sifive_welcome/freedom-metal/metal/gpio.h:195
    if (!gpio) {
20016fc8:	fec42783          	lw	a5,-20(s0)
20016fcc:	e399                	bnez	a5,20016fd2 <metal_gpio_toggle_pin+0x1a>
E:/GitHub/HiFive01-RevB/FS_workspace/sifive_hifive1_revb_sifive_welcome/freedom-metal/metal/gpio.h:196
        return 1;
20016fce:	4785                	li	a5,1
20016fd0:	a839                	j	20016fee <metal_gpio_toggle_pin+0x36>
E:/GitHub/HiFive01-RevB/FS_workspace/sifive_hifive1_revb_sifive_welcome/freedom-metal/metal/gpio.h:199
    }

    return gpio->vtable->output_toggle(gpio, (1 << pin));
20016fd2:	fec42783          	lw	a5,-20(s0)
20016fd6:	439c                	lw	a5,0(a5)
20016fd8:	5394                	lw	a3,32(a5)
20016fda:	fe842783          	lw	a5,-24(s0)
20016fde:	4705                	li	a4,1
20016fe0:	00f717b3          	sll	a5,a4,a5
20016fe4:	85be                	mv	a1,a5
20016fe6:	fec42503          	lw	a0,-20(s0)
20016fea:	9682                	jalr	a3
20016fec:	87aa                	mv	a5,a0
E:/GitHub/HiFive01-RevB/FS_workspace/sifive_hifive1_revb_sifive_welcome/freedom-metal/metal/gpio.h:200
}
20016fee:	853e                	mv	a0,a5
20016ff0:	40f2                	lw	ra,28(sp)
20016ff2:	4462                	lw	s0,24(sp)
20016ff4:	6105                	addi	sp,sp,32
20016ff6:	8082                	ret

20016ff8 <metal_shutdown>:
metal_shutdown():
E:/GitHub/HiFive01-RevB/FS_workspace/sifive_hifive1_revb_sifive_welcome/freedom-metal/src/shutdown.c:17
    __metal_shutdown_exit(__METAL_DT_SHUTDOWN_HANDLE, code);
}
#else
#pragma message(                                                               \
    "There is no defined shutdown mechanism, metal_shutdown() will spin.")
void metal_shutdown(int code) {
20016ff8:	1101                	addi	sp,sp,-32
20016ffa:	ce22                	sw	s0,28(sp)
20016ffc:	1000                	addi	s0,sp,32
20016ffe:	fea42623          	sw	a0,-20(s0)
E:/GitHub/HiFive01-RevB/FS_workspace/sifive_hifive1_revb_sifive_welcome/freedom-metal/src/shutdown.c:19 (discriminator 1)
    while (1) {
        __asm__ volatile("nop");
20017002:	0001                	nop
20017004:	bffd                	j	20017002 <metal_shutdown+0xa>

20017006 <metal_uart_init>:
metal_uart_init():
E:/GitHub/HiFive01-RevB/FS_workspace/sifive_hifive1_revb_sifive_welcome/freedom-metal/metal/uart.h:59
 more than once.
 *
 * @param uart The UART device handle
 * @param baud_rate the baud rate to set the UART to
 */
__inline__ void metal_uart_init(struct metal_uart *uart, int baud_rate) {
20017006:	1101                	addi	sp,sp,-32
20017008:	ce06                	sw	ra,28(sp)
2001700a:	cc22                	sw	s0,24(sp)
2001700c:	1000                	addi	s0,sp,32
2001700e:	fea42623          	sw	a0,-20(s0)
20017012:	feb42423          	sw	a1,-24(s0)
E:/GitHub/HiFive01-RevB/FS_workspace/sifive_hifive1_revb_sifive_welcome/freedom-metal/metal/uart.h:60
    uart->vtable->init(uart, baud_rate);
20017016:	fec42783          	lw	a5,-20(s0)
2001701a:	439c                	lw	a5,0(a5)
2001701c:	439c                	lw	a5,0(a5)
2001701e:	fe842583          	lw	a1,-24(s0)
20017022:	fec42503          	lw	a0,-20(s0)
20017026:	9782                	jalr	a5
E:/GitHub/HiFive01-RevB/FS_workspace/sifive_hifive1_revb_sifive_welcome/freedom-metal/metal/uart.h:61
}
20017028:	0001                	nop
2001702a:	40f2                	lw	ra,28(sp)
2001702c:	4462                	lw	s0,24(sp)
2001702e:	6105                	addi	sp,sp,32
20017030:	8082                	ret

20017032 <metal_uart_putc>:
metal_uart_putc():
E:/GitHub/HiFive01-RevB/FS_workspace/sifive_hifive1_revb_sifive_welcome/freedom-metal/metal/uart.h:69
 * @brief Output a character over the UART
 * @param uart The UART device handle
 * @param c The character to send over the UART
 * @return 0 upon success
 */
__inline__ int metal_uart_putc(struct metal_uart *uart, int c) {
20017032:	1101                	addi	sp,sp,-32
20017034:	ce06                	sw	ra,28(sp)
20017036:	cc22                	sw	s0,24(sp)
20017038:	1000                	addi	s0,sp,32
2001703a:	fea42623          	sw	a0,-20(s0)
2001703e:	feb42423          	sw	a1,-24(s0)
E:/GitHub/HiFive01-RevB/FS_workspace/sifive_hifive1_revb_sifive_welcome/freedom-metal/metal/uart.h:70
    return uart->vtable->putc(uart, c);
20017042:	fec42783          	lw	a5,-20(s0)
20017046:	439c                	lw	a5,0(a5)
20017048:	43dc                	lw	a5,4(a5)
2001704a:	fe842583          	lw	a1,-24(s0)
2001704e:	fec42503          	lw	a0,-20(s0)
20017052:	9782                	jalr	a5
20017054:	87aa                	mv	a5,a0
E:/GitHub/HiFive01-RevB/FS_workspace/sifive_hifive1_revb_sifive_welcome/freedom-metal/metal/uart.h:71
}
20017056:	853e                	mv	a0,a5
20017058:	40f2                	lw	ra,28(sp)
2001705a:	4462                	lw	s0,24(sp)
2001705c:	6105                	addi	sp,sp,32
2001705e:	8082                	ret

20017060 <metal_uart_set_baud_rate>:
metal_uart_set_baud_rate():
E:/GitHub/HiFive01-RevB/FS_workspace/sifive_hifive1_revb_sifive_welcome/freedom-metal/metal/uart.h:111
 * @param uart The UART device handle
 * @param baud_rate The baud rate to configure
 * @return the new baud rate of the UART
 */
__inline__ int metal_uart_set_baud_rate(struct metal_uart *uart,
                                        int baud_rate) {
20017060:	1101                	addi	sp,sp,-32
20017062:	ce06                	sw	ra,28(sp)
20017064:	cc22                	sw	s0,24(sp)
20017066:	1000                	addi	s0,sp,32
20017068:	fea42623          	sw	a0,-20(s0)
2001706c:	feb42423          	sw	a1,-24(s0)
E:/GitHub/HiFive01-RevB/FS_workspace/sifive_hifive1_revb_sifive_welcome/freedom-metal/metal/uart.h:112
    return uart->vtable->set_baud_rate(uart, baud_rate);
20017070:	fec42783          	lw	a5,-20(s0)
20017074:	439c                	lw	a5,0(a5)
20017076:	4bdc                	lw	a5,20(a5)
20017078:	fe842583          	lw	a1,-24(s0)
2001707c:	fec42503          	lw	a0,-20(s0)
20017080:	9782                	jalr	a5
20017082:	87aa                	mv	a5,a0
E:/GitHub/HiFive01-RevB/FS_workspace/sifive_hifive1_revb_sifive_welcome/freedom-metal/metal/uart.h:113
}
20017084:	853e                	mv	a0,a5
20017086:	40f2                	lw	ra,28(sp)
20017088:	4462                	lw	s0,24(sp)
2001708a:	6105                	addi	sp,sp,32
2001708c:	8082                	ret
	...

20017100 <__metal_vector_table>:
IRQ_0():
E:/GitHub/HiFive01-RevB/FS_workspace/sifive_hifive1_revb_sifive_welcome/freedom-metal/src/vector.S:96
#endif
.option norvc
.global __metal_vector_table
__metal_vector_table:
IRQ_0:
        j metal_interrupt_vector_handler
20017100:	e81fb06f          	j	20012f80 <metal_interrupt_vector_handler>

20017104 <IRQ_1>:
IRQ_1():
E:/GitHub/HiFive01-RevB/FS_workspace/sifive_hifive1_revb_sifive_welcome/freedom-metal/src/vector.S:98
IRQ_1:
        j metal_interrupt_vector_handler
20017104:	e7dfb06f          	j	20012f80 <metal_interrupt_vector_handler>

20017108 <IRQ_2>:
IRQ_2():
E:/GitHub/HiFive01-RevB/FS_workspace/sifive_hifive1_revb_sifive_welcome/freedom-metal/src/vector.S:100
IRQ_2:
        j metal_interrupt_vector_handler
20017108:	e79fb06f          	j	20012f80 <metal_interrupt_vector_handler>

2001710c <IRQ_3>:
IRQ_3():
E:/GitHub/HiFive01-RevB/FS_workspace/sifive_hifive1_revb_sifive_welcome/freedom-metal/src/vector.S:102
IRQ_3:
        j metal_software_interrupt_vector_handler
2001710c:	ea3fb06f          	j	20012fae <metal_software_interrupt_vector_handler>

20017110 <IRQ_4>:
IRQ_4():
E:/GitHub/HiFive01-RevB/FS_workspace/sifive_hifive1_revb_sifive_welcome/freedom-metal/src/vector.S:104
IRQ_4:
        j metal_interrupt_vector_handler
20017110:	e71fb06f          	j	20012f80 <metal_interrupt_vector_handler>

20017114 <IRQ_5>:
IRQ_5():
E:/GitHub/HiFive01-RevB/FS_workspace/sifive_hifive1_revb_sifive_welcome/freedom-metal/src/vector.S:106
IRQ_5:
        j metal_interrupt_vector_handler
20017114:	e6dfb06f          	j	20012f80 <metal_interrupt_vector_handler>

20017118 <IRQ_6>:
IRQ_6():
E:/GitHub/HiFive01-RevB/FS_workspace/sifive_hifive1_revb_sifive_welcome/freedom-metal/src/vector.S:108
IRQ_6:
        j metal_interrupt_vector_handler
20017118:	e69fb06f          	j	20012f80 <metal_interrupt_vector_handler>

2001711c <IRQ_7>:
IRQ_7():
E:/GitHub/HiFive01-RevB/FS_workspace/sifive_hifive1_revb_sifive_welcome/freedom-metal/src/vector.S:110
IRQ_7:
        j metal_timer_interrupt_vector_handler
2001711c:	f8dfb06f          	j	200130a8 <metal_timer_interrupt_vector_handler>

20017120 <IRQ_8>:
IRQ_8():
E:/GitHub/HiFive01-RevB/FS_workspace/sifive_hifive1_revb_sifive_welcome/freedom-metal/src/vector.S:112
IRQ_8:
        j metal_interrupt_vector_handler
20017120:	e61fb06f          	j	20012f80 <metal_interrupt_vector_handler>

20017124 <IRQ_9>:
IRQ_9():
E:/GitHub/HiFive01-RevB/FS_workspace/sifive_hifive1_revb_sifive_welcome/freedom-metal/src/vector.S:114
IRQ_9:
        j metal_interrupt_vector_handler
20017124:	e5dfb06f          	j	20012f80 <metal_interrupt_vector_handler>

20017128 <IRQ_10>:
IRQ_10():
E:/GitHub/HiFive01-RevB/FS_workspace/sifive_hifive1_revb_sifive_welcome/freedom-metal/src/vector.S:116
IRQ_10:
        j metal_interrupt_vector_handler
20017128:	e59fb06f          	j	20012f80 <metal_interrupt_vector_handler>

2001712c <IRQ_11>:
IRQ_11():
E:/GitHub/HiFive01-RevB/FS_workspace/sifive_hifive1_revb_sifive_welcome/freedom-metal/src/vector.S:118
IRQ_11:
        j metal_interrupt_vector_handler
2001712c:	e55fb06f          	j	20012f80 <metal_interrupt_vector_handler>

20017130 <IRQ_12>:
IRQ_12():
E:/GitHub/HiFive01-RevB/FS_workspace/sifive_hifive1_revb_sifive_welcome/freedom-metal/src/vector.S:120
IRQ_12:
        j metal_interrupt_vector_handler
20017130:	e51fb06f          	j	20012f80 <metal_interrupt_vector_handler>

20017134 <IRQ_13>:
IRQ_13():
E:/GitHub/HiFive01-RevB/FS_workspace/sifive_hifive1_revb_sifive_welcome/freedom-metal/src/vector.S:122
IRQ_13:
        j metal_interrupt_vector_handler
20017134:	e4dfb06f          	j	20012f80 <metal_interrupt_vector_handler>

20017138 <IRQ_14>:
IRQ_14():
E:/GitHub/HiFive01-RevB/FS_workspace/sifive_hifive1_revb_sifive_welcome/freedom-metal/src/vector.S:124
IRQ_14:
        j metal_interrupt_vector_handler
20017138:	e49fb06f          	j	20012f80 <metal_interrupt_vector_handler>

2001713c <IRQ_15>:
IRQ_15():
E:/GitHub/HiFive01-RevB/FS_workspace/sifive_hifive1_revb_sifive_welcome/freedom-metal/src/vector.S:126
IRQ_15:
        j metal_interrupt_vector_handler
2001713c:	e45fb06f          	j	20012f80 <metal_interrupt_vector_handler>

20017140 <IRQ_LC0>:
IRQ_LC0():
E:/GitHub/HiFive01-RevB/FS_workspace/sifive_hifive1_revb_sifive_welcome/freedom-metal/src/vector.S:128
IRQ_LC0:
        j metal_lc0_interrupt_vector_handler
20017140:	abafc06f          	j	200133fa <metal_lc0_interrupt_vector_handler>

20017144 <IRQ_LC1>:
IRQ_LC1():
E:/GitHub/HiFive01-RevB/FS_workspace/sifive_hifive1_revb_sifive_welcome/freedom-metal/src/vector.S:130
IRQ_LC1:
        j metal_lc1_interrupt_vector_handler
20017144:	b4cfc06f          	j	20013490 <metal_lc1_interrupt_vector_handler>

20017148 <IRQ_LC2>:
IRQ_LC2():
E:/GitHub/HiFive01-RevB/FS_workspace/sifive_hifive1_revb_sifive_welcome/freedom-metal/src/vector.S:132
IRQ_LC2:
        j metal_lc2_interrupt_vector_handler
20017148:	bdefc06f          	j	20013526 <metal_lc2_interrupt_vector_handler>

2001714c <IRQ_LC3>:
IRQ_LC3():
E:/GitHub/HiFive01-RevB/FS_workspace/sifive_hifive1_revb_sifive_welcome/freedom-metal/src/vector.S:134
IRQ_LC3:
        j metal_lc3_interrupt_vector_handler
2001714c:	c70fc06f          	j	200135bc <metal_lc3_interrupt_vector_handler>

20017150 <IRQ_LC4>:
IRQ_LC4():
E:/GitHub/HiFive01-RevB/FS_workspace/sifive_hifive1_revb_sifive_welcome/freedom-metal/src/vector.S:136
IRQ_LC4:
        j metal_lc4_interrupt_vector_handler
20017150:	d02fc06f          	j	20013652 <metal_lc4_interrupt_vector_handler>

20017154 <IRQ_LC5>:
IRQ_LC5():
E:/GitHub/HiFive01-RevB/FS_workspace/sifive_hifive1_revb_sifive_welcome/freedom-metal/src/vector.S:138
IRQ_LC5:
        j metal_lc5_interrupt_vector_handler
20017154:	d94fc06f          	j	200136e8 <metal_lc5_interrupt_vector_handler>

20017158 <IRQ_LC6>:
IRQ_LC6():
E:/GitHub/HiFive01-RevB/FS_workspace/sifive_hifive1_revb_sifive_welcome/freedom-metal/src/vector.S:140
IRQ_LC6:
        j metal_lc6_interrupt_vector_handler
20017158:	e26fc06f          	j	2001377e <metal_lc6_interrupt_vector_handler>

2001715c <IRQ_LC7>:
IRQ_LC7():
E:/GitHub/HiFive01-RevB/FS_workspace/sifive_hifive1_revb_sifive_welcome/freedom-metal/src/vector.S:142
IRQ_LC7:
        j metal_lc7_interrupt_vector_handler
2001715c:	eb8fc06f          	j	20013814 <metal_lc7_interrupt_vector_handler>

20017160 <IRQ_LC8>:
IRQ_LC8():
E:/GitHub/HiFive01-RevB/FS_workspace/sifive_hifive1_revb_sifive_welcome/freedom-metal/src/vector.S:144
IRQ_LC8:
        j metal_lc8_interrupt_vector_handler
20017160:	f4afc06f          	j	200138aa <metal_lc8_interrupt_vector_handler>

20017164 <IRQ_LC9>:
IRQ_LC9():
E:/GitHub/HiFive01-RevB/FS_workspace/sifive_hifive1_revb_sifive_welcome/freedom-metal/src/vector.S:146
IRQ_LC9:
        j metal_lc9_interrupt_vector_handler
20017164:	fdcfc06f          	j	20013940 <metal_lc9_interrupt_vector_handler>

20017168 <IRQ_LC10>:
IRQ_LC10():
E:/GitHub/HiFive01-RevB/FS_workspace/sifive_hifive1_revb_sifive_welcome/freedom-metal/src/vector.S:148
IRQ_LC10:
        j metal_lc10_interrupt_vector_handler
20017168:	86ffc06f          	j	200139d6 <metal_lc10_interrupt_vector_handler>

2001716c <IRQ_LC11>:
IRQ_LC11():
E:/GitHub/HiFive01-RevB/FS_workspace/sifive_hifive1_revb_sifive_welcome/freedom-metal/src/vector.S:150
IRQ_LC11:
        j metal_lc11_interrupt_vector_handler
2001716c:	901fc06f          	j	20013a6c <metal_lc11_interrupt_vector_handler>

20017170 <IRQ_LC12>:
IRQ_LC12():
E:/GitHub/HiFive01-RevB/FS_workspace/sifive_hifive1_revb_sifive_welcome/freedom-metal/src/vector.S:152
IRQ_LC12:
        j metal_lc12_interrupt_vector_handler
20017170:	993fc06f          	j	20013b02 <metal_lc12_interrupt_vector_handler>

20017174 <IRQ_LC13>:
IRQ_LC13():
E:/GitHub/HiFive01-RevB/FS_workspace/sifive_hifive1_revb_sifive_welcome/freedom-metal/src/vector.S:154
IRQ_LC13:
        j metal_lc13_interrupt_vector_handler
20017174:	a25fc06f          	j	20013b98 <metal_lc13_interrupt_vector_handler>

20017178 <IRQ_LC14>:
IRQ_LC14():
E:/GitHub/HiFive01-RevB/FS_workspace/sifive_hifive1_revb_sifive_welcome/freedom-metal/src/vector.S:156
IRQ_LC14:
        j metal_lc14_interrupt_vector_handler
20017178:	ab7fc06f          	j	20013c2e <metal_lc14_interrupt_vector_handler>

2001717c <IRQ_LC15>:
IRQ_LC15():
E:/GitHub/HiFive01-RevB/FS_workspace/sifive_hifive1_revb_sifive_welcome/freedom-metal/src/vector.S:158
IRQ_LC15:
        j metal_lc15_interrupt_vector_handler
2001717c:	b49fc06f          	j	20013cc4 <metal_lc15_interrupt_vector_handler>

20017180 <__metal_driver_fixed_clock_rate>:
__metal_driver_fixed_clock_rate():
E:\GitHub\HiFive01-RevB\FS_workspace\sifive_hifive1_revb_sifive_welcome\bsp\build\debug/./metal/machine.h:208
{
20017180:	1101                	addi	sp,sp,-32
20017182:	ce22                	sw	s0,28(sp)
20017184:	1000                	addi	s0,sp,32
20017186:	fea42623          	sw	a0,-20(s0)
E:\GitHub\HiFive01-RevB\FS_workspace\sifive_hifive1_revb_sifive_welcome\bsp\build\debug/./metal/machine.h:209
	if ((uintptr_t)clock == (uintptr_t)&__metal_dt_clock_0) {
2001718a:	fec42703          	lw	a4,-20(s0)
2001718e:	800007b7          	lui	a5,0x80000
20017192:	06c78793          	addi	a5,a5,108 # 8000006c <metal_segment_heap_target_end+0xffffe8cc>
20017196:	00f71763          	bne	a4,a5,200171a4 <__metal_driver_fixed_clock_rate+0x24>
E:\GitHub\HiFive01-RevB\FS_workspace\sifive_hifive1_revb_sifive_welcome\bsp\build\debug/./metal/machine.h:210
		return METAL_FIXED_CLOCK_0_CLOCK_FREQUENCY;
2001719a:	00f427b7          	lui	a5,0xf42
2001719e:	40078793          	addi	a5,a5,1024 # f42400 <__heap_size+0xf41c00>
200171a2:	a099                	j	200171e8 <__metal_driver_fixed_clock_rate+0x68>
E:\GitHub\HiFive01-RevB\FS_workspace\sifive_hifive1_revb_sifive_welcome\bsp\build\debug/./metal/machine.h:212
	else if ((uintptr_t)clock == (uintptr_t)&__metal_dt_clock_2) {
200171a4:	fec42703          	lw	a4,-20(s0)
200171a8:	800007b7          	lui	a5,0x80000
200171ac:	07878793          	addi	a5,a5,120 # 80000078 <metal_segment_heap_target_end+0xffffe8d8>
200171b0:	00f71763          	bne	a4,a5,200171be <__metal_driver_fixed_clock_rate+0x3e>
E:\GitHub\HiFive01-RevB\FS_workspace\sifive_hifive1_revb_sifive_welcome\bsp\build\debug/./metal/machine.h:213
		return METAL_FIXED_CLOCK_2_CLOCK_FREQUENCY;
200171b4:	044aa7b7          	lui	a5,0x44aa
200171b8:	20078793          	addi	a5,a5,512 # 44aa200 <__heap_size+0x44a9a00>
200171bc:	a035                	j	200171e8 <__metal_driver_fixed_clock_rate+0x68>
E:\GitHub\HiFive01-RevB\FS_workspace\sifive_hifive1_revb_sifive_welcome\bsp\build\debug/./metal/machine.h:215
	else if ((uintptr_t)clock == (uintptr_t)&__metal_dt_clock_5) {
200171be:	fec42703          	lw	a4,-20(s0)
200171c2:	800007b7          	lui	a5,0x80000
200171c6:	08478793          	addi	a5,a5,132 # 80000084 <metal_segment_heap_target_end+0xffffe8e4>
200171ca:	00f71463          	bne	a4,a5,200171d2 <__metal_driver_fixed_clock_rate+0x52>
E:\GitHub\HiFive01-RevB\FS_workspace\sifive_hifive1_revb_sifive_welcome\bsp\build\debug/./metal/machine.h:216
		return METAL_FIXED_CLOCK_5_CLOCK_FREQUENCY;
200171ce:	67a1                	lui	a5,0x8
200171d0:	a821                	j	200171e8 <__metal_driver_fixed_clock_rate+0x68>
E:\GitHub\HiFive01-RevB\FS_workspace\sifive_hifive1_revb_sifive_welcome\bsp\build\debug/./metal/machine.h:218
	else if ((uintptr_t)clock == (uintptr_t)&__metal_dt_clock_6) {
200171d2:	fec42703          	lw	a4,-20(s0)
200171d6:	800007b7          	lui	a5,0x80000
200171da:	09078793          	addi	a5,a5,144 # 80000090 <metal_segment_heap_target_end+0xffffe8f0>
200171de:	00f71463          	bne	a4,a5,200171e6 <__metal_driver_fixed_clock_rate+0x66>
E:\GitHub\HiFive01-RevB\FS_workspace\sifive_hifive1_revb_sifive_welcome\bsp\build\debug/./metal/machine.h:219
		return METAL_FIXED_CLOCK_6_CLOCK_FREQUENCY;
200171e2:	67a1                	lui	a5,0x8
200171e4:	a011                	j	200171e8 <__metal_driver_fixed_clock_rate+0x68>
E:\GitHub\HiFive01-RevB\FS_workspace\sifive_hifive1_revb_sifive_welcome\bsp\build\debug/./metal/machine.h:222
		return 0;
200171e6:	4781                	li	a5,0
E:\GitHub\HiFive01-RevB\FS_workspace\sifive_hifive1_revb_sifive_welcome\bsp\build\debug/./metal/machine.h:224
}
200171e8:	853e                	mv	a0,a5
200171ea:	4472                	lw	s0,28(sp)
200171ec:	6105                	addi	sp,sp,32
200171ee:	8082                	ret

200171f0 <__metal_driver_fixed_clock_get_rate_hz>:
__metal_driver_fixed_clock_get_rate_hz():
E:/GitHub/HiFive01-RevB/FS_workspace/sifive_hifive1_revb_sifive_welcome/freedom-metal/src/drivers/fixed-clock.c:12

#include <metal/drivers/fixed-clock.h>
#include <metal/machine.h>
#include <stddef.h>

long __metal_driver_fixed_clock_get_rate_hz(const struct metal_clock *gclk) {
200171f0:	1101                	addi	sp,sp,-32
200171f2:	ce06                	sw	ra,28(sp)
200171f4:	cc22                	sw	s0,24(sp)
200171f6:	1000                	addi	s0,sp,32
200171f8:	fea42623          	sw	a0,-20(s0)
E:/GitHub/HiFive01-RevB/FS_workspace/sifive_hifive1_revb_sifive_welcome/freedom-metal/src/drivers/fixed-clock.c:13
    return __metal_driver_fixed_clock_rate(gclk);
200171fc:	fec42503          	lw	a0,-20(s0)
20017200:	f81ff0ef          	jal	ra,20017180 <__metal_driver_fixed_clock_rate>
20017204:	87aa                	mv	a5,a0
E:/GitHub/HiFive01-RevB/FS_workspace/sifive_hifive1_revb_sifive_welcome/freedom-metal/src/drivers/fixed-clock.c:14
}
20017206:	853e                	mv	a0,a5
20017208:	40f2                	lw	ra,28(sp)
2001720a:	4462                	lw	s0,24(sp)
2001720c:	6105                	addi	sp,sp,32
2001720e:	8082                	ret

20017210 <__metal_driver_fixed_clock_set_rate_hz>:
__metal_driver_fixed_clock_set_rate_hz():
E:/GitHub/HiFive01-RevB/FS_workspace/sifive_hifive1_revb_sifive_welcome/freedom-metal/src/drivers/fixed-clock.c:17

long __metal_driver_fixed_clock_set_rate_hz(struct metal_clock *gclk,
                                            long target_hz) {
20017210:	1101                	addi	sp,sp,-32
20017212:	ce06                	sw	ra,28(sp)
20017214:	cc22                	sw	s0,24(sp)
20017216:	1000                	addi	s0,sp,32
20017218:	fea42623          	sw	a0,-20(s0)
2001721c:	feb42423          	sw	a1,-24(s0)
E:/GitHub/HiFive01-RevB/FS_workspace/sifive_hifive1_revb_sifive_welcome/freedom-metal/src/drivers/fixed-clock.c:18
    return __metal_driver_fixed_clock_get_rate_hz(gclk);
20017220:	fec42503          	lw	a0,-20(s0)
20017224:	fcdff0ef          	jal	ra,200171f0 <__metal_driver_fixed_clock_get_rate_hz>
20017228:	87aa                	mv	a5,a0
E:/GitHub/HiFive01-RevB/FS_workspace/sifive_hifive1_revb_sifive_welcome/freedom-metal/src/drivers/fixed-clock.c:19
}
2001722a:	853e                	mv	a0,a5
2001722c:	40f2                	lw	ra,28(sp)
2001722e:	4462                	lw	s0,24(sp)
20017230:	6105                	addi	sp,sp,32
20017232:	8082                	ret

20017234 <_close>:
_close():
E:/GitHub/HiFive01-RevB/FS_workspace/sifive_hifive1_revb_sifive_welcome/freedom-metal/gloss/sys_close.c:3
#include <errno.h>

int _close(int file) {
20017234:	1101                	addi	sp,sp,-32
20017236:	ce06                	sw	ra,28(sp)
20017238:	cc22                	sw	s0,24(sp)
2001723a:	1000                	addi	s0,sp,32
2001723c:	fea42623          	sw	a0,-20(s0)
E:/GitHub/HiFive01-RevB/FS_workspace/sifive_hifive1_revb_sifive_welcome/freedom-metal/gloss/sys_close.c:4
    errno = ENOSYS;
20017240:	2a49                	jal	200173d2 <__errno>
20017242:	872a                	mv	a4,a0
20017244:	05800793          	li	a5,88
20017248:	c31c                	sw	a5,0(a4)
E:/GitHub/HiFive01-RevB/FS_workspace/sifive_hifive1_revb_sifive_welcome/freedom-metal/gloss/sys_close.c:5
    return -1;
2001724a:	57fd                	li	a5,-1
E:/GitHub/HiFive01-RevB/FS_workspace/sifive_hifive1_revb_sifive_welcome/freedom-metal/gloss/sys_close.c:6
}
2001724c:	853e                	mv	a0,a5
2001724e:	40f2                	lw	ra,28(sp)
20017250:	4462                	lw	s0,24(sp)
20017252:	6105                	addi	sp,sp,32
20017254:	8082                	ret

20017256 <_fstat>:
_fstat():
E:/GitHub/HiFive01-RevB/FS_workspace/sifive_hifive1_revb_sifive_welcome/freedom-metal/gloss/sys_fstat.c:4
#include <errno.h>
#include <sys/stat.h>

int _fstat(int file, struct stat *st) {
20017256:	1101                	addi	sp,sp,-32
20017258:	ce06                	sw	ra,28(sp)
2001725a:	cc22                	sw	s0,24(sp)
2001725c:	1000                	addi	s0,sp,32
2001725e:	fea42623          	sw	a0,-20(s0)
20017262:	feb42423          	sw	a1,-24(s0)
E:/GitHub/HiFive01-RevB/FS_workspace/sifive_hifive1_revb_sifive_welcome/freedom-metal/gloss/sys_fstat.c:5
    errno = -ENOSYS;
20017266:	22b5                	jal	200173d2 <__errno>
20017268:	872a                	mv	a4,a0
2001726a:	fa800793          	li	a5,-88
2001726e:	c31c                	sw	a5,0(a4)
E:/GitHub/HiFive01-RevB/FS_workspace/sifive_hifive1_revb_sifive_welcome/freedom-metal/gloss/sys_fstat.c:6
    return -1;
20017270:	57fd                	li	a5,-1
E:/GitHub/HiFive01-RevB/FS_workspace/sifive_hifive1_revb_sifive_welcome/freedom-metal/gloss/sys_fstat.c:7
}
20017272:	853e                	mv	a0,a5
20017274:	40f2                	lw	ra,28(sp)
20017276:	4462                	lw	s0,24(sp)
20017278:	6105                	addi	sp,sp,32
2001727a:	8082                	ret

2001727c <_isatty>:
_isatty():
E:/GitHub/HiFive01-RevB/FS_workspace/sifive_hifive1_revb_sifive_welcome/freedom-metal/gloss/sys_isatty.c:3
#include <unistd.h>

int _isatty(int file) { return (file == STDOUT_FILENO); }
2001727c:	1101                	addi	sp,sp,-32
2001727e:	ce22                	sw	s0,28(sp)
20017280:	1000                	addi	s0,sp,32
20017282:	fea42623          	sw	a0,-20(s0)
20017286:	fec42783          	lw	a5,-20(s0)
2001728a:	17fd                	addi	a5,a5,-1
2001728c:	0017b793          	seqz	a5,a5
20017290:	0ff7f793          	zext.b	a5,a5
20017294:	853e                	mv	a0,a5
20017296:	4472                	lw	s0,28(sp)
20017298:	6105                	addi	sp,sp,32
2001729a:	8082                	ret

2001729c <_lseek>:
_lseek():
E:/GitHub/HiFive01-RevB/FS_workspace/sifive_hifive1_revb_sifive_welcome/freedom-metal/gloss/sys_lseek.c:4
#include <errno.h>
#include <sys/types.h>

off_t _lseek(int file, off_t ptr, int dir) {
2001729c:	1101                	addi	sp,sp,-32
2001729e:	ce06                	sw	ra,28(sp)
200172a0:	cc22                	sw	s0,24(sp)
200172a2:	1000                	addi	s0,sp,32
200172a4:	fea42623          	sw	a0,-20(s0)
200172a8:	feb42423          	sw	a1,-24(s0)
200172ac:	fec42223          	sw	a2,-28(s0)
E:/GitHub/HiFive01-RevB/FS_workspace/sifive_hifive1_revb_sifive_welcome/freedom-metal/gloss/sys_lseek.c:5
    errno = ENOSYS;
200172b0:	220d                	jal	200173d2 <__errno>
200172b2:	872a                	mv	a4,a0
200172b4:	05800793          	li	a5,88
200172b8:	c31c                	sw	a5,0(a4)
E:/GitHub/HiFive01-RevB/FS_workspace/sifive_hifive1_revb_sifive_welcome/freedom-metal/gloss/sys_lseek.c:6
    return -1;
200172ba:	57fd                	li	a5,-1
E:/GitHub/HiFive01-RevB/FS_workspace/sifive_hifive1_revb_sifive_welcome/freedom-metal/gloss/sys_lseek.c:7
}
200172bc:	853e                	mv	a0,a5
200172be:	40f2                	lw	ra,28(sp)
200172c0:	4462                	lw	s0,24(sp)
200172c2:	6105                	addi	sp,sp,32
200172c4:	8082                	ret

200172c6 <_read>:
_read():
E:/GitHub/HiFive01-RevB/FS_workspace/sifive_hifive1_revb_sifive_welcome/freedom-metal/gloss/sys_read.c:4
#include <errno.h>
#include <sys/types.h>

ssize_t _read(int file, void *ptr, size_t len) {
200172c6:	1101                	addi	sp,sp,-32
200172c8:	ce06                	sw	ra,28(sp)
200172ca:	cc22                	sw	s0,24(sp)
200172cc:	1000                	addi	s0,sp,32
200172ce:	fea42623          	sw	a0,-20(s0)
200172d2:	feb42423          	sw	a1,-24(s0)
200172d6:	fec42223          	sw	a2,-28(s0)
E:/GitHub/HiFive01-RevB/FS_workspace/sifive_hifive1_revb_sifive_welcome/freedom-metal/gloss/sys_read.c:5
    errno = ENOSYS;
200172da:	28e5                	jal	200173d2 <__errno>
200172dc:	872a                	mv	a4,a0
200172de:	05800793          	li	a5,88
200172e2:	c31c                	sw	a5,0(a4)
E:/GitHub/HiFive01-RevB/FS_workspace/sifive_hifive1_revb_sifive_welcome/freedom-metal/gloss/sys_read.c:6
    return -1;
200172e4:	57fd                	li	a5,-1
E:/GitHub/HiFive01-RevB/FS_workspace/sifive_hifive1_revb_sifive_welcome/freedom-metal/gloss/sys_read.c:7
}
200172e6:	853e                	mv	a0,a5
200172e8:	40f2                	lw	ra,28(sp)
200172ea:	4462                	lw	s0,24(sp)
200172ec:	6105                	addi	sp,sp,32
200172ee:	8082                	ret

200172f0 <_sbrk>:
_sbrk():
E:/GitHub/HiFive01-RevB/FS_workspace/sifive_hifive1_revb_sifive_welcome/freedom-metal/gloss/sys_sbrk.c:24
int _brk(void *addr) {
    __brk = addr;
    return 0;
}

char *_sbrk(ptrdiff_t incr) {
200172f0:	7179                	addi	sp,sp,-48
200172f2:	d606                	sw	ra,44(sp)
200172f4:	d422                	sw	s0,40(sp)
200172f6:	1800                	addi	s0,sp,48
200172f8:	fca42e23          	sw	a0,-36(s0)
E:/GitHub/HiFive01-RevB/FS_workspace/sifive_hifive1_revb_sifive_welcome/freedom-metal/gloss/sys_sbrk.c:25
    char *old = __brk;
200172fc:	82c1a783          	lw	a5,-2004(gp) # 80000adc <__brk>
20017300:	fef42623          	sw	a5,-20(s0)
E:/GitHub/HiFive01-RevB/FS_workspace/sifive_hifive1_revb_sifive_welcome/freedom-metal/gloss/sys_sbrk.c:28

    /* If __heap_size == 0, we can't allocate memory on the heap */
    if (&metal_segment_heap_target_start == &metal_segment_heap_target_end) {
20017304:	cf018713          	addi	a4,gp,-784 # 80000fa0 <_sp>
20017308:	4f018793          	addi	a5,gp,1264 # 800017a0 <metal_segment_heap_target_end>
2001730c:	00f71463          	bne	a4,a5,20017314 <_sbrk+0x24>
E:/GitHub/HiFive01-RevB/FS_workspace/sifive_hifive1_revb_sifive_welcome/freedom-metal/gloss/sys_sbrk.c:29
        return (void *)-1;
20017310:	57fd                	li	a5,-1
20017312:	a83d                	j	20017350 <_sbrk+0x60>
E:/GitHub/HiFive01-RevB/FS_workspace/sifive_hifive1_revb_sifive_welcome/freedom-metal/gloss/sys_sbrk.c:33
    }

    /* Don't move the break past the end of the heap */
    if ((__brk + incr) < &metal_segment_heap_target_end) {
20017314:	82c1a703          	lw	a4,-2004(gp) # 80000adc <__brk>
20017318:	fdc42783          	lw	a5,-36(s0)
2001731c:	973e                	add	a4,a4,a5
2001731e:	4f018793          	addi	a5,gp,1264 # 800017a0 <metal_segment_heap_target_end>
20017322:	02f77263          	bgeu	a4,a5,20017346 <_sbrk+0x56>
E:/GitHub/HiFive01-RevB/FS_workspace/sifive_hifive1_revb_sifive_welcome/freedom-metal/gloss/sys_sbrk.c:34
        __brk += incr;
20017326:	82c1a703          	lw	a4,-2004(gp) # 80000adc <__brk>
2001732a:	fdc42783          	lw	a5,-36(s0)
2001732e:	973e                	add	a4,a4,a5
20017330:	82e1a623          	sw	a4,-2004(gp) # 80000adc <__brk>
E:/GitHub/HiFive01-RevB/FS_workspace/sifive_hifive1_revb_sifive_welcome/freedom-metal/gloss/sys_sbrk.c:40
    } else {
        __brk = &metal_segment_heap_target_end;
        return (void *)-1;
    }
    /* Scrub out allocated memory to avoid spurious ECC errors */
    metal_mem_scrub(old, incr);
20017334:	fdc42583          	lw	a1,-36(s0)
20017338:	fec42503          	lw	a0,-20(s0)
2001733c:	d4ff80ef          	jal	ra,2001008a <metal_mem_scrub>
E:/GitHub/HiFive01-RevB/FS_workspace/sifive_hifive1_revb_sifive_welcome/freedom-metal/gloss/sys_sbrk.c:42

    return old;
20017340:	fec42783          	lw	a5,-20(s0)
20017344:	a031                	j	20017350 <_sbrk+0x60>
E:/GitHub/HiFive01-RevB/FS_workspace/sifive_hifive1_revb_sifive_welcome/freedom-metal/gloss/sys_sbrk.c:36
        __brk = &metal_segment_heap_target_end;
20017346:	4f018713          	addi	a4,gp,1264 # 800017a0 <metal_segment_heap_target_end>
2001734a:	82e1a623          	sw	a4,-2004(gp) # 80000adc <__brk>
E:/GitHub/HiFive01-RevB/FS_workspace/sifive_hifive1_revb_sifive_welcome/freedom-metal/gloss/sys_sbrk.c:37
        return (void *)-1;
2001734e:	57fd                	li	a5,-1
E:/GitHub/HiFive01-RevB/FS_workspace/sifive_hifive1_revb_sifive_welcome/freedom-metal/gloss/sys_sbrk.c:43
}
20017350:	853e                	mv	a0,a5
20017352:	50b2                	lw	ra,44(sp)
20017354:	5422                	lw	s0,40(sp)
20017356:	6145                	addi	sp,sp,48
20017358:	8082                	ret

2001735a <_write>:
_write():
E:/GitHub/HiFive01-RevB/FS_workspace/sifive_hifive1_revb_sifive_welcome/freedom-metal/gloss/sys_write.c:7
#include <metal/tty.h>
#include <sys/types.h>
#include <unistd.h>

/* Write to a file.  */
ssize_t _write(int file, const void *ptr, size_t len) {
2001735a:	7179                	addi	sp,sp,-48
2001735c:	d606                	sw	ra,44(sp)
2001735e:	d422                	sw	s0,40(sp)
20017360:	1800                	addi	s0,sp,48
20017362:	fca42e23          	sw	a0,-36(s0)
20017366:	fcb42c23          	sw	a1,-40(s0)
2001736a:	fcc42a23          	sw	a2,-44(s0)
E:/GitHub/HiFive01-RevB/FS_workspace/sifive_hifive1_revb_sifive_welcome/freedom-metal/gloss/sys_write.c:8
    if (file != STDOUT_FILENO) {
2001736e:	fdc42703          	lw	a4,-36(s0)
20017372:	4785                	li	a5,1
20017374:	00f70963          	beq	a4,a5,20017386 <_write+0x2c>
E:/GitHub/HiFive01-RevB/FS_workspace/sifive_hifive1_revb_sifive_welcome/freedom-metal/gloss/sys_write.c:9
        errno = ENOSYS;
20017378:	28a9                	jal	200173d2 <__errno>
2001737a:	872a                	mv	a4,a0
2001737c:	05800793          	li	a5,88
20017380:	c31c                	sw	a5,0(a4)
E:/GitHub/HiFive01-RevB/FS_workspace/sifive_hifive1_revb_sifive_welcome/freedom-metal/gloss/sys_write.c:10
        return -1;
20017382:	57fd                	li	a5,-1
20017384:	a82d                	j	200173be <_write+0x64>
E:/GitHub/HiFive01-RevB/FS_workspace/sifive_hifive1_revb_sifive_welcome/freedom-metal/gloss/sys_write.c:13
    }

    const char *bptr = ptr;
20017386:	fd842783          	lw	a5,-40(s0)
2001738a:	fef42423          	sw	a5,-24(s0)
E:/GitHub/HiFive01-RevB/FS_workspace/sifive_hifive1_revb_sifive_welcome/freedom-metal/gloss/sys_write.c:14
    for (size_t i = 0; i < len; ++i)
2001738e:	fe042623          	sw	zero,-20(s0)
20017392:	a839                	j	200173b0 <_write+0x56>
E:/GitHub/HiFive01-RevB/FS_workspace/sifive_hifive1_revb_sifive_welcome/freedom-metal/gloss/sys_write.c:15 (discriminator 3)
        metal_tty_putc(bptr[i]);
20017394:	fe842703          	lw	a4,-24(s0)
20017398:	fec42783          	lw	a5,-20(s0)
2001739c:	97ba                	add	a5,a5,a4
2001739e:	0007c783          	lbu	a5,0(a5) # 8000 <__heap_size+0x7800>
200173a2:	853e                	mv	a0,a5
200173a4:	2145                	jal	20017844 <metal_tty_putc>
E:/GitHub/HiFive01-RevB/FS_workspace/sifive_hifive1_revb_sifive_welcome/freedom-metal/gloss/sys_write.c:14 (discriminator 3)
    for (size_t i = 0; i < len; ++i)
200173a6:	fec42783          	lw	a5,-20(s0)
200173aa:	0785                	addi	a5,a5,1
200173ac:	fef42623          	sw	a5,-20(s0)
E:/GitHub/HiFive01-RevB/FS_workspace/sifive_hifive1_revb_sifive_welcome/freedom-metal/gloss/sys_write.c:14 (discriminator 1)
200173b0:	fec42703          	lw	a4,-20(s0)
200173b4:	fd442783          	lw	a5,-44(s0)
200173b8:	fcf76ee3          	bltu	a4,a5,20017394 <_write+0x3a>
E:/GitHub/HiFive01-RevB/FS_workspace/sifive_hifive1_revb_sifive_welcome/freedom-metal/gloss/sys_write.c:16
    return 0;
200173bc:	4781                	li	a5,0
E:/GitHub/HiFive01-RevB/FS_workspace/sifive_hifive1_revb_sifive_welcome/freedom-metal/gloss/sys_write.c:17
}
200173be:	853e                	mv	a0,a5
200173c0:	50b2                	lw	ra,44(sp)
200173c2:	5422                	lw	s0,40(sp)
200173c4:	6145                	addi	sp,sp,48
200173c6:	8082                	ret

200173c8 <atexit>:
atexit():
200173c8:	85aa                	mv	a1,a0
200173ca:	4681                	li	a3,0
200173cc:	4601                	li	a2,0
200173ce:	4501                	li	a0,0
200173d0:	ac11                	j	200175e4 <__register_exitproc>

200173d2 <__errno>:
__errno():
200173d2:	5ffe9517          	auipc	a0,0x5ffe9
200173d6:	6de52503          	lw	a0,1758(a0) # 80000ab0 <_impure_ptr>
200173da:	8082                	ret

200173dc <exit>:
exit():
200173dc:	1141                	addi	sp,sp,-16
200173de:	c422                	sw	s0,8(sp)
200173e0:	c606                	sw	ra,12(sp)
200173e2:	00000797          	auipc	a5,0x0
200173e6:	27e78793          	addi	a5,a5,638 # 20017660 <__call_exitprocs>
200173ea:	842a                	mv	s0,a0
200173ec:	c399                	beqz	a5,200173f2 <exit+0x16>
200173ee:	4581                	li	a1,0
200173f0:	2c85                	jal	20017660 <__call_exitprocs>
200173f2:	ffffa517          	auipc	a0,0xffffa
200173f6:	fc652503          	lw	a0,-58(a0) # 200113b8 <_global_impure_ptr>
200173fa:	551c                	lw	a5,40(a0)
200173fc:	c391                	beqz	a5,20017400 <exit+0x24>
200173fe:	9782                	jalr	a5
20017400:	8522                	mv	a0,s0
20017402:	21ad                	jal	2001786c <_exit>

20017404 <__libc_fini_array>:
__libc_fini_array():
20017404:	1141                	addi	sp,sp,-16
20017406:	c422                	sw	s0,8(sp)
20017408:	c226                	sw	s1,4(sp)
2001740a:	ffff9417          	auipc	s0,0xffff9
2001740e:	ee640413          	addi	s0,s0,-282 # 200102f0 <__fini_array_end>
20017412:	ffff9497          	auipc	s1,0xffff9
20017416:	ede48493          	addi	s1,s1,-290 # 200102f0 <__fini_array_end>
2001741a:	8c05                	sub	s0,s0,s1
2001741c:	c606                	sw	ra,12(sp)
2001741e:	8409                	srai	s0,s0,0x2
20017420:	e411                	bnez	s0,2001742c <__libc_fini_array+0x28>
20017422:	40b2                	lw	ra,12(sp)
20017424:	4422                	lw	s0,8(sp)
20017426:	4492                	lw	s1,4(sp)
20017428:	0141                	addi	sp,sp,16
2001742a:	8082                	ret
2001742c:	147d                	addi	s0,s0,-1
2001742e:	00241793          	slli	a5,s0,0x2
20017432:	97a6                	add	a5,a5,s1
20017434:	439c                	lw	a5,0(a5)
20017436:	9782                	jalr	a5
20017438:	b7e5                	j	20017420 <__libc_fini_array+0x1c>

2001743a <__libc_init_array>:
__libc_init_array():
2001743a:	1141                	addi	sp,sp,-16
2001743c:	c422                	sw	s0,8(sp)
2001743e:	c226                	sw	s1,4(sp)
20017440:	ffff9417          	auipc	s0,0xffff9
20017444:	ea040413          	addi	s0,s0,-352 # 200102e0 <_metal_sifive_fe310_g000_pll_init_ptr>
20017448:	ffff9497          	auipc	s1,0xffff9
2001744c:	e9848493          	addi	s1,s1,-360 # 200102e0 <_metal_sifive_fe310_g000_pll_init_ptr>
20017450:	8c81                	sub	s1,s1,s0
20017452:	c04a                	sw	s2,0(sp)
20017454:	c606                	sw	ra,12(sp)
20017456:	8489                	srai	s1,s1,0x2
20017458:	4901                	li	s2,0
2001745a:	02991563          	bne	s2,s1,20017484 <__libc_init_array+0x4a>
2001745e:	ffff9417          	auipc	s0,0xffff9
20017462:	e8240413          	addi	s0,s0,-382 # 200102e0 <_metal_sifive_fe310_g000_pll_init_ptr>
20017466:	ffff9497          	auipc	s1,0xffff9
2001746a:	e7a48493          	addi	s1,s1,-390 # 200102e0 <_metal_sifive_fe310_g000_pll_init_ptr>
2001746e:	8c81                	sub	s1,s1,s0
20017470:	8489                	srai	s1,s1,0x2
20017472:	4901                	li	s2,0
20017474:	00991d63          	bne	s2,s1,2001748e <__libc_init_array+0x54>
20017478:	40b2                	lw	ra,12(sp)
2001747a:	4422                	lw	s0,8(sp)
2001747c:	4492                	lw	s1,4(sp)
2001747e:	4902                	lw	s2,0(sp)
20017480:	0141                	addi	sp,sp,16
20017482:	8082                	ret
20017484:	401c                	lw	a5,0(s0)
20017486:	0905                	addi	s2,s2,1
20017488:	0411                	addi	s0,s0,4
2001748a:	9782                	jalr	a5
2001748c:	b7f9                	j	2001745a <__libc_init_array+0x20>
2001748e:	401c                	lw	a5,0(s0)
20017490:	0905                	addi	s2,s2,1
20017492:	0411                	addi	s0,s0,4
20017494:	9782                	jalr	a5
20017496:	bff9                	j	20017474 <__libc_init_array+0x3a>

20017498 <strcat>:
strcat():
20017498:	87aa                	mv	a5,a0
2001749a:	0007c683          	lbu	a3,0(a5)
2001749e:	873e                	mv	a4,a5
200174a0:	0785                	addi	a5,a5,1
200174a2:	fee5                	bnez	a3,2001749a <strcat+0x2>
200174a4:	0005c783          	lbu	a5,0(a1)
200174a8:	0585                	addi	a1,a1,1
200174aa:	0705                	addi	a4,a4,1
200174ac:	fef70fa3          	sb	a5,-1(a4)
200174b0:	fbf5                	bnez	a5,200174a4 <strcat+0xc>
200174b2:	8082                	ret

200174b4 <strcmp>:
strcmp():
200174b4:	00b56733          	or	a4,a0,a1
200174b8:	53fd                	li	t2,-1
200174ba:	8b0d                	andi	a4,a4,3
200174bc:	e779                	bnez	a4,2001758a <strcmp+0xd6>
200174be:	7f7f87b7          	lui	a5,0x7f7f8
200174c2:	f7f78793          	addi	a5,a5,-129 # 7f7f7f7f <metal_segment_data_source_start+0x5f7e06ff>
200174c6:	4110                	lw	a2,0(a0)
200174c8:	4194                	lw	a3,0(a1)
200174ca:	00f672b3          	and	t0,a2,a5
200174ce:	00f66333          	or	t1,a2,a5
200174d2:	92be                	add	t0,t0,a5
200174d4:	0062e2b3          	or	t0,t0,t1
200174d8:	0c729763          	bne	t0,t2,200175a6 <strcmp+0xf2>
200174dc:	06d61863          	bne	a2,a3,2001754c <strcmp+0x98>
200174e0:	4150                	lw	a2,4(a0)
200174e2:	41d4                	lw	a3,4(a1)
200174e4:	00f672b3          	and	t0,a2,a5
200174e8:	00f66333          	or	t1,a2,a5
200174ec:	92be                	add	t0,t0,a5
200174ee:	0062e2b3          	or	t0,t0,t1
200174f2:	0a729863          	bne	t0,t2,200175a2 <strcmp+0xee>
200174f6:	04d61b63          	bne	a2,a3,2001754c <strcmp+0x98>
200174fa:	4510                	lw	a2,8(a0)
200174fc:	4594                	lw	a3,8(a1)
200174fe:	00f672b3          	and	t0,a2,a5
20017502:	00f66333          	or	t1,a2,a5
20017506:	92be                	add	t0,t0,a5
20017508:	0062e2b3          	or	t0,t0,t1
2001750c:	0a729163          	bne	t0,t2,200175ae <strcmp+0xfa>
20017510:	02d61e63          	bne	a2,a3,2001754c <strcmp+0x98>
20017514:	4550                	lw	a2,12(a0)
20017516:	45d4                	lw	a3,12(a1)
20017518:	00f672b3          	and	t0,a2,a5
2001751c:	00f66333          	or	t1,a2,a5
20017520:	92be                	add	t0,t0,a5
20017522:	0062e2b3          	or	t0,t0,t1
20017526:	08729a63          	bne	t0,t2,200175ba <strcmp+0x106>
2001752a:	02d61163          	bne	a2,a3,2001754c <strcmp+0x98>
2001752e:	4910                	lw	a2,16(a0)
20017530:	4994                	lw	a3,16(a1)
20017532:	00f672b3          	and	t0,a2,a5
20017536:	00f66333          	or	t1,a2,a5
2001753a:	92be                	add	t0,t0,a5
2001753c:	0062e2b3          	or	t0,t0,t1
20017540:	08729363          	bne	t0,t2,200175c6 <strcmp+0x112>
20017544:	0551                	addi	a0,a0,20
20017546:	05d1                	addi	a1,a1,20
20017548:	f6d60fe3          	beq	a2,a3,200174c6 <strcmp+0x12>
2001754c:	01061713          	slli	a4,a2,0x10
20017550:	01069793          	slli	a5,a3,0x10
20017554:	00f71c63          	bne	a4,a5,2001756c <strcmp+0xb8>
20017558:	01065713          	srli	a4,a2,0x10
2001755c:	0106d793          	srli	a5,a3,0x10
20017560:	40f70533          	sub	a0,a4,a5
20017564:	0ff57593          	zext.b	a1,a0
20017568:	e991                	bnez	a1,2001757c <strcmp+0xc8>
2001756a:	8082                	ret
2001756c:	8341                	srli	a4,a4,0x10
2001756e:	83c1                	srli	a5,a5,0x10
20017570:	40f70533          	sub	a0,a4,a5
20017574:	0ff57593          	zext.b	a1,a0
20017578:	e191                	bnez	a1,2001757c <strcmp+0xc8>
2001757a:	8082                	ret
2001757c:	0ff77713          	zext.b	a4,a4
20017580:	0ff7f793          	zext.b	a5,a5
20017584:	40f70533          	sub	a0,a4,a5
20017588:	8082                	ret
2001758a:	00054603          	lbu	a2,0(a0)
2001758e:	0005c683          	lbu	a3,0(a1)
20017592:	0505                	addi	a0,a0,1
20017594:	0585                	addi	a1,a1,1
20017596:	00d61363          	bne	a2,a3,2001759c <strcmp+0xe8>
2001759a:	fa65                	bnez	a2,2001758a <strcmp+0xd6>
2001759c:	40d60533          	sub	a0,a2,a3
200175a0:	8082                	ret
200175a2:	0511                	addi	a0,a0,4
200175a4:	0591                	addi	a1,a1,4
200175a6:	fed612e3          	bne	a2,a3,2001758a <strcmp+0xd6>
200175aa:	4501                	li	a0,0
200175ac:	8082                	ret
200175ae:	0521                	addi	a0,a0,8
200175b0:	05a1                	addi	a1,a1,8
200175b2:	fcd61ce3          	bne	a2,a3,2001758a <strcmp+0xd6>
200175b6:	4501                	li	a0,0
200175b8:	8082                	ret
200175ba:	0531                	addi	a0,a0,12
200175bc:	05b1                	addi	a1,a1,12
200175be:	fcd616e3          	bne	a2,a3,2001758a <strcmp+0xd6>
200175c2:	4501                	li	a0,0
200175c4:	8082                	ret
200175c6:	0541                	addi	a0,a0,16
200175c8:	05c1                	addi	a1,a1,16
200175ca:	fcd610e3          	bne	a2,a3,2001758a <strcmp+0xd6>
200175ce:	4501                	li	a0,0
200175d0:	8082                	ret

200175d2 <strcpy>:
strcpy():
200175d2:	87aa                	mv	a5,a0
200175d4:	0005c703          	lbu	a4,0(a1)
200175d8:	0785                	addi	a5,a5,1
200175da:	0585                	addi	a1,a1,1
200175dc:	fee78fa3          	sb	a4,-1(a5)
200175e0:	fb75                	bnez	a4,200175d4 <strcpy+0x2>
200175e2:	8082                	ret

200175e4 <__register_exitproc>:
__register_exitproc():
200175e4:	88aa                	mv	a7,a0
200175e6:	5ffe9517          	auipc	a0,0x5ffe9
200175ea:	50650513          	addi	a0,a0,1286 # 80000aec <_global_atexit>
200175ee:	411c                	lw	a5,0(a0)
200175f0:	ef91                	bnez	a5,2001760c <__register_exitproc+0x28>
200175f2:	5ffe9717          	auipc	a4,0x5ffe9
200175f6:	50670713          	addi	a4,a4,1286 # 80000af8 <_global_atexit0>
200175fa:	c118                	sw	a4,0(a0)
200175fc:	00000513          	li	a0,0
20017600:	87ba                	mv	a5,a4
20017602:	c509                	beqz	a0,2001760c <__register_exitproc+0x28>
20017604:	411c                	lw	a5,0(a0)
20017606:	08f72423          	sw	a5,136(a4)
2001760a:	87ba                	mv	a5,a4
2001760c:	43d8                	lw	a4,4(a5)
2001760e:	487d                	li	a6,31
20017610:	557d                	li	a0,-1
20017612:	04e84663          	blt	a6,a4,2001765e <__register_exitproc+0x7a>
20017616:	02088d63          	beqz	a7,20017650 <__register_exitproc+0x6c>
2001761a:	0887a803          	lw	a6,136(a5)
2001761e:	04080063          	beqz	a6,2001765e <__register_exitproc+0x7a>
20017622:	00271513          	slli	a0,a4,0x2
20017626:	9542                	add	a0,a0,a6
20017628:	c110                	sw	a2,0(a0)
2001762a:	10082303          	lw	t1,256(a6)
2001762e:	4605                	li	a2,1
20017630:	00e61633          	sll	a2,a2,a4
20017634:	00c36333          	or	t1,t1,a2
20017638:	10682023          	sw	t1,256(a6)
2001763c:	08d52023          	sw	a3,128(a0)
20017640:	4689                	li	a3,2
20017642:	00d89763          	bne	a7,a3,20017650 <__register_exitproc+0x6c>
20017646:	10482683          	lw	a3,260(a6)
2001764a:	8e55                	or	a2,a2,a3
2001764c:	10c82223          	sw	a2,260(a6)
20017650:	00170693          	addi	a3,a4,1
20017654:	070a                	slli	a4,a4,0x2
20017656:	c3d4                	sw	a3,4(a5)
20017658:	97ba                	add	a5,a5,a4
2001765a:	c78c                	sw	a1,8(a5)
2001765c:	4501                	li	a0,0
2001765e:	8082                	ret

20017660 <__call_exitprocs>:
__call_exitprocs():
20017660:	7179                	addi	sp,sp,-48
20017662:	ca56                	sw	s5,20(sp)
20017664:	c85a                	sw	s6,16(sp)
20017666:	c65e                	sw	s7,12(sp)
20017668:	c462                	sw	s8,8(sp)
2001766a:	d606                	sw	ra,44(sp)
2001766c:	d422                	sw	s0,40(sp)
2001766e:	d226                	sw	s1,36(sp)
20017670:	d04a                	sw	s2,32(sp)
20017672:	ce4e                	sw	s3,28(sp)
20017674:	cc52                	sw	s4,24(sp)
20017676:	c266                	sw	s9,4(sp)
20017678:	8b2a                	mv	s6,a0
2001767a:	8aae                	mv	s5,a1
2001767c:	5ffe9b97          	auipc	s7,0x5ffe9
20017680:	470b8b93          	addi	s7,s7,1136 # 80000aec <_global_atexit>
20017684:	4c05                	li	s8,1
20017686:	000ba483          	lw	s1,0(s7)
2001768a:	cc81                	beqz	s1,200176a2 <__call_exitprocs+0x42>
2001768c:	40c0                	lw	s0,4(s1)
2001768e:	0884a983          	lw	s3,136(s1)
20017692:	fff40913          	addi	s2,s0,-1
20017696:	040a                	slli	s0,s0,0x2
20017698:	00898a33          	add	s4,s3,s0
2001769c:	9426                	add	s0,s0,s1
2001769e:	00095f63          	bgez	s2,200176bc <__call_exitprocs+0x5c>
200176a2:	50b2                	lw	ra,44(sp)
200176a4:	5422                	lw	s0,40(sp)
200176a6:	5492                	lw	s1,36(sp)
200176a8:	5902                	lw	s2,32(sp)
200176aa:	49f2                	lw	s3,28(sp)
200176ac:	4a62                	lw	s4,24(sp)
200176ae:	4ad2                	lw	s5,20(sp)
200176b0:	4b42                	lw	s6,16(sp)
200176b2:	4bb2                	lw	s7,12(sp)
200176b4:	4c22                	lw	s8,8(sp)
200176b6:	4c92                	lw	s9,4(sp)
200176b8:	6145                	addi	sp,sp,48
200176ba:	8082                	ret
200176bc:	000a8c63          	beqz	s5,200176d4 <__call_exitprocs+0x74>
200176c0:	00099663          	bnez	s3,200176cc <__call_exitprocs+0x6c>
200176c4:	197d                	addi	s2,s2,-1
200176c6:	1a71                	addi	s4,s4,-4
200176c8:	1471                	addi	s0,s0,-4
200176ca:	bfd1                	j	2001769e <__call_exitprocs+0x3e>
200176cc:	07ca2783          	lw	a5,124(s4)
200176d0:	ff579ae3          	bne	a5,s5,200176c4 <__call_exitprocs+0x64>
200176d4:	40d8                	lw	a4,4(s1)
200176d6:	405c                	lw	a5,4(s0)
200176d8:	177d                	addi	a4,a4,-1
200176da:	03271863          	bne	a4,s2,2001770a <__call_exitprocs+0xaa>
200176de:	0124a223          	sw	s2,4(s1)
200176e2:	d3ed                	beqz	a5,200176c4 <__call_exitprocs+0x64>
200176e4:	0044ac83          	lw	s9,4(s1)
200176e8:	00098863          	beqz	s3,200176f8 <__call_exitprocs+0x98>
200176ec:	1009a683          	lw	a3,256(s3)
200176f0:	012c1733          	sll	a4,s8,s2
200176f4:	8ef9                	and	a3,a3,a4
200176f6:	ee89                	bnez	a3,20017710 <__call_exitprocs+0xb0>
200176f8:	9782                	jalr	a5
200176fa:	40d8                	lw	a4,4(s1)
200176fc:	000ba783          	lw	a5,0(s7)
20017700:	f99713e3          	bne	a4,s9,20017686 <__call_exitprocs+0x26>
20017704:	fcf480e3          	beq	s1,a5,200176c4 <__call_exitprocs+0x64>
20017708:	bfbd                	j	20017686 <__call_exitprocs+0x26>
2001770a:	00042223          	sw	zero,4(s0)
2001770e:	bfd1                	j	200176e2 <__call_exitprocs+0x82>
20017710:	1049a683          	lw	a3,260(s3)
20017714:	ffca2583          	lw	a1,-4(s4)
20017718:	8f75                	and	a4,a4,a3
2001771a:	e701                	bnez	a4,20017722 <__call_exitprocs+0xc2>
2001771c:	855a                	mv	a0,s6
2001771e:	9782                	jalr	a5
20017720:	bfe9                	j	200176fa <__call_exitprocs+0x9a>
20017722:	852e                	mv	a0,a1
20017724:	9782                	jalr	a5
20017726:	bfd1                	j	200176fa <__call_exitprocs+0x9a>

20017728 <metal_init>:
metal_init():
E:/GitHub/HiFive01-RevB/FS_workspace/sifive_hifive1_revb_sifive_welcome/freedom-metal/src/init.c:17
extern metal_constructor_t metal_constructors_start;
extern metal_constructor_t metal_constructors_end;
extern metal_destructor_t metal_destructors_start;
extern metal_destructor_t metal_destructors_end;

void metal_init(void) {
20017728:	1101                	addi	sp,sp,-32
2001772a:	ce06                	sw	ra,28(sp)
2001772c:	cc22                	sw	s0,24(sp)
2001772e:	1000                	addi	s0,sp,32
E:/GitHub/HiFive01-RevB/FS_workspace/sifive_hifive1_revb_sifive_welcome/freedom-metal/src/init.c:20
    /* Make sure the constructors only run once */
    static int init_done = 0;
    if (init_done) {
20017730:	800017b7          	lui	a5,0x80001
20017734:	af07a783          	lw	a5,-1296(a5) # 80000af0 <metal_segment_heap_target_end+0xfffff350>
20017738:	efa9                	bnez	a5,20017792 <metal_init+0x6a>
E:/GitHub/HiFive01-RevB/FS_workspace/sifive_hifive1_revb_sifive_welcome/freedom-metal/src/init.c:23
        return;
    }
    init_done = 1;
2001773a:	800017b7          	lui	a5,0x80001
2001773e:	4705                	li	a4,1
20017740:	aee7a823          	sw	a4,-1296(a5) # 80000af0 <metal_segment_heap_target_end+0xfffff350>
E:/GitHub/HiFive01-RevB/FS_workspace/sifive_hifive1_revb_sifive_welcome/freedom-metal/src/init.c:25

    if (&metal_constructors_end <= &metal_constructors_start) {
20017744:	200107b7          	lui	a5,0x20010
20017748:	2ec78713          	addi	a4,a5,748 # 200102ec <metal_sifive_fe310_g000_pll_init>
2001774c:	200107b7          	lui	a5,0x20010
20017750:	2e078793          	addi	a5,a5,736 # 200102e0 <_metal_sifive_fe310_g000_pll_init_ptr>
20017754:	04e7f163          	bgeu	a5,a4,20017796 <metal_init+0x6e>
E:/GitHub/HiFive01-RevB/FS_workspace/sifive_hifive1_revb_sifive_welcome/freedom-metal/src/init.c:29
        return;
    }

    metal_constructor_t *funcptr = &metal_constructors_start;
20017758:	200107b7          	lui	a5,0x20010
2001775c:	2e078793          	addi	a5,a5,736 # 200102e0 <_metal_sifive_fe310_g000_pll_init_ptr>
20017760:	fef42623          	sw	a5,-20(s0)
E:/GitHub/HiFive01-RevB/FS_workspace/sifive_hifive1_revb_sifive_welcome/freedom-metal/src/init.c:30
    while (funcptr != &metal_constructors_end) {
20017764:	a831                	j	20017780 <metal_init+0x58>
E:/GitHub/HiFive01-RevB/FS_workspace/sifive_hifive1_revb_sifive_welcome/freedom-metal/src/init.c:31
        metal_constructor_t func = *funcptr;
20017766:	fec42783          	lw	a5,-20(s0)
2001776a:	439c                	lw	a5,0(a5)
2001776c:	fef42423          	sw	a5,-24(s0)
E:/GitHub/HiFive01-RevB/FS_workspace/sifive_hifive1_revb_sifive_welcome/freedom-metal/src/init.c:33

        func();
20017770:	fe842783          	lw	a5,-24(s0)
20017774:	9782                	jalr	a5
E:/GitHub/HiFive01-RevB/FS_workspace/sifive_hifive1_revb_sifive_welcome/freedom-metal/src/init.c:35

        funcptr += 1;
20017776:	fec42783          	lw	a5,-20(s0)
2001777a:	0791                	addi	a5,a5,4
2001777c:	fef42623          	sw	a5,-20(s0)
E:/GitHub/HiFive01-RevB/FS_workspace/sifive_hifive1_revb_sifive_welcome/freedom-metal/src/init.c:30
    while (funcptr != &metal_constructors_end) {
20017780:	fec42703          	lw	a4,-20(s0)
20017784:	200107b7          	lui	a5,0x20010
20017788:	2ec78793          	addi	a5,a5,748 # 200102ec <metal_sifive_fe310_g000_pll_init>
2001778c:	fcf71de3          	bne	a4,a5,20017766 <metal_init+0x3e>
20017790:	a021                	j	20017798 <metal_init+0x70>
E:/GitHub/HiFive01-RevB/FS_workspace/sifive_hifive1_revb_sifive_welcome/freedom-metal/src/init.c:21
        return;
20017792:	0001                	nop
20017794:	a011                	j	20017798 <metal_init+0x70>
E:/GitHub/HiFive01-RevB/FS_workspace/sifive_hifive1_revb_sifive_welcome/freedom-metal/src/init.c:26
        return;
20017796:	0001                	nop
E:/GitHub/HiFive01-RevB/FS_workspace/sifive_hifive1_revb_sifive_welcome/freedom-metal/src/init.c:37
    }
}
20017798:	40f2                	lw	ra,28(sp)
2001779a:	4462                	lw	s0,24(sp)
2001779c:	6105                	addi	sp,sp,32
2001779e:	8082                	ret

200177a0 <metal_fini>:
metal_fini():
E:/GitHub/HiFive01-RevB/FS_workspace/sifive_hifive1_revb_sifive_welcome/freedom-metal/src/init.c:39

void metal_fini(void) {
200177a0:	1101                	addi	sp,sp,-32
200177a2:	ce06                	sw	ra,28(sp)
200177a4:	cc22                	sw	s0,24(sp)
200177a6:	1000                	addi	s0,sp,32
E:/GitHub/HiFive01-RevB/FS_workspace/sifive_hifive1_revb_sifive_welcome/freedom-metal/src/init.c:42
    /* Make sure the destructors only run once */
    static int fini_done = 0;
    if (fini_done) {
200177a8:	800017b7          	lui	a5,0x80001
200177ac:	af47a783          	lw	a5,-1292(a5) # 80000af4 <metal_segment_heap_target_end+0xfffff354>
200177b0:	efa9                	bnez	a5,2001780a <metal_fini+0x6a>
E:/GitHub/HiFive01-RevB/FS_workspace/sifive_hifive1_revb_sifive_welcome/freedom-metal/src/init.c:45
        return;
    }
    fini_done = 1;
200177b2:	800017b7          	lui	a5,0x80001
200177b6:	4705                	li	a4,1
200177b8:	aee7aa23          	sw	a4,-1292(a5) # 80000af4 <metal_segment_heap_target_end+0xfffff354>
E:/GitHub/HiFive01-RevB/FS_workspace/sifive_hifive1_revb_sifive_welcome/freedom-metal/src/init.c:47

    if (&metal_destructors_end <= &metal_destructors_start) {
200177bc:	200107b7          	lui	a5,0x20010
200177c0:	2f078713          	addi	a4,a5,752 # 200102f0 <__fini_array_end>
200177c4:	200107b7          	lui	a5,0x20010
200177c8:	2f078793          	addi	a5,a5,752 # 200102f0 <__fini_array_end>
200177cc:	04e7f163          	bgeu	a5,a4,2001780e <metal_fini+0x6e>
E:/GitHub/HiFive01-RevB/FS_workspace/sifive_hifive1_revb_sifive_welcome/freedom-metal/src/init.c:51
        return;
    }

    metal_destructor_t *funcptr = &metal_destructors_start;
200177d0:	200107b7          	lui	a5,0x20010
200177d4:	2f078793          	addi	a5,a5,752 # 200102f0 <__fini_array_end>
200177d8:	fef42623          	sw	a5,-20(s0)
E:/GitHub/HiFive01-RevB/FS_workspace/sifive_hifive1_revb_sifive_welcome/freedom-metal/src/init.c:52
    while (funcptr != &metal_destructors_end) {
200177dc:	a831                	j	200177f8 <metal_fini+0x58>
E:/GitHub/HiFive01-RevB/FS_workspace/sifive_hifive1_revb_sifive_welcome/freedom-metal/src/init.c:53
        metal_destructor_t func = *funcptr;
200177de:	fec42783          	lw	a5,-20(s0)
200177e2:	439c                	lw	a5,0(a5)
200177e4:	fef42423          	sw	a5,-24(s0)
E:/GitHub/HiFive01-RevB/FS_workspace/sifive_hifive1_revb_sifive_welcome/freedom-metal/src/init.c:55

        func();
200177e8:	fe842783          	lw	a5,-24(s0)
200177ec:	9782                	jalr	a5
E:/GitHub/HiFive01-RevB/FS_workspace/sifive_hifive1_revb_sifive_welcome/freedom-metal/src/init.c:57

        funcptr += 1;
200177ee:	fec42783          	lw	a5,-20(s0)
200177f2:	0791                	addi	a5,a5,4
200177f4:	fef42623          	sw	a5,-20(s0)
E:/GitHub/HiFive01-RevB/FS_workspace/sifive_hifive1_revb_sifive_welcome/freedom-metal/src/init.c:52
    while (funcptr != &metal_destructors_end) {
200177f8:	fec42703          	lw	a4,-20(s0)
200177fc:	200107b7          	lui	a5,0x20010
20017800:	2f078793          	addi	a5,a5,752 # 200102f0 <__fini_array_end>
20017804:	fcf71de3          	bne	a4,a5,200177de <metal_fini+0x3e>
20017808:	a021                	j	20017810 <metal_fini+0x70>
E:/GitHub/HiFive01-RevB/FS_workspace/sifive_hifive1_revb_sifive_welcome/freedom-metal/src/init.c:43
        return;
2001780a:	0001                	nop
2001780c:	a011                	j	20017810 <metal_fini+0x70>
E:/GitHub/HiFive01-RevB/FS_workspace/sifive_hifive1_revb_sifive_welcome/freedom-metal/src/init.c:48
        return;
2001780e:	0001                	nop
E:/GitHub/HiFive01-RevB/FS_workspace/sifive_hifive1_revb_sifive_welcome/freedom-metal/src/init.c:59
    }
}
20017810:	40f2                	lw	ra,28(sp)
20017812:	4462                	lw	s0,24(sp)
20017814:	6105                	addi	sp,sp,32
20017816:	8082                	ret

20017818 <metal_init_run>:
metal_init_run():
E:/GitHub/HiFive01-RevB/FS_workspace/sifive_hifive1_revb_sifive_welcome/freedom-metal/src/init.c:69
 * in the case that users don't want the metal constructors or
 * destructors to run.
 */

void metal_init_run(void) __attribute__((weak));
void metal_init_run(void) { metal_init(); }
20017818:	1141                	addi	sp,sp,-16
2001781a:	c606                	sw	ra,12(sp)
2001781c:	c422                	sw	s0,8(sp)
2001781e:	0800                	addi	s0,sp,16
20017820:	f09ff0ef          	jal	ra,20017728 <metal_init>
20017824:	0001                	nop
20017826:	40b2                	lw	ra,12(sp)
20017828:	4422                	lw	s0,8(sp)
2001782a:	0141                	addi	sp,sp,16
2001782c:	8082                	ret

2001782e <metal_fini_run>:
metal_fini_run():
E:/GitHub/HiFive01-RevB/FS_workspace/sifive_hifive1_revb_sifive_welcome/freedom-metal/src/init.c:72

void metal_fini_run(void) __attribute__((weak));
void metal_fini_run(void) { metal_fini(); }
2001782e:	1141                	addi	sp,sp,-16
20017830:	c606                	sw	ra,12(sp)
20017832:	c422                	sw	s0,8(sp)
20017834:	0800                	addi	s0,sp,16
20017836:	f6bff0ef          	jal	ra,200177a0 <metal_fini>
2001783a:	0001                	nop
2001783c:	40b2                	lw	ra,12(sp)
2001783e:	4422                	lw	s0,8(sp)
20017840:	0141                	addi	sp,sp,16
20017842:	8082                	ret

20017844 <metal_tty_putc>:
metal_tty_putc():
E:/GitHub/HiFive01-RevB/FS_workspace/sifive_hifive1_revb_sifive_welcome/freedom-metal/src/tty.c:12
int metal_tty_putc(int c) {
20017844:	1101                	addi	sp,sp,-32
20017846:	ce06                	sw	ra,28(sp)
20017848:	cc22                	sw	s0,24(sp)
2001784a:	1000                	addi	s0,sp,32
2001784c:	fea42623          	sw	a0,-20(s0)
E:/GitHub/HiFive01-RevB/FS_workspace/sifive_hifive1_revb_sifive_welcome/freedom-metal/src/tty.c:13
    return metal_uart_putc(__METAL_DT_STDOUT_UART_HANDLE, c);
20017850:	fec42583          	lw	a1,-20(s0)
20017854:	800017b7          	lui	a5,0x80001
20017858:	a4878513          	addi	a0,a5,-1464 # 80000a48 <metal_segment_heap_target_end+0xfffff2a8>
2001785c:	fd6ff0ef          	jal	ra,20017032 <metal_uart_putc>
20017860:	87aa                	mv	a5,a0
E:/GitHub/HiFive01-RevB/FS_workspace/sifive_hifive1_revb_sifive_welcome/freedom-metal/src/tty.c:14
}
20017862:	853e                	mv	a0,a5
20017864:	40f2                	lw	ra,28(sp)
20017866:	4462                	lw	s0,24(sp)
20017868:	6105                	addi	sp,sp,32
2001786a:	8082                	ret

2001786c <_exit>:
_exit():
E:/GitHub/HiFive01-RevB/FS_workspace/sifive_hifive1_revb_sifive_welcome/freedom-metal/gloss/sys_exit.c:3
#include <metal/shutdown.h>

void _exit(int exit_status) {
2001786c:	1101                	addi	sp,sp,-32
2001786e:	ce06                	sw	ra,28(sp)
20017870:	cc22                	sw	s0,24(sp)
20017872:	1000                	addi	s0,sp,32
20017874:	fea42623          	sw	a0,-20(s0)
E:/GitHub/HiFive01-RevB/FS_workspace/sifive_hifive1_revb_sifive_welcome/freedom-metal/gloss/sys_exit.c:4
    metal_shutdown(exit_status);
20017878:	fec42503          	lw	a0,-20(s0)
2001787c:	f7cff0ef          	jal	ra,20016ff8 <metal_shutdown>
