
E:/GitHub/HiFive01-RevB/FS_workspace/004_UART_TXRX/src/debug/sifive-welcome.elf:     file format elf32-littleriscv
E:/GitHub/HiFive01-RevB/FS_workspace/004_UART_TXRX/src/debug/sifive-welcome.elf
architecture: riscv:rv32, flags 0x00000112:
EXEC_P, HAS_SYMS, D_PAGED
start address 0x20010000

Program Header:
    LOAD off    0x00001000 vaddr 0x20010000 paddr 0x20010000 align 2**12
         filesz 0x00000f1c memsz 0x00000f1c flags rwx
    LOAD off    0x00008000 vaddr 0x80000000 paddr 0x200162b8 align 2**12
         filesz 0x00000ae0 memsz 0x00000ae0 flags rw-
     TLS off    0x00000000 vaddr 0x00000000 paddr 0x00000000 align 2**2
         filesz 0x00000000 memsz 0x00000000 flags ---
    LOAD off    0x00000ae0 vaddr 0x80000ae0 paddr 0x80000ae0 align 2**12
         filesz 0x00000000 memsz 0x00000ca0 flags rw-
    LOAD off    0x00000114 vaddr 0x00000000 paddr 0x00000000 align 2**12
         filesz 0x00000000 memsz 0x00000000 flags ---
    LOAD off    0x00001f80 vaddr 0x20010f80 paddr 0x20010f80 align 2**12
         filesz 0x00005332 memsz 0x00005332 flags r-x
    LOAD off    0x00000114 vaddr 0x00000000 paddr 0x00000000 align 2**12
         filesz 0x00000000 memsz 0x00000000 flags ---

Sections:
Idx Name              Size      VMA       LMA       File off  Algn  Flags
  0 .init             000002dc  20010000  20010000  00001000  2**4  CONTENTS, ALLOC, LOAD, READONLY, CODE
  1 .init_array       00000008  200102e0  200102e0  000012e0  2**3  CONTENTS, ALLOC, LOAD, DATA
  2 .ctors            00000056  200102e8  200102e8  000012e8  2**1  CONTENTS, ALLOC, LOAD, READONLY, CODE
  3 .rodata           00000bdc  20010340  20010340  00001340  2**2  CONTENTS, ALLOC, LOAD, READONLY, DATA
  4 .text             00005332  20010f80  20010f80  00001f80  2**7  CONTENTS, ALLOC, LOAD, READONLY, CODE
  5 .data             00000ae0  80000000  200162b8  00008000  2**3  CONTENTS, ALLOC, LOAD, DATA
  6 .bss              00000098  80000ae0  80000ae0  00008ae0  2**3  ALLOC
  7 .stack            00000400  80000b80  80000b80  00008ae0  2**4  ALLOC
  8 .heap             00000800  80000f80  80000f80  00008ae0  2**3  ALLOC
  9 .debug_info       0002414e  00000000  00000000  00008ae0  2**0  CONTENTS, READONLY, DEBUGGING, OCTETS
 10 .debug_abbrev     00002a1b  00000000  00000000  0002cc2e  2**0  CONTENTS, READONLY, DEBUGGING, OCTETS
 11 .debug_aranges    00000b78  00000000  00000000  0002f650  2**3  CONTENTS, READONLY, DEBUGGING, OCTETS
 12 .debug_ranges     000009e8  00000000  00000000  000301c8  2**3  CONTENTS, READONLY, DEBUGGING, OCTETS
 13 .debug_line       0000b2ad  00000000  00000000  00030bb0  2**0  CONTENTS, READONLY, DEBUGGING, OCTETS
 14 .debug_str        00004acd  00000000  00000000  0003be5d  2**0  CONTENTS, READONLY, DEBUGGING, OCTETS
 15 .comment          00000030  00000000  00000000  0004092a  2**0  CONTENTS, READONLY
 16 .riscv.attributes 0000002f  00000000  00000000  0004095a  2**0  CONTENTS, READONLY
 17 .debug_frame      00003044  00000000  00000000  0004098c  2**2  CONTENTS, READONLY, DEBUGGING, OCTETS
SYMBOL TABLE:
20010000 l    d  .init	00000000 .init
200102e0 l    d  .init_array	00000000 .init_array
200102e8 l    d  .ctors	00000000 .ctors
20010340 l    d  .rodata	00000000 .rodata
20010f80 l    d  .text	00000000 .text
80000000 l    d  .data	00000000 .data
80000ae0 l    d  .bss	00000000 .bss
80000b80 l    d  .stack	00000000 .stack
80000f80 l    d  .heap	00000000 .heap
00000000 l    d  .debug_info	00000000 .debug_info
00000000 l    d  .debug_abbrev	00000000 .debug_abbrev
00000000 l    d  .debug_aranges	00000000 .debug_aranges
00000000 l    d  .debug_ranges	00000000 .debug_ranges
00000000 l    d  .debug_line	00000000 .debug_line
00000000 l    d  .debug_str	00000000 .debug_str
00000000 l    d  .comment	00000000 .comment
00000000 l    d  .riscv.attributes	00000000 .riscv.attributes
00000000 l    d  .debug_frame	00000000 .debug_frame
00000000 l    df *ABS*	00000000 scrub.o
200100c0 l     F .init	00000000 __metal_memory_scrub
2001012e l       .init	00000000 skip_scrub
00000000 l    df *ABS*	00000000 synchronize_harts.c
00000000 l    df *ABS*	00000000 crt0.o
20010240 l       .init	00000000 _skip_init
20010ee0 l       .rodata	00000000 argv
20010ee4 l       .rodata	00000000 envp
20010ee8 l       .rodata	00000000 name
00000000 l    df *ABS*	00000000 sifive_fe310-g000_pll.c
20013c80 l     F .text	0000001a __metal_driver_sifive_fe310_g000_pll_pllsel0
20013c9a l     F .text	0000001a __metal_driver_sifive_fe310_g000_pll_pllref
20013cb4 l     F .text	00000016 __metal_driver_sifive_fe310_g000_pll_divider_base
20013cca l     F .text	00000014 __metal_driver_sifive_fe310_g000_pll_divider_offset
20013cde l     F .text	00000012 __metal_driver_sifive_fe310_g000_pll_config_base
20013cf0 l     F .text	00000010 __metal_driver_sifive_fe310_g000_pll_config_offset
20013d00 l     F .text	00000016 __metal_driver_sifive_fe310_g000_pll_init_rate
20013d16 l     F .text	00000012 __metal_driver_sifive_fe310_g000_prci_base
20013d28 l     F .text	00000016 __metal_driver_sifive_fe310_g000_prci_vtable
20010564 l     O .rodata	00000880 pll_configs
20013d3e l     F .text	0000004e get_pll_config_freq
20013fa0 l     F .text	000000aa find_closest_config
2001404a l     F .text	000001b0 configure_pll
00000000 l    df *ABS*	00000000 sifive-welcome.c
00000000 l    df *ABS*	00000000 riscv_clint0.c
200110ac l     F .text	0000002a __metal_driver_sifive_clint0_control_base
200110d6 l     F .text	00000028 __metal_driver_sifive_clint0_num_interrupts
200110fe l     F .text	0000003c __metal_driver_sifive_clint0_interrupt_parents
2001113a l     F .text	00000030 __metal_driver_sifive_clint0_interrupt_lines
2001129a l     F .text	00000036 _get_cpu_intc
00000000 l    df *ABS*	00000000 riscv_cpu.c
200117d6 l     F .text	00000024 __metal_driver_cpu_hartid
200117fa l     F .text	0000002a __metal_driver_cpu_timebase
20011824 l     F .text	0000002a __metal_driver_cpu_interrupt_controller
2001184e l     F .text	00000024 __metal_driver_cpu_buserror
00000000 l    df *ABS*	00000000 riscv_plic0.c
200131e2 l     F .text	0000002a __metal_driver_sifive_plic0_control_base
2001320c l     F .text	0000002a __metal_driver_sifive_plic0_num_interrupts
20013236 l     F .text	00000028 __metal_driver_sifive_plic0_max_priority
2001325e l     F .text	00000028 __metal_driver_sifive_plic0_interrupt_parents
20013286 l     F .text	00000022 __metal_driver_sifive_plic0_interrupt_lines
200132a8 l     F .text	0000001e __metal_driver_sifive_plic0_context_ids
00000000 l    df *ABS*	00000000 sifive_gpio-leds.c
200143d4 l     F .text	0000004a __metal_driver_sifive_gpio_led_gpio
2001441e l     F .text	00000044 __metal_driver_sifive_gpio_led_pin
20014462 l     F .text	0000005c __metal_driver_sifive_gpio_led_label
00000000 l    df *ABS*	00000000 sifive_gpio0.c
200145f4 l     F .text	00000026 __metal_driver_sifive_gpio0_base
2001461a l     F .text	0000002a __metal_driver_sifive_gpio0_interrupt_parent
20014644 l     F .text	0000035e __metal_driver_sifive_gpio0_interrupt_lines
00000000 l    df *ABS*	00000000 sifive_uart0.c
20015052 l     F .text	00000040 __metal_driver_sifive_uart0_control_base
20015092 l     F .text	00000048 __metal_driver_sifive_uart0_interrupt_parent
200150da l     F .text	0000003c __metal_driver_sifive_uart0_interrupt_line
20015116 l     F .text	00000048 __metal_driver_sifive_uart0_clock
2001515e l     F .text	00000040 __metal_driver_sifive_uart0_pinmux
2001519e l     F .text	0000003c __metal_driver_sifive_uart0_pinmux_output_selector
200151da l     F .text	00000040 __metal_driver_sifive_uart0_pinmux_source_selector
200155b0 l     F .text	000000da pre_rate_change_callback_func
2001568a l     F .text	0000002e post_rate_change_callback_func
00000000 l    df *ABS*	00000000 sifive_fe310-g000_hfrosc.c
20013a90 l     F .text	0000001a __metal_driver_sifive_fe310_g000_hfrosc_ref
20013aaa l     F .text	00000016 __metal_driver_sifive_fe310_g000_hfrosc_config_base
20013ac0 l     F .text	00000014 __metal_driver_sifive_fe310_g000_hfrosc_config_offset
20013ad4 l     F .text	00000016 __metal_driver_sifive_fe310_g000_prci_vtable
00000000 l    df *ABS*	00000000 sifive_fe310-g000_hfxosc.c
20013b90 l     F .text	0000001a __metal_driver_sifive_fe310_g000_hfxosc_ref
20013baa l     F .text	00000016 __metal_driver_sifive_fe310_g000_hfxosc_config_base
20013bc0 l     F .text	00000014 __metal_driver_sifive_fe310_g000_hfxosc_config_offset
20013bd4 l     F .text	00000016 __metal_driver_sifive_fe310_g000_prci_vtable
00000000 l    df *ABS*	00000000 sifive_fe310-g000_prci.c
2001435c l     F .text	00000012 __metal_driver_sifive_fe310_g000_prci_base
00000000 l    df *ABS*	00000000 fixed-clock.c
20015d80 l     F .text	00000070 __metal_driver_fixed_clock_rate
00000000 l    df *ABS*	00000000 impure.c
80000a4c l     O .data	00000060 impure_data
00000000 l    df *ABS*	00000000 strlen.c
00000000 l    df *ABS*	00000000 clock.c
00000000 l    df *ABS*	00000000 cpu.c
00000000 l    df *ABS*	00000000 gpio.c
00000000 l    df *ABS*	00000000 led.c
00000000 l    df *ABS*	00000000 shutdown.c
00000000 l    df *ABS*	00000000 uart.c
00000000 l    df *ABS*	00000000 vector.o
20015d00 l       .text	00000000 IRQ_0
20015d04 l       .text	00000000 IRQ_1
20015d08 l       .text	00000000 IRQ_2
20015d0c l       .text	00000000 IRQ_3
20015d10 l       .text	00000000 IRQ_4
20015d14 l       .text	00000000 IRQ_5
20015d18 l       .text	00000000 IRQ_6
20015d1c l       .text	00000000 IRQ_7
20015d20 l       .text	00000000 IRQ_8
20015d24 l       .text	00000000 IRQ_9
20015d28 l       .text	00000000 IRQ_10
20015d2c l       .text	00000000 IRQ_11
20015d30 l       .text	00000000 IRQ_12
20015d34 l       .text	00000000 IRQ_13
20015d38 l       .text	00000000 IRQ_14
20015d3c l       .text	00000000 IRQ_15
20015d40 l       .text	00000000 IRQ_LC0
20015d44 l       .text	00000000 IRQ_LC1
20015d48 l       .text	00000000 IRQ_LC2
20015d4c l       .text	00000000 IRQ_LC3
20015d50 l       .text	00000000 IRQ_LC4
20015d54 l       .text	00000000 IRQ_LC5
20015d58 l       .text	00000000 IRQ_LC6
20015d5c l       .text	00000000 IRQ_LC7
20015d60 l       .text	00000000 IRQ_LC8
20015d64 l       .text	00000000 IRQ_LC9
20015d68 l       .text	00000000 IRQ_LC10
20015d6c l       .text	00000000 IRQ_LC11
20015d70 l       .text	00000000 IRQ_LC12
20015d74 l       .text	00000000 IRQ_LC13
20015d78 l       .text	00000000 IRQ_LC14
20015d7c l       .text	00000000 IRQ_LC15
00000000 l    df *ABS*	00000000 atexit.c
00000000 l    df *ABS*	00000000 exit.c
00000000 l    df *ABS*	00000000 fini.c
00000000 l    df *ABS*	00000000 init.c
00000000 l    df *ABS*	00000000 strcat.c
00000000 l    df *ABS*	00000000 strcpy.c
00000000 l    df *ABS*	00000000 __atexit.c
80000aec l     O .bss	0000008c _global_atexit0
00000000 l    df *ABS*	00000000 __call_atexit.c
00000000 l    df *ABS*	00000000 init.c
80000ae4 l     O .bss	00000004 init_done.1
80000ae8 l     O .bss	00000004 fini_done.0
00000000 l    df *ABS*	00000000 sys_exit.c
00000000 l    df *ABS*	00000000 inline.c
00000000 l    df *ABS*	00000000 
200102e8 l       .init_array	00000000 metal_constructors_end
200102e8 l       .init_array	00000000 __fini_array_end
200102e8 l       .init_array	00000000 metal_destructors_end
200102e8 l       .init_array	00000000 metal_destructors_start
200102e8 l       .init_array	00000000 __fini_array_start
200102e0 l       .init_array	00000000 __init_array_end
200102e0 l       .init_array	00000000 __preinit_array_end
200102e0 l       .init_array	00000000 __init_array_start
200102e0 l       .init_array	00000000 metal_constructors_start
200102e0 l       .init_array	00000000 __preinit_array_start
20010ea0 g     O .rodata	00000040 __metal_driver_vtable_sifive_uart0
200144be g     F .text	00000036 __metal_driver_led_exist
20016030 g     F .text	00000012 strcpy
200120ce  w    F .text	00000096 metal_lc4_interrupt_vector_handler
2001581e g     F .text	00000026 metal_clock_get_rate_hz
20015510 g     F .text	000000a0 __metal_driver_sifive_uart0_set_baud_rate
20011476 g     F .text	00000058 __metal_driver_riscv_clint0_set_vector_mode
20015366 g     F .text	0000004a __metal_driver_sifive_uart0_set_tx_watermark
20012038  w    F .text	00000096 metal_lc3_interrupt_vector_handler
200128e0 g     F .text	00000058 __metal_valid_interrupt_id
20015a42 g     F .text	00000040 metal_gpio_toggle_pin
800012b0 g       .data	00000000 __global_pointer$
200102e4 g     O .init_array	00000004 _use_hfxosc_ptr
20012d58 g     F .text	0000001a __metal_driver_riscv_cpu_controller_get_vector_mode
20015aca g     F .text	00000024 metal_led_off
200157ca g     F .text	00000054 _metal_clock_append_to_callbacks
20013302 g     F .text	00000046 __metal_plic0_complete_interrupt
20012b24 g     F .text	000001e0 __metal_driver_riscv_cpu_controller_interrupt_register
200102e0 g     O .init_array	00000004 _metal_sifive_fe310_g000_pll_init_ptr
20010e10 g     O .rodata	00000014 __metal_driver_vtable_sifive_led
80000ae0 g       .data	00000000 __tls_base
20015c0e g     F .text	0000002e metal_uart_getc
20015912 g     F .text	0000002e metal_cpu_get
20015aa6 g     F .text	00000024 metal_led_on
800009e8 g     O .data	00000020 __metal_dt_serial_10013000
20014c2c g     F .text	0000004a __metal_driver_sifive_gpio0_disable_io
20010374 g     O .rodata	00000064 __metal_driver_vtable_riscv_clint0
80000b78 g       .bss	00000000 metal_segment_bss_target_end
2001116a g     F .text	0000009a __metal_clint0_mtime_get
20013156 g     F .text	0000002e __metal_driver_cpu_get_instruction_length
00000001 g       *ABS*	00000000 __metal_chicken_bit
2001542a g     F .text	00000030 __metal_driver_sifive_uart0_get_rx_watermark
200149e2 g     F .text	00000046 __metal_driver_sifive_gpio0_disable_input
08000000 g       .rodata	00000000 metal_segment_itim_target_start
20015336 g     F .text	00000030 __metal_driver_sifive_uart0_txready
200152c4 g     F .text	0000003a __metal_driver_sifive_uart0_rx_interrupt_enable
2001599a g     F .text	00000040 metal_gpio_enable_output
20010142 g     F .init	0000000e __metal_synchronize_harts
80000ae0 g       .data	00000000 metal_segment_bss_target_start
20011204 g     F .text	00000096 __metal_driver_riscv_clint0_mtimecmp_set
20014e7c g     F .text	00000188 __metal_driver_sifive_gpio0_clear_int
20013e30 g     F .text	00000170 __metal_driver_sifive_fe310_g000_pll_get_rate_hz
00000400 g       *ABS*	00000000 __stack_size
2001588c g     F .text	00000030 metal_clock_register_pre_rate_change_callback
2001453c g     F .text	0000003e __metal_driver_led_on
200123bc  w    F .text	00000096 metal_lc9_interrupt_vector_handler
200100cc  w    F .init	00000000 __metal_before_start
20016276  w    F .text	00000014 metal_init_run
80000a08 g     O .data	00000020 __metal_dt_serial_10023000
20010500 g     O .rodata	00000064 __metal_driver_vtable_riscv_plic0
200104bc g     O .rodata	00000044 __metal_driver_vtable_cpu
20015c3c g     F .text	0000002e metal_uart_set_baud_rate
200156b8 g     F .text	000000d0 __metal_driver_sifive_uart0_init
00000000 g       *ABS*	00000000 __metal_eccscrub_bit
20012dde g     F .text	00000070 __metal_driver_cpu_mcycle_get
20010de4 g     O .rodata	0000000c __metal_driver_vtable_sifive_fe310_g000_pll
80000ac4 g     O .data	00000008 __metal_dt_cpu_0
20012326  w    F .text	00000096 metal_lc8_interrupt_vector_handler
200141fa g     F .text	00000162 __metal_driver_sifive_fe310_g000_pll_set_rate_hz
200139f4 g     F .text	00000074 __metal_driver_riscv_plic0_affinity_set_threshold
20012614  w    F .text	00000096 metal_lc13_interrupt_vector_handler
200159da g     F .text	00000068 metal_gpio_set_pin
20015c6a g     F .text	00000032 metal_uart_get_device
200119e0 g     F .text	00000018 __metal_default_exception_handler
200117a2 g     F .text	00000034 __metal_driver_riscv_clint0_set_interrupt
20012d72 g     F .text	00000050 __metal_driver_riscv_cpu_controller_set_vector_mode
20011872 g     F .text	00000030 __metal_driver_cpu_get
20010458 g     O .rodata	00000064 __metal_driver_vtable_riscv_cpu_intc
200118d4 g     F .text	00000018 __metal_interrupt_global_disable
20013a68 g     F .text	00000028 __metal_driver_riscv_plic0_affinity_get_threshold
20015a82 g     F .text	00000024 metal_led_enable
20012290  w    F .text	00000096 metal_lc7_interrupt_vector_handler
20012452  w    F .text	00000096 metal_lc10_interrupt_vector_handler
20013818 g     F .text	0000004e __metal_driver_riscv_plic0_disable
200129f4 g     F .text	0000004e __metal_exception_register
20015aee g     F .text	00000092 metal_led_get_rgb
20016186 g     F .text	00000078 metal_init
20012f70 g     F .text	0000001a __metal_driver_cpu_timer_controller_interrupt
20014ac4 g     F .text	00000040 __metal_driver_sifive_gpio0_enable_output
80000000 g       .rodata	00000000 metal_segment_lim_target_end
20011ad0 g     F .text	00000068 __metal_default_sw_handler
200158bc g     F .text	00000030 metal_clock_register_post_rate_change_callback
80000018 g     O .data	0000000c __metal_dt_clock_2
2001521a g     F .text	0000001e __metal_driver_sifive_uart0_interrupt_controller
20014b8a g     F .text	00000040 __metal_driver_sifive_gpio0_output_toggle
20015256 g     F .text	00000038 __metal_driver_sifive_uart0_tx_interrupt_enable
20010f10 g     O .rodata	00000008 __metal_driver_vtable_fixed_clock
80000ab4  w    O .data	00000008 __metal_uart_table
20010f18 g     O .rodata	00000004 _global_impure_ptr
20011b38  w    F .text	00000092 metal_timer_interrupt_vector_handler
20015e98 g     F .text	0000005e __libc_init_array
2001457a g     F .text	0000003e __metal_driver_led_off
80000ad8 g     O .data	00000004 __metal_dt_led_2
20014b04 g     F .text	00000040 __metal_driver_sifive_gpio0_output_set
200124e8  w    F .text	00000096 metal_lc11_interrupt_vector_handler
20013c5e g     F .text	00000022 __metal_driver_sifive_fe310_g000_hfxosc_set_rate_hz
20012d04 g     F .text	0000002a __metal_driver_riscv_cpu_controller_interrupt_enable
20014a7e g     F .text	00000046 __metal_driver_sifive_gpio0_disable_output
20015788 g     F .text	00000042 _metal_clock_call_all_callbacks
200102ba g     F .init	00000002 _init
20011936 g     F .text	0000001a __metal_interrupt_timer_disable
20014c76 g     F .text	00000206 __metal_driver_sifive_gpio0_config_int
2001302e g     F .text	00000062 __metal_driver_cpu_clear_sw_ipi
20010e64 g     O .rodata	0000003c __metal_driver_vtable_sifive_gpio0
2001528e g     F .text	00000036 __metal_driver_sifive_uart0_tx_interrupt_disable
20014bca g     F .text	00000062 __metal_driver_sifive_gpio0_enable_io
20015e62 g     F .text	00000036 __libc_fini_array
80000a40 g     O .data	0000000c __metal_dt_clock_4
200161fe g     F .text	00000078 metal_fini
20015004 g     F .text	00000020 __metal_driver_gpio_interrupt_controller
20012fb8 g     F .text	00000014 __metal_driver_cpu_get_sw_interrupt_id
200131c2 g     F .text	00000020 __metal_driver_cpu_get_buserror
80000000 g       .data	00000000 metal_segment_data_target_start
20011988 g     F .text	0000002c __metal_interrupt_local_enable
2001176e g     F .text	00000034 __metal_driver_riscv_clint0_clear_interrupt
20013500 g     F .text	00000018 __metal_plic0_default_handler
00000000 g       *ABS*	00000000 __tbss_size
8000000c g     O .data	0000000c __metal_dt_clock_0
20015ef6 g     F .text	0000001c strcat
00000800 g       *ABS*	00000000 __heap_size
20013866 g     F .text	00000030 __metal_driver_riscv_plic0_set_threshold
20011bca g     F .text	00000016 __metal_default_beu_handler
2001196c g     F .text	0000001c __metal_interrupt_external_disable
20015238 g     F .text	0000001e __metal_driver_sifive_uart0_get_interrupt_id
20012dc2 g     F .text	0000001c __metal_driver_riscv_cpu_controller_command_request
20015be8 g     F .text	00000026 metal_uart_txready
20012a42 g     F .text	000000e2 __metal_driver_riscv_cpu_controller_interrupt_init
20013110 g     F .text	00000046 __metal_driver_cpu_exception_register
200118ec g     F .text	00000018 __metal_interrupt_software_enable
20011f0c  w    F .text	00000096 metal_lc1_interrupt_vector_handler
80000ae0 g     O .bss	00000004 _global_atexit
200133c8 g     F .text	00000062 __metal_driver_riscv_plic0_set_priority
200127d6 g     F .text	00000058 __metal_controller_interrupt_vector_mode
200160be g     F .text	000000c8 __call_exitprocs
80000f80 g       .stack	00000000 _sp
20010150 g     F .init	00000000 _start
20013aea g     F .text	00000084 __metal_driver_sifive_fe310_g000_hfrosc_get_rate_hz
200130f0 g     F .text	00000020 __metal_driver_cpu_controller_interrupt
20013184 g     F .text	0000001e __metal_driver_cpu_get_exception_pc
20011950 g     F .text	0000001c __metal_interrupt_external_enable
20016042 g     F .text	0000007c __register_exitproc
2001545a g     F .text	00000040 __metal_driver_sifive_uart0_putc
200135bc g     F .text	00000150 __metal_driver_riscv_plic0_init
200137ca g     F .text	0000004e __metal_driver_riscv_plic0_enable
20014a52 g     F .text	0000002c __metal_driver_sifive_gpio0_output
200121fa  w    F .text	00000096 metal_lc6_interrupt_vector_handler
200118a2 g     F .text	0000001a __metal_myhart_id
20015024 g     F .text	0000002e __metal_driver_gpio_get_interrupt_id
20011a3e  w    F .text	00000092 metal_software_interrupt_vector_handler
20012d2e g     F .text	0000002a __metal_driver_riscv_cpu_controller_interrupt_disable
200154f0 g     F .text	00000020 __metal_driver_sifive_uart0_get_baud_rate
20011358 g     F .text	000000da __metal_driver_riscv_clint0_register
2001595a g     F .text	00000040 metal_gpio_disable_input
80000abc g     O .data	00000008 __metal_dt_clint_2000000
20015844 g     F .text	00000048 metal_clock_set_rate_hz
200149a2 g     F .text	00000040 __metal_driver_sifive_gpio0_enable_input
200102bc  w    F .init	00000000 secondary_main
20011a10  w    F .text	0000002e metal_interrupt_vector_handler
200152fe g     F .text	00000038 __metal_driver_sifive_uart0_rx_interrupt_disable
2001338e g     F .text	0000003a __metal_plic0_get_threshold
2001436e g     F .text	0000002e __metal_driver_sifive_fe310_g000_prci_get_reg
20012938 g     F .text	000000bc __metal_local_interrupt_enable
20011632 g     F .text	0000013c __metal_driver_riscv_clint0_command_request
20012164  w    F .text	00000096 metal_lc5_interrupt_vector_handler
20010f80 g     F .text	000000d2 main
80000ae0 g       .data	00000000 metal_segment_data_target_end
200153e0 g     F .text	0000004a __metal_driver_sifive_uart0_set_rx_watermark
20010ef8 g     O .rodata	00000008 __metal_driver_vtable_sifive_fe310_g000_hfrosc
20012fcc g     F .text	00000062 __metal_driver_cpu_set_sw_ipi
20013090 g     F .text	00000060 __metal_driver_cpu_get_msip
20015b80 g     F .text	0000000e metal_shutdown
08000000 g       .rodata	00000000 metal_segment_itim_target_end
200131a2 g     F .text	00000020 __metal_driver_cpu_set_exception_pc
200145b8 g     F .text	0000003c __metal_driver_led_toggle
200132c6 g     F .text	0000003c __metal_plic0_claim_interrupt
200153b0 g     F .text	00000030 __metal_driver_sifive_uart0_get_tx_watermark
80000000  w    O .data	0000000c __metal_led_table
2001257e  w    F .text	00000096 metal_lc12_interrupt_vector_handler
2001008a g     F .init	00000000 metal_mem_scrub
80000ad4 g     O .data	00000004 __metal_dt_led_1
2001145a g     F .text	0000001c __metal_driver_riscv_clint0_get_vector_mode
200144f4 g     F .text	00000048 __metal_driver_led_enable
80000adc g     O .data	00000004 __metal_dt_prci_10008000
20012e4e g     F .text	00000046 __metal_driver_cpu_timebase_get
20013958 g     F .text	0000009c __metal_driver_riscv_plic0_affinity_disable
20010000 g       .init	00000000 _enter
20015940 g     F .text	0000001a metal_cpu_get_current_hartid
20015f12 g     F .text	0000011e strcmp
20013bea g     F .text	00000074 __metal_driver_sifive_fe310_g000_hfxosc_get_rate_hz
20015d00 g       .text	00000000 __metal_vector_table
20010f20 g       *ABS*	00000000 metal_segment_itim_source_start
80000ab0  w    O .data	00000004 __metal_cpu_table
20011052 g     F .text	00000048 delay
80000040 g     O .data	000003d0 __metal_dt_cpu_0_interrupt_controller
200102ba g     F .init	00000002 _fini
80000000 g       .rodata	00000000 metal_segment_lim_target_start
2001342a g     F .text	00000034 __metal_driver_riscv_plic0_get_priority
20010314 g     F .ctors	0000002a use_hfxosc
200118bc g     F .text	00000018 __metal_interrupt_global_enable
20015e30 g     F .text	0000000a atexit
2001191c g     F .text	0000001a __metal_interrupt_timer_enable
2001549a g     F .text	00000056 __metal_driver_sifive_uart0_getc
20011580 g     F .text	000000b2 __metal_driver_riscv_clint0_disable
20012efa g     F .text	00000076 __metal_driver_cpu_mtimecmp_set
20013896 g     F .text	00000028 __metal_driver_riscv_plic0_get_threshold
20013d8c g     F .text	000000a4 __metal_driver_sifive_fe310_g000_pll_init
80000024 g     O .data	0000000c __metal_dt_clock_5
2001439c g     F .text	00000038 __metal_driver_sifive_fe310_g000_prci_set_reg
20015df0 g     F .text	0000001e __metal_driver_fixed_clock_get_rate_hz
200114ce g     F .text	000000b2 __metal_driver_riscv_clint0_enable
200162b8 g       *ABS*	00000000 metal_segment_data_source_start
20010134 g       .init	00000000 early_trap_vector
2001282e g     F .text	000000b2 __metal_controller_interrupt_vector
80000a34 g     O .data	0000000c __metal_dt_clock_1
80000410 g     O .data	000005d8 __metal_dt_interrupt_controller_c000000
20014b44 g     F .text	00000046 __metal_driver_sifive_gpio0_output_clear
20011be0 g     F .text	00000066 __metal_default_timer_handler
20013518 g     F .text	000000a4 __metal_plic0_handler
20011fa2  w    F .text	00000096 metal_lc2_interrupt_vector_handler
20012740  w    F .text	00000096 metal_lc15_interrupt_vector_handler
200158ec g     F .text	00000026 metal_cpu_interrupt_controller
20015e3a g     F .text	00000028 exit
20015e0e g     F .text	00000022 __metal_driver_fixed_clock_set_rate_hz
20010f20 g       *ABS*	00000000 metal_segment_lim_source_start
80000acc g     O .data	00000004 __metal_dt_gpio_10012000
200119f8 g     F .text	00000018 __metal_default_interrupt_handler
20015bba g     F .text	0000002e metal_uart_putc
2001628a  w    F .text	00000014 metal_fini_run
20014a28 g     F .text	0000002a __metal_driver_sifive_gpio0_input
20011c80 g     F .text	0000017c __metal_exception_handler
20011e76  w    F .text	00000096 metal_lc0_interrupt_vector_handler
2001629e g     F .text	00000014 _exit
20012e94 g     F .text	00000066 __metal_driver_cpu_mtime_get
20011432 g     F .text	00000028 __metal_driver_riscv_clint0_vector_register
2001109a g     F .text	00000012 strlen
200126aa  w    F .text	00000096 metal_lc14_interrupt_vector_handler
20010f00 g     O .rodata	00000008 __metal_driver_vtable_sifive_fe310_g000_hfxosc
200112d0 g     F .text	00000088 __metal_driver_riscv_clint0_init
200102e8 g     F .ctors	0000002c metal_sifive_fe310_g000_pll_init
20012f8a g     F .text	00000014 __metal_driver_cpu_get_timer_interrupt_id
2001345e g     F .text	000000a2 __metal_plic0_enable
20010088  w      .init	00000000 __register_frame_info
20013b6e g     F .text	00000022 __metal_driver_sifive_fe310_g000_hfrosc_set_rate_hz
20012f9e g     F .text	0000001a __metal_driver_cpu_sw_controller_interrupt
200119b4 g     F .text	0000002c __metal_interrupt_local_disable
20011904 g     F .text	00000018 __metal_interrupt_software_disable
20015b8e g     F .text	0000002c metal_uart_init
80000a28 g     O .data	0000000c __metal_dt_clock_3
80000030 g     O .data	0000000c __metal_dt_clock_6
20013348 g     F .text	00000046 __metal_plic0_set_threshold
80000ad0 g     O .data	00000004 __metal_dt_led_0
200138be g     F .text	0000009a __metal_driver_riscv_plic0_affinity_enable
20010f08 g     O .rodata	00000008 __metal_driver_vtable_sifive_fe310_g000_prci
00000000 g       *ABS*	00000000 __metal_boot_hart
2001370c g     F .text	000000be __metal_driver_riscv_plic0_register



Disassembly of section .init:

20010000 <_enter>:
_enter():
E:/GitHub/HiFive01-RevB/FS_workspace/004_UART_TXRX/freedom-metal/src/entry.S:24
     * it's not valid to obtain the address of any symbol without GP
     * configured.  The C environment might go ahead and do this again, but
     * that's safe as it's a fixed register. */
.option push
.option norelax
    la gp, __global_pointer$
20010000:	5fff1197          	auipc	gp,0x5fff1
20010004:	2b018193          	addi	gp,gp,688 # 800012b0 <__global_pointer$>
E:/GitHub/HiFive01-RevB/FS_workspace/004_UART_TXRX/freedom-metal/src/entry.S:28
.option pop

    /* trap over the chicken bit register clearing, aloe & fe310 dont have it */
    la t0, 1f
20010008:	00000297          	auipc	t0,0x0
2001000c:	01828293          	addi	t0,t0,24 # 20010020 <_enter+0x20>
E:/GitHub/HiFive01-RevB/FS_workspace/004_UART_TXRX/freedom-metal/src/entry.S:29
    csrw mtvec, t0
20010010:	30529073          	csrw	mtvec,t0
E:/GitHub/HiFive01-RevB/FS_workspace/004_UART_TXRX/freedom-metal/src/entry.S:31
    /* chicken bit is enable if core are sifive series. */
    la t0, __metal_chicken_bit
20010014:	00100293          	li	t0,1
E:/GitHub/HiFive01-RevB/FS_workspace/004_UART_TXRX/freedom-metal/src/entry.S:32
    beqz t0, 1f
20010018:	00028463          	beqz	t0,20010020 <_enter+0x20>
E:/GitHub/HiFive01-RevB/FS_workspace/004_UART_TXRX/freedom-metal/src/entry.S:34
    /* If set, always clear the feature disable register for all cores series */
    csrwi 0x7C1, 0
2001001c:	7c105073          	csrwi	0x7c1,0
E:/GitHub/HiFive01-RevB/FS_workspace/004_UART_TXRX/freedom-metal/src/entry.S:39
.align 4
1:
    /* Set up a simple trap vector to catch anything that goes wrong early in
     * the boot process. */
    la t0, early_trap_vector
20010020:	00000297          	auipc	t0,0x0
20010024:	11428293          	addi	t0,t0,276 # 20010134 <early_trap_vector>
E:/GitHub/HiFive01-RevB/FS_workspace/004_UART_TXRX/freedom-metal/src/entry.S:40
    csrw mtvec, t0
20010028:	30529073          	csrw	mtvec,t0
E:/GitHub/HiFive01-RevB/FS_workspace/004_UART_TXRX/freedom-metal/src/entry.S:48
     * C, so here we set up a C environment. First we set up a stack pointer,
     * which is left as a weak reference in order to allow initialization
     * routines that do not need a stack to be set up to transparently be
     * called. */
    .weak __metal_stack_pointer
    la sp, __metal_stack_pointer
2001002c:	00000113          	li	sp,0
E:/GitHub/HiFive01-RevB/FS_workspace/004_UART_TXRX/freedom-metal/src/entry.S:55
   /* The METAL is designed for a bare-metal environment and therefore is expected
    * to define its own stack pointer. We also align the stack pointer here
    * because the only RISC-V ABI that's currently defined, mandates 16-byte
    * stack alignment. */

    bne sp, zero, 1f
20010030:	00011463          	bnez	sp,20010038 <_enter+0x38>
E:/GitHub/HiFive01-RevB/FS_workspace/004_UART_TXRX/freedom-metal/src/entry.S:56
    la sp, _sp
20010034:	cd018113          	addi	sp,gp,-816 # 80000f80 <_sp>
E:/GitHub/HiFive01-RevB/FS_workspace/004_UART_TXRX/freedom-metal/src/entry.S:59
1:
    /* Increment by hartid number of stack sizes */
    csrr a0, mhartid
20010038:	f1402573          	csrr	a0,mhartid
E:/GitHub/HiFive01-RevB/FS_workspace/004_UART_TXRX/freedom-metal/src/entry.S:60
    li t0, 0
2001003c:	4281                	li	t0,0
E:/GitHub/HiFive01-RevB/FS_workspace/004_UART_TXRX/freedom-metal/src/entry.S:61
    la t1, __stack_size
2001003e:	40000313          	li	t1,1024
E:/GitHub/HiFive01-RevB/FS_workspace/004_UART_TXRX/freedom-metal/src/entry.S:63
1:
    andi sp, sp, -16
20010042:	ff017113          	andi	sp,sp,-16
E:/GitHub/HiFive01-RevB/FS_workspace/004_UART_TXRX/freedom-metal/src/entry.S:64
    beq t0, a0, 1f
20010046:	00a28563          	beq	t0,a0,20010050 <_enter+0x50>
E:/GitHub/HiFive01-RevB/FS_workspace/004_UART_TXRX/freedom-metal/src/entry.S:65
    add sp, sp, t1
2001004a:	911a                	add	sp,sp,t1
E:/GitHub/HiFive01-RevB/FS_workspace/004_UART_TXRX/freedom-metal/src/entry.S:66
    addi t0, t0, 1
2001004c:	0285                	addi	t0,t0,1
E:/GitHub/HiFive01-RevB/FS_workspace/004_UART_TXRX/freedom-metal/src/entry.S:67
    j 1b
2001004e:	bfd5                	j	20010042 <_enter+0x42>
E:/GitHub/HiFive01-RevB/FS_workspace/004_UART_TXRX/freedom-metal/src/entry.S:76
     * just skip over the call entirely.   Note that __metal_initialize isn't
     * actually a full C function, as it doesn't end up with the .bss or .data
     * segments having been initialized.  This is done to avoid putting a
     * burden on systems that can be initialized without having a C environment
     * set up. */
    la ra, __metal_before_start
20010050:	00000097          	auipc	ra,0x0
20010054:	07c08093          	addi	ra,ra,124 # 200100cc <__metal_before_start>
E:/GitHub/HiFive01-RevB/FS_workspace/004_UART_TXRX/freedom-metal/src/entry.S:77
    beqz ra, 1f
20010058:	00008363          	beqz	ra,2001005e <_enter+0x5e>
E:/GitHub/HiFive01-RevB/FS_workspace/004_UART_TXRX/freedom-metal/src/entry.S:78
    jalr ra
2001005c:	9082                	jalr	ra
E:/GitHub/HiFive01-RevB/FS_workspace/004_UART_TXRX/freedom-metal/src/entry.S:84
1:

    /* At this point we can enter the C runtime's startup file.  The arguments
     * to this function are designed to match those provided to the SEE, just
     * so we don't have to write another ABI. */
    csrr a0, mhartid
2001005e:	f1402573          	csrr	a0,mhartid
E:/GitHub/HiFive01-RevB/FS_workspace/004_UART_TXRX/freedom-metal/src/entry.S:85
    li a1, 0
20010062:	4581                	li	a1,0
E:/GitHub/HiFive01-RevB/FS_workspace/004_UART_TXRX/freedom-metal/src/entry.S:86
    li a2, 0
20010064:	4601                	li	a2,0
E:/GitHub/HiFive01-RevB/FS_workspace/004_UART_TXRX/freedom-metal/src/entry.S:87
    call _start
20010066:	20ed                	jal	20010150 <_start>
E:/GitHub/HiFive01-RevB/FS_workspace/004_UART_TXRX/freedom-metal/src/entry.S:92

    /* If we've made it back here then there's probably something wrong.  We
     * allow the METAL to register a handler here. */
    .weak __metal_after_main
    la ra, __metal_after_main
20010068:	00000093          	li	ra,0
E:/GitHub/HiFive01-RevB/FS_workspace/004_UART_TXRX/freedom-metal/src/entry.S:93
    beqz ra, 1f
2001006c:	00008363          	beqz	ra,20010072 <_enter+0x72>
E:/GitHub/HiFive01-RevB/FS_workspace/004_UART_TXRX/freedom-metal/src/entry.S:94
    jalr ra
20010070:	9082                	jalr	ra
E:/GitHub/HiFive01-RevB/FS_workspace/004_UART_TXRX/freedom-metal/src/entry.S:99
1:

    /* If that handler returns then there's not a whole lot we can do.  Just
     * try to make some noise. */
     la t0, 1f
20010072:	00000297          	auipc	t0,0x0
20010076:	00c28293          	addi	t0,t0,12 # 2001007e <_enter+0x7e>
E:/GitHub/HiFive01-RevB/FS_workspace/004_UART_TXRX/freedom-metal/src/entry.S:100
     csrw mtvec, t0
2001007a:	30529073          	csrw	mtvec,t0
E:/GitHub/HiFive01-RevB/FS_workspace/004_UART_TXRX/freedom-metal/src/entry.S:102
1:
     lw t1, 0(x0)
2001007e:	00002303          	lw	t1,0(zero) # 0 <__metal_boot_hart>
E:/GitHub/HiFive01-RevB/FS_workspace/004_UART_TXRX/freedom-metal/src/entry.S:103
     j 1b
20010082:	bff5                	j	2001007e <_enter+0x7e>
20010084:	0000                	unimp
	...

20010088 <__register_frame_info>:
__register_frame_info():
E:/GitHub/HiFive01-RevB/FS_workspace/004_UART_TXRX/freedom-metal/src/entry.S:117
.weak __register_frame_info
.global __register_frame_info
.section .text.metal.init.__register_frame_info
__register_frame_info:
    .cfi_startproc
    ret
20010088:	8082                	ret

2001008a <metal_mem_scrub>:
metal_mem_scrub():
E:/GitHub/HiFive01-RevB/FS_workspace/004_UART_TXRX/freedom-metal/src/scrub.S:24
.type metal_mem_scrub, @function
metal_mem_scrub:

    /* Disable machine interrupts,
    restore previous mstatus value at exit */
    li      a3, 8
2001008a:	46a1                	li	a3,8
E:/GitHub/HiFive01-RevB/FS_workspace/004_UART_TXRX/freedom-metal/src/scrub.S:25
    csrrc   t1, mstatus, a3
2001008c:	3006b373          	csrrc	t1,mstatus,a3
E:/GitHub/HiFive01-RevB/FS_workspace/004_UART_TXRX/freedom-metal/src/scrub.S:28

#if __riscv_xlen == 32
    addi    t0, x0, 4
20010090:	4291                	li	t0,4
E:/GitHub/HiFive01-RevB/FS_workspace/004_UART_TXRX/freedom-metal/src/scrub.S:30
1:
    blt     a1, t0, 2f
20010092:	0055c563          	blt	a1,t0,2001009c <metal_mem_scrub+0x12>
E:/GitHub/HiFive01-RevB/FS_workspace/004_UART_TXRX/freedom-metal/src/scrub.S:31
    andi    a2, a0, 3
20010096:	00357613          	andi	a2,a0,3
E:/GitHub/HiFive01-RevB/FS_workspace/004_UART_TXRX/freedom-metal/src/scrub.S:32
    beqz    a2, 3f
2001009a:	ca11                	beqz	a2,200100ae <metal_mem_scrub+0x24>
E:/GitHub/HiFive01-RevB/FS_workspace/004_UART_TXRX/freedom-metal/src/scrub.S:34
2:
    sb      x0, 0(a0)
2001009c:	00050023          	sb	zero,0(a0)
E:/GitHub/HiFive01-RevB/FS_workspace/004_UART_TXRX/freedom-metal/src/scrub.S:35
    addi    a0, a0, 1
200100a0:	0505                	addi	a0,a0,1
E:/GitHub/HiFive01-RevB/FS_workspace/004_UART_TXRX/freedom-metal/src/scrub.S:36
    addi    a1, a1, -1
200100a2:	15fd                	addi	a1,a1,-1
E:/GitHub/HiFive01-RevB/FS_workspace/004_UART_TXRX/freedom-metal/src/scrub.S:37
    bgtz    a1, 1b
200100a4:	feb047e3          	bgtz	a1,20010092 <metal_mem_scrub+0x8>
E:/GitHub/HiFive01-RevB/FS_workspace/004_UART_TXRX/freedom-metal/src/scrub.S:38
    csrw    mstatus, t1
200100a8:	30031073          	csrw	mstatus,t1
E:/GitHub/HiFive01-RevB/FS_workspace/004_UART_TXRX/freedom-metal/src/scrub.S:39
    ret
200100ac:	8082                	ret
E:/GitHub/HiFive01-RevB/FS_workspace/004_UART_TXRX/freedom-metal/src/scrub.S:41
3:
    sw      x0, 0(a0)
200100ae:	00052023          	sw	zero,0(a0)
E:/GitHub/HiFive01-RevB/FS_workspace/004_UART_TXRX/freedom-metal/src/scrub.S:42
    addi    a0, a0, 4
200100b2:	0511                	addi	a0,a0,4
E:/GitHub/HiFive01-RevB/FS_workspace/004_UART_TXRX/freedom-metal/src/scrub.S:43
    addi    a1, a1, -4
200100b4:	15f1                	addi	a1,a1,-4
E:/GitHub/HiFive01-RevB/FS_workspace/004_UART_TXRX/freedom-metal/src/scrub.S:44
    bgtz    a1, 1b
200100b6:	fcb04ee3          	bgtz	a1,20010092 <metal_mem_scrub+0x8>
E:/GitHub/HiFive01-RevB/FS_workspace/004_UART_TXRX/freedom-metal/src/scrub.S:45
    csrw    mstatus, t1
200100ba:	30031073          	csrw	mstatus,t1
E:/GitHub/HiFive01-RevB/FS_workspace/004_UART_TXRX/freedom-metal/src/scrub.S:46
    ret
200100be:	8082                	ret

200100c0 <__metal_memory_scrub>:
__metal_memory_scrub():
E:/GitHub/HiFive01-RevB/FS_workspace/004_UART_TXRX/freedom-metal/src/scrub.S:74
.type __metal_memory_scrub, @function
__metal_memory_scrub:
/* Zero out specified memory regions */
1:
#if __riscv_xlen == 32
    sw      x0, 0(t1)
200100c0:	00032023          	sw	zero,0(t1)
E:/GitHub/HiFive01-RevB/FS_workspace/004_UART_TXRX/freedom-metal/src/scrub.S:75
    addi    t1, t1, 4
200100c4:	0311                	addi	t1,t1,4
E:/GitHub/HiFive01-RevB/FS_workspace/004_UART_TXRX/freedom-metal/src/scrub.S:76
    blt     t1, t2, 1b
200100c6:	fe734de3          	blt	t1,t2,200100c0 <__metal_memory_scrub>
E:/GitHub/HiFive01-RevB/FS_workspace/004_UART_TXRX/freedom-metal/src/scrub.S:82
#else
    sd      x0, 0(t1)
    addi    t1, t1, 8
    blt     t1, t2, 1b
#endif
    ret
200100ca:	8082                	ret

200100cc <__metal_before_start>:
__metal_before_start():
E:/GitHub/HiFive01-RevB/FS_workspace/004_UART_TXRX/freedom-metal/src/scrub.S:94
.weak __metal_before_start
.global __metal_before_start
.type __metal_before_start, @function
__metal_before_start:
    /* Save caller ra */
    mv      s0, ra
200100cc:	8406                	mv	s0,ra
E:/GitHub/HiFive01-RevB/FS_workspace/004_UART_TXRX/freedom-metal/src/scrub.S:96

    la      t0, __metal_eccscrub_bit
200100ce:	dfff0297          	auipc	t0,0xdfff0
200100d2:	f3228293          	addi	t0,t0,-206 # 0 <__metal_boot_hart>
E:/GitHub/HiFive01-RevB/FS_workspace/004_UART_TXRX/freedom-metal/src/scrub.S:97
    beqz    t0, skip_scrub
200100d6:	04028c63          	beqz	t0,2001012e <skip_scrub>
E:/GitHub/HiFive01-RevB/FS_workspace/004_UART_TXRX/freedom-metal/src/scrub.S:99

    la      t0, __metal_boot_hart
200100da:	dfff0297          	auipc	t0,0xdfff0
200100de:	f2628293          	addi	t0,t0,-218 # 0 <__metal_boot_hart>
E:/GitHub/HiFive01-RevB/FS_workspace/004_UART_TXRX/freedom-metal/src/scrub.S:100
    csrr    a5, mhartid
200100e2:	f14027f3          	csrr	a5,mhartid
E:/GitHub/HiFive01-RevB/FS_workspace/004_UART_TXRX/freedom-metal/src/scrub.S:103

    /* Disable machine interrupts to be safe */
    li      a3, 8
200100e6:	46a1                	li	a3,8
E:/GitHub/HiFive01-RevB/FS_workspace/004_UART_TXRX/freedom-metal/src/scrub.S:104
    csrc    mstatus, a3
200100e8:	3006b073          	csrc	mstatus,a3
E:/GitHub/HiFive01-RevB/FS_workspace/004_UART_TXRX/freedom-metal/src/scrub.S:107

    /* Zero out per hart stack */
    mv      t1, sp
200100ec:	830a                	mv	t1,sp
E:/GitHub/HiFive01-RevB/FS_workspace/004_UART_TXRX/freedom-metal/src/scrub.S:108
    la      t2, __stack_size
200100ee:	dfff0397          	auipc	t2,0xdfff0
200100f2:	31238393          	addi	t2,t2,786 # 400 <__stack_size>
E:/GitHub/HiFive01-RevB/FS_workspace/004_UART_TXRX/freedom-metal/src/scrub.S:109
    add     t2, t2, sp
200100f6:	938a                	add	t2,t2,sp
E:/GitHub/HiFive01-RevB/FS_workspace/004_UART_TXRX/freedom-metal/src/scrub.S:110
    beq     t1, t2, 1f
200100f8:	00730363          	beq	t1,t2,200100fe <__metal_before_start+0x32>
E:/GitHub/HiFive01-RevB/FS_workspace/004_UART_TXRX/freedom-metal/src/scrub.S:111
    jal     __metal_memory_scrub
200100fc:	37d1                	jal	200100c0 <__metal_memory_scrub>
E:/GitHub/HiFive01-RevB/FS_workspace/004_UART_TXRX/freedom-metal/src/scrub.S:113
1:
    bne     a5, t0, skip_scrub
200100fe:	02579863          	bne	a5,t0,2001012e <skip_scrub>
E:/GitHub/HiFive01-RevB/FS_workspace/004_UART_TXRX/freedom-metal/src/scrub.S:116

    /* Zero out data segment */
    la      t1, metal_segment_data_target_start
20010102:	5fff0317          	auipc	t1,0x5fff0
20010106:	efe30313          	addi	t1,t1,-258 # 80000000 <__metal_led_table>
E:/GitHub/HiFive01-RevB/FS_workspace/004_UART_TXRX/freedom-metal/src/scrub.S:117
    la      t2, metal_segment_data_target_end
2001010a:	5fff1397          	auipc	t2,0x5fff1
2001010e:	9d638393          	addi	t2,t2,-1578 # 80000ae0 <_global_atexit>
E:/GitHub/HiFive01-RevB/FS_workspace/004_UART_TXRX/freedom-metal/src/scrub.S:118
    beq     t1, t2, 1f
20010112:	00730363          	beq	t1,t2,20010118 <__metal_before_start+0x4c>
E:/GitHub/HiFive01-RevB/FS_workspace/004_UART_TXRX/freedom-metal/src/scrub.S:119
    jal     __metal_memory_scrub
20010116:	376d                	jal	200100c0 <__metal_memory_scrub>
E:/GitHub/HiFive01-RevB/FS_workspace/004_UART_TXRX/freedom-metal/src/scrub.S:122
1:
    /* Zero out itim memory */
    la      t1, metal_segment_itim_target_start
20010118:	e7ff0317          	auipc	t1,0xe7ff0
2001011c:	ee830313          	addi	t1,t1,-280 # 8000000 <metal_segment_itim_target_end>
E:/GitHub/HiFive01-RevB/FS_workspace/004_UART_TXRX/freedom-metal/src/scrub.S:123
    la      t2, metal_segment_itim_target_end
20010120:	e7ff0397          	auipc	t2,0xe7ff0
20010124:	ee038393          	addi	t2,t2,-288 # 8000000 <metal_segment_itim_target_end>
E:/GitHub/HiFive01-RevB/FS_workspace/004_UART_TXRX/freedom-metal/src/scrub.S:124
    beq     t1, t2, skip_scrub
20010128:	00730363          	beq	t1,t2,2001012e <skip_scrub>
E:/GitHub/HiFive01-RevB/FS_workspace/004_UART_TXRX/freedom-metal/src/scrub.S:125
    jal     __metal_memory_scrub
2001012c:	3f51                	jal	200100c0 <__metal_memory_scrub>

2001012e <skip_scrub>:
skip_scrub():
E:/GitHub/HiFive01-RevB/FS_workspace/004_UART_TXRX/freedom-metal/src/scrub.S:129

skip_scrub:
    /* Restore caller ra */
    mv      ra, s0
2001012e:	80a2                	mv	ra,s0
E:/GitHub/HiFive01-RevB/FS_workspace/004_UART_TXRX/freedom-metal/src/scrub.S:130
    ret
20010130:	8082                	ret
	...

20010134 <early_trap_vector>:
early_trap_vector():
E:/GitHub/HiFive01-RevB/FS_workspace/004_UART_TXRX/freedom-metal/src/trap.S:64
.section .text.metal.init.trapvec
.global early_trap_vector
.align 2
early_trap_vector:
    .cfi_startproc
    csrr t0, mcause
20010134:	342022f3          	csrr	t0,mcause
E:/GitHub/HiFive01-RevB/FS_workspace/004_UART_TXRX/freedom-metal/src/trap.S:65
    csrr t1, mepc
20010138:	34102373          	csrr	t1,mepc
E:/GitHub/HiFive01-RevB/FS_workspace/004_UART_TXRX/freedom-metal/src/trap.S:66
    csrr t2, mtval
2001013c:	343023f3          	csrr	t2,mtval
E:/GitHub/HiFive01-RevB/FS_workspace/004_UART_TXRX/freedom-metal/src/trap.S:67
    j early_trap_vector
20010140:	bfd5                	j	20010134 <early_trap_vector>

20010142 <__metal_synchronize_harts>:
__metal_synchronize_harts():
E:/GitHub/HiFive01-RevB/FS_workspace/004_UART_TXRX/freedom-metal/src/synchronize_harts.c:19
/*
 * _synchronize_harts() is called by crt0.S to cause harts > 0 to wait for
 * hart 0 to finish copying the datat section, zeroing the BSS, and running
 * the libc contstructors.
 */
__attribute__((section(".init"))) void __metal_synchronize_harts() {
20010142:	1141                	addi	sp,sp,-16
20010144:	c622                	sw	s0,12(sp)
20010146:	0800                	addi	s0,sp,16
E:/GitHub/HiFive01-RevB/FS_workspace/004_UART_TXRX/freedom-metal/src/synchronize_harts.c:66
        while (METAL_MSIP(msip_base, hart) == 1)
            ;
    }

#endif /* __METAL_DT_MAX_HARTS > 1 */
}
20010148:	0001                	nop
2001014a:	4432                	lw	s0,12(sp)
2001014c:	0141                	addi	sp,sp,16
2001014e:	8082                	ret

20010150 <_start>:
_start():
E:/GitHub/HiFive01-RevB/FS_workspace/004_UART_TXRX/freedom-metal/gloss/crt0.S:36
.cfi_startproc
.cfi_undefined ra

  /* This is a bit funky: it's not usually sane for _start to return, but in
   * this case we actually want to in order to signal an error to the METAL. */
  mv s0, ra
20010150:	8406                	mv	s0,ra
E:/GitHub/HiFive01-RevB/FS_workspace/004_UART_TXRX/freedom-metal/gloss/crt0.S:44
   * safely perform any access that may be relaxed without GP being set.  This
   * is done with relaxation disabled to avoid relaxing the address calculation
   * to just "addi gp, gp, 0". */
.option push
.option norelax
  la gp, __global_pointer$
20010152:	5fff1197          	auipc	gp,0x5fff1
20010156:	15e18193          	addi	gp,gp,350 # 800012b0 <__global_pointer$>
E:/GitHub/HiFive01-RevB/FS_workspace/004_UART_TXRX/freedom-metal/gloss/crt0.S:50
.option pop

  /* Stack pointer is expected to be initialized before _start */

  /* If we're not hart 0, skip the initialization work */
  la t0, __metal_boot_hart
2001015a:	00000293          	li	t0,0
E:/GitHub/HiFive01-RevB/FS_workspace/004_UART_TXRX/freedom-metal/gloss/crt0.S:51
  bne a0, t0, _skip_init
2001015e:	0e551163          	bne	a0,t0,20010240 <_skip_init>
E:/GitHub/HiFive01-RevB/FS_workspace/004_UART_TXRX/freedom-metal/gloss/crt0.S:60
   * boot and then need to get relocated into a non-persistant writable memory
   * before C code can execute.  If this is the case we do so here.  This step
   * is optional: if the METAL provides an environment in which this relocation
   * is not necessary then it must simply set metal_segment_data_source_start to
   * be equal to metal_segment_data_target_start. */
  la t0, metal_segment_data_source_start
20010162:	00006297          	auipc	t0,0x6
20010166:	15628293          	addi	t0,t0,342 # 200162b8 <metal_segment_data_source_start>
E:/GitHub/HiFive01-RevB/FS_workspace/004_UART_TXRX/freedom-metal/gloss/crt0.S:61
  la t1, metal_segment_data_target_start
2001016a:	5fff0317          	auipc	t1,0x5fff0
2001016e:	e9630313          	addi	t1,t1,-362 # 80000000 <__metal_led_table>
E:/GitHub/HiFive01-RevB/FS_workspace/004_UART_TXRX/freedom-metal/gloss/crt0.S:62
  la t2, metal_segment_data_target_end
20010172:	5fff1397          	auipc	t2,0x5fff1
20010176:	96e38393          	addi	t2,t2,-1682 # 80000ae0 <_global_atexit>
E:/GitHub/HiFive01-RevB/FS_workspace/004_UART_TXRX/freedom-metal/gloss/crt0.S:64

  beq t0, t1, 2f
2001017a:	00628c63          	beq	t0,t1,20010192 <_start+0x42>
E:/GitHub/HiFive01-RevB/FS_workspace/004_UART_TXRX/freedom-metal/gloss/crt0.S:65
  bge t1, t2, 2f
2001017e:	00735a63          	bge	t1,t2,20010192 <_start+0x42>
E:/GitHub/HiFive01-RevB/FS_workspace/004_UART_TXRX/freedom-metal/gloss/crt0.S:69

1:
#if __riscv_xlen == 32
  lw   a0, 0(t0)
20010182:	0002a503          	lw	a0,0(t0)
E:/GitHub/HiFive01-RevB/FS_workspace/004_UART_TXRX/freedom-metal/gloss/crt0.S:70
  addi t0, t0, 4
20010186:	0291                	addi	t0,t0,4
E:/GitHub/HiFive01-RevB/FS_workspace/004_UART_TXRX/freedom-metal/gloss/crt0.S:71
  sw   a0, 0(t1)
20010188:	00a32023          	sw	a0,0(t1)
E:/GitHub/HiFive01-RevB/FS_workspace/004_UART_TXRX/freedom-metal/gloss/crt0.S:72
  addi t1, t1, 4
2001018c:	0311                	addi	t1,t1,4
E:/GitHub/HiFive01-RevB/FS_workspace/004_UART_TXRX/freedom-metal/gloss/crt0.S:73
  blt  t1, t2, 1b
2001018e:	fe734ae3          	blt	t1,t2,20010182 <_start+0x32>
E:/GitHub/HiFive01-RevB/FS_workspace/004_UART_TXRX/freedom-metal/gloss/crt0.S:84
  blt  t1, t2, 1b
#endif
2:

  /* Copy the ITIM section */
  la t0, metal_segment_itim_source_start
20010192:	00001297          	auipc	t0,0x1
20010196:	d8e28293          	addi	t0,t0,-626 # 20010f20 <metal_segment_itim_source_start>
E:/GitHub/HiFive01-RevB/FS_workspace/004_UART_TXRX/freedom-metal/gloss/crt0.S:85
  la t1, metal_segment_itim_target_start
2001019a:	e7ff0317          	auipc	t1,0xe7ff0
2001019e:	e6630313          	addi	t1,t1,-410 # 8000000 <metal_segment_itim_target_end>
E:/GitHub/HiFive01-RevB/FS_workspace/004_UART_TXRX/freedom-metal/gloss/crt0.S:86
  la t2, metal_segment_itim_target_end
200101a2:	e7ff0397          	auipc	t2,0xe7ff0
200101a6:	e5e38393          	addi	t2,t2,-418 # 8000000 <metal_segment_itim_target_end>
E:/GitHub/HiFive01-RevB/FS_workspace/004_UART_TXRX/freedom-metal/gloss/crt0.S:88

  beq t0, t1, 2f
200101aa:	00628c63          	beq	t0,t1,200101c2 <_start+0x72>
E:/GitHub/HiFive01-RevB/FS_workspace/004_UART_TXRX/freedom-metal/gloss/crt0.S:89
  bge t1, t2, 2f
200101ae:	00735a63          	bge	t1,t2,200101c2 <_start+0x72>
E:/GitHub/HiFive01-RevB/FS_workspace/004_UART_TXRX/freedom-metal/gloss/crt0.S:93

1:
#if __riscv_xlen == 32
  lw   a0, 0(t0)
200101b2:	0002a503          	lw	a0,0(t0)
E:/GitHub/HiFive01-RevB/FS_workspace/004_UART_TXRX/freedom-metal/gloss/crt0.S:94
  addi t0, t0, 4
200101b6:	0291                	addi	t0,t0,4
E:/GitHub/HiFive01-RevB/FS_workspace/004_UART_TXRX/freedom-metal/gloss/crt0.S:95
  sw   a0, 0(t1)
200101b8:	00a32023          	sw	a0,0(t1)
E:/GitHub/HiFive01-RevB/FS_workspace/004_UART_TXRX/freedom-metal/gloss/crt0.S:96
  addi t1, t1, 4
200101bc:	0311                	addi	t1,t1,4
E:/GitHub/HiFive01-RevB/FS_workspace/004_UART_TXRX/freedom-metal/gloss/crt0.S:97
  blt  t1, t2, 1b
200101be:	fe734ae3          	blt	t1,t2,200101b2 <_start+0x62>
E:/GitHub/HiFive01-RevB/FS_workspace/004_UART_TXRX/freedom-metal/gloss/crt0.S:109
#endif
2:

  /* Fence all subsequent instruction fetches until after the ITIM writes
     complete */
  fence.i
200101c2:	0000100f          	fence.i
E:/GitHub/HiFive01-RevB/FS_workspace/004_UART_TXRX/freedom-metal/gloss/crt0.S:114

2:

  /* Copy the LIM section */
  la t0, metal_segment_lim_source_start
200101c6:	00001297          	auipc	t0,0x1
200101ca:	d5a28293          	addi	t0,t0,-678 # 20010f20 <metal_segment_itim_source_start>
E:/GitHub/HiFive01-RevB/FS_workspace/004_UART_TXRX/freedom-metal/gloss/crt0.S:115
  la t1, metal_segment_lim_target_start
200101ce:	5fff0317          	auipc	t1,0x5fff0
200101d2:	e3230313          	addi	t1,t1,-462 # 80000000 <__metal_led_table>
E:/GitHub/HiFive01-RevB/FS_workspace/004_UART_TXRX/freedom-metal/gloss/crt0.S:116
  la t2, metal_segment_lim_target_end
200101d6:	5fff0397          	auipc	t2,0x5fff0
200101da:	e2a38393          	addi	t2,t2,-470 # 80000000 <__metal_led_table>
E:/GitHub/HiFive01-RevB/FS_workspace/004_UART_TXRX/freedom-metal/gloss/crt0.S:118

  beq t0, t1, 2f
200101de:	00628c63          	beq	t0,t1,200101f6 <_start+0xa6>
E:/GitHub/HiFive01-RevB/FS_workspace/004_UART_TXRX/freedom-metal/gloss/crt0.S:119
  bge t1, t2, 2f
200101e2:	00735a63          	bge	t1,t2,200101f6 <_start+0xa6>
E:/GitHub/HiFive01-RevB/FS_workspace/004_UART_TXRX/freedom-metal/gloss/crt0.S:123

1:
#if __riscv_xlen == 32
  lw   a0, 0(t0)
200101e6:	0002a503          	lw	a0,0(t0)
E:/GitHub/HiFive01-RevB/FS_workspace/004_UART_TXRX/freedom-metal/gloss/crt0.S:124
  addi t0, t0, 4
200101ea:	0291                	addi	t0,t0,4
E:/GitHub/HiFive01-RevB/FS_workspace/004_UART_TXRX/freedom-metal/gloss/crt0.S:125
  sw   a0, 0(t1)
200101ec:	00a32023          	sw	a0,0(t1)
E:/GitHub/HiFive01-RevB/FS_workspace/004_UART_TXRX/freedom-metal/gloss/crt0.S:126
  addi t1, t1, 4
200101f0:	0311                	addi	t1,t1,4
E:/GitHub/HiFive01-RevB/FS_workspace/004_UART_TXRX/freedom-metal/gloss/crt0.S:127
  blt  t1, t2, 1b
200101f2:	fe734ae3          	blt	t1,t2,200101e6 <_start+0x96>
E:/GitHub/HiFive01-RevB/FS_workspace/004_UART_TXRX/freedom-metal/gloss/crt0.S:139
#endif
2:

  /* Fence all subsequent instruction fetches until after the LIM writes
     complete */
  fence.i
200101f6:	0000100f          	fence.i
E:/GitHub/HiFive01-RevB/FS_workspace/004_UART_TXRX/freedom-metal/gloss/crt0.S:142

  /* Zero the BSS segment. */
  la t1, metal_segment_bss_target_start
200101fa:	5fff1317          	auipc	t1,0x5fff1
200101fe:	8e630313          	addi	t1,t1,-1818 # 80000ae0 <_global_atexit>
E:/GitHub/HiFive01-RevB/FS_workspace/004_UART_TXRX/freedom-metal/gloss/crt0.S:143
  la t2, metal_segment_bss_target_end
20010202:	8c818393          	addi	t2,gp,-1848 # 80000b78 <metal_segment_bss_target_end>
E:/GitHub/HiFive01-RevB/FS_workspace/004_UART_TXRX/freedom-metal/gloss/crt0.S:145

  bge t1, t2, 2f
20010206:	00735763          	bge	t1,t2,20010214 <_start+0xc4>
E:/GitHub/HiFive01-RevB/FS_workspace/004_UART_TXRX/freedom-metal/gloss/crt0.S:149

1:
#if __riscv_xlen == 32
  sw   x0, 0(t1)
2001020a:	00032023          	sw	zero,0(t1)
E:/GitHub/HiFive01-RevB/FS_workspace/004_UART_TXRX/freedom-metal/gloss/crt0.S:150
  addi t1, t1, 4
2001020e:	0311                	addi	t1,t1,4
E:/GitHub/HiFive01-RevB/FS_workspace/004_UART_TXRX/freedom-metal/gloss/crt0.S:151
  blt  t1, t2, 1b
20010210:	fe734de3          	blt	t1,t2,2001020a <_start+0xba>
E:/GitHub/HiFive01-RevB/FS_workspace/004_UART_TXRX/freedom-metal/gloss/crt0.S:161
#endif
2:

  /* Set TLS pointer */
  .weak __tls_base	
  la tp, __tls_base
20010214:	5fff1217          	auipc	tp,0x5fff1
20010218:	8cc20213          	addi	tp,tp,-1844 # 80000ae0 <_global_atexit>
E:/GitHub/HiFive01-RevB/FS_workspace/004_UART_TXRX/freedom-metal/gloss/crt0.S:166

  /* At this point we're in an environment that can execute C code.  The first
   * thing to do is to make the callback to the parent environment if it's been
   * requested to do so. */
  beqz a2, 1f
2001021c:	c211                	beqz	a2,20010220 <_start+0xd0>
E:/GitHub/HiFive01-RevB/FS_workspace/004_UART_TXRX/freedom-metal/gloss/crt0.S:167
  jalr a2
2001021e:	9602                	jalr	a2
E:/GitHub/HiFive01-RevB/FS_workspace/004_UART_TXRX/freedom-metal/gloss/crt0.S:171
1:

  /* The RISC-V port only uses new-style constructors and destructors. */
  la a0, __libc_fini_array
20010220:	00006517          	auipc	a0,0x6
20010224:	c4250513          	addi	a0,a0,-958 # 20015e62 <__libc_fini_array>
E:/GitHub/HiFive01-RevB/FS_workspace/004_UART_TXRX/freedom-metal/gloss/crt0.S:172
  call atexit
20010228:	409050ef          	jal	ra,20015e30 <atexit>
E:/GitHub/HiFive01-RevB/FS_workspace/004_UART_TXRX/freedom-metal/gloss/crt0.S:173
  call __libc_init_array
2001022c:	46d050ef          	jal	ra,20015e98 <__libc_init_array>
E:/GitHub/HiFive01-RevB/FS_workspace/004_UART_TXRX/freedom-metal/gloss/crt0.S:177

  /* Register metal_fini_run as a destructor and call metal_init_run to
   * run and setup Metal constructors */
  la a0, metal_fini_run
20010230:	00006517          	auipc	a0,0x6
20010234:	05a50513          	addi	a0,a0,90 # 2001628a <metal_fini_run>
E:/GitHub/HiFive01-RevB/FS_workspace/004_UART_TXRX/freedom-metal/gloss/crt0.S:178
  call atexit
20010238:	3f9050ef          	jal	ra,20015e30 <atexit>
E:/GitHub/HiFive01-RevB/FS_workspace/004_UART_TXRX/freedom-metal/gloss/crt0.S:179
  call metal_init_run
2001023c:	03a060ef          	jal	ra,20016276 <metal_init_run>

20010240 <_skip_init>:
_skip_init():
E:/GitHub/HiFive01-RevB/FS_workspace/004_UART_TXRX/freedom-metal/gloss/crt0.S:185

_skip_init:

  /* Synchronize harts so that secondary harts wait until hart 0 finishes
     initializing */
  call __metal_synchronize_harts
20010240:	3709                	jal	20010142 <__metal_synchronize_harts>
E:/GitHub/HiFive01-RevB/FS_workspace/004_UART_TXRX/freedom-metal/gloss/crt0.S:188

  /* Disable and clear all interrupt sources */
  li   a3, -1
20010242:	56fd                	li	a3,-1
E:/GitHub/HiFive01-RevB/FS_workspace/004_UART_TXRX/freedom-metal/gloss/crt0.S:189
  csrc mie, a3
20010244:	3046b073          	csrc	mie,a3
E:/GitHub/HiFive01-RevB/FS_workspace/004_UART_TXRX/freedom-metal/gloss/crt0.S:190
  csrc mip, a3
20010248:	3446b073          	csrc	mip,a3
E:/GitHub/HiFive01-RevB/FS_workspace/004_UART_TXRX/freedom-metal/gloss/crt0.S:194

  /* The delegation CSRs exist if user mode interrupts (N extension) or
   * supervisor mode (S extension) are supported */
  csrr a5, misa
2001024c:	301027f3          	csrr	a5,misa
E:/GitHub/HiFive01-RevB/FS_workspace/004_UART_TXRX/freedom-metal/gloss/crt0.S:195
  lui  a4, 0x42
20010250:	00042737          	lui	a4,0x42
E:/GitHub/HiFive01-RevB/FS_workspace/004_UART_TXRX/freedom-metal/gloss/crt0.S:196
  and  a4, a4, a5
20010254:	8f7d                	and	a4,a4,a5
E:/GitHub/HiFive01-RevB/FS_workspace/004_UART_TXRX/freedom-metal/gloss/crt0.S:197
  beqz a4, 1f
20010256:	c709                	beqz	a4,20010260 <_skip_init+0x20>
E:/GitHub/HiFive01-RevB/FS_workspace/004_UART_TXRX/freedom-metal/gloss/crt0.S:198
  csrc mideleg, a3
20010258:	3036b073          	csrc	mideleg,a3
E:/GitHub/HiFive01-RevB/FS_workspace/004_UART_TXRX/freedom-metal/gloss/crt0.S:199
  csrc medeleg, a3
2001025c:	3026b073          	csrc	medeleg,a3
E:/GitHub/HiFive01-RevB/FS_workspace/004_UART_TXRX/freedom-metal/gloss/crt0.S:203
1:

  /* The satp CSR exists if supervisor mode (S extension) is supported */
  lui  a4, 0x40
20010260:	00040737          	lui	a4,0x40
E:/GitHub/HiFive01-RevB/FS_workspace/004_UART_TXRX/freedom-metal/gloss/crt0.S:204
  and  a4, a4, a5
20010264:	8f7d                	and	a4,a4,a5
E:/GitHub/HiFive01-RevB/FS_workspace/004_UART_TXRX/freedom-metal/gloss/crt0.S:205
  beqz a4, 1f
20010266:	c319                	beqz	a4,2001026c <_skip_init+0x2c>
E:/GitHub/HiFive01-RevB/FS_workspace/004_UART_TXRX/freedom-metal/gloss/crt0.S:206
  csrc satp, a3
20010268:	1806b073          	csrc	satp,a3
E:/GitHub/HiFive01-RevB/FS_workspace/004_UART_TXRX/freedom-metal/gloss/crt0.S:210
1:

  /* Check RISC-V isa and enable FS bits if Floating Point architecture. */
  li   a4, 0x10028
2001026c:	6741                	lui	a4,0x10
2001026e:	02870713          	addi	a4,a4,40 # 10028 <__heap_size+0xf828>
E:/GitHub/HiFive01-RevB/FS_workspace/004_UART_TXRX/freedom-metal/gloss/crt0.S:211
  and  a5, a5, a4
20010272:	8ff9                	and	a5,a5,a4
E:/GitHub/HiFive01-RevB/FS_workspace/004_UART_TXRX/freedom-metal/gloss/crt0.S:212
  beqz a5, 1f
20010274:	cb89                	beqz	a5,20010286 <_skip_init+0x46>
E:/GitHub/HiFive01-RevB/FS_workspace/004_UART_TXRX/freedom-metal/gloss/crt0.S:213
  csrr a5, mstatus
20010276:	300027f3          	csrr	a5,mstatus
E:/GitHub/HiFive01-RevB/FS_workspace/004_UART_TXRX/freedom-metal/gloss/crt0.S:214
  lui  a4, 0x2
2001027a:	6709                	lui	a4,0x2
E:/GitHub/HiFive01-RevB/FS_workspace/004_UART_TXRX/freedom-metal/gloss/crt0.S:215
  or   a5, a5, a4
2001027c:	8fd9                	or	a5,a5,a4
E:/GitHub/HiFive01-RevB/FS_workspace/004_UART_TXRX/freedom-metal/gloss/crt0.S:216
  csrw mstatus, a5
2001027e:	30079073          	csrw	mstatus,a5
E:/GitHub/HiFive01-RevB/FS_workspace/004_UART_TXRX/freedom-metal/gloss/crt0.S:217
  csrwi fcsr, 0
20010282:	00305073          	csrwi	fcsr,0
E:/GitHub/HiFive01-RevB/FS_workspace/004_UART_TXRX/freedom-metal/gloss/crt0.S:221
1:

  /* Check for vector extension support and enable it if found */
  csrr a5, misa
20010286:	301027f3          	csrr	a5,misa
E:/GitHub/HiFive01-RevB/FS_workspace/004_UART_TXRX/freedom-metal/gloss/crt0.S:222
  li a4, 0x200000
2001028a:	00200737          	lui	a4,0x200
E:/GitHub/HiFive01-RevB/FS_workspace/004_UART_TXRX/freedom-metal/gloss/crt0.S:223
  and a5, a5, a4
2001028e:	8ff9                	and	a5,a5,a4
E:/GitHub/HiFive01-RevB/FS_workspace/004_UART_TXRX/freedom-metal/gloss/crt0.S:224
  beqz a5, 1f
20010290:	c799                	beqz	a5,2001029e <_skip_init+0x5e>
E:/GitHub/HiFive01-RevB/FS_workspace/004_UART_TXRX/freedom-metal/gloss/crt0.S:225
  csrr a5, mstatus
20010292:	300027f3          	csrr	a5,mstatus
E:/GitHub/HiFive01-RevB/FS_workspace/004_UART_TXRX/freedom-metal/gloss/crt0.S:226
  ori a5, a5, 0x200
20010296:	2007e793          	ori	a5,a5,512
E:/GitHub/HiFive01-RevB/FS_workspace/004_UART_TXRX/freedom-metal/gloss/crt0.S:227
  csrw mstatus, a5
2001029a:	30079073          	csrw	mstatus,a5
E:/GitHub/HiFive01-RevB/FS_workspace/004_UART_TXRX/freedom-metal/gloss/crt0.S:233
1:

  /* This is a C runtime, so main() is defined to have some arguments.  Since
   * there's nothing sane the METAL can pass we don't bother with that but
   * instead just setup as close to a NOP as we can. */
  li a0, 1     /* argc=1 */
2001029e:	4505                	li	a0,1
E:/GitHub/HiFive01-RevB/FS_workspace/004_UART_TXRX/freedom-metal/gloss/crt0.S:234
  la a1, argv  /* argv = {"libgloss", NULL} */
200102a0:	00001597          	auipc	a1,0x1
200102a4:	c4058593          	addi	a1,a1,-960 # 20010ee0 <argv>
E:/GitHub/HiFive01-RevB/FS_workspace/004_UART_TXRX/freedom-metal/gloss/crt0.S:235
  la a2, envp  /* envp = {NULL} */
200102a8:	00001617          	auipc	a2,0x1
200102ac:	c3c60613          	addi	a2,a2,-964 # 20010ee4 <envp>
E:/GitHub/HiFive01-RevB/FS_workspace/004_UART_TXRX/freedom-metal/gloss/crt0.S:236
  call secondary_main
200102b0:	2031                	jal	200102bc <secondary_main>
E:/GitHub/HiFive01-RevB/FS_workspace/004_UART_TXRX/freedom-metal/gloss/crt0.S:242

  /* Call exit to handle libc's cleanup routines.  Under normal contains this
   * shouldn't even get called, but I'm still not using a tail call here
   * because returning to the METAL is the right thing to do in pathological
   * situations. */
  call exit
200102b2:	389050ef          	jal	ra,20015e3a <exit>
E:/GitHub/HiFive01-RevB/FS_workspace/004_UART_TXRX/freedom-metal/gloss/crt0.S:247

  /* And here's where we return.  Again, it's a bit odd but the METAL defines
   * this as a bad idea (ie, as opposed to leaving it undefined) and at this
   * point it's really the only thing left to do. */
  mv ra, s0
200102b6:	80a2                	mv	ra,s0
E:/GitHub/HiFive01-RevB/FS_workspace/004_UART_TXRX/freedom-metal/gloss/crt0.S:248
  ret
200102b8:	8082                	ret

200102ba <_fini>:
_init():
E:/GitHub/HiFive01-RevB/FS_workspace/004_UART_TXRX/freedom-metal/gloss/crt0.S:260
.type   _init, @function
.global _fini
.type   _fini, @function
_init:
_fini:
  ret
200102ba:	8082                	ret

200102bc <secondary_main>:
secondary_main():
E:/GitHub/HiFive01-RevB/FS_workspace/004_UART_TXRX/freedom-metal/gloss/crt0.S:271
.weak   secondary_main
.global secondary_main
.type   secondary_main, @function

secondary_main:
  addi sp, sp, -16
200102bc:	1141                	addi	sp,sp,-16
E:/GitHub/HiFive01-RevB/FS_workspace/004_UART_TXRX/freedom-metal/gloss/crt0.S:273
#if __riscv_xlen == 32
  sw ra, 4(sp)
200102be:	c206                	sw	ra,4(sp)
E:/GitHub/HiFive01-RevB/FS_workspace/004_UART_TXRX/freedom-metal/gloss/crt0.S:277
#else
  sd ra, 8(sp)
#endif
  csrr t0, mhartid
200102c0:	f14022f3          	csrr	t0,mhartid
E:/GitHub/HiFive01-RevB/FS_workspace/004_UART_TXRX/freedom-metal/gloss/crt0.S:278
  la t1, __metal_boot_hart
200102c4:	00000313          	li	t1,0
E:/GitHub/HiFive01-RevB/FS_workspace/004_UART_TXRX/freedom-metal/gloss/crt0.S:279
  beq t0, t1, 2f
200102c8:	00628563          	beq	t0,t1,200102d2 <secondary_main+0x16>
E:/GitHub/HiFive01-RevB/FS_workspace/004_UART_TXRX/freedom-metal/gloss/crt0.S:281
1:
  wfi
200102cc:	10500073          	wfi
E:/GitHub/HiFive01-RevB/FS_workspace/004_UART_TXRX/freedom-metal/gloss/crt0.S:282
  j 1b
200102d0:	bff5                	j	200102cc <secondary_main+0x10>
E:/GitHub/HiFive01-RevB/FS_workspace/004_UART_TXRX/freedom-metal/gloss/crt0.S:284
2:
  call main
200102d2:	4af000ef          	jal	ra,20010f80 <main>
E:/GitHub/HiFive01-RevB/FS_workspace/004_UART_TXRX/freedom-metal/gloss/crt0.S:286
#if __riscv_xlen == 32
  lw ra, 4(sp)
200102d6:	4092                	lw	ra,4(sp)
E:/GitHub/HiFive01-RevB/FS_workspace/004_UART_TXRX/freedom-metal/gloss/crt0.S:290
#else
  ld ra, 8(sp)
#endif
  addi sp, sp, 16
200102d8:	0141                	addi	sp,sp,16
E:/GitHub/HiFive01-RevB/FS_workspace/004_UART_TXRX/freedom-metal/gloss/crt0.S:291
  ret
200102da:	8082                	ret

Disassembly of section .ctors:

200102e8 <metal_sifive_fe310_g000_pll_init>:
metal_sifive_fe310_g000_pll_init():
E:/GitHub/HiFive01-RevB/FS_workspace/004_UART_TXRX/freedom-metal/src/drivers/sifive_fe310-g000_pll.c:151
    return pll_input_rate * config->multiplier / config->divisor;
}

#ifdef __METAL_DT_SIFIVE_FE310_G000_PLL_HANDLE

METAL_CONSTRUCTOR(metal_sifive_fe310_g000_pll_init) {
200102e8:	1101                	addi	sp,sp,-32
200102ea:	ce06                	sw	ra,28(sp)
200102ec:	cc22                	sw	s0,24(sp)
200102ee:	1000                	addi	s0,sp,32
E:/GitHub/HiFive01-RevB/FS_workspace/004_UART_TXRX/freedom-metal/src/drivers/sifive_fe310-g000_pll.c:152
    long init_rate = __metal_driver_sifive_fe310_g000_pll_init_rate();
200102f0:	211030ef          	jal	ra,20013d00 <__metal_driver_sifive_fe310_g000_pll_init_rate>
200102f4:	fea42623          	sw	a0,-20(s0)
E:/GitHub/HiFive01-RevB/FS_workspace/004_UART_TXRX/freedom-metal/src/drivers/sifive_fe310-g000_pll.c:154
    /* If the PLL init_rate is zero, don't initialize the PLL */
    if (init_rate != 0)
200102f8:	fec42783          	lw	a5,-20(s0)
200102fc:	c799                	beqz	a5,2001030a <metal_sifive_fe310_g000_pll_init+0x22>
E:/GitHub/HiFive01-RevB/FS_workspace/004_UART_TXRX/freedom-metal/src/drivers/sifive_fe310-g000_pll.c:155
        __metal_driver_sifive_fe310_g000_pll_init(
200102fe:	800017b7          	lui	a5,0x80001
20010302:	a4078513          	addi	a0,a5,-1472 # 80000a40 <__global_pointer$+0xfffff790>
20010306:	287030ef          	jal	ra,20013d8c <__metal_driver_sifive_fe310_g000_pll_init>
E:/GitHub/HiFive01-RevB/FS_workspace/004_UART_TXRX/freedom-metal/src/drivers/sifive_fe310-g000_pll.c:157
            __METAL_DT_SIFIVE_FE310_G000_PLL_HANDLE);
}
2001030a:	0001                	nop
2001030c:	40f2                	lw	ra,28(sp)
2001030e:	4462                	lw	s0,24(sp)
20010310:	6105                	addi	sp,sp,32
20010312:	8082                	ret

20010314 <use_hfxosc>:
use_hfxosc():
E:/GitHub/HiFive01-RevB/FS_workspace/004_UART_TXRX/freedom-metal/src/drivers/sifive_fe310-g000_pll.c:389

    return __metal_driver_sifive_fe310_g000_pll_get_rate_hz(clock);
}

#ifdef __METAL_DT_SIFIVE_FE310_G000_PLL_HANDLE
METAL_CONSTRUCTOR(use_hfxosc) {
20010314:	1101                	addi	sp,sp,-32
20010316:	ce06                	sw	ra,28(sp)
20010318:	cc22                	sw	s0,24(sp)
2001031a:	1000                	addi	s0,sp,32
E:/GitHub/HiFive01-RevB/FS_workspace/004_UART_TXRX/freedom-metal/src/drivers/sifive_fe310-g000_pll.c:390
    long init_rate = __metal_driver_sifive_fe310_g000_pll_init_rate();
2001031c:	1e5030ef          	jal	ra,20013d00 <__metal_driver_sifive_fe310_g000_pll_init_rate>
20010320:	fea42623          	sw	a0,-20(s0)
E:/GitHub/HiFive01-RevB/FS_workspace/004_UART_TXRX/freedom-metal/src/drivers/sifive_fe310-g000_pll.c:391
    metal_clock_set_rate_hz(&__METAL_DT_SIFIVE_FE310_G000_PLL_HANDLE->clock,
20010324:	fec42583          	lw	a1,-20(s0)
20010328:	800017b7          	lui	a5,0x80001
2001032c:	a4078513          	addi	a0,a5,-1472 # 80000a40 <__global_pointer$+0xfffff790>
20010330:	514050ef          	jal	ra,20015844 <metal_clock_set_rate_hz>
E:/GitHub/HiFive01-RevB/FS_workspace/004_UART_TXRX/freedom-metal/src/drivers/sifive_fe310-g000_pll.c:393
                            init_rate);
}
20010334:	0001                	nop
20010336:	40f2                	lw	ra,28(sp)
20010338:	4462                	lw	s0,24(sp)
2001033a:	6105                	addi	sp,sp,32
2001033c:	8082                	ret

Disassembly of section .text:

20010f80 <main>:
main():
E:\GitHub\HiFive01-RevB\FS_workspace\004_UART_TXRX\src/sifive-welcome.c:169
#define BAUD_RATE_115200 115200

void delay(void);

int main(void)
{
20010f80:	7179                	addi	sp,sp,-48
20010f82:	d606                	sw	ra,44(sp)
20010f84:	d422                	sw	s0,40(sp)
20010f86:	1800                	addi	s0,sp,48
E:\GitHub\HiFive01-RevB\FS_workspace\004_UART_TXRX\src/sifive-welcome.c:172
    // Initialize UART
    struct metal_uart *uart0;
    uart0 = metal_uart_get_device(0);
20010f88:	4501                	li	a0,0
20010f8a:	4e1040ef          	jal	ra,20015c6a <metal_uart_get_device>
20010f8e:	fea42423          	sw	a0,-24(s0)
E:\GitHub\HiFive01-RevB\FS_workspace\004_UART_TXRX\src/sifive-welcome.c:173
    metal_uart_init(uart0, BAUD_RATE_115200);
20010f92:	67f1                	lui	a5,0x1c
20010f94:	20078593          	addi	a1,a5,512 # 1c200 <__heap_size+0x1ba00>
20010f98:	fe842503          	lw	a0,-24(s0)
20010f9c:	3f3040ef          	jal	ra,20015b8e <metal_uart_init>
E:\GitHub\HiFive01-RevB\FS_workspace\004_UART_TXRX\src/sifive-welcome.c:177

    // Initialize LED
    struct metal_led *led_red;
    led_red = metal_led_get_rgb("LD0", "red");
20010fa0:	200107b7          	lui	a5,0x20010
20010fa4:	34078593          	addi	a1,a5,832 # 20010340 <use_hfxosc+0x2c>
20010fa8:	200107b7          	lui	a5,0x20010
20010fac:	34478513          	addi	a0,a5,836 # 20010344 <use_hfxosc+0x30>
20010fb0:	33f040ef          	jal	ra,20015aee <metal_led_get_rgb>
20010fb4:	fea42223          	sw	a0,-28(s0)
E:\GitHub\HiFive01-RevB\FS_workspace\004_UART_TXRX\src/sifive-welcome.c:178
    metal_led_enable(led_red);
20010fb8:	fe442503          	lw	a0,-28(s0)
20010fbc:	2c7040ef          	jal	ra,20015a82 <metal_led_enable>
E:\GitHub\HiFive01-RevB\FS_workspace\004_UART_TXRX\src/sifive-welcome.c:179
    metal_led_on(led_red);
20010fc0:	fe442503          	lw	a0,-28(s0)
20010fc4:	2e3040ef          	jal	ra,20015aa6 <metal_led_on>
E:\GitHub\HiFive01-RevB\FS_workspace\004_UART_TXRX\src/sifive-welcome.c:182

    // Print a message
    int userInput = 0;
20010fc8:	fc042c23          	sw	zero,-40(s0)
E:\GitHub\HiFive01-RevB\FS_workspace\004_UART_TXRX\src/sifive-welcome.c:183
    const char *message = "Hello, HiFive1! with love from @Balaji303\r\n";
20010fcc:	200107b7          	lui	a5,0x20010
20010fd0:	34878793          	addi	a5,a5,840 # 20010348 <use_hfxosc+0x34>
20010fd4:	fef42023          	sw	a5,-32(s0)
E:\GitHub\HiFive01-RevB\FS_workspace\004_UART_TXRX\src/sifive-welcome.c:184
    size_t len = strlen(message);
20010fd8:	fe042503          	lw	a0,-32(s0)
20010fdc:	287d                	jal	2001109a <strlen>
20010fde:	fca42e23          	sw	a0,-36(s0)
E:\GitHub\HiFive01-RevB\FS_workspace\004_UART_TXRX\src/sifive-welcome.c:186

    for (size_t i = 0; i < len; i++){
20010fe2:	fe042623          	sw	zero,-20(s0)
20010fe6:	a80d                	j	20011018 <main+0x98>
E:\GitHub\HiFive01-RevB\FS_workspace\004_UART_TXRX\src/sifive-welcome.c:188
        // Wait until UART is ready to transmit
        while (metal_uart_txready(uart0)) {
20010fe8:	0001                	nop
E:\GitHub\HiFive01-RevB\FS_workspace\004_UART_TXRX\src/sifive-welcome.c:188 (discriminator 1)
20010fea:	fe842503          	lw	a0,-24(s0)
20010fee:	3fb040ef          	jal	ra,20015be8 <metal_uart_txready>
20010ff2:	87aa                	mv	a5,a0
20010ff4:	fbfd                	bnez	a5,20010fea <main+0x6a>
E:\GitHub\HiFive01-RevB\FS_workspace\004_UART_TXRX\src/sifive-welcome.c:192 (discriminator 2)
            /* Wait */
        }
       	// Send character
        metal_uart_putc(uart0, message[i]);
20010ff6:	fe042703          	lw	a4,-32(s0)
20010ffa:	fec42783          	lw	a5,-20(s0)
20010ffe:	97ba                	add	a5,a5,a4
20011000:	0007c783          	lbu	a5,0(a5)
20011004:	85be                	mv	a1,a5
20011006:	fe842503          	lw	a0,-24(s0)
2001100a:	3b1040ef          	jal	ra,20015bba <metal_uart_putc>
E:\GitHub\HiFive01-RevB\FS_workspace\004_UART_TXRX\src/sifive-welcome.c:186 (discriminator 2)
    for (size_t i = 0; i < len; i++){
2001100e:	fec42783          	lw	a5,-20(s0)
20011012:	0785                	addi	a5,a5,1
20011014:	fef42623          	sw	a5,-20(s0)
E:\GitHub\HiFive01-RevB\FS_workspace\004_UART_TXRX\src/sifive-welcome.c:186 (discriminator 1)
20011018:	fec42703          	lw	a4,-20(s0)
2001101c:	fdc42783          	lw	a5,-36(s0)
20011020:	fcf764e3          	bltu	a4,a5,20010fe8 <main+0x68>
E:\GitHub\HiFive01-RevB\FS_workspace\004_UART_TXRX\src/sifive-welcome.c:197
    }

    while(1)
    {
    	metal_uart_getc(uart0, &userInput);
20011024:	fd840793          	addi	a5,s0,-40
20011028:	85be                	mv	a1,a5
2001102a:	fe842503          	lw	a0,-24(s0)
2001102e:	3e1040ef          	jal	ra,20015c0e <metal_uart_getc>
E:\GitHub\HiFive01-RevB\FS_workspace\004_UART_TXRX\src/sifive-welcome.c:199

    	if(userInput >= 1)
20011032:	fd842783          	lw	a5,-40(s0)
20011036:	00f05863          	blez	a5,20011046 <main+0xc6>
E:\GitHub\HiFive01-RevB\FS_workspace\004_UART_TXRX\src/sifive-welcome.c:201
    	{
    		metal_led_off(led_red);
2001103a:	fe442503          	lw	a0,-28(s0)
2001103e:	28d040ef          	jal	ra,20015aca <metal_led_off>
E:\GitHub\HiFive01-RevB\FS_workspace\004_UART_TXRX\src/sifive-welcome.c:202
    		delay();
20011042:	2801                	jal	20011052 <delay>
20011044:	b7c5                	j	20011024 <main+0xa4>
E:\GitHub\HiFive01-RevB\FS_workspace\004_UART_TXRX\src/sifive-welcome.c:206
    	}
    	else
    	{
    		metal_led_on(led_red);
20011046:	fe442503          	lw	a0,-28(s0)
2001104a:	25d040ef          	jal	ra,20015aa6 <metal_led_on>
E:\GitHub\HiFive01-RevB\FS_workspace\004_UART_TXRX\src/sifive-welcome.c:207
    		delay();
2001104e:	2011                	jal	20011052 <delay>
E:\GitHub\HiFive01-RevB\FS_workspace\004_UART_TXRX\src/sifive-welcome.c:197
    	metal_uart_getc(uart0, &userInput);
20011050:	bfd1                	j	20011024 <main+0xa4>

20011052 <delay>:
delay():
E:\GitHub\HiFive01-RevB\FS_workspace\004_UART_TXRX\src/sifive-welcome.c:215

    return 0;
}

void delay(void)
{
20011052:	1101                	addi	sp,sp,-32
20011054:	ce22                	sw	s0,28(sp)
20011056:	1000                	addi	s0,sp,32
E:\GitHub\HiFive01-RevB\FS_workspace\004_UART_TXRX\src/sifive-welcome.c:220

//uint64_t ticks = sec * RTC_FREQ;
//mtime_wait(ticks);

	for(int i=0;i<1000;i++)
20011058:	fe042623          	sw	zero,-20(s0)
2001105c:	a025                	j	20011084 <delay+0x32>
E:\GitHub\HiFive01-RevB\FS_workspace\004_UART_TXRX\src/sifive-welcome.c:222
	{
		for(int j=0;j<300;j++);
2001105e:	fe042423          	sw	zero,-24(s0)
20011062:	a031                	j	2001106e <delay+0x1c>
E:\GitHub\HiFive01-RevB\FS_workspace\004_UART_TXRX\src/sifive-welcome.c:222 (discriminator 3)
20011064:	fe842783          	lw	a5,-24(s0)
20011068:	0785                	addi	a5,a5,1
2001106a:	fef42423          	sw	a5,-24(s0)
E:\GitHub\HiFive01-RevB\FS_workspace\004_UART_TXRX\src/sifive-welcome.c:222 (discriminator 1)
2001106e:	fe842703          	lw	a4,-24(s0)
20011072:	12b00793          	li	a5,299
20011076:	fee7d7e3          	bge	a5,a4,20011064 <delay+0x12>
E:\GitHub\HiFive01-RevB\FS_workspace\004_UART_TXRX\src/sifive-welcome.c:220 (discriminator 2)
	for(int i=0;i<1000;i++)
2001107a:	fec42783          	lw	a5,-20(s0)
2001107e:	0785                	addi	a5,a5,1
20011080:	fef42623          	sw	a5,-20(s0)
E:\GitHub\HiFive01-RevB\FS_workspace\004_UART_TXRX\src/sifive-welcome.c:220 (discriminator 1)
20011084:	fec42703          	lw	a4,-20(s0)
20011088:	3e700793          	li	a5,999
2001108c:	fce7d9e3          	bge	a5,a4,2001105e <delay+0xc>
E:\GitHub\HiFive01-RevB\FS_workspace\004_UART_TXRX\src/sifive-welcome.c:224
	}
}
20011090:	0001                	nop
20011092:	0001                	nop
20011094:	4472                	lw	s0,28(sp)
20011096:	6105                	addi	sp,sp,32
20011098:	8082                	ret

2001109a <strlen>:
strlen():
2001109a:	87aa                	mv	a5,a0
2001109c:	0007c703          	lbu	a4,0(a5)
200110a0:	0785                	addi	a5,a5,1
200110a2:	ff6d                	bnez	a4,2001109c <strlen+0x2>
200110a4:	40a78533          	sub	a0,a5,a0
200110a8:	157d                	addi	a0,a0,-1
200110aa:	8082                	ret

200110ac <__metal_driver_sifive_clint0_control_base>:
__metal_driver_sifive_clint0_control_base():
E:\GitHub\HiFive01-RevB\FS_workspace\004_UART_TXRX\bsp\build\debug/./metal/machine.h:233
/* --------------------- fixed_factor_clock ------------ */


/* --------------------- sifive_clint0 ------------ */
static __inline__ unsigned long __metal_driver_sifive_clint0_control_base(struct metal_interrupt *controller)
{
200110ac:	1101                	addi	sp,sp,-32
200110ae:	ce22                	sw	s0,28(sp)
200110b0:	1000                	addi	s0,sp,32
200110b2:	fea42623          	sw	a0,-20(s0)
E:\GitHub\HiFive01-RevB\FS_workspace\004_UART_TXRX\bsp\build\debug/./metal/machine.h:234
	if ((uintptr_t)controller == (uintptr_t)&__metal_dt_clint_2000000) {
200110b6:	fec42703          	lw	a4,-20(s0)
200110ba:	800017b7          	lui	a5,0x80001
200110be:	abc78793          	addi	a5,a5,-1348 # 80000abc <__global_pointer$+0xfffff80c>
200110c2:	00f71563          	bne	a4,a5,200110cc <__metal_driver_sifive_clint0_control_base+0x20>
E:\GitHub\HiFive01-RevB\FS_workspace\004_UART_TXRX\bsp\build\debug/./metal/machine.h:235
		return METAL_RISCV_CLINT0_2000000_BASE_ADDRESS;
200110c6:	020007b7          	lui	a5,0x2000
200110ca:	a011                	j	200110ce <__metal_driver_sifive_clint0_control_base+0x22>
E:\GitHub\HiFive01-RevB\FS_workspace\004_UART_TXRX\bsp\build\debug/./metal/machine.h:238
	}
	else {
		return 0;
200110cc:	4781                	li	a5,0
E:\GitHub\HiFive01-RevB\FS_workspace\004_UART_TXRX\bsp\build\debug/./metal/machine.h:240
	}
}
200110ce:	853e                	mv	a0,a5
200110d0:	4472                	lw	s0,28(sp)
200110d2:	6105                	addi	sp,sp,32
200110d4:	8082                	ret

200110d6 <__metal_driver_sifive_clint0_num_interrupts>:
__metal_driver_sifive_clint0_num_interrupts():
E:\GitHub\HiFive01-RevB\FS_workspace\004_UART_TXRX\bsp\build\debug/./metal/machine.h:253
		return 0;
	}
}

static __inline__ int __metal_driver_sifive_clint0_num_interrupts(struct metal_interrupt *controller)
{
200110d6:	1101                	addi	sp,sp,-32
200110d8:	ce22                	sw	s0,28(sp)
200110da:	1000                	addi	s0,sp,32
200110dc:	fea42623          	sw	a0,-20(s0)
E:\GitHub\HiFive01-RevB\FS_workspace\004_UART_TXRX\bsp\build\debug/./metal/machine.h:254
	if ((uintptr_t)controller == (uintptr_t)&__metal_dt_clint_2000000) {
200110e0:	fec42703          	lw	a4,-20(s0)
200110e4:	800017b7          	lui	a5,0x80001
200110e8:	abc78793          	addi	a5,a5,-1348 # 80000abc <__global_pointer$+0xfffff80c>
200110ec:	00f71463          	bne	a4,a5,200110f4 <__metal_driver_sifive_clint0_num_interrupts+0x1e>
E:\GitHub\HiFive01-RevB\FS_workspace\004_UART_TXRX\bsp\build\debug/./metal/machine.h:255
		return METAL_MAX_CLINT_INTERRUPTS;
200110f0:	4789                	li	a5,2
200110f2:	a011                	j	200110f6 <__metal_driver_sifive_clint0_num_interrupts+0x20>
E:\GitHub\HiFive01-RevB\FS_workspace\004_UART_TXRX\bsp\build\debug/./metal/machine.h:258
	}
	else {
		return 0;
200110f4:	4781                	li	a5,0
E:\GitHub\HiFive01-RevB\FS_workspace\004_UART_TXRX\bsp\build\debug/./metal/machine.h:260
	}
}
200110f6:	853e                	mv	a0,a5
200110f8:	4472                	lw	s0,28(sp)
200110fa:	6105                	addi	sp,sp,32
200110fc:	8082                	ret

200110fe <__metal_driver_sifive_clint0_interrupt_parents>:
__metal_driver_sifive_clint0_interrupt_parents():
E:\GitHub\HiFive01-RevB\FS_workspace\004_UART_TXRX\bsp\build\debug/./metal/machine.h:263

static __inline__ struct metal_interrupt * __metal_driver_sifive_clint0_interrupt_parents(struct metal_interrupt *controller, int idx)
{
200110fe:	1101                	addi	sp,sp,-32
20011100:	ce22                	sw	s0,28(sp)
20011102:	1000                	addi	s0,sp,32
20011104:	fea42623          	sw	a0,-20(s0)
20011108:	feb42423          	sw	a1,-24(s0)
E:\GitHub\HiFive01-RevB\FS_workspace\004_UART_TXRX\bsp\build\debug/./metal/machine.h:264
	if (idx == 0) {
2001110c:	fe842783          	lw	a5,-24(s0)
20011110:	e791                	bnez	a5,2001111c <__metal_driver_sifive_clint0_interrupt_parents+0x1e>
E:\GitHub\HiFive01-RevB\FS_workspace\004_UART_TXRX\bsp\build\debug/./metal/machine.h:265
		return (struct metal_interrupt *)&__metal_dt_cpu_0_interrupt_controller.controller;
20011112:	800007b7          	lui	a5,0x80000
20011116:	04078793          	addi	a5,a5,64 # 80000040 <__global_pointer$+0xffffed90>
2001111a:	a821                	j	20011132 <__metal_driver_sifive_clint0_interrupt_parents+0x34>
E:\GitHub\HiFive01-RevB\FS_workspace\004_UART_TXRX\bsp\build\debug/./metal/machine.h:267
	}
	else if (idx == 1) {
2001111c:	fe842703          	lw	a4,-24(s0)
20011120:	4785                	li	a5,1
20011122:	00f71763          	bne	a4,a5,20011130 <__metal_driver_sifive_clint0_interrupt_parents+0x32>
E:\GitHub\HiFive01-RevB\FS_workspace\004_UART_TXRX\bsp\build\debug/./metal/machine.h:268
		return (struct metal_interrupt *)&__metal_dt_cpu_0_interrupt_controller.controller;
20011126:	800007b7          	lui	a5,0x80000
2001112a:	04078793          	addi	a5,a5,64 # 80000040 <__global_pointer$+0xffffed90>
2001112e:	a011                	j	20011132 <__metal_driver_sifive_clint0_interrupt_parents+0x34>
E:\GitHub\HiFive01-RevB\FS_workspace\004_UART_TXRX\bsp\build\debug/./metal/machine.h:271
	}
	else {
		return NULL;
20011130:	4781                	li	a5,0
E:\GitHub\HiFive01-RevB\FS_workspace\004_UART_TXRX\bsp\build\debug/./metal/machine.h:273
	}
}
20011132:	853e                	mv	a0,a5
20011134:	4472                	lw	s0,28(sp)
20011136:	6105                	addi	sp,sp,32
20011138:	8082                	ret

2001113a <__metal_driver_sifive_clint0_interrupt_lines>:
__metal_driver_sifive_clint0_interrupt_lines():
E:\GitHub\HiFive01-RevB\FS_workspace\004_UART_TXRX\bsp\build\debug/./metal/machine.h:276

static __inline__ int __metal_driver_sifive_clint0_interrupt_lines(struct metal_interrupt *controller, int idx)
{
2001113a:	1101                	addi	sp,sp,-32
2001113c:	ce22                	sw	s0,28(sp)
2001113e:	1000                	addi	s0,sp,32
20011140:	fea42623          	sw	a0,-20(s0)
20011144:	feb42423          	sw	a1,-24(s0)
E:\GitHub\HiFive01-RevB\FS_workspace\004_UART_TXRX\bsp\build\debug/./metal/machine.h:277
	if (idx == 0) {
20011148:	fe842783          	lw	a5,-24(s0)
2001114c:	e399                	bnez	a5,20011152 <__metal_driver_sifive_clint0_interrupt_lines+0x18>
E:\GitHub\HiFive01-RevB\FS_workspace\004_UART_TXRX\bsp\build\debug/./metal/machine.h:278
		return 3;
2001114e:	478d                	li	a5,3
20011150:	a809                	j	20011162 <__metal_driver_sifive_clint0_interrupt_lines+0x28>
E:\GitHub\HiFive01-RevB\FS_workspace\004_UART_TXRX\bsp\build\debug/./metal/machine.h:280
	}
	else if (idx == 1) {
20011152:	fe842703          	lw	a4,-24(s0)
20011156:	4785                	li	a5,1
20011158:	00f71463          	bne	a4,a5,20011160 <__metal_driver_sifive_clint0_interrupt_lines+0x26>
E:\GitHub\HiFive01-RevB\FS_workspace\004_UART_TXRX\bsp\build\debug/./metal/machine.h:281
		return 7;
2001115c:	479d                	li	a5,7
2001115e:	a011                	j	20011162 <__metal_driver_sifive_clint0_interrupt_lines+0x28>
E:\GitHub\HiFive01-RevB\FS_workspace\004_UART_TXRX\bsp\build\debug/./metal/machine.h:284
	}
	else {
		return 0;
20011160:	4781                	li	a5,0
E:\GitHub\HiFive01-RevB\FS_workspace\004_UART_TXRX\bsp\build\debug/./metal/machine.h:286
	}
}
20011162:	853e                	mv	a0,a5
20011164:	4472                	lw	s0,28(sp)
20011166:	6105                	addi	sp,sp,32
20011168:	8082                	ret

2001116a <__metal_clint0_mtime_get>:
__metal_clint0_mtime_get():
E:/GitHub/HiFive01-RevB/FS_workspace/004_UART_TXRX/freedom-metal/src/drivers/riscv_clint0.c:14
#include <metal/drivers/riscv_clint0.h>
#include <metal/io.h>
#include <metal/machine.h>

unsigned long long
__metal_clint0_mtime_get(struct __metal_driver_riscv_clint0 *clint) {
2001116a:	715d                	addi	sp,sp,-80
2001116c:	c686                	sw	ra,76(sp)
2001116e:	c4a2                	sw	s0,72(sp)
20011170:	c2ca                	sw	s2,68(sp)
20011172:	c0ce                	sw	s3,64(sp)
20011174:	de52                	sw	s4,60(sp)
20011176:	dc56                	sw	s5,56(sp)
20011178:	da5a                	sw	s6,52(sp)
2001117a:	d85e                	sw	s7,48(sp)
2001117c:	d662                	sw	s8,44(sp)
2001117e:	d466                	sw	s9,40(sp)
20011180:	0880                	addi	s0,sp,80
20011182:	faa42e23          	sw	a0,-68(s0)
E:/GitHub/HiFive01-RevB/FS_workspace/004_UART_TXRX/freedom-metal/src/drivers/riscv_clint0.c:17
    __metal_io_u32 lo, hi;
    unsigned long control_base =
        __metal_driver_sifive_clint0_control_base(&clint->controller);
20011186:	fbc42783          	lw	a5,-68(s0)
2001118a:	853e                	mv	a0,a5
2001118c:	3705                	jal	200110ac <__metal_driver_sifive_clint0_control_base>
2001118e:	fca42623          	sw	a0,-52(s0)
E:/GitHub/HiFive01-RevB/FS_workspace/004_UART_TXRX/freedom-metal/src/drivers/riscv_clint0.c:21 (discriminator 1)

    /* Guard against rollover when reading */
    do {
        hi = __METAL_ACCESS_ONCE(
20011192:	fcc42703          	lw	a4,-52(s0)
20011196:	67b1                	lui	a5,0xc
20011198:	17f1                	addi	a5,a5,-4
2001119a:	97ba                	add	a5,a5,a4
2001119c:	439c                	lw	a5,0(a5)
2001119e:	fcf42423          	sw	a5,-56(s0)
E:/GitHub/HiFive01-RevB/FS_workspace/004_UART_TXRX/freedom-metal/src/drivers/riscv_clint0.c:23 (discriminator 1)
            (__metal_io_u32 *)(control_base + METAL_RISCV_CLINT0_MTIME + 4));
        lo = __METAL_ACCESS_ONCE(
200111a2:	fcc42703          	lw	a4,-52(s0)
200111a6:	67b1                	lui	a5,0xc
200111a8:	17e1                	addi	a5,a5,-8
200111aa:	97ba                	add	a5,a5,a4
200111ac:	439c                	lw	a5,0(a5)
200111ae:	fcf42223          	sw	a5,-60(s0)
E:/GitHub/HiFive01-RevB/FS_workspace/004_UART_TXRX/freedom-metal/src/drivers/riscv_clint0.c:25 (discriminator 1)
            (__metal_io_u32 *)(control_base + METAL_RISCV_CLINT0_MTIME));
    } while (__METAL_ACCESS_ONCE((__metal_io_u32 *)(control_base +
200111b2:	fcc42703          	lw	a4,-52(s0)
200111b6:	67b1                	lui	a5,0xc
200111b8:	17f1                	addi	a5,a5,-4
200111ba:	97ba                	add	a5,a5,a4
200111bc:	439c                	lw	a5,0(a5)
200111be:	fc842703          	lw	a4,-56(s0)
200111c2:	fcf718e3          	bne	a4,a5,20011192 <__metal_clint0_mtime_get+0x28>
E:/GitHub/HiFive01-RevB/FS_workspace/004_UART_TXRX/freedom-metal/src/drivers/riscv_clint0.c:29
                                                    METAL_RISCV_CLINT0_MTIME +
                                                    4)) != hi);

    return (((unsigned long long)hi) << 32) | lo;
200111c6:	fc842783          	lw	a5,-56(s0)
200111ca:	8c3e                	mv	s8,a5
200111cc:	4c81                	li	s9,0
200111ce:	000c1993          	slli	s3,s8,0x0
200111d2:	4901                	li	s2,0
200111d4:	fc442783          	lw	a5,-60(s0)
200111d8:	8a3e                	mv	s4,a5
200111da:	4a81                	li	s5,0
200111dc:	01496b33          	or	s6,s2,s4
200111e0:	0159ebb3          	or	s7,s3,s5
200111e4:	875a                	mv	a4,s6
200111e6:	87de                	mv	a5,s7
E:/GitHub/HiFive01-RevB/FS_workspace/004_UART_TXRX/freedom-metal/src/drivers/riscv_clint0.c:30
}
200111e8:	853a                	mv	a0,a4
200111ea:	85be                	mv	a1,a5
200111ec:	40b6                	lw	ra,76(sp)
200111ee:	4426                	lw	s0,72(sp)
200111f0:	4916                	lw	s2,68(sp)
200111f2:	4986                	lw	s3,64(sp)
200111f4:	5a72                	lw	s4,60(sp)
200111f6:	5ae2                	lw	s5,56(sp)
200111f8:	5b52                	lw	s6,52(sp)
200111fa:	5bc2                	lw	s7,48(sp)
200111fc:	5c32                	lw	s8,44(sp)
200111fe:	5ca2                	lw	s9,40(sp)
20011200:	6161                	addi	sp,sp,80
20011202:	8082                	ret

20011204 <__metal_driver_riscv_clint0_mtimecmp_set>:
__metal_driver_riscv_clint0_mtimecmp_set():
E:/GitHub/HiFive01-RevB/FS_workspace/004_UART_TXRX/freedom-metal/src/drivers/riscv_clint0.c:34

int __metal_driver_riscv_clint0_mtimecmp_set(struct metal_interrupt *controller,
                                             int hartid,
                                             unsigned long long time) {
20011204:	7179                	addi	sp,sp,-48
20011206:	d606                	sw	ra,44(sp)
20011208:	d422                	sw	s0,40(sp)
2001120a:	d24a                	sw	s2,36(sp)
2001120c:	d04e                	sw	s3,32(sp)
2001120e:	1800                	addi	s0,sp,48
20011210:	fca42e23          	sw	a0,-36(s0)
20011214:	fcb42c23          	sw	a1,-40(s0)
20011218:	fcc42823          	sw	a2,-48(s0)
2001121c:	fcd42a23          	sw	a3,-44(s0)
E:/GitHub/HiFive01-RevB/FS_workspace/004_UART_TXRX/freedom-metal/src/drivers/riscv_clint0.c:35
    struct __metal_driver_riscv_clint0 *clint =
20011220:	fdc42783          	lw	a5,-36(s0)
20011224:	fef42623          	sw	a5,-20(s0)
E:/GitHub/HiFive01-RevB/FS_workspace/004_UART_TXRX/freedom-metal/src/drivers/riscv_clint0.c:38
        (struct __metal_driver_riscv_clint0 *)(controller);
    unsigned long control_base =
        __metal_driver_sifive_clint0_control_base(&clint->controller);
20011228:	fec42783          	lw	a5,-20(s0)
2001122c:	853e                	mv	a0,a5
2001122e:	3dbd                	jal	200110ac <__metal_driver_sifive_clint0_control_base>
20011230:	fea42423          	sw	a0,-24(s0)
E:/GitHub/HiFive01-RevB/FS_workspace/004_UART_TXRX/freedom-metal/src/drivers/riscv_clint0.c:45
     * and are NOT internally latched for multiword transfers.
     * Need to be careful about sequencing to avoid triggering
     * spurious interrupts: For that set the high word to a max
     * value first.
     */
    __METAL_ACCESS_ONCE((__metal_io_u32 *)(control_base + (8 * hartid) +
20011234:	fd842783          	lw	a5,-40(s0)
20011238:	078e                	slli	a5,a5,0x3
2001123a:	873e                	mv	a4,a5
2001123c:	fe842783          	lw	a5,-24(s0)
20011240:	973e                	add	a4,a4,a5
20011242:	6791                	lui	a5,0x4
20011244:	0791                	addi	a5,a5,4
20011246:	97ba                	add	a5,a5,a4
20011248:	873e                	mv	a4,a5
E:/GitHub/HiFive01-RevB/FS_workspace/004_UART_TXRX/freedom-metal/src/drivers/riscv_clint0.c:47
                                           METAL_RISCV_CLINT0_MTIMECMP_BASE +
                                           4)) = 0xFFFFFFFF;
2001124a:	57fd                	li	a5,-1
2001124c:	c31c                	sw	a5,0(a4)
E:/GitHub/HiFive01-RevB/FS_workspace/004_UART_TXRX/freedom-metal/src/drivers/riscv_clint0.c:48
    __METAL_ACCESS_ONCE((__metal_io_u32 *)(control_base + (8 * hartid) +
2001124e:	fd842783          	lw	a5,-40(s0)
20011252:	078e                	slli	a5,a5,0x3
20011254:	873e                	mv	a4,a5
20011256:	fe842783          	lw	a5,-24(s0)
2001125a:	973e                	add	a4,a4,a5
2001125c:	6791                	lui	a5,0x4
2001125e:	97ba                	add	a5,a5,a4
20011260:	873e                	mv	a4,a5
E:/GitHub/HiFive01-RevB/FS_workspace/004_UART_TXRX/freedom-metal/src/drivers/riscv_clint0.c:50
                                           METAL_RISCV_CLINT0_MTIMECMP_BASE)) =
        (__metal_io_u32)time;
20011262:	fd042783          	lw	a5,-48(s0)
E:/GitHub/HiFive01-RevB/FS_workspace/004_UART_TXRX/freedom-metal/src/drivers/riscv_clint0.c:49
                                           METAL_RISCV_CLINT0_MTIMECMP_BASE)) =
20011266:	c31c                	sw	a5,0(a4)
E:/GitHub/HiFive01-RevB/FS_workspace/004_UART_TXRX/freedom-metal/src/drivers/riscv_clint0.c:53
    __METAL_ACCESS_ONCE((__metal_io_u32 *)(control_base + (8 * hartid) +
                                           METAL_RISCV_CLINT0_MTIMECMP_BASE +
                                           4)) = (__metal_io_u32)(time >> 32);
20011268:	fd442783          	lw	a5,-44(s0)
2001126c:	0007d913          	srli	s2,a5,0x0
20011270:	4981                	li	s3,0
E:/GitHub/HiFive01-RevB/FS_workspace/004_UART_TXRX/freedom-metal/src/drivers/riscv_clint0.c:51
    __METAL_ACCESS_ONCE((__metal_io_u32 *)(control_base + (8 * hartid) +
20011272:	fd842783          	lw	a5,-40(s0)
20011276:	078e                	slli	a5,a5,0x3
20011278:	873e                	mv	a4,a5
2001127a:	fe842783          	lw	a5,-24(s0)
2001127e:	973e                	add	a4,a4,a5
20011280:	6791                	lui	a5,0x4
20011282:	0791                	addi	a5,a5,4
20011284:	97ba                	add	a5,a5,a4
E:/GitHub/HiFive01-RevB/FS_workspace/004_UART_TXRX/freedom-metal/src/drivers/riscv_clint0.c:53
                                           4)) = (__metal_io_u32)(time >> 32);
20011286:	874a                	mv	a4,s2
20011288:	c398                	sw	a4,0(a5)
E:/GitHub/HiFive01-RevB/FS_workspace/004_UART_TXRX/freedom-metal/src/drivers/riscv_clint0.c:54
    return 0;
2001128a:	4781                	li	a5,0
E:/GitHub/HiFive01-RevB/FS_workspace/004_UART_TXRX/freedom-metal/src/drivers/riscv_clint0.c:55
}
2001128c:	853e                	mv	a0,a5
2001128e:	50b2                	lw	ra,44(sp)
20011290:	5422                	lw	s0,40(sp)
20011292:	5912                	lw	s2,36(sp)
20011294:	5982                	lw	s3,32(sp)
20011296:	6145                	addi	sp,sp,48
20011298:	8082                	ret

2001129a <_get_cpu_intc>:
_get_cpu_intc():
E:/GitHub/HiFive01-RevB/FS_workspace/004_UART_TXRX/freedom-metal/src/drivers/riscv_clint0.c:57

static struct metal_interrupt *_get_cpu_intc() {
2001129a:	1101                	addi	sp,sp,-32
2001129c:	ce06                	sw	ra,28(sp)
2001129e:	cc22                	sw	s0,24(sp)
200112a0:	1000                	addi	s0,sp,32
E:/GitHub/HiFive01-RevB/FS_workspace/004_UART_TXRX/freedom-metal/src/drivers/riscv_clint0.c:58
    int hartid = 0;
200112a2:	fe042623          	sw	zero,-20(s0)
E:/GitHub/HiFive01-RevB/FS_workspace/004_UART_TXRX/freedom-metal/src/drivers/riscv_clint0.c:59
    __asm__ volatile("csrr %[hartid], mhartid"
200112a6:	f14027f3          	csrr	a5,mhartid
200112aa:	fef42623          	sw	a5,-20(s0)
E:/GitHub/HiFive01-RevB/FS_workspace/004_UART_TXRX/freedom-metal/src/drivers/riscv_clint0.c:62
                     : [hartid] "=r"(hartid)::"memory");

    struct metal_cpu *cpu = metal_cpu_get(hartid);
200112ae:	fec42783          	lw	a5,-20(s0)
200112b2:	853e                	mv	a0,a5
200112b4:	65e040ef          	jal	ra,20015912 <metal_cpu_get>
200112b8:	fea42423          	sw	a0,-24(s0)
E:/GitHub/HiFive01-RevB/FS_workspace/004_UART_TXRX/freedom-metal/src/drivers/riscv_clint0.c:64

    return metal_cpu_interrupt_controller(cpu);
200112bc:	fe842503          	lw	a0,-24(s0)
200112c0:	62c040ef          	jal	ra,200158ec <metal_cpu_interrupt_controller>
200112c4:	87aa                	mv	a5,a0
E:/GitHub/HiFive01-RevB/FS_workspace/004_UART_TXRX/freedom-metal/src/drivers/riscv_clint0.c:65
}
200112c6:	853e                	mv	a0,a5
200112c8:	40f2                	lw	ra,28(sp)
200112ca:	4462                	lw	s0,24(sp)
200112cc:	6105                	addi	sp,sp,32
200112ce:	8082                	ret

200112d0 <__metal_driver_riscv_clint0_init>:
__metal_driver_riscv_clint0_init():
E:/GitHub/HiFive01-RevB/FS_workspace/004_UART_TXRX/freedom-metal/src/drivers/riscv_clint0.c:67

void __metal_driver_riscv_clint0_init(struct metal_interrupt *controller) {
200112d0:	7139                	addi	sp,sp,-64
200112d2:	de06                	sw	ra,60(sp)
200112d4:	dc22                	sw	s0,56(sp)
200112d6:	0080                	addi	s0,sp,64
200112d8:	fca42623          	sw	a0,-52(s0)
E:/GitHub/HiFive01-RevB/FS_workspace/004_UART_TXRX/freedom-metal/src/drivers/riscv_clint0.c:69
    int num_interrupts =
        __metal_driver_sifive_clint0_num_interrupts(controller);
200112dc:	fcc42503          	lw	a0,-52(s0)
200112e0:	3bdd                	jal	200110d6 <__metal_driver_sifive_clint0_num_interrupts>
200112e2:	fea42423          	sw	a0,-24(s0)
E:/GitHub/HiFive01-RevB/FS_workspace/004_UART_TXRX/freedom-metal/src/drivers/riscv_clint0.c:70
    struct __metal_driver_riscv_clint0 *clint =
200112e6:	fcc42783          	lw	a5,-52(s0)
200112ea:	fef42223          	sw	a5,-28(s0)
E:/GitHub/HiFive01-RevB/FS_workspace/004_UART_TXRX/freedom-metal/src/drivers/riscv_clint0.c:73
        (struct __metal_driver_riscv_clint0 *)(controller);

    if (!clint->init_done) {
200112ee:	fe442783          	lw	a5,-28(s0)
200112f2:	43dc                	lw	a5,4(a5)
200112f4:	efa9                	bnez	a5,2001134e <__metal_driver_riscv_clint0_init+0x7e>
E:/GitHub/HiFive01-RevB/FS_workspace/004_UART_TXRX/freedom-metal/src/drivers/riscv_clint0.c:76
        /* Register its interrupts with with parent controller, aka sw and
         * timerto its default isr */
        for (int i = 0; i < num_interrupts; i++) {
200112f6:	fe042623          	sw	zero,-20(s0)
200112fa:	a081                	j	2001133a <__metal_driver_riscv_clint0_init+0x6a>
E:/GitHub/HiFive01-RevB/FS_workspace/004_UART_TXRX/freedom-metal/src/drivers/riscv_clint0.c:78 (discriminator 3)
            struct metal_interrupt *intc =
                __metal_driver_sifive_clint0_interrupt_parents(controller, i);
200112fc:	fec42583          	lw	a1,-20(s0)
20011300:	fcc42503          	lw	a0,-52(s0)
20011304:	3bed                	jal	200110fe <__metal_driver_sifive_clint0_interrupt_parents>
20011306:	fea42023          	sw	a0,-32(s0)
E:/GitHub/HiFive01-RevB/FS_workspace/004_UART_TXRX/freedom-metal/src/drivers/riscv_clint0.c:80 (discriminator 3)
            int line =
                __metal_driver_sifive_clint0_interrupt_lines(controller, i);
2001130a:	fec42583          	lw	a1,-20(s0)
2001130e:	fcc42503          	lw	a0,-52(s0)
20011312:	3525                	jal	2001113a <__metal_driver_sifive_clint0_interrupt_lines>
20011314:	fca42e23          	sw	a0,-36(s0)
E:/GitHub/HiFive01-RevB/FS_workspace/004_UART_TXRX/freedom-metal/src/drivers/riscv_clint0.c:81 (discriminator 3)
            intc->vtable->interrupt_register(intc, line, NULL, controller);
20011318:	fe042783          	lw	a5,-32(s0)
2001131c:	439c                	lw	a5,0(a5)
2001131e:	4fdc                	lw	a5,28(a5)
20011320:	fcc42683          	lw	a3,-52(s0)
20011324:	4601                	li	a2,0
20011326:	fdc42583          	lw	a1,-36(s0)
2001132a:	fe042503          	lw	a0,-32(s0)
2001132e:	9782                	jalr	a5
E:/GitHub/HiFive01-RevB/FS_workspace/004_UART_TXRX/freedom-metal/src/drivers/riscv_clint0.c:76 (discriminator 3)
        for (int i = 0; i < num_interrupts; i++) {
20011330:	fec42783          	lw	a5,-20(s0)
20011334:	0785                	addi	a5,a5,1
20011336:	fef42623          	sw	a5,-20(s0)
E:/GitHub/HiFive01-RevB/FS_workspace/004_UART_TXRX/freedom-metal/src/drivers/riscv_clint0.c:76 (discriminator 1)
2001133a:	fec42703          	lw	a4,-20(s0)
2001133e:	fe842783          	lw	a5,-24(s0)
20011342:	faf74de3          	blt	a4,a5,200112fc <__metal_driver_riscv_clint0_init+0x2c>
E:/GitHub/HiFive01-RevB/FS_workspace/004_UART_TXRX/freedom-metal/src/drivers/riscv_clint0.c:83
        }
        clint->init_done = 1;
20011346:	fe442783          	lw	a5,-28(s0)
2001134a:	4705                	li	a4,1
2001134c:	c3d8                	sw	a4,4(a5)
E:/GitHub/HiFive01-RevB/FS_workspace/004_UART_TXRX/freedom-metal/src/drivers/riscv_clint0.c:85
    }
}
2001134e:	0001                	nop
20011350:	50f2                	lw	ra,60(sp)
20011352:	5462                	lw	s0,56(sp)
20011354:	6121                	addi	sp,sp,64
20011356:	8082                	ret

20011358 <__metal_driver_riscv_clint0_register>:
__metal_driver_riscv_clint0_register():
E:/GitHub/HiFive01-RevB/FS_workspace/004_UART_TXRX/freedom-metal/src/drivers/riscv_clint0.c:89

int __metal_driver_riscv_clint0_register(struct metal_interrupt *controller,
                                         int id, metal_interrupt_handler_t isr,
                                         void *priv) {
20011358:	7139                	addi	sp,sp,-64
2001135a:	de06                	sw	ra,60(sp)
2001135c:	dc22                	sw	s0,56(sp)
2001135e:	0080                	addi	s0,sp,64
20011360:	fca42623          	sw	a0,-52(s0)
20011364:	fcb42423          	sw	a1,-56(s0)
20011368:	fcc42223          	sw	a2,-60(s0)
2001136c:	fcd42023          	sw	a3,-64(s0)
E:/GitHub/HiFive01-RevB/FS_workspace/004_UART_TXRX/freedom-metal/src/drivers/riscv_clint0.c:90
    int rc = -1;
20011370:	57fd                	li	a5,-1
20011372:	fef42623          	sw	a5,-20(s0)
E:/GitHub/HiFive01-RevB/FS_workspace/004_UART_TXRX/freedom-metal/src/drivers/riscv_clint0.c:91
    metal_vector_mode mode = __metal_controller_interrupt_vector_mode();
20011376:	460010ef          	jal	ra,200127d6 <__metal_controller_interrupt_vector_mode>
2001137a:	fea42023          	sw	a0,-32(s0)
E:/GitHub/HiFive01-RevB/FS_workspace/004_UART_TXRX/freedom-metal/src/drivers/riscv_clint0.c:92
    struct metal_interrupt *intc = NULL;
2001137e:	fe042423          	sw	zero,-24(s0)
E:/GitHub/HiFive01-RevB/FS_workspace/004_UART_TXRX/freedom-metal/src/drivers/riscv_clint0.c:93
    struct metal_interrupt *cpu_intc = _get_cpu_intc();
20011382:	3f21                	jal	2001129a <_get_cpu_intc>
20011384:	fca42e23          	sw	a0,-36(s0)
E:/GitHub/HiFive01-RevB/FS_workspace/004_UART_TXRX/freedom-metal/src/drivers/riscv_clint0.c:95
    int num_interrupts =
        __metal_driver_sifive_clint0_num_interrupts(controller);
20011388:	fcc42503          	lw	a0,-52(s0)
2001138c:	33a9                	jal	200110d6 <__metal_driver_sifive_clint0_num_interrupts>
2001138e:	fca42c23          	sw	a0,-40(s0)
E:/GitHub/HiFive01-RevB/FS_workspace/004_UART_TXRX/freedom-metal/src/drivers/riscv_clint0.c:97

    if ((mode != METAL_VECTOR_MODE) && (mode != METAL_DIRECT_MODE)) {
20011392:	fe042703          	lw	a4,-32(s0)
20011396:	4785                	li	a5,1
20011398:	00f70863          	beq	a4,a5,200113a8 <__metal_driver_riscv_clint0_register+0x50>
E:/GitHub/HiFive01-RevB/FS_workspace/004_UART_TXRX/freedom-metal/src/drivers/riscv_clint0.c:97 (discriminator 1)
2001139c:	fe042783          	lw	a5,-32(s0)
200113a0:	c781                	beqz	a5,200113a8 <__metal_driver_riscv_clint0_register+0x50>
E:/GitHub/HiFive01-RevB/FS_workspace/004_UART_TXRX/freedom-metal/src/drivers/riscv_clint0.c:98
        return rc;
200113a2:	fec42783          	lw	a5,-20(s0)
200113a6:	a049                	j	20011428 <__metal_driver_riscv_clint0_register+0xd0>
E:/GitHub/HiFive01-RevB/FS_workspace/004_UART_TXRX/freedom-metal/src/drivers/riscv_clint0.c:101
    }

    for (int i = 0; i < num_interrupts; i++) {
200113a8:	fe042223          	sw	zero,-28(s0)
200113ac:	a091                	j	200113f0 <__metal_driver_riscv_clint0_register+0x98>
E:/GitHub/HiFive01-RevB/FS_workspace/004_UART_TXRX/freedom-metal/src/drivers/riscv_clint0.c:102
        int line = __metal_driver_sifive_clint0_interrupt_lines(controller, i);
200113ae:	fe442583          	lw	a1,-28(s0)
200113b2:	fcc42503          	lw	a0,-52(s0)
200113b6:	3351                	jal	2001113a <__metal_driver_sifive_clint0_interrupt_lines>
200113b8:	fca42a23          	sw	a0,-44(s0)
E:/GitHub/HiFive01-RevB/FS_workspace/004_UART_TXRX/freedom-metal/src/drivers/riscv_clint0.c:103
        intc = __metal_driver_sifive_clint0_interrupt_parents(controller, i);
200113bc:	fe442583          	lw	a1,-28(s0)
200113c0:	fcc42503          	lw	a0,-52(s0)
200113c4:	3b2d                	jal	200110fe <__metal_driver_sifive_clint0_interrupt_parents>
200113c6:	fea42423          	sw	a0,-24(s0)
E:/GitHub/HiFive01-RevB/FS_workspace/004_UART_TXRX/freedom-metal/src/drivers/riscv_clint0.c:104
        if (cpu_intc == intc && id == line) {
200113ca:	fdc42703          	lw	a4,-36(s0)
200113ce:	fe842783          	lw	a5,-24(s0)
200113d2:	00f71863          	bne	a4,a5,200113e2 <__metal_driver_riscv_clint0_register+0x8a>
E:/GitHub/HiFive01-RevB/FS_workspace/004_UART_TXRX/freedom-metal/src/drivers/riscv_clint0.c:104 (discriminator 1)
200113d6:	fc842703          	lw	a4,-56(s0)
200113da:	fd442783          	lw	a5,-44(s0)
200113de:	02f70063          	beq	a4,a5,200113fe <__metal_driver_riscv_clint0_register+0xa6>
E:/GitHub/HiFive01-RevB/FS_workspace/004_UART_TXRX/freedom-metal/src/drivers/riscv_clint0.c:107 (discriminator 2)
            break;
        }
        intc = NULL;
200113e2:	fe042423          	sw	zero,-24(s0)
E:/GitHub/HiFive01-RevB/FS_workspace/004_UART_TXRX/freedom-metal/src/drivers/riscv_clint0.c:101 (discriminator 2)
    for (int i = 0; i < num_interrupts; i++) {
200113e6:	fe442783          	lw	a5,-28(s0)
200113ea:	0785                	addi	a5,a5,1
200113ec:	fef42223          	sw	a5,-28(s0)
E:/GitHub/HiFive01-RevB/FS_workspace/004_UART_TXRX/freedom-metal/src/drivers/riscv_clint0.c:101 (discriminator 1)
200113f0:	fe442703          	lw	a4,-28(s0)
200113f4:	fd842783          	lw	a5,-40(s0)
200113f8:	faf74be3          	blt	a4,a5,200113ae <__metal_driver_riscv_clint0_register+0x56>
200113fc:	a011                	j	20011400 <__metal_driver_riscv_clint0_register+0xa8>
E:/GitHub/HiFive01-RevB/FS_workspace/004_UART_TXRX/freedom-metal/src/drivers/riscv_clint0.c:105
            break;
200113fe:	0001                	nop
E:/GitHub/HiFive01-RevB/FS_workspace/004_UART_TXRX/freedom-metal/src/drivers/riscv_clint0.c:111
    }

    /* Register its interrupts with parent controller */
    if (intc) {
20011400:	fe842783          	lw	a5,-24(s0)
20011404:	c385                	beqz	a5,20011424 <__metal_driver_riscv_clint0_register+0xcc>
E:/GitHub/HiFive01-RevB/FS_workspace/004_UART_TXRX/freedom-metal/src/drivers/riscv_clint0.c:112
        rc = intc->vtable->interrupt_register(intc, id, isr, priv);
20011406:	fe842783          	lw	a5,-24(s0)
2001140a:	439c                	lw	a5,0(a5)
2001140c:	4fdc                	lw	a5,28(a5)
2001140e:	fc042683          	lw	a3,-64(s0)
20011412:	fc442603          	lw	a2,-60(s0)
20011416:	fc842583          	lw	a1,-56(s0)
2001141a:	fe842503          	lw	a0,-24(s0)
2001141e:	9782                	jalr	a5
20011420:	fea42623          	sw	a0,-20(s0)
E:/GitHub/HiFive01-RevB/FS_workspace/004_UART_TXRX/freedom-metal/src/drivers/riscv_clint0.c:114
    }
    return rc;
20011424:	fec42783          	lw	a5,-20(s0)
E:/GitHub/HiFive01-RevB/FS_workspace/004_UART_TXRX/freedom-metal/src/drivers/riscv_clint0.c:115
}
20011428:	853e                	mv	a0,a5
2001142a:	50f2                	lw	ra,60(sp)
2001142c:	5462                	lw	s0,56(sp)
2001142e:	6121                	addi	sp,sp,64
20011430:	8082                	ret

20011432 <__metal_driver_riscv_clint0_vector_register>:
__metal_driver_riscv_clint0_vector_register():
E:/GitHub/HiFive01-RevB/FS_workspace/004_UART_TXRX/freedom-metal/src/drivers/riscv_clint0.c:119

int __metal_driver_riscv_clint0_vector_register(
    struct metal_interrupt *controller, int id,
    metal_interrupt_vector_handler_t isr, void *priv) {
20011432:	7179                	addi	sp,sp,-48
20011434:	d622                	sw	s0,44(sp)
20011436:	1800                	addi	s0,sp,48
20011438:	fca42e23          	sw	a0,-36(s0)
2001143c:	fcb42c23          	sw	a1,-40(s0)
20011440:	fcc42a23          	sw	a2,-44(s0)
20011444:	fcd42823          	sw	a3,-48(s0)
E:/GitHub/HiFive01-RevB/FS_workspace/004_UART_TXRX/freedom-metal/src/drivers/riscv_clint0.c:121
    /* Not supported. User can override the 'weak' handler with their own */
    int rc = -1;
20011448:	57fd                	li	a5,-1
2001144a:	fef42623          	sw	a5,-20(s0)
E:/GitHub/HiFive01-RevB/FS_workspace/004_UART_TXRX/freedom-metal/src/drivers/riscv_clint0.c:122
    return rc;
2001144e:	fec42783          	lw	a5,-20(s0)
E:/GitHub/HiFive01-RevB/FS_workspace/004_UART_TXRX/freedom-metal/src/drivers/riscv_clint0.c:123
}
20011452:	853e                	mv	a0,a5
20011454:	5432                	lw	s0,44(sp)
20011456:	6145                	addi	sp,sp,48
20011458:	8082                	ret

2001145a <__metal_driver_riscv_clint0_get_vector_mode>:
__metal_driver_riscv_clint0_get_vector_mode():
E:/GitHub/HiFive01-RevB/FS_workspace/004_UART_TXRX/freedom-metal/src/drivers/riscv_clint0.c:126

metal_vector_mode __metal_driver_riscv_clint0_get_vector_mode(
    struct metal_interrupt *controller) {
2001145a:	1101                	addi	sp,sp,-32
2001145c:	ce06                	sw	ra,28(sp)
2001145e:	cc22                	sw	s0,24(sp)
20011460:	1000                	addi	s0,sp,32
20011462:	fea42623          	sw	a0,-20(s0)
E:/GitHub/HiFive01-RevB/FS_workspace/004_UART_TXRX/freedom-metal/src/drivers/riscv_clint0.c:127
    return __metal_controller_interrupt_vector_mode();
20011466:	370010ef          	jal	ra,200127d6 <__metal_controller_interrupt_vector_mode>
2001146a:	87aa                	mv	a5,a0
E:/GitHub/HiFive01-RevB/FS_workspace/004_UART_TXRX/freedom-metal/src/drivers/riscv_clint0.c:128
}
2001146c:	853e                	mv	a0,a5
2001146e:	40f2                	lw	ra,28(sp)
20011470:	4462                	lw	s0,24(sp)
20011472:	6105                	addi	sp,sp,32
20011474:	8082                	ret

20011476 <__metal_driver_riscv_clint0_set_vector_mode>:
__metal_driver_riscv_clint0_set_vector_mode():
E:/GitHub/HiFive01-RevB/FS_workspace/004_UART_TXRX/freedom-metal/src/drivers/riscv_clint0.c:131

int __metal_driver_riscv_clint0_set_vector_mode(
    struct metal_interrupt *controller, metal_vector_mode mode) {
20011476:	7179                	addi	sp,sp,-48
20011478:	d606                	sw	ra,44(sp)
2001147a:	d422                	sw	s0,40(sp)
2001147c:	1800                	addi	s0,sp,48
2001147e:	fca42e23          	sw	a0,-36(s0)
20011482:	fcb42c23          	sw	a1,-40(s0)
E:/GitHub/HiFive01-RevB/FS_workspace/004_UART_TXRX/freedom-metal/src/drivers/riscv_clint0.c:132
    int rc = -1;
20011486:	57fd                	li	a5,-1
20011488:	fef42623          	sw	a5,-20(s0)
E:/GitHub/HiFive01-RevB/FS_workspace/004_UART_TXRX/freedom-metal/src/drivers/riscv_clint0.c:133
    struct metal_interrupt *intc = _get_cpu_intc();
2001148c:	3539                	jal	2001129a <_get_cpu_intc>
2001148e:	fea42423          	sw	a0,-24(s0)
E:/GitHub/HiFive01-RevB/FS_workspace/004_UART_TXRX/freedom-metal/src/drivers/riscv_clint0.c:135

    if (intc) {
20011492:	fe842783          	lw	a5,-24(s0)
20011496:	c395                	beqz	a5,200114ba <__metal_driver_riscv_clint0_set_vector_mode+0x44>
E:/GitHub/HiFive01-RevB/FS_workspace/004_UART_TXRX/freedom-metal/src/drivers/riscv_clint0.c:138
        /* Valid vector modes are VECTOR and DIRECT, anything else is invalid
         * (-1) */
        switch (mode) {
20011498:	fd842703          	lw	a4,-40(s0)
2001149c:	4785                	li	a5,1
2001149e:	02e7e063          	bltu	a5,a4,200114be <__metal_driver_riscv_clint0_set_vector_mode+0x48>
E:/GitHub/HiFive01-RevB/FS_workspace/004_UART_TXRX/freedom-metal/src/drivers/riscv_clint0.c:141
        case METAL_VECTOR_MODE:
        case METAL_DIRECT_MODE:
            rc = intc->vtable->interrupt_set_vector_mode(intc, mode);
200114a2:	fe842783          	lw	a5,-24(s0)
200114a6:	439c                	lw	a5,0(a5)
200114a8:	43dc                	lw	a5,4(a5)
200114aa:	fd842583          	lw	a1,-40(s0)
200114ae:	fe842503          	lw	a0,-24(s0)
200114b2:	9782                	jalr	a5
200114b4:	fea42623          	sw	a0,-20(s0)
E:/GitHub/HiFive01-RevB/FS_workspace/004_UART_TXRX/freedom-metal/src/drivers/riscv_clint0.c:142
            break;
200114b8:	a021                	j	200114c0 <__metal_driver_riscv_clint0_set_vector_mode+0x4a>
E:/GitHub/HiFive01-RevB/FS_workspace/004_UART_TXRX/freedom-metal/src/drivers/riscv_clint0.c:146
        default:
            break;
        }
    }
200114ba:	0001                	nop
200114bc:	a011                	j	200114c0 <__metal_driver_riscv_clint0_set_vector_mode+0x4a>
E:/GitHub/HiFive01-RevB/FS_workspace/004_UART_TXRX/freedom-metal/src/drivers/riscv_clint0.c:144
            break;
200114be:	0001                	nop
E:/GitHub/HiFive01-RevB/FS_workspace/004_UART_TXRX/freedom-metal/src/drivers/riscv_clint0.c:147
    return rc;
200114c0:	fec42783          	lw	a5,-20(s0)
E:/GitHub/HiFive01-RevB/FS_workspace/004_UART_TXRX/freedom-metal/src/drivers/riscv_clint0.c:148
}
200114c4:	853e                	mv	a0,a5
200114c6:	50b2                	lw	ra,44(sp)
200114c8:	5422                	lw	s0,40(sp)
200114ca:	6145                	addi	sp,sp,48
200114cc:	8082                	ret

200114ce <__metal_driver_riscv_clint0_enable>:
__metal_driver_riscv_clint0_enable():
E:/GitHub/HiFive01-RevB/FS_workspace/004_UART_TXRX/freedom-metal/src/drivers/riscv_clint0.c:151

int __metal_driver_riscv_clint0_enable(struct metal_interrupt *controller,
                                       int id) {
200114ce:	7139                	addi	sp,sp,-64
200114d0:	de06                	sw	ra,60(sp)
200114d2:	dc22                	sw	s0,56(sp)
200114d4:	0080                	addi	s0,sp,64
200114d6:	fca42623          	sw	a0,-52(s0)
200114da:	fcb42423          	sw	a1,-56(s0)
E:/GitHub/HiFive01-RevB/FS_workspace/004_UART_TXRX/freedom-metal/src/drivers/riscv_clint0.c:152
    int rc = -1;
200114de:	57fd                	li	a5,-1
200114e0:	fef42623          	sw	a5,-20(s0)
E:/GitHub/HiFive01-RevB/FS_workspace/004_UART_TXRX/freedom-metal/src/drivers/riscv_clint0.c:154

    if (id) {
200114e4:	fc842783          	lw	a5,-56(s0)
200114e8:	c7c9                	beqz	a5,20011572 <__metal_driver_riscv_clint0_enable+0xa4>
E:/GitHub/HiFive01-RevB/FS_workspace/004_UART_TXRX/freedom-metal/src/drivers/riscv_clint0.c:155
        struct metal_interrupt *intc = NULL;
200114ea:	fe042423          	sw	zero,-24(s0)
E:/GitHub/HiFive01-RevB/FS_workspace/004_UART_TXRX/freedom-metal/src/drivers/riscv_clint0.c:156
        struct metal_interrupt *cpu_intc = _get_cpu_intc();
200114ee:	3375                	jal	2001129a <_get_cpu_intc>
200114f0:	fea42023          	sw	a0,-32(s0)
E:/GitHub/HiFive01-RevB/FS_workspace/004_UART_TXRX/freedom-metal/src/drivers/riscv_clint0.c:158
        int num_interrupts =
            __metal_driver_sifive_clint0_num_interrupts(controller);
200114f4:	fcc42503          	lw	a0,-52(s0)
200114f8:	3ef9                	jal	200110d6 <__metal_driver_sifive_clint0_num_interrupts>
200114fa:	fca42e23          	sw	a0,-36(s0)
E:/GitHub/HiFive01-RevB/FS_workspace/004_UART_TXRX/freedom-metal/src/drivers/riscv_clint0.c:160

        for (int i = 0; i < num_interrupts; i++) {
200114fe:	fe042223          	sw	zero,-28(s0)
20011502:	a091                	j	20011546 <__metal_driver_riscv_clint0_enable+0x78>
E:/GitHub/HiFive01-RevB/FS_workspace/004_UART_TXRX/freedom-metal/src/drivers/riscv_clint0.c:162
            int line =
                __metal_driver_sifive_clint0_interrupt_lines(controller, i);
20011504:	fe442583          	lw	a1,-28(s0)
20011508:	fcc42503          	lw	a0,-52(s0)
2001150c:	313d                	jal	2001113a <__metal_driver_sifive_clint0_interrupt_lines>
2001150e:	fca42c23          	sw	a0,-40(s0)
E:/GitHub/HiFive01-RevB/FS_workspace/004_UART_TXRX/freedom-metal/src/drivers/riscv_clint0.c:164
            intc =
                __metal_driver_sifive_clint0_interrupt_parents(controller, i);
20011512:	fe442583          	lw	a1,-28(s0)
20011516:	fcc42503          	lw	a0,-52(s0)
2001151a:	36d5                	jal	200110fe <__metal_driver_sifive_clint0_interrupt_parents>
2001151c:	fea42423          	sw	a0,-24(s0)
E:/GitHub/HiFive01-RevB/FS_workspace/004_UART_TXRX/freedom-metal/src/drivers/riscv_clint0.c:165
            if (cpu_intc == intc && id == line) {
20011520:	fe042703          	lw	a4,-32(s0)
20011524:	fe842783          	lw	a5,-24(s0)
20011528:	00f71863          	bne	a4,a5,20011538 <__metal_driver_riscv_clint0_enable+0x6a>
E:/GitHub/HiFive01-RevB/FS_workspace/004_UART_TXRX/freedom-metal/src/drivers/riscv_clint0.c:165 (discriminator 1)
2001152c:	fc842703          	lw	a4,-56(s0)
20011530:	fd842783          	lw	a5,-40(s0)
20011534:	02f70063          	beq	a4,a5,20011554 <__metal_driver_riscv_clint0_enable+0x86>
E:/GitHub/HiFive01-RevB/FS_workspace/004_UART_TXRX/freedom-metal/src/drivers/riscv_clint0.c:168 (discriminator 2)
                break;
            }
            intc = NULL;
20011538:	fe042423          	sw	zero,-24(s0)
E:/GitHub/HiFive01-RevB/FS_workspace/004_UART_TXRX/freedom-metal/src/drivers/riscv_clint0.c:160 (discriminator 2)
        for (int i = 0; i < num_interrupts; i++) {
2001153c:	fe442783          	lw	a5,-28(s0)
20011540:	0785                	addi	a5,a5,1
20011542:	fef42223          	sw	a5,-28(s0)
E:/GitHub/HiFive01-RevB/FS_workspace/004_UART_TXRX/freedom-metal/src/drivers/riscv_clint0.c:160 (discriminator 1)
20011546:	fe442703          	lw	a4,-28(s0)
2001154a:	fdc42783          	lw	a5,-36(s0)
2001154e:	faf74be3          	blt	a4,a5,20011504 <__metal_driver_riscv_clint0_enable+0x36>
20011552:	a011                	j	20011556 <__metal_driver_riscv_clint0_enable+0x88>
E:/GitHub/HiFive01-RevB/FS_workspace/004_UART_TXRX/freedom-metal/src/drivers/riscv_clint0.c:166
                break;
20011554:	0001                	nop
E:/GitHub/HiFive01-RevB/FS_workspace/004_UART_TXRX/freedom-metal/src/drivers/riscv_clint0.c:172
        }

        /* Enable its interrupts with parent controller */
        if (intc) {
20011556:	fe842783          	lw	a5,-24(s0)
2001155a:	cf81                	beqz	a5,20011572 <__metal_driver_riscv_clint0_enable+0xa4>
E:/GitHub/HiFive01-RevB/FS_workspace/004_UART_TXRX/freedom-metal/src/drivers/riscv_clint0.c:173
            rc = intc->vtable->interrupt_enable(intc, id);
2001155c:	fe842783          	lw	a5,-24(s0)
20011560:	439c                	lw	a5,0(a5)
20011562:	53dc                	lw	a5,36(a5)
20011564:	fc842583          	lw	a1,-56(s0)
20011568:	fe842503          	lw	a0,-24(s0)
2001156c:	9782                	jalr	a5
2001156e:	fea42623          	sw	a0,-20(s0)
E:/GitHub/HiFive01-RevB/FS_workspace/004_UART_TXRX/freedom-metal/src/drivers/riscv_clint0.c:177
        }
    }

    return rc;
20011572:	fec42783          	lw	a5,-20(s0)
E:/GitHub/HiFive01-RevB/FS_workspace/004_UART_TXRX/freedom-metal/src/drivers/riscv_clint0.c:178
}
20011576:	853e                	mv	a0,a5
20011578:	50f2                	lw	ra,60(sp)
2001157a:	5462                	lw	s0,56(sp)
2001157c:	6121                	addi	sp,sp,64
2001157e:	8082                	ret

20011580 <__metal_driver_riscv_clint0_disable>:
__metal_driver_riscv_clint0_disable():
E:/GitHub/HiFive01-RevB/FS_workspace/004_UART_TXRX/freedom-metal/src/drivers/riscv_clint0.c:181

int __metal_driver_riscv_clint0_disable(struct metal_interrupt *controller,
                                        int id) {
20011580:	7139                	addi	sp,sp,-64
20011582:	de06                	sw	ra,60(sp)
20011584:	dc22                	sw	s0,56(sp)
20011586:	0080                	addi	s0,sp,64
20011588:	fca42623          	sw	a0,-52(s0)
2001158c:	fcb42423          	sw	a1,-56(s0)
E:/GitHub/HiFive01-RevB/FS_workspace/004_UART_TXRX/freedom-metal/src/drivers/riscv_clint0.c:182
    int rc = -1;
20011590:	57fd                	li	a5,-1
20011592:	fef42623          	sw	a5,-20(s0)
E:/GitHub/HiFive01-RevB/FS_workspace/004_UART_TXRX/freedom-metal/src/drivers/riscv_clint0.c:184

    if (id) {
20011596:	fc842783          	lw	a5,-56(s0)
2001159a:	c7c9                	beqz	a5,20011624 <__metal_driver_riscv_clint0_disable+0xa4>
E:/GitHub/HiFive01-RevB/FS_workspace/004_UART_TXRX/freedom-metal/src/drivers/riscv_clint0.c:185
        struct metal_interrupt *intc = NULL;
2001159c:	fe042423          	sw	zero,-24(s0)
E:/GitHub/HiFive01-RevB/FS_workspace/004_UART_TXRX/freedom-metal/src/drivers/riscv_clint0.c:186
        struct metal_interrupt *cpu_intc = _get_cpu_intc();
200115a0:	39ed                	jal	2001129a <_get_cpu_intc>
200115a2:	fea42023          	sw	a0,-32(s0)
E:/GitHub/HiFive01-RevB/FS_workspace/004_UART_TXRX/freedom-metal/src/drivers/riscv_clint0.c:188
        int num_interrupts =
            __metal_driver_sifive_clint0_num_interrupts(controller);
200115a6:	fcc42503          	lw	a0,-52(s0)
200115aa:	3635                	jal	200110d6 <__metal_driver_sifive_clint0_num_interrupts>
200115ac:	fca42e23          	sw	a0,-36(s0)
E:/GitHub/HiFive01-RevB/FS_workspace/004_UART_TXRX/freedom-metal/src/drivers/riscv_clint0.c:190

        for (int i = 0; i < num_interrupts; i++) {
200115b0:	fe042223          	sw	zero,-28(s0)
200115b4:	a091                	j	200115f8 <__metal_driver_riscv_clint0_disable+0x78>
E:/GitHub/HiFive01-RevB/FS_workspace/004_UART_TXRX/freedom-metal/src/drivers/riscv_clint0.c:192
            int line =
                __metal_driver_sifive_clint0_interrupt_lines(controller, i);
200115b6:	fe442583          	lw	a1,-28(s0)
200115ba:	fcc42503          	lw	a0,-52(s0)
200115be:	3eb5                	jal	2001113a <__metal_driver_sifive_clint0_interrupt_lines>
200115c0:	fca42c23          	sw	a0,-40(s0)
E:/GitHub/HiFive01-RevB/FS_workspace/004_UART_TXRX/freedom-metal/src/drivers/riscv_clint0.c:194
            intc =
                __metal_driver_sifive_clint0_interrupt_parents(controller, i);
200115c4:	fe442583          	lw	a1,-28(s0)
200115c8:	fcc42503          	lw	a0,-52(s0)
200115cc:	3e0d                	jal	200110fe <__metal_driver_sifive_clint0_interrupt_parents>
200115ce:	fea42423          	sw	a0,-24(s0)
E:/GitHub/HiFive01-RevB/FS_workspace/004_UART_TXRX/freedom-metal/src/drivers/riscv_clint0.c:195
            if (cpu_intc == intc && id == line) {
200115d2:	fe042703          	lw	a4,-32(s0)
200115d6:	fe842783          	lw	a5,-24(s0)
200115da:	00f71863          	bne	a4,a5,200115ea <__metal_driver_riscv_clint0_disable+0x6a>
E:/GitHub/HiFive01-RevB/FS_workspace/004_UART_TXRX/freedom-metal/src/drivers/riscv_clint0.c:195 (discriminator 1)
200115de:	fc842703          	lw	a4,-56(s0)
200115e2:	fd842783          	lw	a5,-40(s0)
200115e6:	02f70063          	beq	a4,a5,20011606 <__metal_driver_riscv_clint0_disable+0x86>
E:/GitHub/HiFive01-RevB/FS_workspace/004_UART_TXRX/freedom-metal/src/drivers/riscv_clint0.c:198 (discriminator 2)
                break;
            }
            intc = NULL;
200115ea:	fe042423          	sw	zero,-24(s0)
E:/GitHub/HiFive01-RevB/FS_workspace/004_UART_TXRX/freedom-metal/src/drivers/riscv_clint0.c:190 (discriminator 2)
        for (int i = 0; i < num_interrupts; i++) {
200115ee:	fe442783          	lw	a5,-28(s0)
200115f2:	0785                	addi	a5,a5,1
200115f4:	fef42223          	sw	a5,-28(s0)
E:/GitHub/HiFive01-RevB/FS_workspace/004_UART_TXRX/freedom-metal/src/drivers/riscv_clint0.c:190 (discriminator 1)
200115f8:	fe442703          	lw	a4,-28(s0)
200115fc:	fdc42783          	lw	a5,-36(s0)
20011600:	faf74be3          	blt	a4,a5,200115b6 <__metal_driver_riscv_clint0_disable+0x36>
20011604:	a011                	j	20011608 <__metal_driver_riscv_clint0_disable+0x88>
E:/GitHub/HiFive01-RevB/FS_workspace/004_UART_TXRX/freedom-metal/src/drivers/riscv_clint0.c:196
                break;
20011606:	0001                	nop
E:/GitHub/HiFive01-RevB/FS_workspace/004_UART_TXRX/freedom-metal/src/drivers/riscv_clint0.c:202
        }

        /* Disable its interrupts with parent controller */
        if (intc) {
20011608:	fe842783          	lw	a5,-24(s0)
2001160c:	cf81                	beqz	a5,20011624 <__metal_driver_riscv_clint0_disable+0xa4>
E:/GitHub/HiFive01-RevB/FS_workspace/004_UART_TXRX/freedom-metal/src/drivers/riscv_clint0.c:203
            rc = intc->vtable->interrupt_disable(intc, id);
2001160e:	fe842783          	lw	a5,-24(s0)
20011612:	439c                	lw	a5,0(a5)
20011614:	579c                	lw	a5,40(a5)
20011616:	fc842583          	lw	a1,-56(s0)
2001161a:	fe842503          	lw	a0,-24(s0)
2001161e:	9782                	jalr	a5
20011620:	fea42623          	sw	a0,-20(s0)
E:/GitHub/HiFive01-RevB/FS_workspace/004_UART_TXRX/freedom-metal/src/drivers/riscv_clint0.c:207
        }
    }

    return rc;
20011624:	fec42783          	lw	a5,-20(s0)
E:/GitHub/HiFive01-RevB/FS_workspace/004_UART_TXRX/freedom-metal/src/drivers/riscv_clint0.c:208
}
20011628:	853e                	mv	a0,a5
2001162a:	50f2                	lw	ra,60(sp)
2001162c:	5462                	lw	s0,56(sp)
2001162e:	6121                	addi	sp,sp,64
20011630:	8082                	ret

20011632 <__metal_driver_riscv_clint0_command_request>:
__metal_driver_riscv_clint0_command_request():
E:/GitHub/HiFive01-RevB/FS_workspace/004_UART_TXRX/freedom-metal/src/drivers/riscv_clint0.c:211

int __metal_driver_riscv_clint0_command_request(
    struct metal_interrupt *controller, int command, void *data) {
20011632:	7179                	addi	sp,sp,-48
20011634:	d606                	sw	ra,44(sp)
20011636:	d422                	sw	s0,40(sp)
20011638:	1800                	addi	s0,sp,48
2001163a:	fca42e23          	sw	a0,-36(s0)
2001163e:	fcb42c23          	sw	a1,-40(s0)
20011642:	fcc42a23          	sw	a2,-44(s0)
E:/GitHub/HiFive01-RevB/FS_workspace/004_UART_TXRX/freedom-metal/src/drivers/riscv_clint0.c:213
    int hartid;
    int rc = -1;
20011646:	57fd                	li	a5,-1
20011648:	fef42623          	sw	a5,-20(s0)
E:/GitHub/HiFive01-RevB/FS_workspace/004_UART_TXRX/freedom-metal/src/drivers/riscv_clint0.c:214
    struct __metal_driver_riscv_clint0 *clint =
2001164c:	fdc42783          	lw	a5,-36(s0)
20011650:	fef42423          	sw	a5,-24(s0)
E:/GitHub/HiFive01-RevB/FS_workspace/004_UART_TXRX/freedom-metal/src/drivers/riscv_clint0.c:217
        (struct __metal_driver_riscv_clint0 *)(controller);
    unsigned long control_base =
        __metal_driver_sifive_clint0_control_base(controller);
20011654:	fdc42503          	lw	a0,-36(s0)
20011658:	3c91                	jal	200110ac <__metal_driver_sifive_clint0_control_base>
2001165a:	fea42223          	sw	a0,-28(s0)
E:/GitHub/HiFive01-RevB/FS_workspace/004_UART_TXRX/freedom-metal/src/drivers/riscv_clint0.c:219

    switch (command) {
2001165e:	fd842703          	lw	a4,-40(s0)
20011662:	4791                	li	a5,4
20011664:	0cf70063          	beq	a4,a5,20011724 <__metal_driver_riscv_clint0_command_request+0xf2>
20011668:	fd842703          	lw	a4,-40(s0)
2001166c:	4791                	li	a5,4
2001166e:	0ee7c063          	blt	a5,a4,2001174e <__metal_driver_riscv_clint0_command_request+0x11c>
20011672:	fd842703          	lw	a4,-40(s0)
20011676:	478d                	li	a5,3
20011678:	06f70563          	beq	a4,a5,200116e2 <__metal_driver_riscv_clint0_command_request+0xb0>
2001167c:	fd842703          	lw	a4,-40(s0)
20011680:	478d                	li	a5,3
20011682:	0ce7c663          	blt	a5,a4,2001174e <__metal_driver_riscv_clint0_command_request+0x11c>
20011686:	fd842703          	lw	a4,-40(s0)
2001168a:	4785                	li	a5,1
2001168c:	00f70863          	beq	a4,a5,2001169c <__metal_driver_riscv_clint0_command_request+0x6a>
20011690:	fd842703          	lw	a4,-40(s0)
20011694:	4789                	li	a5,2
20011696:	02f70263          	beq	a4,a5,200116ba <__metal_driver_riscv_clint0_command_request+0x88>
E:/GitHub/HiFive01-RevB/FS_workspace/004_UART_TXRX/freedom-metal/src/drivers/riscv_clint0.c:263
            rc = __METAL_ACCESS_ONCE(
                (__metal_io_u32 *)(control_base + (hartid * 4)));
        }
        break;
    default:
        break;
2001169a:	a855                	j	2001174e <__metal_driver_riscv_clint0_command_request+0x11c>
E:/GitHub/HiFive01-RevB/FS_workspace/004_UART_TXRX/freedom-metal/src/drivers/riscv_clint0.c:221
        if (data) {
2001169c:	fd442783          	lw	a5,-44(s0)
200116a0:	cbcd                	beqz	a5,20011752 <__metal_driver_riscv_clint0_command_request+0x120>
E:/GitHub/HiFive01-RevB/FS_workspace/004_UART_TXRX/freedom-metal/src/drivers/riscv_clint0.c:222
            *(unsigned long long *)data = __metal_clint0_mtime_get(clint);
200116a2:	fe842503          	lw	a0,-24(s0)
200116a6:	34d1                	jal	2001116a <__metal_clint0_mtime_get>
200116a8:	872a                	mv	a4,a0
200116aa:	87ae                	mv	a5,a1
200116ac:	fd442683          	lw	a3,-44(s0)
200116b0:	c298                	sw	a4,0(a3)
200116b2:	c2dc                	sw	a5,4(a3)
E:/GitHub/HiFive01-RevB/FS_workspace/004_UART_TXRX/freedom-metal/src/drivers/riscv_clint0.c:223
            rc = 0;
200116b4:	fe042623          	sw	zero,-20(s0)
E:/GitHub/HiFive01-RevB/FS_workspace/004_UART_TXRX/freedom-metal/src/drivers/riscv_clint0.c:225
        break;
200116b8:	a869                	j	20011752 <__metal_driver_riscv_clint0_command_request+0x120>
E:/GitHub/HiFive01-RevB/FS_workspace/004_UART_TXRX/freedom-metal/src/drivers/riscv_clint0.c:227
        if (data) {
200116ba:	fd442783          	lw	a5,-44(s0)
200116be:	cfc1                	beqz	a5,20011756 <__metal_driver_riscv_clint0_command_request+0x124>
E:/GitHub/HiFive01-RevB/FS_workspace/004_UART_TXRX/freedom-metal/src/drivers/riscv_clint0.c:228
            hartid = *(int *)data;
200116c0:	fd442783          	lw	a5,-44(s0)
200116c4:	439c                	lw	a5,0(a5)
200116c6:	fef42023          	sw	a5,-32(s0)
E:/GitHub/HiFive01-RevB/FS_workspace/004_UART_TXRX/freedom-metal/src/drivers/riscv_clint0.c:229
            __METAL_ACCESS_ONCE((
200116ca:	fe042783          	lw	a5,-32(s0)
200116ce:	078a                	slli	a5,a5,0x2
200116d0:	873e                	mv	a4,a5
200116d2:	fe442783          	lw	a5,-28(s0)
200116d6:	97ba                	add	a5,a5,a4
E:/GitHub/HiFive01-RevB/FS_workspace/004_UART_TXRX/freedom-metal/src/drivers/riscv_clint0.c:230
                __metal_io_u32 *)(control_base + (hartid * 4))) = METAL_DISABLE;
200116d8:	0007a023          	sw	zero,0(a5) # 4000 <__heap_size+0x3800>
E:/GitHub/HiFive01-RevB/FS_workspace/004_UART_TXRX/freedom-metal/src/drivers/riscv_clint0.c:231
            rc = 0;
200116dc:	fe042623          	sw	zero,-20(s0)
E:/GitHub/HiFive01-RevB/FS_workspace/004_UART_TXRX/freedom-metal/src/drivers/riscv_clint0.c:233
        break;
200116e0:	a89d                	j	20011756 <__metal_driver_riscv_clint0_command_request+0x124>
E:/GitHub/HiFive01-RevB/FS_workspace/004_UART_TXRX/freedom-metal/src/drivers/riscv_clint0.c:235
        if (data) {
200116e2:	fd442783          	lw	a5,-44(s0)
200116e6:	cbb5                	beqz	a5,2001175a <__metal_driver_riscv_clint0_command_request+0x128>
E:/GitHub/HiFive01-RevB/FS_workspace/004_UART_TXRX/freedom-metal/src/drivers/riscv_clint0.c:236
            hartid = *(int *)data;
200116e8:	fd442783          	lw	a5,-44(s0)
200116ec:	439c                	lw	a5,0(a5)
200116ee:	fef42023          	sw	a5,-32(s0)
E:/GitHub/HiFive01-RevB/FS_workspace/004_UART_TXRX/freedom-metal/src/drivers/riscv_clint0.c:237
            __METAL_ACCESS_ONCE(
200116f2:	fe042783          	lw	a5,-32(s0)
200116f6:	078a                	slli	a5,a5,0x2
200116f8:	873e                	mv	a4,a5
200116fa:	fe442783          	lw	a5,-28(s0)
200116fe:	97ba                	add	a5,a5,a4
20011700:	873e                	mv	a4,a5
E:/GitHub/HiFive01-RevB/FS_workspace/004_UART_TXRX/freedom-metal/src/drivers/riscv_clint0.c:238
                (__metal_io_u32 *)(control_base + (hartid * 4))) = METAL_ENABLE;
20011702:	4785                	li	a5,1
20011704:	c31c                	sw	a5,0(a4)
E:/GitHub/HiFive01-RevB/FS_workspace/004_UART_TXRX/freedom-metal/src/drivers/riscv_clint0.c:248
            __METAL_IO_FENCE(o, i);
20011706:	0480000f          	fence	o,i
E:/GitHub/HiFive01-RevB/FS_workspace/004_UART_TXRX/freedom-metal/src/drivers/riscv_clint0.c:249
            rc = __METAL_ACCESS_ONCE(
2001170a:	fe042783          	lw	a5,-32(s0)
2001170e:	078a                	slli	a5,a5,0x2
20011710:	873e                	mv	a4,a5
20011712:	fe442783          	lw	a5,-28(s0)
20011716:	97ba                	add	a5,a5,a4
20011718:	439c                	lw	a5,0(a5)
2001171a:	fef42623          	sw	a5,-20(s0)
E:/GitHub/HiFive01-RevB/FS_workspace/004_UART_TXRX/freedom-metal/src/drivers/riscv_clint0.c:251
            rc = 0;
2001171e:	fe042623          	sw	zero,-20(s0)
E:/GitHub/HiFive01-RevB/FS_workspace/004_UART_TXRX/freedom-metal/src/drivers/riscv_clint0.c:253
        break;
20011722:	a825                	j	2001175a <__metal_driver_riscv_clint0_command_request+0x128>
E:/GitHub/HiFive01-RevB/FS_workspace/004_UART_TXRX/freedom-metal/src/drivers/riscv_clint0.c:255
        rc = 0;
20011724:	fe042623          	sw	zero,-20(s0)
E:/GitHub/HiFive01-RevB/FS_workspace/004_UART_TXRX/freedom-metal/src/drivers/riscv_clint0.c:256
        if (data) {
20011728:	fd442783          	lw	a5,-44(s0)
2001172c:	cb8d                	beqz	a5,2001175e <__metal_driver_riscv_clint0_command_request+0x12c>
E:/GitHub/HiFive01-RevB/FS_workspace/004_UART_TXRX/freedom-metal/src/drivers/riscv_clint0.c:257
            hartid = *(int *)data;
2001172e:	fd442783          	lw	a5,-44(s0)
20011732:	439c                	lw	a5,0(a5)
20011734:	fef42023          	sw	a5,-32(s0)
E:/GitHub/HiFive01-RevB/FS_workspace/004_UART_TXRX/freedom-metal/src/drivers/riscv_clint0.c:258
            rc = __METAL_ACCESS_ONCE(
20011738:	fe042783          	lw	a5,-32(s0)
2001173c:	078a                	slli	a5,a5,0x2
2001173e:	873e                	mv	a4,a5
20011740:	fe442783          	lw	a5,-28(s0)
20011744:	97ba                	add	a5,a5,a4
20011746:	439c                	lw	a5,0(a5)
20011748:	fef42623          	sw	a5,-20(s0)
E:/GitHub/HiFive01-RevB/FS_workspace/004_UART_TXRX/freedom-metal/src/drivers/riscv_clint0.c:261
        break;
2001174c:	a809                	j	2001175e <__metal_driver_riscv_clint0_command_request+0x12c>
E:/GitHub/HiFive01-RevB/FS_workspace/004_UART_TXRX/freedom-metal/src/drivers/riscv_clint0.c:263
        break;
2001174e:	0001                	nop
20011750:	a801                	j	20011760 <__metal_driver_riscv_clint0_command_request+0x12e>
E:/GitHub/HiFive01-RevB/FS_workspace/004_UART_TXRX/freedom-metal/src/drivers/riscv_clint0.c:225
        break;
20011752:	0001                	nop
20011754:	a031                	j	20011760 <__metal_driver_riscv_clint0_command_request+0x12e>
E:/GitHub/HiFive01-RevB/FS_workspace/004_UART_TXRX/freedom-metal/src/drivers/riscv_clint0.c:233
        break;
20011756:	0001                	nop
20011758:	a021                	j	20011760 <__metal_driver_riscv_clint0_command_request+0x12e>
E:/GitHub/HiFive01-RevB/FS_workspace/004_UART_TXRX/freedom-metal/src/drivers/riscv_clint0.c:253
        break;
2001175a:	0001                	nop
2001175c:	a011                	j	20011760 <__metal_driver_riscv_clint0_command_request+0x12e>
E:/GitHub/HiFive01-RevB/FS_workspace/004_UART_TXRX/freedom-metal/src/drivers/riscv_clint0.c:261
        break;
2001175e:	0001                	nop
E:/GitHub/HiFive01-RevB/FS_workspace/004_UART_TXRX/freedom-metal/src/drivers/riscv_clint0.c:266
    }

    return rc;
20011760:	fec42783          	lw	a5,-20(s0)
E:/GitHub/HiFive01-RevB/FS_workspace/004_UART_TXRX/freedom-metal/src/drivers/riscv_clint0.c:267
}
20011764:	853e                	mv	a0,a5
20011766:	50b2                	lw	ra,44(sp)
20011768:	5422                	lw	s0,40(sp)
2001176a:	6145                	addi	sp,sp,48
2001176c:	8082                	ret

2001176e <__metal_driver_riscv_clint0_clear_interrupt>:
__metal_driver_riscv_clint0_clear_interrupt():
E:/GitHub/HiFive01-RevB/FS_workspace/004_UART_TXRX/freedom-metal/src/drivers/riscv_clint0.c:270

int __metal_driver_riscv_clint0_clear_interrupt(
    struct metal_interrupt *controller, int id) {
2001176e:	7179                	addi	sp,sp,-48
20011770:	d606                	sw	ra,44(sp)
20011772:	d422                	sw	s0,40(sp)
20011774:	1800                	addi	s0,sp,48
20011776:	fca42e23          	sw	a0,-36(s0)
2001177a:	fcb42c23          	sw	a1,-40(s0)
E:/GitHub/HiFive01-RevB/FS_workspace/004_UART_TXRX/freedom-metal/src/drivers/riscv_clint0.c:271
    int hartid = metal_cpu_get_current_hartid();
2001177e:	1c2040ef          	jal	ra,20015940 <metal_cpu_get_current_hartid>
20011782:	87aa                	mv	a5,a0
20011784:	fef42623          	sw	a5,-20(s0)
E:/GitHub/HiFive01-RevB/FS_workspace/004_UART_TXRX/freedom-metal/src/drivers/riscv_clint0.c:272
    return __metal_driver_riscv_clint0_command_request(
20011788:	fec40793          	addi	a5,s0,-20
2001178c:	863e                	mv	a2,a5
2001178e:	4589                	li	a1,2
20011790:	fdc42503          	lw	a0,-36(s0)
20011794:	3d79                	jal	20011632 <__metal_driver_riscv_clint0_command_request>
20011796:	87aa                	mv	a5,a0
E:/GitHub/HiFive01-RevB/FS_workspace/004_UART_TXRX/freedom-metal/src/drivers/riscv_clint0.c:274
        controller, METAL_SOFTWARE_IPI_CLEAR, &hartid);
}
20011798:	853e                	mv	a0,a5
2001179a:	50b2                	lw	ra,44(sp)
2001179c:	5422                	lw	s0,40(sp)
2001179e:	6145                	addi	sp,sp,48
200117a0:	8082                	ret

200117a2 <__metal_driver_riscv_clint0_set_interrupt>:
__metal_driver_riscv_clint0_set_interrupt():
E:/GitHub/HiFive01-RevB/FS_workspace/004_UART_TXRX/freedom-metal/src/drivers/riscv_clint0.c:277

int __metal_driver_riscv_clint0_set_interrupt(
    struct metal_interrupt *controller, int id) {
200117a2:	7179                	addi	sp,sp,-48
200117a4:	d606                	sw	ra,44(sp)
200117a6:	d422                	sw	s0,40(sp)
200117a8:	1800                	addi	s0,sp,48
200117aa:	fca42e23          	sw	a0,-36(s0)
200117ae:	fcb42c23          	sw	a1,-40(s0)
E:/GitHub/HiFive01-RevB/FS_workspace/004_UART_TXRX/freedom-metal/src/drivers/riscv_clint0.c:278
    int hartid = metal_cpu_get_current_hartid();
200117b2:	18e040ef          	jal	ra,20015940 <metal_cpu_get_current_hartid>
200117b6:	87aa                	mv	a5,a0
200117b8:	fef42623          	sw	a5,-20(s0)
E:/GitHub/HiFive01-RevB/FS_workspace/004_UART_TXRX/freedom-metal/src/drivers/riscv_clint0.c:279
    return __metal_driver_riscv_clint0_command_request(
200117bc:	fec40793          	addi	a5,s0,-20
200117c0:	863e                	mv	a2,a5
200117c2:	458d                	li	a1,3
200117c4:	fdc42503          	lw	a0,-36(s0)
200117c8:	35ad                	jal	20011632 <__metal_driver_riscv_clint0_command_request>
200117ca:	87aa                	mv	a5,a0
E:/GitHub/HiFive01-RevB/FS_workspace/004_UART_TXRX/freedom-metal/src/drivers/riscv_clint0.c:281
        controller, METAL_SOFTWARE_IPI_SET, &hartid);
}
200117cc:	853e                	mv	a0,a5
200117ce:	50b2                	lw	ra,44(sp)
200117d0:	5422                	lw	s0,40(sp)
200117d2:	6145                	addi	sp,sp,48
200117d4:	8082                	ret

200117d6 <__metal_driver_cpu_hartid>:
__metal_driver_cpu_hartid():
E:\GitHub\HiFive01-RevB\FS_workspace\004_UART_TXRX\bsp\build\debug/./metal/machine.h:292



/* --------------------- cpu ------------ */
static __inline__ int __metal_driver_cpu_hartid(struct metal_cpu *cpu)
{
200117d6:	1101                	addi	sp,sp,-32
200117d8:	ce22                	sw	s0,28(sp)
200117da:	1000                	addi	s0,sp,32
200117dc:	fea42623          	sw	a0,-20(s0)
E:\GitHub\HiFive01-RevB\FS_workspace\004_UART_TXRX\bsp\build\debug/./metal/machine.h:293
	if ((uintptr_t)cpu == (uintptr_t)&__metal_dt_cpu_0) {
200117e0:	fec42703          	lw	a4,-20(s0)
200117e4:	81418793          	addi	a5,gp,-2028 # 80000ac4 <__metal_dt_cpu_0>
200117e8:	00f71463          	bne	a4,a5,200117f0 <__metal_driver_cpu_hartid+0x1a>
E:\GitHub\HiFive01-RevB\FS_workspace\004_UART_TXRX\bsp\build\debug/./metal/machine.h:294
		return 0;
200117ec:	4781                	li	a5,0
200117ee:	a011                	j	200117f2 <__metal_driver_cpu_hartid+0x1c>
E:\GitHub\HiFive01-RevB\FS_workspace\004_UART_TXRX\bsp\build\debug/./metal/machine.h:297
	}
	else {
		return -1;
200117f0:	57fd                	li	a5,-1
E:\GitHub\HiFive01-RevB\FS_workspace\004_UART_TXRX\bsp\build\debug/./metal/machine.h:299
	}
}
200117f2:	853e                	mv	a0,a5
200117f4:	4472                	lw	s0,28(sp)
200117f6:	6105                	addi	sp,sp,32
200117f8:	8082                	ret

200117fa <__metal_driver_cpu_timebase>:
__metal_driver_cpu_timebase():
E:\GitHub\HiFive01-RevB\FS_workspace\004_UART_TXRX\bsp\build\debug/./metal/machine.h:302

static __inline__ int __metal_driver_cpu_timebase(struct metal_cpu *cpu)
{
200117fa:	1101                	addi	sp,sp,-32
200117fc:	ce22                	sw	s0,28(sp)
200117fe:	1000                	addi	s0,sp,32
20011800:	fea42623          	sw	a0,-20(s0)
E:\GitHub\HiFive01-RevB\FS_workspace\004_UART_TXRX\bsp\build\debug/./metal/machine.h:303
	if ((uintptr_t)cpu == (uintptr_t)&__metal_dt_cpu_0) {
20011804:	fec42703          	lw	a4,-20(s0)
20011808:	81418793          	addi	a5,gp,-2028 # 80000ac4 <__metal_dt_cpu_0>
2001180c:	00f71763          	bne	a4,a5,2001181a <__metal_driver_cpu_timebase+0x20>
E:\GitHub\HiFive01-RevB\FS_workspace\004_UART_TXRX\bsp\build\debug/./metal/machine.h:304
		return 16000000;
20011810:	00f427b7          	lui	a5,0xf42
20011814:	40078793          	addi	a5,a5,1024 # f42400 <__heap_size+0xf41c00>
20011818:	a011                	j	2001181c <__metal_driver_cpu_timebase+0x22>
E:\GitHub\HiFive01-RevB\FS_workspace\004_UART_TXRX\bsp\build\debug/./metal/machine.h:307
	}
	else {
		return 0;
2001181a:	4781                	li	a5,0
E:\GitHub\HiFive01-RevB\FS_workspace\004_UART_TXRX\bsp\build\debug/./metal/machine.h:309
	}
}
2001181c:	853e                	mv	a0,a5
2001181e:	4472                	lw	s0,28(sp)
20011820:	6105                	addi	sp,sp,32
20011822:	8082                	ret

20011824 <__metal_driver_cpu_interrupt_controller>:
__metal_driver_cpu_interrupt_controller():
E:\GitHub\HiFive01-RevB\FS_workspace\004_UART_TXRX\bsp\build\debug/./metal/machine.h:312

static __inline__ struct metal_interrupt * __metal_driver_cpu_interrupt_controller(struct metal_cpu *cpu)
{
20011824:	1101                	addi	sp,sp,-32
20011826:	ce22                	sw	s0,28(sp)
20011828:	1000                	addi	s0,sp,32
2001182a:	fea42623          	sw	a0,-20(s0)
E:\GitHub\HiFive01-RevB\FS_workspace\004_UART_TXRX\bsp\build\debug/./metal/machine.h:313
	if ((uintptr_t)cpu == (uintptr_t)&__metal_dt_cpu_0) {
2001182e:	fec42703          	lw	a4,-20(s0)
20011832:	81418793          	addi	a5,gp,-2028 # 80000ac4 <__metal_dt_cpu_0>
20011836:	00f71763          	bne	a4,a5,20011844 <__metal_driver_cpu_interrupt_controller+0x20>
E:\GitHub\HiFive01-RevB\FS_workspace\004_UART_TXRX\bsp\build\debug/./metal/machine.h:314
		return &__metal_dt_cpu_0_interrupt_controller.controller;
2001183a:	800007b7          	lui	a5,0x80000
2001183e:	04078793          	addi	a5,a5,64 # 80000040 <__global_pointer$+0xffffed90>
20011842:	a011                	j	20011846 <__metal_driver_cpu_interrupt_controller+0x22>
E:\GitHub\HiFive01-RevB\FS_workspace\004_UART_TXRX\bsp\build\debug/./metal/machine.h:317
	}
	else {
		return NULL;
20011844:	4781                	li	a5,0
E:\GitHub\HiFive01-RevB\FS_workspace\004_UART_TXRX\bsp\build\debug/./metal/machine.h:319
	}
}
20011846:	853e                	mv	a0,a5
20011848:	4472                	lw	s0,28(sp)
2001184a:	6105                	addi	sp,sp,32
2001184c:	8082                	ret

2001184e <__metal_driver_cpu_buserror>:
__metal_driver_cpu_buserror():
E:\GitHub\HiFive01-RevB\FS_workspace\004_UART_TXRX\bsp\build\debug/./metal/machine.h:332
		return 0;
	}
}

static __inline__ struct metal_buserror * __metal_driver_cpu_buserror(struct metal_cpu *cpu)
{
2001184e:	1101                	addi	sp,sp,-32
20011850:	ce22                	sw	s0,28(sp)
20011852:	1000                	addi	s0,sp,32
20011854:	fea42623          	sw	a0,-20(s0)
E:\GitHub\HiFive01-RevB\FS_workspace\004_UART_TXRX\bsp\build\debug/./metal/machine.h:333
	if ((uintptr_t)cpu == (uintptr_t)&__metal_dt_cpu_0) {
20011858:	fec42703          	lw	a4,-20(s0)
2001185c:	81418793          	addi	a5,gp,-2028 # 80000ac4 <__metal_dt_cpu_0>
20011860:	00f71463          	bne	a4,a5,20011868 <__metal_driver_cpu_buserror+0x1a>
E:\GitHub\HiFive01-RevB\FS_workspace\004_UART_TXRX\bsp\build\debug/./metal/machine.h:334
		return NULL;
20011864:	4781                	li	a5,0
20011866:	a011                	j	2001186a <__metal_driver_cpu_buserror+0x1c>
E:\GitHub\HiFive01-RevB\FS_workspace\004_UART_TXRX\bsp\build\debug/./metal/machine.h:337
	}
	else {
		return NULL;
20011868:	4781                	li	a5,0
E:\GitHub\HiFive01-RevB\FS_workspace\004_UART_TXRX\bsp\build\debug/./metal/machine.h:339
	}
}
2001186a:	853e                	mv	a0,a5
2001186c:	4472                	lw	s0,28(sp)
2001186e:	6105                	addi	sp,sp,32
20011870:	8082                	ret

20011872 <__metal_driver_cpu_get>:
__metal_driver_cpu_get():
E:/GitHub/HiFive01-RevB/FS_workspace/004_UART_TXRX/freedom-metal/src/drivers/riscv_cpu.c:25
extern void __metal_vector_table();
unsigned long long __metal_driver_cpu_mtime_get(struct metal_cpu *cpu);
int __metal_driver_cpu_mtimecmp_set(struct metal_cpu *cpu,
                                    unsigned long long time);

struct metal_cpu *__metal_driver_cpu_get(int hartid) {
20011872:	1101                	addi	sp,sp,-32
20011874:	ce22                	sw	s0,28(sp)
20011876:	1000                	addi	s0,sp,32
20011878:	fea42623          	sw	a0,-20(s0)
E:/GitHub/HiFive01-RevB/FS_workspace/004_UART_TXRX/freedom-metal/src/drivers/riscv_cpu.c:26
    if (hartid < __METAL_DT_MAX_HARTS) {
2001187c:	fec42783          	lw	a5,-20(s0)
20011880:	00f04c63          	bgtz	a5,20011898 <__metal_driver_cpu_get+0x26>
E:/GitHub/HiFive01-RevB/FS_workspace/004_UART_TXRX/freedom-metal/src/drivers/riscv_cpu.c:27
        return &(__metal_cpu_table[hartid]->cpu);
20011884:	800017b7          	lui	a5,0x80001
20011888:	fec42703          	lw	a4,-20(s0)
2001188c:	070a                	slli	a4,a4,0x2
2001188e:	ab078793          	addi	a5,a5,-1360 # 80000ab0 <__global_pointer$+0xfffff800>
20011892:	97ba                	add	a5,a5,a4
20011894:	439c                	lw	a5,0(a5)
20011896:	a011                	j	2001189a <__metal_driver_cpu_get+0x28>
E:/GitHub/HiFive01-RevB/FS_workspace/004_UART_TXRX/freedom-metal/src/drivers/riscv_cpu.c:29
    }
    return (struct metal_cpu *)NULL;
20011898:	4781                	li	a5,0
E:/GitHub/HiFive01-RevB/FS_workspace/004_UART_TXRX/freedom-metal/src/drivers/riscv_cpu.c:30
}
2001189a:	853e                	mv	a0,a5
2001189c:	4472                	lw	s0,28(sp)
2001189e:	6105                	addi	sp,sp,32
200118a0:	8082                	ret

200118a2 <__metal_myhart_id>:
__metal_myhart_id():
E:/GitHub/HiFive01-RevB/FS_workspace/004_UART_TXRX/freedom-metal/src/drivers/riscv_cpu.c:32

uintptr_t __metal_myhart_id(void) {
200118a2:	1101                	addi	sp,sp,-32
200118a4:	ce22                	sw	s0,28(sp)
200118a6:	1000                	addi	s0,sp,32
E:/GitHub/HiFive01-RevB/FS_workspace/004_UART_TXRX/freedom-metal/src/drivers/riscv_cpu.c:34
    uintptr_t myhart;
    __asm__ volatile("csrr %0, mhartid" : "=r"(myhart));
200118a8:	f14027f3          	csrr	a5,mhartid
200118ac:	fef42623          	sw	a5,-20(s0)
E:/GitHub/HiFive01-RevB/FS_workspace/004_UART_TXRX/freedom-metal/src/drivers/riscv_cpu.c:35
    return myhart;
200118b0:	fec42783          	lw	a5,-20(s0)
E:/GitHub/HiFive01-RevB/FS_workspace/004_UART_TXRX/freedom-metal/src/drivers/riscv_cpu.c:36
}
200118b4:	853e                	mv	a0,a5
200118b6:	4472                	lw	s0,28(sp)
200118b8:	6105                	addi	sp,sp,32
200118ba:	8082                	ret

200118bc <__metal_interrupt_global_enable>:
__metal_interrupt_global_enable():
E:/GitHub/HiFive01-RevB/FS_workspace/004_UART_TXRX/freedom-metal/src/drivers/riscv_cpu.c:45
    for (ptr = base; ptr < (base + size); ptr++) {
        *ptr = 0;
    }
}

void __metal_interrupt_global_enable(void) {
200118bc:	1101                	addi	sp,sp,-32
200118be:	ce22                	sw	s0,28(sp)
200118c0:	1000                	addi	s0,sp,32
E:/GitHub/HiFive01-RevB/FS_workspace/004_UART_TXRX/freedom-metal/src/drivers/riscv_cpu.c:47
    uintptr_t m;
    __asm__ volatile("csrrs %0, mstatus, %1"
200118c2:	47a1                	li	a5,8
200118c4:	3007a7f3          	csrrs	a5,mstatus,a5
200118c8:	fef42623          	sw	a5,-20(s0)
E:/GitHub/HiFive01-RevB/FS_workspace/004_UART_TXRX/freedom-metal/src/drivers/riscv_cpu.c:50
                     : "=r"(m)
                     : "r"(METAL_MIE_INTERRUPT));
}
200118cc:	0001                	nop
200118ce:	4472                	lw	s0,28(sp)
200118d0:	6105                	addi	sp,sp,32
200118d2:	8082                	ret

200118d4 <__metal_interrupt_global_disable>:
__metal_interrupt_global_disable():
E:/GitHub/HiFive01-RevB/FS_workspace/004_UART_TXRX/freedom-metal/src/drivers/riscv_cpu.c:52

void __metal_interrupt_global_disable(void) {
200118d4:	1101                	addi	sp,sp,-32
200118d6:	ce22                	sw	s0,28(sp)
200118d8:	1000                	addi	s0,sp,32
E:/GitHub/HiFive01-RevB/FS_workspace/004_UART_TXRX/freedom-metal/src/drivers/riscv_cpu.c:54
    uintptr_t m;
    __asm__ volatile("csrrc %0, mstatus, %1"
200118da:	47a1                	li	a5,8
200118dc:	3007b7f3          	csrrc	a5,mstatus,a5
200118e0:	fef42623          	sw	a5,-20(s0)
E:/GitHub/HiFive01-RevB/FS_workspace/004_UART_TXRX/freedom-metal/src/drivers/riscv_cpu.c:57
                     : "=r"(m)
                     : "r"(METAL_MIE_INTERRUPT));
}
200118e4:	0001                	nop
200118e6:	4472                	lw	s0,28(sp)
200118e8:	6105                	addi	sp,sp,32
200118ea:	8082                	ret

200118ec <__metal_interrupt_software_enable>:
__metal_interrupt_software_enable():
E:/GitHub/HiFive01-RevB/FS_workspace/004_UART_TXRX/freedom-metal/src/drivers/riscv_cpu.c:59

void __metal_interrupt_software_enable(void) {
200118ec:	1101                	addi	sp,sp,-32
200118ee:	ce22                	sw	s0,28(sp)
200118f0:	1000                	addi	s0,sp,32
E:/GitHub/HiFive01-RevB/FS_workspace/004_UART_TXRX/freedom-metal/src/drivers/riscv_cpu.c:61
    uintptr_t m;
    __asm__ volatile("csrrs %0, mie, %1"
200118f2:	47a1                	li	a5,8
200118f4:	3047a7f3          	csrrs	a5,mie,a5
200118f8:	fef42623          	sw	a5,-20(s0)
E:/GitHub/HiFive01-RevB/FS_workspace/004_UART_TXRX/freedom-metal/src/drivers/riscv_cpu.c:64
                     : "=r"(m)
                     : "r"(METAL_LOCAL_INTERRUPT_SW));
}
200118fc:	0001                	nop
200118fe:	4472                	lw	s0,28(sp)
20011900:	6105                	addi	sp,sp,32
20011902:	8082                	ret

20011904 <__metal_interrupt_software_disable>:
__metal_interrupt_software_disable():
E:/GitHub/HiFive01-RevB/FS_workspace/004_UART_TXRX/freedom-metal/src/drivers/riscv_cpu.c:66

void __metal_interrupt_software_disable(void) {
20011904:	1101                	addi	sp,sp,-32
20011906:	ce22                	sw	s0,28(sp)
20011908:	1000                	addi	s0,sp,32
E:/GitHub/HiFive01-RevB/FS_workspace/004_UART_TXRX/freedom-metal/src/drivers/riscv_cpu.c:68
    uintptr_t m;
    __asm__ volatile("csrrc %0, mie, %1"
2001190a:	47a1                	li	a5,8
2001190c:	3047b7f3          	csrrc	a5,mie,a5
20011910:	fef42623          	sw	a5,-20(s0)
E:/GitHub/HiFive01-RevB/FS_workspace/004_UART_TXRX/freedom-metal/src/drivers/riscv_cpu.c:71
                     : "=r"(m)
                     : "r"(METAL_LOCAL_INTERRUPT_SW));
}
20011914:	0001                	nop
20011916:	4472                	lw	s0,28(sp)
20011918:	6105                	addi	sp,sp,32
2001191a:	8082                	ret

2001191c <__metal_interrupt_timer_enable>:
__metal_interrupt_timer_enable():
E:/GitHub/HiFive01-RevB/FS_workspace/004_UART_TXRX/freedom-metal/src/drivers/riscv_cpu.c:73

void __metal_interrupt_timer_enable(void) {
2001191c:	1101                	addi	sp,sp,-32
2001191e:	ce22                	sw	s0,28(sp)
20011920:	1000                	addi	s0,sp,32
E:/GitHub/HiFive01-RevB/FS_workspace/004_UART_TXRX/freedom-metal/src/drivers/riscv_cpu.c:75
    uintptr_t m;
    __asm__ volatile("csrrs %0, mie, %1"
20011922:	08000793          	li	a5,128
20011926:	3047a7f3          	csrrs	a5,mie,a5
2001192a:	fef42623          	sw	a5,-20(s0)
E:/GitHub/HiFive01-RevB/FS_workspace/004_UART_TXRX/freedom-metal/src/drivers/riscv_cpu.c:78
                     : "=r"(m)
                     : "r"(METAL_LOCAL_INTERRUPT_TMR));
}
2001192e:	0001                	nop
20011930:	4472                	lw	s0,28(sp)
20011932:	6105                	addi	sp,sp,32
20011934:	8082                	ret

20011936 <__metal_interrupt_timer_disable>:
__metal_interrupt_timer_disable():
E:/GitHub/HiFive01-RevB/FS_workspace/004_UART_TXRX/freedom-metal/src/drivers/riscv_cpu.c:80

void __metal_interrupt_timer_disable(void) {
20011936:	1101                	addi	sp,sp,-32
20011938:	ce22                	sw	s0,28(sp)
2001193a:	1000                	addi	s0,sp,32
E:/GitHub/HiFive01-RevB/FS_workspace/004_UART_TXRX/freedom-metal/src/drivers/riscv_cpu.c:82
    uintptr_t m;
    __asm__ volatile("csrrc %0, mie, %1"
2001193c:	08000793          	li	a5,128
20011940:	3047b7f3          	csrrc	a5,mie,a5
20011944:	fef42623          	sw	a5,-20(s0)
E:/GitHub/HiFive01-RevB/FS_workspace/004_UART_TXRX/freedom-metal/src/drivers/riscv_cpu.c:85
                     : "=r"(m)
                     : "r"(METAL_LOCAL_INTERRUPT_TMR));
}
20011948:	0001                	nop
2001194a:	4472                	lw	s0,28(sp)
2001194c:	6105                	addi	sp,sp,32
2001194e:	8082                	ret

20011950 <__metal_interrupt_external_enable>:
__metal_interrupt_external_enable():
E:/GitHub/HiFive01-RevB/FS_workspace/004_UART_TXRX/freedom-metal/src/drivers/riscv_cpu.c:87

void __metal_interrupt_external_enable(void) {
20011950:	1101                	addi	sp,sp,-32
20011952:	ce22                	sw	s0,28(sp)
20011954:	1000                	addi	s0,sp,32
E:/GitHub/HiFive01-RevB/FS_workspace/004_UART_TXRX/freedom-metal/src/drivers/riscv_cpu.c:89
    uintptr_t m;
    __asm__ volatile("csrrs %0, mie, %1"
20011956:	6785                	lui	a5,0x1
20011958:	80078793          	addi	a5,a5,-2048 # 800 <__heap_size>
2001195c:	3047a7f3          	csrrs	a5,mie,a5
20011960:	fef42623          	sw	a5,-20(s0)
E:/GitHub/HiFive01-RevB/FS_workspace/004_UART_TXRX/freedom-metal/src/drivers/riscv_cpu.c:92
                     : "=r"(m)
                     : "r"(METAL_LOCAL_INTERRUPT_EXT));
}
20011964:	0001                	nop
20011966:	4472                	lw	s0,28(sp)
20011968:	6105                	addi	sp,sp,32
2001196a:	8082                	ret

2001196c <__metal_interrupt_external_disable>:
__metal_interrupt_external_disable():
E:/GitHub/HiFive01-RevB/FS_workspace/004_UART_TXRX/freedom-metal/src/drivers/riscv_cpu.c:94

void __metal_interrupt_external_disable(void) {
2001196c:	1101                	addi	sp,sp,-32
2001196e:	ce22                	sw	s0,28(sp)
20011970:	1000                	addi	s0,sp,32
E:/GitHub/HiFive01-RevB/FS_workspace/004_UART_TXRX/freedom-metal/src/drivers/riscv_cpu.c:96
    unsigned long m;
    __asm__ volatile("csrrc %0, mie, %1"
20011972:	6785                	lui	a5,0x1
20011974:	80078793          	addi	a5,a5,-2048 # 800 <__heap_size>
20011978:	3047b7f3          	csrrc	a5,mie,a5
2001197c:	fef42623          	sw	a5,-20(s0)
E:/GitHub/HiFive01-RevB/FS_workspace/004_UART_TXRX/freedom-metal/src/drivers/riscv_cpu.c:99
                     : "=r"(m)
                     : "r"(METAL_LOCAL_INTERRUPT_EXT));
}
20011980:	0001                	nop
20011982:	4472                	lw	s0,28(sp)
20011984:	6105                	addi	sp,sp,32
20011986:	8082                	ret

20011988 <__metal_interrupt_local_enable>:
__metal_interrupt_local_enable():
E:/GitHub/HiFive01-RevB/FS_workspace/004_UART_TXRX/freedom-metal/src/drivers/riscv_cpu.c:101

void __metal_interrupt_local_enable(int id) {
20011988:	7179                	addi	sp,sp,-48
2001198a:	d622                	sw	s0,44(sp)
2001198c:	1800                	addi	s0,sp,48
2001198e:	fca42e23          	sw	a0,-36(s0)
E:/GitHub/HiFive01-RevB/FS_workspace/004_UART_TXRX/freedom-metal/src/drivers/riscv_cpu.c:102
    uintptr_t b = 1 << id;
20011992:	fdc42783          	lw	a5,-36(s0)
20011996:	4705                	li	a4,1
20011998:	00f717b3          	sll	a5,a4,a5
2001199c:	fef42623          	sw	a5,-20(s0)
E:/GitHub/HiFive01-RevB/FS_workspace/004_UART_TXRX/freedom-metal/src/drivers/riscv_cpu.c:104
    uintptr_t m;
    __asm__ volatile("csrrs %0, mie, %1" : "=r"(m) : "r"(b));
200119a0:	fec42783          	lw	a5,-20(s0)
200119a4:	3047a7f3          	csrrs	a5,mie,a5
200119a8:	fef42423          	sw	a5,-24(s0)
E:/GitHub/HiFive01-RevB/FS_workspace/004_UART_TXRX/freedom-metal/src/drivers/riscv_cpu.c:105
}
200119ac:	0001                	nop
200119ae:	5432                	lw	s0,44(sp)
200119b0:	6145                	addi	sp,sp,48
200119b2:	8082                	ret

200119b4 <__metal_interrupt_local_disable>:
__metal_interrupt_local_disable():
E:/GitHub/HiFive01-RevB/FS_workspace/004_UART_TXRX/freedom-metal/src/drivers/riscv_cpu.c:107

void __metal_interrupt_local_disable(int id) {
200119b4:	7179                	addi	sp,sp,-48
200119b6:	d622                	sw	s0,44(sp)
200119b8:	1800                	addi	s0,sp,48
200119ba:	fca42e23          	sw	a0,-36(s0)
E:/GitHub/HiFive01-RevB/FS_workspace/004_UART_TXRX/freedom-metal/src/drivers/riscv_cpu.c:108
    uintptr_t b = 1 << id;
200119be:	fdc42783          	lw	a5,-36(s0)
200119c2:	4705                	li	a4,1
200119c4:	00f717b3          	sll	a5,a4,a5
200119c8:	fef42623          	sw	a5,-20(s0)
E:/GitHub/HiFive01-RevB/FS_workspace/004_UART_TXRX/freedom-metal/src/drivers/riscv_cpu.c:110
    uintptr_t m;
    __asm__ volatile("csrrc %0, mie, %1" : "=r"(m) : "r"(b));
200119cc:	fec42783          	lw	a5,-20(s0)
200119d0:	3047b7f3          	csrrc	a5,mie,a5
200119d4:	fef42423          	sw	a5,-24(s0)
E:/GitHub/HiFive01-RevB/FS_workspace/004_UART_TXRX/freedom-metal/src/drivers/riscv_cpu.c:111
}
200119d8:	0001                	nop
200119da:	5432                	lw	s0,44(sp)
200119dc:	6145                	addi	sp,sp,48
200119de:	8082                	ret

200119e0 <__metal_default_exception_handler>:
__metal_default_exception_handler():
E:/GitHub/HiFive01-RevB/FS_workspace/004_UART_TXRX/freedom-metal/src/drivers/riscv_cpu.c:113

void __metal_default_exception_handler(struct metal_cpu *cpu, int ecode) {
200119e0:	1101                	addi	sp,sp,-32
200119e2:	ce06                	sw	ra,28(sp)
200119e4:	cc22                	sw	s0,24(sp)
200119e6:	1000                	addi	s0,sp,32
200119e8:	fea42623          	sw	a0,-20(s0)
200119ec:	feb42423          	sw	a1,-24(s0)
E:/GitHub/HiFive01-RevB/FS_workspace/004_UART_TXRX/freedom-metal/src/drivers/riscv_cpu.c:114
    metal_shutdown(100);
200119f0:	06400513          	li	a0,100
200119f4:	18c040ef          	jal	ra,20015b80 <metal_shutdown>

200119f8 <__metal_default_interrupt_handler>:
__metal_default_interrupt_handler():
E:/GitHub/HiFive01-RevB/FS_workspace/004_UART_TXRX/freedom-metal/src/drivers/riscv_cpu.c:117
}

void __metal_default_interrupt_handler(int id, void *priv) {
200119f8:	1101                	addi	sp,sp,-32
200119fa:	ce06                	sw	ra,28(sp)
200119fc:	cc22                	sw	s0,24(sp)
200119fe:	1000                	addi	s0,sp,32
20011a00:	fea42623          	sw	a0,-20(s0)
20011a04:	feb42423          	sw	a1,-24(s0)
E:/GitHub/HiFive01-RevB/FS_workspace/004_UART_TXRX/freedom-metal/src/drivers/riscv_cpu.c:118
    metal_shutdown(200);
20011a08:	0c800513          	li	a0,200
20011a0c:	174040ef          	jal	ra,20015b80 <metal_shutdown>

20011a10 <metal_interrupt_vector_handler>:
metal_interrupt_vector_handler():
E:/GitHub/HiFive01-RevB/FS_workspace/004_UART_TXRX/freedom-metal/src/drivers/riscv_cpu.c:122
}

/* The metal_interrupt_vector_handler() function can be redefined. */
void __attribute__((weak, interrupt)) metal_interrupt_vector_handler(void) {
20011a10:	715d                	addi	sp,sp,-80
20011a12:	c686                	sw	ra,76(sp)
20011a14:	c496                	sw	t0,72(sp)
20011a16:	c29a                	sw	t1,68(sp)
20011a18:	c09e                	sw	t2,64(sp)
20011a1a:	de22                	sw	s0,60(sp)
20011a1c:	dc2a                	sw	a0,56(sp)
20011a1e:	da2e                	sw	a1,52(sp)
20011a20:	d832                	sw	a2,48(sp)
20011a22:	d636                	sw	a3,44(sp)
20011a24:	d43a                	sw	a4,40(sp)
20011a26:	d23e                	sw	a5,36(sp)
20011a28:	d042                	sw	a6,32(sp)
20011a2a:	ce46                	sw	a7,28(sp)
20011a2c:	cc72                	sw	t3,24(sp)
20011a2e:	ca76                	sw	t4,20(sp)
20011a30:	c87a                	sw	t5,16(sp)
20011a32:	c67e                	sw	t6,12(sp)
20011a34:	0880                	addi	s0,sp,80
E:/GitHub/HiFive01-RevB/FS_workspace/004_UART_TXRX/freedom-metal/src/drivers/riscv_cpu.c:123
    metal_shutdown(300);
20011a36:	12c00513          	li	a0,300
20011a3a:	146040ef          	jal	ra,20015b80 <metal_shutdown>

20011a3e <metal_software_interrupt_vector_handler>:
metal_software_interrupt_vector_handler():
E:/GitHub/HiFive01-RevB/FS_workspace/004_UART_TXRX/freedom-metal/src/drivers/riscv_cpu.c:128
}

/* The metal_software_interrupt_vector_handler() function can be redefined. */
void __attribute__((weak, interrupt))
metal_software_interrupt_vector_handler(void) {
20011a3e:	711d                	addi	sp,sp,-96
20011a40:	ce86                	sw	ra,92(sp)
20011a42:	cc96                	sw	t0,88(sp)
20011a44:	ca9a                	sw	t1,84(sp)
20011a46:	c89e                	sw	t2,80(sp)
20011a48:	c6a2                	sw	s0,76(sp)
20011a4a:	c4aa                	sw	a0,72(sp)
20011a4c:	c2ae                	sw	a1,68(sp)
20011a4e:	c0b2                	sw	a2,64(sp)
20011a50:	de36                	sw	a3,60(sp)
20011a52:	dc3a                	sw	a4,56(sp)
20011a54:	da3e                	sw	a5,52(sp)
20011a56:	d842                	sw	a6,48(sp)
20011a58:	d646                	sw	a7,44(sp)
20011a5a:	d472                	sw	t3,40(sp)
20011a5c:	d276                	sw	t4,36(sp)
20011a5e:	d07a                	sw	t5,32(sp)
20011a60:	ce7e                	sw	t6,28(sp)
20011a62:	1080                	addi	s0,sp,96
E:/GitHub/HiFive01-RevB/FS_workspace/004_UART_TXRX/freedom-metal/src/drivers/riscv_cpu.c:129
    __METAL_IRQ_VECTOR_HANDLER(METAL_INTERRUPT_ID_SW);
20011a64:	3d3d                	jal	200118a2 <__metal_myhart_id>
20011a66:	872a                	mv	a4,a0
20011a68:	800017b7          	lui	a5,0x80001
20011a6c:	070a                	slli	a4,a4,0x2
20011a6e:	ab078793          	addi	a5,a5,-1360 # 80000ab0 <__global_pointer$+0xfffff800>
20011a72:	97ba                	add	a5,a5,a4
20011a74:	439c                	lw	a5,0(a5)
20011a76:	faf42623          	sw	a5,-84(s0)
20011a7a:	fac42783          	lw	a5,-84(s0)
20011a7e:	c785                	beqz	a5,20011aa6 <metal_software_interrupt_vector_handler+0x68>
E:/GitHub/HiFive01-RevB/FS_workspace/004_UART_TXRX/freedom-metal/src/drivers/riscv_cpu.c:129 (discriminator 1)
20011a80:	fac42503          	lw	a0,-84(s0)
20011a84:	3345                	jal	20011824 <__metal_driver_cpu_interrupt_controller>
20011a86:	faa42423          	sw	a0,-88(s0)
20011a8a:	fa842783          	lw	a5,-88(s0)
20011a8e:	0e07a783          	lw	a5,224(a5)
20011a92:	faf42223          	sw	a5,-92(s0)
20011a96:	fa842783          	lw	a5,-88(s0)
20011a9a:	0d87a783          	lw	a5,216(a5)
20011a9e:	fa442583          	lw	a1,-92(s0)
20011aa2:	450d                	li	a0,3
20011aa4:	9782                	jalr	a5
E:/GitHub/HiFive01-RevB/FS_workspace/004_UART_TXRX/freedom-metal/src/drivers/riscv_cpu.c:130
}
20011aa6:	0001                	nop
20011aa8:	40f6                	lw	ra,92(sp)
20011aaa:	42e6                	lw	t0,88(sp)
20011aac:	4356                	lw	t1,84(sp)
20011aae:	43c6                	lw	t2,80(sp)
20011ab0:	4436                	lw	s0,76(sp)
20011ab2:	4526                	lw	a0,72(sp)
20011ab4:	4596                	lw	a1,68(sp)
20011ab6:	4606                	lw	a2,64(sp)
20011ab8:	56f2                	lw	a3,60(sp)
20011aba:	5762                	lw	a4,56(sp)
20011abc:	57d2                	lw	a5,52(sp)
20011abe:	5842                	lw	a6,48(sp)
20011ac0:	58b2                	lw	a7,44(sp)
20011ac2:	5e22                	lw	t3,40(sp)
20011ac4:	5e92                	lw	t4,36(sp)
20011ac6:	5f02                	lw	t5,32(sp)
20011ac8:	4ff2                	lw	t6,28(sp)
20011aca:	6125                	addi	sp,sp,96
20011acc:	30200073          	mret

20011ad0 <__metal_default_sw_handler>:
__metal_default_sw_handler():
E:/GitHub/HiFive01-RevB/FS_workspace/004_UART_TXRX/freedom-metal/src/drivers/riscv_cpu.c:132

void __metal_default_sw_handler(int id, void *priv) {
20011ad0:	7179                	addi	sp,sp,-48
20011ad2:	d606                	sw	ra,44(sp)
20011ad4:	d422                	sw	s0,40(sp)
20011ad6:	1800                	addi	s0,sp,48
20011ad8:	fca42e23          	sw	a0,-36(s0)
20011adc:	fcb42c23          	sw	a1,-40(s0)
E:/GitHub/HiFive01-RevB/FS_workspace/004_UART_TXRX/freedom-metal/src/drivers/riscv_cpu.c:135
    uintptr_t mcause;
    struct __metal_driver_riscv_cpu_intc *intc;
    struct __metal_driver_cpu *cpu = __metal_cpu_table[__metal_myhart_id()];
20011ae0:	33c9                	jal	200118a2 <__metal_myhart_id>
20011ae2:	872a                	mv	a4,a0
20011ae4:	800017b7          	lui	a5,0x80001
20011ae8:	070a                	slli	a4,a4,0x2
20011aea:	ab078793          	addi	a5,a5,-1360 # 80000ab0 <__global_pointer$+0xfffff800>
20011aee:	97ba                	add	a5,a5,a4
20011af0:	439c                	lw	a5,0(a5)
20011af2:	fef42623          	sw	a5,-20(s0)
E:/GitHub/HiFive01-RevB/FS_workspace/004_UART_TXRX/freedom-metal/src/drivers/riscv_cpu.c:137

    __asm__ volatile("csrr %0, mcause" : "=r"(mcause));
20011af6:	342027f3          	csrr	a5,mcause
20011afa:	fef42423          	sw	a5,-24(s0)
E:/GitHub/HiFive01-RevB/FS_workspace/004_UART_TXRX/freedom-metal/src/drivers/riscv_cpu.c:138
    if (cpu) {
20011afe:	fec42783          	lw	a5,-20(s0)
20011b02:	c795                	beqz	a5,20011b2e <__metal_default_sw_handler+0x5e>
E:/GitHub/HiFive01-RevB/FS_workspace/004_UART_TXRX/freedom-metal/src/drivers/riscv_cpu.c:140
        intc = (struct __metal_driver_riscv_cpu_intc *)
            __metal_driver_cpu_interrupt_controller((struct metal_cpu *)cpu);
20011b04:	fec42503          	lw	a0,-20(s0)
20011b08:	3b31                	jal	20011824 <__metal_driver_cpu_interrupt_controller>
20011b0a:	fea42223          	sw	a0,-28(s0)
E:/GitHub/HiFive01-RevB/FS_workspace/004_UART_TXRX/freedom-metal/src/drivers/riscv_cpu.c:141
        intc->metal_exception_table[mcause & METAL_MCAUSE_CAUSE](
20011b0e:	fe842783          	lw	a5,-24(s0)
20011b12:	3ff7f793          	andi	a5,a5,1023
20011b16:	fe442703          	lw	a4,-28(s0)
20011b1a:	0e878793          	addi	a5,a5,232
20011b1e:	078a                	slli	a5,a5,0x2
20011b20:	97ba                	add	a5,a5,a4
20011b22:	439c                	lw	a5,0(a5)
20011b24:	fdc42583          	lw	a1,-36(s0)
20011b28:	fec42503          	lw	a0,-20(s0)
20011b2c:	9782                	jalr	a5
E:/GitHub/HiFive01-RevB/FS_workspace/004_UART_TXRX/freedom-metal/src/drivers/riscv_cpu.c:144
            (struct metal_cpu *)cpu, id);
    }
}
20011b2e:	0001                	nop
20011b30:	50b2                	lw	ra,44(sp)
20011b32:	5422                	lw	s0,40(sp)
20011b34:	6145                	addi	sp,sp,48
20011b36:	8082                	ret

20011b38 <metal_timer_interrupt_vector_handler>:
metal_timer_interrupt_vector_handler():
E:/GitHub/HiFive01-RevB/FS_workspace/004_UART_TXRX/freedom-metal/src/drivers/riscv_cpu.c:148

/* The metal_timer_interrupt_vector_handler() function can be redefined. */
void __attribute__((weak, interrupt))
metal_timer_interrupt_vector_handler(void) {
20011b38:	711d                	addi	sp,sp,-96
20011b3a:	ce86                	sw	ra,92(sp)
20011b3c:	cc96                	sw	t0,88(sp)
20011b3e:	ca9a                	sw	t1,84(sp)
20011b40:	c89e                	sw	t2,80(sp)
20011b42:	c6a2                	sw	s0,76(sp)
20011b44:	c4aa                	sw	a0,72(sp)
20011b46:	c2ae                	sw	a1,68(sp)
20011b48:	c0b2                	sw	a2,64(sp)
20011b4a:	de36                	sw	a3,60(sp)
20011b4c:	dc3a                	sw	a4,56(sp)
20011b4e:	da3e                	sw	a5,52(sp)
20011b50:	d842                	sw	a6,48(sp)
20011b52:	d646                	sw	a7,44(sp)
20011b54:	d472                	sw	t3,40(sp)
20011b56:	d276                	sw	t4,36(sp)
20011b58:	d07a                	sw	t5,32(sp)
20011b5a:	ce7e                	sw	t6,28(sp)
20011b5c:	1080                	addi	s0,sp,96
E:/GitHub/HiFive01-RevB/FS_workspace/004_UART_TXRX/freedom-metal/src/drivers/riscv_cpu.c:149
    __METAL_IRQ_VECTOR_HANDLER(METAL_INTERRUPT_ID_TMR);
20011b5e:	3391                	jal	200118a2 <__metal_myhart_id>
20011b60:	872a                	mv	a4,a0
20011b62:	800017b7          	lui	a5,0x80001
20011b66:	070a                	slli	a4,a4,0x2
20011b68:	ab078793          	addi	a5,a5,-1360 # 80000ab0 <__global_pointer$+0xfffff800>
20011b6c:	97ba                	add	a5,a5,a4
20011b6e:	439c                	lw	a5,0(a5)
20011b70:	faf42623          	sw	a5,-84(s0)
20011b74:	fac42783          	lw	a5,-84(s0)
20011b78:	c785                	beqz	a5,20011ba0 <metal_timer_interrupt_vector_handler+0x68>
E:/GitHub/HiFive01-RevB/FS_workspace/004_UART_TXRX/freedom-metal/src/drivers/riscv_cpu.c:149 (discriminator 1)
20011b7a:	fac42503          	lw	a0,-84(s0)
20011b7e:	315d                	jal	20011824 <__metal_driver_cpu_interrupt_controller>
20011b80:	faa42423          	sw	a0,-88(s0)
20011b84:	fa842783          	lw	a5,-88(s0)
20011b88:	1407a783          	lw	a5,320(a5)
20011b8c:	faf42223          	sw	a5,-92(s0)
20011b90:	fa842783          	lw	a5,-88(s0)
20011b94:	1387a783          	lw	a5,312(a5)
20011b98:	fa442583          	lw	a1,-92(s0)
20011b9c:	451d                	li	a0,7
20011b9e:	9782                	jalr	a5
E:/GitHub/HiFive01-RevB/FS_workspace/004_UART_TXRX/freedom-metal/src/drivers/riscv_cpu.c:150
}
20011ba0:	0001                	nop
20011ba2:	40f6                	lw	ra,92(sp)
20011ba4:	42e6                	lw	t0,88(sp)
20011ba6:	4356                	lw	t1,84(sp)
20011ba8:	43c6                	lw	t2,80(sp)
20011baa:	4436                	lw	s0,76(sp)
20011bac:	4526                	lw	a0,72(sp)
20011bae:	4596                	lw	a1,68(sp)
20011bb0:	4606                	lw	a2,64(sp)
20011bb2:	56f2                	lw	a3,60(sp)
20011bb4:	5762                	lw	a4,56(sp)
20011bb6:	57d2                	lw	a5,52(sp)
20011bb8:	5842                	lw	a6,48(sp)
20011bba:	58b2                	lw	a7,44(sp)
20011bbc:	5e22                	lw	t3,40(sp)
20011bbe:	5e92                	lw	t4,36(sp)
20011bc0:	5f02                	lw	t5,32(sp)
20011bc2:	4ff2                	lw	t6,28(sp)
20011bc4:	6125                	addi	sp,sp,96
20011bc6:	30200073          	mret

20011bca <__metal_default_beu_handler>:
__metal_default_beu_handler():
E:/GitHub/HiFive01-RevB/FS_workspace/004_UART_TXRX/freedom-metal/src/drivers/riscv_cpu.c:152

void __metal_default_beu_handler(int id, void *priv) {}
20011bca:	1101                	addi	sp,sp,-32
20011bcc:	ce22                	sw	s0,28(sp)
20011bce:	1000                	addi	s0,sp,32
20011bd0:	fea42623          	sw	a0,-20(s0)
20011bd4:	feb42423          	sw	a1,-24(s0)
20011bd8:	0001                	nop
20011bda:	4472                	lw	s0,28(sp)
20011bdc:	6105                	addi	sp,sp,32
20011bde:	8082                	ret

20011be0 <__metal_default_timer_handler>:
__metal_default_timer_handler():
E:/GitHub/HiFive01-RevB/FS_workspace/004_UART_TXRX/freedom-metal/src/drivers/riscv_cpu.c:154

void __metal_default_timer_handler(int id, void *priv) {
20011be0:	7179                	addi	sp,sp,-48
20011be2:	d606                	sw	ra,44(sp)
20011be4:	d422                	sw	s0,40(sp)
20011be6:	1800                	addi	s0,sp,48
20011be8:	fca42e23          	sw	a0,-36(s0)
20011bec:	fcb42c23          	sw	a1,-40(s0)
E:/GitHub/HiFive01-RevB/FS_workspace/004_UART_TXRX/freedom-metal/src/drivers/riscv_cpu.c:155
    struct metal_cpu *cpu = __metal_driver_cpu_get(__metal_myhart_id());
20011bf0:	394d                	jal	200118a2 <__metal_myhart_id>
20011bf2:	87aa                	mv	a5,a0
20011bf4:	853e                	mv	a0,a5
20011bf6:	39b5                	jal	20011872 <__metal_driver_cpu_get>
20011bf8:	fea42623          	sw	a0,-20(s0)
E:/GitHub/HiFive01-RevB/FS_workspace/004_UART_TXRX/freedom-metal/src/drivers/riscv_cpu.c:156
    unsigned long long time = __metal_driver_cpu_mtime_get(cpu);
20011bfc:	fec42503          	lw	a0,-20(s0)
20011c00:	294010ef          	jal	ra,20012e94 <__metal_driver_cpu_mtime_get>
20011c04:	fea42023          	sw	a0,-32(s0)
20011c08:	feb42223          	sw	a1,-28(s0)
E:/GitHub/HiFive01-RevB/FS_workspace/004_UART_TXRX/freedom-metal/src/drivers/riscv_cpu.c:159

    /* Set a 10 cycle timer */
    __metal_driver_cpu_mtimecmp_set(cpu, time + 10);
20011c0c:	fe042703          	lw	a4,-32(s0)
20011c10:	fe442783          	lw	a5,-28(s0)
20011c14:	4529                	li	a0,10
20011c16:	4581                	li	a1,0
20011c18:	00a70633          	add	a2,a4,a0
20011c1c:	8832                	mv	a6,a2
20011c1e:	00e83833          	sltu	a6,a6,a4
20011c22:	00b786b3          	add	a3,a5,a1
20011c26:	00d807b3          	add	a5,a6,a3
20011c2a:	86be                	mv	a3,a5
20011c2c:	8732                	mv	a4,a2
20011c2e:	87b6                	mv	a5,a3
20011c30:	85ba                	mv	a1,a4
20011c32:	863e                	mv	a2,a5
20011c34:	fec42503          	lw	a0,-20(s0)
20011c38:	2c2010ef          	jal	ra,20012efa <__metal_driver_cpu_mtimecmp_set>
E:/GitHub/HiFive01-RevB/FS_workspace/004_UART_TXRX/freedom-metal/src/drivers/riscv_cpu.c:160
}
20011c3c:	0001                	nop
20011c3e:	50b2                	lw	ra,44(sp)
20011c40:	5422                	lw	s0,40(sp)
20011c42:	6145                	addi	sp,sp,48
20011c44:	8082                	ret
	...

20011c80 <__metal_exception_handler>:
__metal_exception_handler():
E:/GitHub/HiFive01-RevB/FS_workspace/004_UART_TXRX/freedom-metal/src/drivers/riscv_cpu.c:169
metal_external_interrupt_vector_handler(void) {
    __METAL_IRQ_VECTOR_HANDLER(METAL_INTERRUPT_ID_EXT);
}

void __metal_exception_handler(void) __attribute__((interrupt, aligned(128)));
void __metal_exception_handler(void) {
20011c80:	7119                	addi	sp,sp,-128
20011c82:	de86                	sw	ra,124(sp)
20011c84:	dc96                	sw	t0,120(sp)
20011c86:	da9a                	sw	t1,116(sp)
20011c88:	d89e                	sw	t2,112(sp)
20011c8a:	d6a2                	sw	s0,108(sp)
20011c8c:	d4aa                	sw	a0,104(sp)
20011c8e:	d2ae                	sw	a1,100(sp)
20011c90:	d0b2                	sw	a2,96(sp)
20011c92:	ceb6                	sw	a3,92(sp)
20011c94:	ccba                	sw	a4,88(sp)
20011c96:	cabe                	sw	a5,84(sp)
20011c98:	c8c2                	sw	a6,80(sp)
20011c9a:	c6c6                	sw	a7,76(sp)
20011c9c:	c4f2                	sw	t3,72(sp)
20011c9e:	c2f6                	sw	t4,68(sp)
20011ca0:	c0fa                	sw	t5,64(sp)
20011ca2:	de7e                	sw	t6,60(sp)
20011ca4:	0100                	addi	s0,sp,128
E:/GitHub/HiFive01-RevB/FS_workspace/004_UART_TXRX/freedom-metal/src/drivers/riscv_cpu.c:174
    int id;
    void *priv;
    uintptr_t mcause, mepc, mtval, mtvec;
    struct __metal_driver_riscv_cpu_intc *intc;
    struct __metal_driver_cpu *cpu = __metal_cpu_table[__metal_myhart_id()];
20011ca6:	3ef5                	jal	200118a2 <__metal_myhart_id>
20011ca8:	872a                	mv	a4,a0
20011caa:	800017b7          	lui	a5,0x80001
20011cae:	070a                	slli	a4,a4,0x2
20011cb0:	ab078793          	addi	a5,a5,-1360 # 80000ab0 <__global_pointer$+0xfffff800>
20011cb4:	97ba                	add	a5,a5,a4
20011cb6:	439c                	lw	a5,0(a5)
20011cb8:	faf42623          	sw	a5,-84(s0)
E:/GitHub/HiFive01-RevB/FS_workspace/004_UART_TXRX/freedom-metal/src/drivers/riscv_cpu.c:176

    __asm__ volatile("csrr %0, mcause" : "=r"(mcause));
20011cbc:	342027f3          	csrr	a5,mcause
20011cc0:	faf42423          	sw	a5,-88(s0)
E:/GitHub/HiFive01-RevB/FS_workspace/004_UART_TXRX/freedom-metal/src/drivers/riscv_cpu.c:177
    __asm__ volatile("csrr %0, mepc" : "=r"(mepc));
20011cc4:	341027f3          	csrr	a5,mepc
20011cc8:	faf42223          	sw	a5,-92(s0)
E:/GitHub/HiFive01-RevB/FS_workspace/004_UART_TXRX/freedom-metal/src/drivers/riscv_cpu.c:178
    __asm__ volatile("csrr %0, mtval" : "=r"(mtval));
20011ccc:	343027f3          	csrr	a5,mtval
20011cd0:	faf42023          	sw	a5,-96(s0)
E:/GitHub/HiFive01-RevB/FS_workspace/004_UART_TXRX/freedom-metal/src/drivers/riscv_cpu.c:179
    __asm__ volatile("csrr %0, mtvec" : "=r"(mtvec));
20011cd4:	305027f3          	csrr	a5,mtvec
20011cd8:	f8f42e23          	sw	a5,-100(s0)
E:/GitHub/HiFive01-RevB/FS_workspace/004_UART_TXRX/freedom-metal/src/drivers/riscv_cpu.c:181

    if (cpu) {
20011cdc:	fac42783          	lw	a5,-84(s0)
20011ce0:	cbf5                	beqz	a5,20011dd4 <__metal_exception_handler+0x154>
E:/GitHub/HiFive01-RevB/FS_workspace/004_UART_TXRX/freedom-metal/src/drivers/riscv_cpu.c:183
        intc = (struct __metal_driver_riscv_cpu_intc *)
            __metal_driver_cpu_interrupt_controller((struct metal_cpu *)cpu);
20011ce2:	fac42503          	lw	a0,-84(s0)
20011ce6:	3e3d                	jal	20011824 <__metal_driver_cpu_interrupt_controller>
20011ce8:	f8a42c23          	sw	a0,-104(s0)
E:/GitHub/HiFive01-RevB/FS_workspace/004_UART_TXRX/freedom-metal/src/drivers/riscv_cpu.c:184
        id = mcause & METAL_MCAUSE_CAUSE;
20011cec:	fa842783          	lw	a5,-88(s0)
20011cf0:	3ff7f793          	andi	a5,a5,1023
20011cf4:	f8f42a23          	sw	a5,-108(s0)
E:/GitHub/HiFive01-RevB/FS_workspace/004_UART_TXRX/freedom-metal/src/drivers/riscv_cpu.c:185
        if (mcause & METAL_MCAUSE_INTR) {
20011cf8:	fa842783          	lw	a5,-88(s0)
20011cfc:	0a07de63          	bgez	a5,20011db8 <__metal_exception_handler+0x138>
E:/GitHub/HiFive01-RevB/FS_workspace/004_UART_TXRX/freedom-metal/src/drivers/riscv_cpu.c:186
            if (id == METAL_INTERRUPT_ID_BEU) {
20011d00:	f9442703          	lw	a4,-108(s0)
20011d04:	08000793          	li	a5,128
20011d08:	02f71263          	bne	a4,a5,20011d2c <__metal_exception_handler+0xac>
E:/GitHub/HiFive01-RevB/FS_workspace/004_UART_TXRX/freedom-metal/src/drivers/riscv_cpu.c:187
                priv = intc->metal_int_beu.exint_data;
20011d0c:	f9842783          	lw	a5,-104(s0)
20011d10:	3987a783          	lw	a5,920(a5)
20011d14:	f8f42623          	sw	a5,-116(s0)
E:/GitHub/HiFive01-RevB/FS_workspace/004_UART_TXRX/freedom-metal/src/drivers/riscv_cpu.c:188
                intc->metal_int_beu.handler(id, priv);
20011d18:	f9842783          	lw	a5,-104(s0)
20011d1c:	3907a783          	lw	a5,912(a5)
20011d20:	f8c42583          	lw	a1,-116(s0)
20011d24:	f9442503          	lw	a0,-108(s0)
20011d28:	9782                	jalr	a5
E:/GitHub/HiFive01-RevB/FS_workspace/004_UART_TXRX/freedom-metal/src/drivers/riscv_cpu.c:189
                return;
20011d2a:	a06d                	j	20011dd4 <__metal_exception_handler+0x154>
E:/GitHub/HiFive01-RevB/FS_workspace/004_UART_TXRX/freedom-metal/src/drivers/riscv_cpu.c:191
            }
            if ((id < METAL_INTERRUPT_ID_CSW) ||
20011d2c:	f9442703          	lw	a4,-108(s0)
20011d30:	47ad                	li	a5,11
20011d32:	00e7d763          	bge	a5,a4,20011d40 <__metal_exception_handler+0xc0>
E:/GitHub/HiFive01-RevB/FS_workspace/004_UART_TXRX/freedom-metal/src/drivers/riscv_cpu.c:192 (discriminator 1)
                ((mtvec & METAL_MTVEC_MASK) == METAL_MTVEC_DIRECT)) {
20011d36:	f9c42783          	lw	a5,-100(s0)
20011d3a:	03f7f793          	andi	a5,a5,63
E:/GitHub/HiFive01-RevB/FS_workspace/004_UART_TXRX/freedom-metal/src/drivers/riscv_cpu.c:191 (discriminator 1)
            if ((id < METAL_INTERRUPT_ID_CSW) ||
20011d3e:	ef9d                	bnez	a5,20011d7c <__metal_exception_handler+0xfc>
E:/GitHub/HiFive01-RevB/FS_workspace/004_UART_TXRX/freedom-metal/src/drivers/riscv_cpu.c:193
                priv = intc->metal_int_table[id].exint_data;
20011d40:	f9842683          	lw	a3,-104(s0)
20011d44:	f9442703          	lw	a4,-108(s0)
20011d48:	87ba                	mv	a5,a4
20011d4a:	0786                	slli	a5,a5,0x1
20011d4c:	97ba                	add	a5,a5,a4
20011d4e:	078e                	slli	a5,a5,0x3
20011d50:	97b6                	add	a5,a5,a3
20011d52:	0987a783          	lw	a5,152(a5)
20011d56:	f8f42623          	sw	a5,-116(s0)
E:/GitHub/HiFive01-RevB/FS_workspace/004_UART_TXRX/freedom-metal/src/drivers/riscv_cpu.c:194
                intc->metal_int_table[id].handler(id, priv);
20011d5a:	f9842683          	lw	a3,-104(s0)
20011d5e:	f9442703          	lw	a4,-108(s0)
20011d62:	87ba                	mv	a5,a4
20011d64:	0786                	slli	a5,a5,0x1
20011d66:	97ba                	add	a5,a5,a4
20011d68:	078e                	slli	a5,a5,0x3
20011d6a:	97b6                	add	a5,a5,a3
20011d6c:	0907a783          	lw	a5,144(a5)
20011d70:	f8c42583          	lw	a1,-116(s0)
20011d74:	f9442503          	lw	a0,-108(s0)
20011d78:	9782                	jalr	a5
E:/GitHub/HiFive01-RevB/FS_workspace/004_UART_TXRX/freedom-metal/src/drivers/riscv_cpu.c:195
                return;
20011d7a:	a8a9                	j	20011dd4 <__metal_exception_handler+0x154>
E:/GitHub/HiFive01-RevB/FS_workspace/004_UART_TXRX/freedom-metal/src/drivers/riscv_cpu.c:197
            }
            if ((mtvec & METAL_MTVEC_MASK) == METAL_MTVEC_CLIC) {
20011d7c:	f9c42783          	lw	a5,-100(s0)
20011d80:	03f7f713          	andi	a4,a5,63
20011d84:	4789                	li	a5,2
20011d86:	04f71763          	bne	a4,a5,20011dd4 <__metal_exception_handler+0x154>
E:/GitHub/HiFive01-RevB/FS_workspace/004_UART_TXRX/freedom-metal/src/drivers/riscv_cpu.c:201
                uintptr_t mtvt;
                metal_interrupt_handler_t mtvt_handler;

                __asm__ volatile("csrr %0, 0x307" : "=r"(mtvt));
20011d8a:	307027f3          	csrr	a5,mtvt
20011d8e:	f8f42823          	sw	a5,-112(s0)
E:/GitHub/HiFive01-RevB/FS_workspace/004_UART_TXRX/freedom-metal/src/drivers/riscv_cpu.c:202
                priv = intc->metal_int_table[METAL_INTERRUPT_ID_SW].sub_int;
20011d92:	f9842783          	lw	a5,-104(s0)
20011d96:	0dc7a783          	lw	a5,220(a5)
20011d9a:	f8f42623          	sw	a5,-116(s0)
E:/GitHub/HiFive01-RevB/FS_workspace/004_UART_TXRX/freedom-metal/src/drivers/riscv_cpu.c:203
                mtvt_handler = (metal_interrupt_handler_t) * (uintptr_t *)mtvt;
20011d9e:	f9042783          	lw	a5,-112(s0)
20011da2:	439c                	lw	a5,0(a5)
20011da4:	f8f42423          	sw	a5,-120(s0)
E:/GitHub/HiFive01-RevB/FS_workspace/004_UART_TXRX/freedom-metal/src/drivers/riscv_cpu.c:204
                mtvt_handler(id, priv);
20011da8:	f8842783          	lw	a5,-120(s0)
20011dac:	f8c42583          	lw	a1,-116(s0)
20011db0:	f9442503          	lw	a0,-108(s0)
20011db4:	9782                	jalr	a5
E:/GitHub/HiFive01-RevB/FS_workspace/004_UART_TXRX/freedom-metal/src/drivers/riscv_cpu.c:205
                return;
20011db6:	a839                	j	20011dd4 <__metal_exception_handler+0x154>
E:/GitHub/HiFive01-RevB/FS_workspace/004_UART_TXRX/freedom-metal/src/drivers/riscv_cpu.c:208
            }
        } else {
            intc->metal_exception_table[id]((struct metal_cpu *)cpu, id);
20011db8:	f9842703          	lw	a4,-104(s0)
20011dbc:	f9442783          	lw	a5,-108(s0)
20011dc0:	0e878793          	addi	a5,a5,232
20011dc4:	078a                	slli	a5,a5,0x2
20011dc6:	97ba                	add	a5,a5,a4
20011dc8:	439c                	lw	a5,0(a5)
20011dca:	f9442583          	lw	a1,-108(s0)
20011dce:	fac42503          	lw	a0,-84(s0)
20011dd2:	9782                	jalr	a5
E:/GitHub/HiFive01-RevB/FS_workspace/004_UART_TXRX/freedom-metal/src/drivers/riscv_cpu.c:211
        }
    }
}
20011dd4:	50f6                	lw	ra,124(sp)
20011dd6:	52e6                	lw	t0,120(sp)
20011dd8:	5356                	lw	t1,116(sp)
20011dda:	53c6                	lw	t2,112(sp)
20011ddc:	5436                	lw	s0,108(sp)
20011dde:	5526                	lw	a0,104(sp)
20011de0:	5596                	lw	a1,100(sp)
20011de2:	5606                	lw	a2,96(sp)
20011de4:	46f6                	lw	a3,92(sp)
20011de6:	4766                	lw	a4,88(sp)
20011de8:	47d6                	lw	a5,84(sp)
20011dea:	4846                	lw	a6,80(sp)
20011dec:	48b6                	lw	a7,76(sp)
20011dee:	4e26                	lw	t3,72(sp)
20011df0:	4e96                	lw	t4,68(sp)
20011df2:	4f06                	lw	t5,64(sp)
20011df4:	5ff2                	lw	t6,60(sp)
20011df6:	6109                	addi	sp,sp,128
20011df8:	30200073          	mret
	...

20011e76 <metal_lc0_interrupt_vector_handler>:
metal_lc0_interrupt_vector_handler():
E:/GitHub/HiFive01-RevB/FS_workspace/004_UART_TXRX/freedom-metal/src/drivers/riscv_cpu.c:214

/* The metal_lc0_interrupt_vector_handler() function can be redefined. */
void __attribute__((weak, interrupt)) metal_lc0_interrupt_vector_handler(void) {
20011e76:	711d                	addi	sp,sp,-96
20011e78:	ce86                	sw	ra,92(sp)
20011e7a:	cc96                	sw	t0,88(sp)
20011e7c:	ca9a                	sw	t1,84(sp)
20011e7e:	c89e                	sw	t2,80(sp)
20011e80:	c6a2                	sw	s0,76(sp)
20011e82:	c4aa                	sw	a0,72(sp)
20011e84:	c2ae                	sw	a1,68(sp)
20011e86:	c0b2                	sw	a2,64(sp)
20011e88:	de36                	sw	a3,60(sp)
20011e8a:	dc3a                	sw	a4,56(sp)
20011e8c:	da3e                	sw	a5,52(sp)
20011e8e:	d842                	sw	a6,48(sp)
20011e90:	d646                	sw	a7,44(sp)
20011e92:	d472                	sw	t3,40(sp)
20011e94:	d276                	sw	t4,36(sp)
20011e96:	d07a                	sw	t5,32(sp)
20011e98:	ce7e                	sw	t6,28(sp)
20011e9a:	1080                	addi	s0,sp,96
E:/GitHub/HiFive01-RevB/FS_workspace/004_UART_TXRX/freedom-metal/src/drivers/riscv_cpu.c:215
    __METAL_IRQ_VECTOR_HANDLER(METAL_INTERRUPT_ID_LC0);
20011e9c:	a07ff0ef          	jal	ra,200118a2 <__metal_myhart_id>
20011ea0:	872a                	mv	a4,a0
20011ea2:	800017b7          	lui	a5,0x80001
20011ea6:	070a                	slli	a4,a4,0x2
20011ea8:	ab078793          	addi	a5,a5,-1360 # 80000ab0 <__global_pointer$+0xfffff800>
20011eac:	97ba                	add	a5,a5,a4
20011eae:	439c                	lw	a5,0(a5)
20011eb0:	faf42623          	sw	a5,-84(s0)
20011eb4:	fac42783          	lw	a5,-84(s0)
20011eb8:	c78d                	beqz	a5,20011ee2 <metal_lc0_interrupt_vector_handler+0x6c>
E:/GitHub/HiFive01-RevB/FS_workspace/004_UART_TXRX/freedom-metal/src/drivers/riscv_cpu.c:215 (discriminator 1)
20011eba:	fac42503          	lw	a0,-84(s0)
20011ebe:	967ff0ef          	jal	ra,20011824 <__metal_driver_cpu_interrupt_controller>
20011ec2:	faa42423          	sw	a0,-88(s0)
20011ec6:	fa842783          	lw	a5,-88(s0)
20011eca:	2187a783          	lw	a5,536(a5)
20011ece:	faf42223          	sw	a5,-92(s0)
20011ed2:	fa842783          	lw	a5,-88(s0)
20011ed6:	2107a783          	lw	a5,528(a5)
20011eda:	fa442583          	lw	a1,-92(s0)
20011ede:	4541                	li	a0,16
20011ee0:	9782                	jalr	a5
E:/GitHub/HiFive01-RevB/FS_workspace/004_UART_TXRX/freedom-metal/src/drivers/riscv_cpu.c:216
}
20011ee2:	0001                	nop
20011ee4:	40f6                	lw	ra,92(sp)
20011ee6:	42e6                	lw	t0,88(sp)
20011ee8:	4356                	lw	t1,84(sp)
20011eea:	43c6                	lw	t2,80(sp)
20011eec:	4436                	lw	s0,76(sp)
20011eee:	4526                	lw	a0,72(sp)
20011ef0:	4596                	lw	a1,68(sp)
20011ef2:	4606                	lw	a2,64(sp)
20011ef4:	56f2                	lw	a3,60(sp)
20011ef6:	5762                	lw	a4,56(sp)
20011ef8:	57d2                	lw	a5,52(sp)
20011efa:	5842                	lw	a6,48(sp)
20011efc:	58b2                	lw	a7,44(sp)
20011efe:	5e22                	lw	t3,40(sp)
20011f00:	5e92                	lw	t4,36(sp)
20011f02:	5f02                	lw	t5,32(sp)
20011f04:	4ff2                	lw	t6,28(sp)
20011f06:	6125                	addi	sp,sp,96
20011f08:	30200073          	mret

20011f0c <metal_lc1_interrupt_vector_handler>:
metal_lc1_interrupt_vector_handler():
E:/GitHub/HiFive01-RevB/FS_workspace/004_UART_TXRX/freedom-metal/src/drivers/riscv_cpu.c:219

/* The metal_lc1_interrupt_vector_handler() function can be redefined. */
void __attribute__((weak, interrupt)) metal_lc1_interrupt_vector_handler(void) {
20011f0c:	711d                	addi	sp,sp,-96
20011f0e:	ce86                	sw	ra,92(sp)
20011f10:	cc96                	sw	t0,88(sp)
20011f12:	ca9a                	sw	t1,84(sp)
20011f14:	c89e                	sw	t2,80(sp)
20011f16:	c6a2                	sw	s0,76(sp)
20011f18:	c4aa                	sw	a0,72(sp)
20011f1a:	c2ae                	sw	a1,68(sp)
20011f1c:	c0b2                	sw	a2,64(sp)
20011f1e:	de36                	sw	a3,60(sp)
20011f20:	dc3a                	sw	a4,56(sp)
20011f22:	da3e                	sw	a5,52(sp)
20011f24:	d842                	sw	a6,48(sp)
20011f26:	d646                	sw	a7,44(sp)
20011f28:	d472                	sw	t3,40(sp)
20011f2a:	d276                	sw	t4,36(sp)
20011f2c:	d07a                	sw	t5,32(sp)
20011f2e:	ce7e                	sw	t6,28(sp)
20011f30:	1080                	addi	s0,sp,96
E:/GitHub/HiFive01-RevB/FS_workspace/004_UART_TXRX/freedom-metal/src/drivers/riscv_cpu.c:220
    __METAL_IRQ_VECTOR_HANDLER(METAL_INTERRUPT_ID_LC1);
20011f32:	971ff0ef          	jal	ra,200118a2 <__metal_myhart_id>
20011f36:	872a                	mv	a4,a0
20011f38:	800017b7          	lui	a5,0x80001
20011f3c:	070a                	slli	a4,a4,0x2
20011f3e:	ab078793          	addi	a5,a5,-1360 # 80000ab0 <__global_pointer$+0xfffff800>
20011f42:	97ba                	add	a5,a5,a4
20011f44:	439c                	lw	a5,0(a5)
20011f46:	faf42623          	sw	a5,-84(s0)
20011f4a:	fac42783          	lw	a5,-84(s0)
20011f4e:	c78d                	beqz	a5,20011f78 <metal_lc1_interrupt_vector_handler+0x6c>
E:/GitHub/HiFive01-RevB/FS_workspace/004_UART_TXRX/freedom-metal/src/drivers/riscv_cpu.c:220 (discriminator 1)
20011f50:	fac42503          	lw	a0,-84(s0)
20011f54:	8d1ff0ef          	jal	ra,20011824 <__metal_driver_cpu_interrupt_controller>
20011f58:	faa42423          	sw	a0,-88(s0)
20011f5c:	fa842783          	lw	a5,-88(s0)
20011f60:	2307a783          	lw	a5,560(a5)
20011f64:	faf42223          	sw	a5,-92(s0)
20011f68:	fa842783          	lw	a5,-88(s0)
20011f6c:	2287a783          	lw	a5,552(a5)
20011f70:	fa442583          	lw	a1,-92(s0)
20011f74:	4545                	li	a0,17
20011f76:	9782                	jalr	a5
E:/GitHub/HiFive01-RevB/FS_workspace/004_UART_TXRX/freedom-metal/src/drivers/riscv_cpu.c:221
}
20011f78:	0001                	nop
20011f7a:	40f6                	lw	ra,92(sp)
20011f7c:	42e6                	lw	t0,88(sp)
20011f7e:	4356                	lw	t1,84(sp)
20011f80:	43c6                	lw	t2,80(sp)
20011f82:	4436                	lw	s0,76(sp)
20011f84:	4526                	lw	a0,72(sp)
20011f86:	4596                	lw	a1,68(sp)
20011f88:	4606                	lw	a2,64(sp)
20011f8a:	56f2                	lw	a3,60(sp)
20011f8c:	5762                	lw	a4,56(sp)
20011f8e:	57d2                	lw	a5,52(sp)
20011f90:	5842                	lw	a6,48(sp)
20011f92:	58b2                	lw	a7,44(sp)
20011f94:	5e22                	lw	t3,40(sp)
20011f96:	5e92                	lw	t4,36(sp)
20011f98:	5f02                	lw	t5,32(sp)
20011f9a:	4ff2                	lw	t6,28(sp)
20011f9c:	6125                	addi	sp,sp,96
20011f9e:	30200073          	mret

20011fa2 <metal_lc2_interrupt_vector_handler>:
metal_lc2_interrupt_vector_handler():
E:/GitHub/HiFive01-RevB/FS_workspace/004_UART_TXRX/freedom-metal/src/drivers/riscv_cpu.c:224

/* The metal_lc2_interrupt_vector_handler() function can be redefined. */
void __attribute__((weak, interrupt)) metal_lc2_interrupt_vector_handler(void) {
20011fa2:	711d                	addi	sp,sp,-96
20011fa4:	ce86                	sw	ra,92(sp)
20011fa6:	cc96                	sw	t0,88(sp)
20011fa8:	ca9a                	sw	t1,84(sp)
20011faa:	c89e                	sw	t2,80(sp)
20011fac:	c6a2                	sw	s0,76(sp)
20011fae:	c4aa                	sw	a0,72(sp)
20011fb0:	c2ae                	sw	a1,68(sp)
20011fb2:	c0b2                	sw	a2,64(sp)
20011fb4:	de36                	sw	a3,60(sp)
20011fb6:	dc3a                	sw	a4,56(sp)
20011fb8:	da3e                	sw	a5,52(sp)
20011fba:	d842                	sw	a6,48(sp)
20011fbc:	d646                	sw	a7,44(sp)
20011fbe:	d472                	sw	t3,40(sp)
20011fc0:	d276                	sw	t4,36(sp)
20011fc2:	d07a                	sw	t5,32(sp)
20011fc4:	ce7e                	sw	t6,28(sp)
20011fc6:	1080                	addi	s0,sp,96
E:/GitHub/HiFive01-RevB/FS_workspace/004_UART_TXRX/freedom-metal/src/drivers/riscv_cpu.c:225
    __METAL_IRQ_VECTOR_HANDLER(METAL_INTERRUPT_ID_LC2);
20011fc8:	8dbff0ef          	jal	ra,200118a2 <__metal_myhart_id>
20011fcc:	872a                	mv	a4,a0
20011fce:	800017b7          	lui	a5,0x80001
20011fd2:	070a                	slli	a4,a4,0x2
20011fd4:	ab078793          	addi	a5,a5,-1360 # 80000ab0 <__global_pointer$+0xfffff800>
20011fd8:	97ba                	add	a5,a5,a4
20011fda:	439c                	lw	a5,0(a5)
20011fdc:	faf42623          	sw	a5,-84(s0)
20011fe0:	fac42783          	lw	a5,-84(s0)
20011fe4:	c78d                	beqz	a5,2001200e <metal_lc2_interrupt_vector_handler+0x6c>
E:/GitHub/HiFive01-RevB/FS_workspace/004_UART_TXRX/freedom-metal/src/drivers/riscv_cpu.c:225 (discriminator 1)
20011fe6:	fac42503          	lw	a0,-84(s0)
20011fea:	83bff0ef          	jal	ra,20011824 <__metal_driver_cpu_interrupt_controller>
20011fee:	faa42423          	sw	a0,-88(s0)
20011ff2:	fa842783          	lw	a5,-88(s0)
20011ff6:	2487a783          	lw	a5,584(a5)
20011ffa:	faf42223          	sw	a5,-92(s0)
20011ffe:	fa842783          	lw	a5,-88(s0)
20012002:	2407a783          	lw	a5,576(a5)
20012006:	fa442583          	lw	a1,-92(s0)
2001200a:	4549                	li	a0,18
2001200c:	9782                	jalr	a5
E:/GitHub/HiFive01-RevB/FS_workspace/004_UART_TXRX/freedom-metal/src/drivers/riscv_cpu.c:226
}
2001200e:	0001                	nop
20012010:	40f6                	lw	ra,92(sp)
20012012:	42e6                	lw	t0,88(sp)
20012014:	4356                	lw	t1,84(sp)
20012016:	43c6                	lw	t2,80(sp)
20012018:	4436                	lw	s0,76(sp)
2001201a:	4526                	lw	a0,72(sp)
2001201c:	4596                	lw	a1,68(sp)
2001201e:	4606                	lw	a2,64(sp)
20012020:	56f2                	lw	a3,60(sp)
20012022:	5762                	lw	a4,56(sp)
20012024:	57d2                	lw	a5,52(sp)
20012026:	5842                	lw	a6,48(sp)
20012028:	58b2                	lw	a7,44(sp)
2001202a:	5e22                	lw	t3,40(sp)
2001202c:	5e92                	lw	t4,36(sp)
2001202e:	5f02                	lw	t5,32(sp)
20012030:	4ff2                	lw	t6,28(sp)
20012032:	6125                	addi	sp,sp,96
20012034:	30200073          	mret

20012038 <metal_lc3_interrupt_vector_handler>:
metal_lc3_interrupt_vector_handler():
E:/GitHub/HiFive01-RevB/FS_workspace/004_UART_TXRX/freedom-metal/src/drivers/riscv_cpu.c:229

/* The metal_lc3_interrupt_vector_handler() function can be redefined. */
void __attribute__((weak, interrupt)) metal_lc3_interrupt_vector_handler(void) {
20012038:	711d                	addi	sp,sp,-96
2001203a:	ce86                	sw	ra,92(sp)
2001203c:	cc96                	sw	t0,88(sp)
2001203e:	ca9a                	sw	t1,84(sp)
20012040:	c89e                	sw	t2,80(sp)
20012042:	c6a2                	sw	s0,76(sp)
20012044:	c4aa                	sw	a0,72(sp)
20012046:	c2ae                	sw	a1,68(sp)
20012048:	c0b2                	sw	a2,64(sp)
2001204a:	de36                	sw	a3,60(sp)
2001204c:	dc3a                	sw	a4,56(sp)
2001204e:	da3e                	sw	a5,52(sp)
20012050:	d842                	sw	a6,48(sp)
20012052:	d646                	sw	a7,44(sp)
20012054:	d472                	sw	t3,40(sp)
20012056:	d276                	sw	t4,36(sp)
20012058:	d07a                	sw	t5,32(sp)
2001205a:	ce7e                	sw	t6,28(sp)
2001205c:	1080                	addi	s0,sp,96
E:/GitHub/HiFive01-RevB/FS_workspace/004_UART_TXRX/freedom-metal/src/drivers/riscv_cpu.c:230
    __METAL_IRQ_VECTOR_HANDLER(METAL_INTERRUPT_ID_LC3);
2001205e:	845ff0ef          	jal	ra,200118a2 <__metal_myhart_id>
20012062:	872a                	mv	a4,a0
20012064:	800017b7          	lui	a5,0x80001
20012068:	070a                	slli	a4,a4,0x2
2001206a:	ab078793          	addi	a5,a5,-1360 # 80000ab0 <__global_pointer$+0xfffff800>
2001206e:	97ba                	add	a5,a5,a4
20012070:	439c                	lw	a5,0(a5)
20012072:	faf42623          	sw	a5,-84(s0)
20012076:	fac42783          	lw	a5,-84(s0)
2001207a:	c78d                	beqz	a5,200120a4 <metal_lc3_interrupt_vector_handler+0x6c>
E:/GitHub/HiFive01-RevB/FS_workspace/004_UART_TXRX/freedom-metal/src/drivers/riscv_cpu.c:230 (discriminator 1)
2001207c:	fac42503          	lw	a0,-84(s0)
20012080:	fa4ff0ef          	jal	ra,20011824 <__metal_driver_cpu_interrupt_controller>
20012084:	faa42423          	sw	a0,-88(s0)
20012088:	fa842783          	lw	a5,-88(s0)
2001208c:	2607a783          	lw	a5,608(a5)
20012090:	faf42223          	sw	a5,-92(s0)
20012094:	fa842783          	lw	a5,-88(s0)
20012098:	2587a783          	lw	a5,600(a5)
2001209c:	fa442583          	lw	a1,-92(s0)
200120a0:	454d                	li	a0,19
200120a2:	9782                	jalr	a5
E:/GitHub/HiFive01-RevB/FS_workspace/004_UART_TXRX/freedom-metal/src/drivers/riscv_cpu.c:231
}
200120a4:	0001                	nop
200120a6:	40f6                	lw	ra,92(sp)
200120a8:	42e6                	lw	t0,88(sp)
200120aa:	4356                	lw	t1,84(sp)
200120ac:	43c6                	lw	t2,80(sp)
200120ae:	4436                	lw	s0,76(sp)
200120b0:	4526                	lw	a0,72(sp)
200120b2:	4596                	lw	a1,68(sp)
200120b4:	4606                	lw	a2,64(sp)
200120b6:	56f2                	lw	a3,60(sp)
200120b8:	5762                	lw	a4,56(sp)
200120ba:	57d2                	lw	a5,52(sp)
200120bc:	5842                	lw	a6,48(sp)
200120be:	58b2                	lw	a7,44(sp)
200120c0:	5e22                	lw	t3,40(sp)
200120c2:	5e92                	lw	t4,36(sp)
200120c4:	5f02                	lw	t5,32(sp)
200120c6:	4ff2                	lw	t6,28(sp)
200120c8:	6125                	addi	sp,sp,96
200120ca:	30200073          	mret

200120ce <metal_lc4_interrupt_vector_handler>:
metal_lc4_interrupt_vector_handler():
E:/GitHub/HiFive01-RevB/FS_workspace/004_UART_TXRX/freedom-metal/src/drivers/riscv_cpu.c:234

/* The metal_lc4_interrupt_vector_handler() function can be redefined. */
void __attribute__((weak, interrupt)) metal_lc4_interrupt_vector_handler(void) {
200120ce:	711d                	addi	sp,sp,-96
200120d0:	ce86                	sw	ra,92(sp)
200120d2:	cc96                	sw	t0,88(sp)
200120d4:	ca9a                	sw	t1,84(sp)
200120d6:	c89e                	sw	t2,80(sp)
200120d8:	c6a2                	sw	s0,76(sp)
200120da:	c4aa                	sw	a0,72(sp)
200120dc:	c2ae                	sw	a1,68(sp)
200120de:	c0b2                	sw	a2,64(sp)
200120e0:	de36                	sw	a3,60(sp)
200120e2:	dc3a                	sw	a4,56(sp)
200120e4:	da3e                	sw	a5,52(sp)
200120e6:	d842                	sw	a6,48(sp)
200120e8:	d646                	sw	a7,44(sp)
200120ea:	d472                	sw	t3,40(sp)
200120ec:	d276                	sw	t4,36(sp)
200120ee:	d07a                	sw	t5,32(sp)
200120f0:	ce7e                	sw	t6,28(sp)
200120f2:	1080                	addi	s0,sp,96
E:/GitHub/HiFive01-RevB/FS_workspace/004_UART_TXRX/freedom-metal/src/drivers/riscv_cpu.c:235
    __METAL_IRQ_VECTOR_HANDLER(METAL_INTERRUPT_ID_LC4);
200120f4:	faeff0ef          	jal	ra,200118a2 <__metal_myhart_id>
200120f8:	872a                	mv	a4,a0
200120fa:	800017b7          	lui	a5,0x80001
200120fe:	070a                	slli	a4,a4,0x2
20012100:	ab078793          	addi	a5,a5,-1360 # 80000ab0 <__global_pointer$+0xfffff800>
20012104:	97ba                	add	a5,a5,a4
20012106:	439c                	lw	a5,0(a5)
20012108:	faf42623          	sw	a5,-84(s0)
2001210c:	fac42783          	lw	a5,-84(s0)
20012110:	c78d                	beqz	a5,2001213a <metal_lc4_interrupt_vector_handler+0x6c>
E:/GitHub/HiFive01-RevB/FS_workspace/004_UART_TXRX/freedom-metal/src/drivers/riscv_cpu.c:235 (discriminator 1)
20012112:	fac42503          	lw	a0,-84(s0)
20012116:	f0eff0ef          	jal	ra,20011824 <__metal_driver_cpu_interrupt_controller>
2001211a:	faa42423          	sw	a0,-88(s0)
2001211e:	fa842783          	lw	a5,-88(s0)
20012122:	2787a783          	lw	a5,632(a5)
20012126:	faf42223          	sw	a5,-92(s0)
2001212a:	fa842783          	lw	a5,-88(s0)
2001212e:	2707a783          	lw	a5,624(a5)
20012132:	fa442583          	lw	a1,-92(s0)
20012136:	4551                	li	a0,20
20012138:	9782                	jalr	a5
E:/GitHub/HiFive01-RevB/FS_workspace/004_UART_TXRX/freedom-metal/src/drivers/riscv_cpu.c:236
}
2001213a:	0001                	nop
2001213c:	40f6                	lw	ra,92(sp)
2001213e:	42e6                	lw	t0,88(sp)
20012140:	4356                	lw	t1,84(sp)
20012142:	43c6                	lw	t2,80(sp)
20012144:	4436                	lw	s0,76(sp)
20012146:	4526                	lw	a0,72(sp)
20012148:	4596                	lw	a1,68(sp)
2001214a:	4606                	lw	a2,64(sp)
2001214c:	56f2                	lw	a3,60(sp)
2001214e:	5762                	lw	a4,56(sp)
20012150:	57d2                	lw	a5,52(sp)
20012152:	5842                	lw	a6,48(sp)
20012154:	58b2                	lw	a7,44(sp)
20012156:	5e22                	lw	t3,40(sp)
20012158:	5e92                	lw	t4,36(sp)
2001215a:	5f02                	lw	t5,32(sp)
2001215c:	4ff2                	lw	t6,28(sp)
2001215e:	6125                	addi	sp,sp,96
20012160:	30200073          	mret

20012164 <metal_lc5_interrupt_vector_handler>:
metal_lc5_interrupt_vector_handler():
E:/GitHub/HiFive01-RevB/FS_workspace/004_UART_TXRX/freedom-metal/src/drivers/riscv_cpu.c:239

/* The metal_lc5_interrupt_vector_handler() function can be redefined. */
void __attribute__((weak, interrupt)) metal_lc5_interrupt_vector_handler(void) {
20012164:	711d                	addi	sp,sp,-96
20012166:	ce86                	sw	ra,92(sp)
20012168:	cc96                	sw	t0,88(sp)
2001216a:	ca9a                	sw	t1,84(sp)
2001216c:	c89e                	sw	t2,80(sp)
2001216e:	c6a2                	sw	s0,76(sp)
20012170:	c4aa                	sw	a0,72(sp)
20012172:	c2ae                	sw	a1,68(sp)
20012174:	c0b2                	sw	a2,64(sp)
20012176:	de36                	sw	a3,60(sp)
20012178:	dc3a                	sw	a4,56(sp)
2001217a:	da3e                	sw	a5,52(sp)
2001217c:	d842                	sw	a6,48(sp)
2001217e:	d646                	sw	a7,44(sp)
20012180:	d472                	sw	t3,40(sp)
20012182:	d276                	sw	t4,36(sp)
20012184:	d07a                	sw	t5,32(sp)
20012186:	ce7e                	sw	t6,28(sp)
20012188:	1080                	addi	s0,sp,96
E:/GitHub/HiFive01-RevB/FS_workspace/004_UART_TXRX/freedom-metal/src/drivers/riscv_cpu.c:240
    __METAL_IRQ_VECTOR_HANDLER(METAL_INTERRUPT_ID_LC5);
2001218a:	f18ff0ef          	jal	ra,200118a2 <__metal_myhart_id>
2001218e:	872a                	mv	a4,a0
20012190:	800017b7          	lui	a5,0x80001
20012194:	070a                	slli	a4,a4,0x2
20012196:	ab078793          	addi	a5,a5,-1360 # 80000ab0 <__global_pointer$+0xfffff800>
2001219a:	97ba                	add	a5,a5,a4
2001219c:	439c                	lw	a5,0(a5)
2001219e:	faf42623          	sw	a5,-84(s0)
200121a2:	fac42783          	lw	a5,-84(s0)
200121a6:	c78d                	beqz	a5,200121d0 <metal_lc5_interrupt_vector_handler+0x6c>
E:/GitHub/HiFive01-RevB/FS_workspace/004_UART_TXRX/freedom-metal/src/drivers/riscv_cpu.c:240 (discriminator 1)
200121a8:	fac42503          	lw	a0,-84(s0)
200121ac:	e78ff0ef          	jal	ra,20011824 <__metal_driver_cpu_interrupt_controller>
200121b0:	faa42423          	sw	a0,-88(s0)
200121b4:	fa842783          	lw	a5,-88(s0)
200121b8:	2907a783          	lw	a5,656(a5)
200121bc:	faf42223          	sw	a5,-92(s0)
200121c0:	fa842783          	lw	a5,-88(s0)
200121c4:	2887a783          	lw	a5,648(a5)
200121c8:	fa442583          	lw	a1,-92(s0)
200121cc:	4555                	li	a0,21
200121ce:	9782                	jalr	a5
E:/GitHub/HiFive01-RevB/FS_workspace/004_UART_TXRX/freedom-metal/src/drivers/riscv_cpu.c:241
}
200121d0:	0001                	nop
200121d2:	40f6                	lw	ra,92(sp)
200121d4:	42e6                	lw	t0,88(sp)
200121d6:	4356                	lw	t1,84(sp)
200121d8:	43c6                	lw	t2,80(sp)
200121da:	4436                	lw	s0,76(sp)
200121dc:	4526                	lw	a0,72(sp)
200121de:	4596                	lw	a1,68(sp)
200121e0:	4606                	lw	a2,64(sp)
200121e2:	56f2                	lw	a3,60(sp)
200121e4:	5762                	lw	a4,56(sp)
200121e6:	57d2                	lw	a5,52(sp)
200121e8:	5842                	lw	a6,48(sp)
200121ea:	58b2                	lw	a7,44(sp)
200121ec:	5e22                	lw	t3,40(sp)
200121ee:	5e92                	lw	t4,36(sp)
200121f0:	5f02                	lw	t5,32(sp)
200121f2:	4ff2                	lw	t6,28(sp)
200121f4:	6125                	addi	sp,sp,96
200121f6:	30200073          	mret

200121fa <metal_lc6_interrupt_vector_handler>:
metal_lc6_interrupt_vector_handler():
E:/GitHub/HiFive01-RevB/FS_workspace/004_UART_TXRX/freedom-metal/src/drivers/riscv_cpu.c:244

/* The metal_lc6_interrupt_vector_handler() function can be redefined. */
void __attribute__((weak, interrupt)) metal_lc6_interrupt_vector_handler(void) {
200121fa:	711d                	addi	sp,sp,-96
200121fc:	ce86                	sw	ra,92(sp)
200121fe:	cc96                	sw	t0,88(sp)
20012200:	ca9a                	sw	t1,84(sp)
20012202:	c89e                	sw	t2,80(sp)
20012204:	c6a2                	sw	s0,76(sp)
20012206:	c4aa                	sw	a0,72(sp)
20012208:	c2ae                	sw	a1,68(sp)
2001220a:	c0b2                	sw	a2,64(sp)
2001220c:	de36                	sw	a3,60(sp)
2001220e:	dc3a                	sw	a4,56(sp)
20012210:	da3e                	sw	a5,52(sp)
20012212:	d842                	sw	a6,48(sp)
20012214:	d646                	sw	a7,44(sp)
20012216:	d472                	sw	t3,40(sp)
20012218:	d276                	sw	t4,36(sp)
2001221a:	d07a                	sw	t5,32(sp)
2001221c:	ce7e                	sw	t6,28(sp)
2001221e:	1080                	addi	s0,sp,96
E:/GitHub/HiFive01-RevB/FS_workspace/004_UART_TXRX/freedom-metal/src/drivers/riscv_cpu.c:245
    __METAL_IRQ_VECTOR_HANDLER(METAL_INTERRUPT_ID_LC6);
20012220:	e82ff0ef          	jal	ra,200118a2 <__metal_myhart_id>
20012224:	872a                	mv	a4,a0
20012226:	800017b7          	lui	a5,0x80001
2001222a:	070a                	slli	a4,a4,0x2
2001222c:	ab078793          	addi	a5,a5,-1360 # 80000ab0 <__global_pointer$+0xfffff800>
20012230:	97ba                	add	a5,a5,a4
20012232:	439c                	lw	a5,0(a5)
20012234:	faf42623          	sw	a5,-84(s0)
20012238:	fac42783          	lw	a5,-84(s0)
2001223c:	c78d                	beqz	a5,20012266 <metal_lc6_interrupt_vector_handler+0x6c>
E:/GitHub/HiFive01-RevB/FS_workspace/004_UART_TXRX/freedom-metal/src/drivers/riscv_cpu.c:245 (discriminator 1)
2001223e:	fac42503          	lw	a0,-84(s0)
20012242:	de2ff0ef          	jal	ra,20011824 <__metal_driver_cpu_interrupt_controller>
20012246:	faa42423          	sw	a0,-88(s0)
2001224a:	fa842783          	lw	a5,-88(s0)
2001224e:	2a87a783          	lw	a5,680(a5)
20012252:	faf42223          	sw	a5,-92(s0)
20012256:	fa842783          	lw	a5,-88(s0)
2001225a:	2a07a783          	lw	a5,672(a5)
2001225e:	fa442583          	lw	a1,-92(s0)
20012262:	4559                	li	a0,22
20012264:	9782                	jalr	a5
E:/GitHub/HiFive01-RevB/FS_workspace/004_UART_TXRX/freedom-metal/src/drivers/riscv_cpu.c:246
}
20012266:	0001                	nop
20012268:	40f6                	lw	ra,92(sp)
2001226a:	42e6                	lw	t0,88(sp)
2001226c:	4356                	lw	t1,84(sp)
2001226e:	43c6                	lw	t2,80(sp)
20012270:	4436                	lw	s0,76(sp)
20012272:	4526                	lw	a0,72(sp)
20012274:	4596                	lw	a1,68(sp)
20012276:	4606                	lw	a2,64(sp)
20012278:	56f2                	lw	a3,60(sp)
2001227a:	5762                	lw	a4,56(sp)
2001227c:	57d2                	lw	a5,52(sp)
2001227e:	5842                	lw	a6,48(sp)
20012280:	58b2                	lw	a7,44(sp)
20012282:	5e22                	lw	t3,40(sp)
20012284:	5e92                	lw	t4,36(sp)
20012286:	5f02                	lw	t5,32(sp)
20012288:	4ff2                	lw	t6,28(sp)
2001228a:	6125                	addi	sp,sp,96
2001228c:	30200073          	mret

20012290 <metal_lc7_interrupt_vector_handler>:
metal_lc7_interrupt_vector_handler():
E:/GitHub/HiFive01-RevB/FS_workspace/004_UART_TXRX/freedom-metal/src/drivers/riscv_cpu.c:249

/* The metal_lc7_interrupt_vector_handler() function can be redefined. */
void __attribute__((weak, interrupt)) metal_lc7_interrupt_vector_handler(void) {
20012290:	711d                	addi	sp,sp,-96
20012292:	ce86                	sw	ra,92(sp)
20012294:	cc96                	sw	t0,88(sp)
20012296:	ca9a                	sw	t1,84(sp)
20012298:	c89e                	sw	t2,80(sp)
2001229a:	c6a2                	sw	s0,76(sp)
2001229c:	c4aa                	sw	a0,72(sp)
2001229e:	c2ae                	sw	a1,68(sp)
200122a0:	c0b2                	sw	a2,64(sp)
200122a2:	de36                	sw	a3,60(sp)
200122a4:	dc3a                	sw	a4,56(sp)
200122a6:	da3e                	sw	a5,52(sp)
200122a8:	d842                	sw	a6,48(sp)
200122aa:	d646                	sw	a7,44(sp)
200122ac:	d472                	sw	t3,40(sp)
200122ae:	d276                	sw	t4,36(sp)
200122b0:	d07a                	sw	t5,32(sp)
200122b2:	ce7e                	sw	t6,28(sp)
200122b4:	1080                	addi	s0,sp,96
E:/GitHub/HiFive01-RevB/FS_workspace/004_UART_TXRX/freedom-metal/src/drivers/riscv_cpu.c:250
    __METAL_IRQ_VECTOR_HANDLER(METAL_INTERRUPT_ID_LC7);
200122b6:	decff0ef          	jal	ra,200118a2 <__metal_myhart_id>
200122ba:	872a                	mv	a4,a0
200122bc:	800017b7          	lui	a5,0x80001
200122c0:	070a                	slli	a4,a4,0x2
200122c2:	ab078793          	addi	a5,a5,-1360 # 80000ab0 <__global_pointer$+0xfffff800>
200122c6:	97ba                	add	a5,a5,a4
200122c8:	439c                	lw	a5,0(a5)
200122ca:	faf42623          	sw	a5,-84(s0)
200122ce:	fac42783          	lw	a5,-84(s0)
200122d2:	c78d                	beqz	a5,200122fc <metal_lc7_interrupt_vector_handler+0x6c>
E:/GitHub/HiFive01-RevB/FS_workspace/004_UART_TXRX/freedom-metal/src/drivers/riscv_cpu.c:250 (discriminator 1)
200122d4:	fac42503          	lw	a0,-84(s0)
200122d8:	d4cff0ef          	jal	ra,20011824 <__metal_driver_cpu_interrupt_controller>
200122dc:	faa42423          	sw	a0,-88(s0)
200122e0:	fa842783          	lw	a5,-88(s0)
200122e4:	2c07a783          	lw	a5,704(a5)
200122e8:	faf42223          	sw	a5,-92(s0)
200122ec:	fa842783          	lw	a5,-88(s0)
200122f0:	2b87a783          	lw	a5,696(a5)
200122f4:	fa442583          	lw	a1,-92(s0)
200122f8:	455d                	li	a0,23
200122fa:	9782                	jalr	a5
E:/GitHub/HiFive01-RevB/FS_workspace/004_UART_TXRX/freedom-metal/src/drivers/riscv_cpu.c:251
}
200122fc:	0001                	nop
200122fe:	40f6                	lw	ra,92(sp)
20012300:	42e6                	lw	t0,88(sp)
20012302:	4356                	lw	t1,84(sp)
20012304:	43c6                	lw	t2,80(sp)
20012306:	4436                	lw	s0,76(sp)
20012308:	4526                	lw	a0,72(sp)
2001230a:	4596                	lw	a1,68(sp)
2001230c:	4606                	lw	a2,64(sp)
2001230e:	56f2                	lw	a3,60(sp)
20012310:	5762                	lw	a4,56(sp)
20012312:	57d2                	lw	a5,52(sp)
20012314:	5842                	lw	a6,48(sp)
20012316:	58b2                	lw	a7,44(sp)
20012318:	5e22                	lw	t3,40(sp)
2001231a:	5e92                	lw	t4,36(sp)
2001231c:	5f02                	lw	t5,32(sp)
2001231e:	4ff2                	lw	t6,28(sp)
20012320:	6125                	addi	sp,sp,96
20012322:	30200073          	mret

20012326 <metal_lc8_interrupt_vector_handler>:
metal_lc8_interrupt_vector_handler():
E:/GitHub/HiFive01-RevB/FS_workspace/004_UART_TXRX/freedom-metal/src/drivers/riscv_cpu.c:254

/* The metal_lc8_interrupt_vector_handler() function can be redefined. */
void __attribute__((weak, interrupt)) metal_lc8_interrupt_vector_handler(void) {
20012326:	711d                	addi	sp,sp,-96
20012328:	ce86                	sw	ra,92(sp)
2001232a:	cc96                	sw	t0,88(sp)
2001232c:	ca9a                	sw	t1,84(sp)
2001232e:	c89e                	sw	t2,80(sp)
20012330:	c6a2                	sw	s0,76(sp)
20012332:	c4aa                	sw	a0,72(sp)
20012334:	c2ae                	sw	a1,68(sp)
20012336:	c0b2                	sw	a2,64(sp)
20012338:	de36                	sw	a3,60(sp)
2001233a:	dc3a                	sw	a4,56(sp)
2001233c:	da3e                	sw	a5,52(sp)
2001233e:	d842                	sw	a6,48(sp)
20012340:	d646                	sw	a7,44(sp)
20012342:	d472                	sw	t3,40(sp)
20012344:	d276                	sw	t4,36(sp)
20012346:	d07a                	sw	t5,32(sp)
20012348:	ce7e                	sw	t6,28(sp)
2001234a:	1080                	addi	s0,sp,96
E:/GitHub/HiFive01-RevB/FS_workspace/004_UART_TXRX/freedom-metal/src/drivers/riscv_cpu.c:255
    __METAL_IRQ_VECTOR_HANDLER(METAL_INTERRUPT_ID_LC8);
2001234c:	d56ff0ef          	jal	ra,200118a2 <__metal_myhart_id>
20012350:	872a                	mv	a4,a0
20012352:	800017b7          	lui	a5,0x80001
20012356:	070a                	slli	a4,a4,0x2
20012358:	ab078793          	addi	a5,a5,-1360 # 80000ab0 <__global_pointer$+0xfffff800>
2001235c:	97ba                	add	a5,a5,a4
2001235e:	439c                	lw	a5,0(a5)
20012360:	faf42623          	sw	a5,-84(s0)
20012364:	fac42783          	lw	a5,-84(s0)
20012368:	c78d                	beqz	a5,20012392 <metal_lc8_interrupt_vector_handler+0x6c>
E:/GitHub/HiFive01-RevB/FS_workspace/004_UART_TXRX/freedom-metal/src/drivers/riscv_cpu.c:255 (discriminator 1)
2001236a:	fac42503          	lw	a0,-84(s0)
2001236e:	cb6ff0ef          	jal	ra,20011824 <__metal_driver_cpu_interrupt_controller>
20012372:	faa42423          	sw	a0,-88(s0)
20012376:	fa842783          	lw	a5,-88(s0)
2001237a:	2d87a783          	lw	a5,728(a5)
2001237e:	faf42223          	sw	a5,-92(s0)
20012382:	fa842783          	lw	a5,-88(s0)
20012386:	2d07a783          	lw	a5,720(a5)
2001238a:	fa442583          	lw	a1,-92(s0)
2001238e:	4561                	li	a0,24
20012390:	9782                	jalr	a5
E:/GitHub/HiFive01-RevB/FS_workspace/004_UART_TXRX/freedom-metal/src/drivers/riscv_cpu.c:256
}
20012392:	0001                	nop
20012394:	40f6                	lw	ra,92(sp)
20012396:	42e6                	lw	t0,88(sp)
20012398:	4356                	lw	t1,84(sp)
2001239a:	43c6                	lw	t2,80(sp)
2001239c:	4436                	lw	s0,76(sp)
2001239e:	4526                	lw	a0,72(sp)
200123a0:	4596                	lw	a1,68(sp)
200123a2:	4606                	lw	a2,64(sp)
200123a4:	56f2                	lw	a3,60(sp)
200123a6:	5762                	lw	a4,56(sp)
200123a8:	57d2                	lw	a5,52(sp)
200123aa:	5842                	lw	a6,48(sp)
200123ac:	58b2                	lw	a7,44(sp)
200123ae:	5e22                	lw	t3,40(sp)
200123b0:	5e92                	lw	t4,36(sp)
200123b2:	5f02                	lw	t5,32(sp)
200123b4:	4ff2                	lw	t6,28(sp)
200123b6:	6125                	addi	sp,sp,96
200123b8:	30200073          	mret

200123bc <metal_lc9_interrupt_vector_handler>:
metal_lc9_interrupt_vector_handler():
E:/GitHub/HiFive01-RevB/FS_workspace/004_UART_TXRX/freedom-metal/src/drivers/riscv_cpu.c:259

/* The metal_lc9_interrupt_vector_handler() function can be redefined. */
void __attribute__((weak, interrupt)) metal_lc9_interrupt_vector_handler(void) {
200123bc:	711d                	addi	sp,sp,-96
200123be:	ce86                	sw	ra,92(sp)
200123c0:	cc96                	sw	t0,88(sp)
200123c2:	ca9a                	sw	t1,84(sp)
200123c4:	c89e                	sw	t2,80(sp)
200123c6:	c6a2                	sw	s0,76(sp)
200123c8:	c4aa                	sw	a0,72(sp)
200123ca:	c2ae                	sw	a1,68(sp)
200123cc:	c0b2                	sw	a2,64(sp)
200123ce:	de36                	sw	a3,60(sp)
200123d0:	dc3a                	sw	a4,56(sp)
200123d2:	da3e                	sw	a5,52(sp)
200123d4:	d842                	sw	a6,48(sp)
200123d6:	d646                	sw	a7,44(sp)
200123d8:	d472                	sw	t3,40(sp)
200123da:	d276                	sw	t4,36(sp)
200123dc:	d07a                	sw	t5,32(sp)
200123de:	ce7e                	sw	t6,28(sp)
200123e0:	1080                	addi	s0,sp,96
E:/GitHub/HiFive01-RevB/FS_workspace/004_UART_TXRX/freedom-metal/src/drivers/riscv_cpu.c:260
    __METAL_IRQ_VECTOR_HANDLER(METAL_INTERRUPT_ID_LC9);
200123e2:	cc0ff0ef          	jal	ra,200118a2 <__metal_myhart_id>
200123e6:	872a                	mv	a4,a0
200123e8:	800017b7          	lui	a5,0x80001
200123ec:	070a                	slli	a4,a4,0x2
200123ee:	ab078793          	addi	a5,a5,-1360 # 80000ab0 <__global_pointer$+0xfffff800>
200123f2:	97ba                	add	a5,a5,a4
200123f4:	439c                	lw	a5,0(a5)
200123f6:	faf42623          	sw	a5,-84(s0)
200123fa:	fac42783          	lw	a5,-84(s0)
200123fe:	c78d                	beqz	a5,20012428 <metal_lc9_interrupt_vector_handler+0x6c>
E:/GitHub/HiFive01-RevB/FS_workspace/004_UART_TXRX/freedom-metal/src/drivers/riscv_cpu.c:260 (discriminator 1)
20012400:	fac42503          	lw	a0,-84(s0)
20012404:	c20ff0ef          	jal	ra,20011824 <__metal_driver_cpu_interrupt_controller>
20012408:	faa42423          	sw	a0,-88(s0)
2001240c:	fa842783          	lw	a5,-88(s0)
20012410:	2f07a783          	lw	a5,752(a5)
20012414:	faf42223          	sw	a5,-92(s0)
20012418:	fa842783          	lw	a5,-88(s0)
2001241c:	2e87a783          	lw	a5,744(a5)
20012420:	fa442583          	lw	a1,-92(s0)
20012424:	4565                	li	a0,25
20012426:	9782                	jalr	a5
E:/GitHub/HiFive01-RevB/FS_workspace/004_UART_TXRX/freedom-metal/src/drivers/riscv_cpu.c:261
}
20012428:	0001                	nop
2001242a:	40f6                	lw	ra,92(sp)
2001242c:	42e6                	lw	t0,88(sp)
2001242e:	4356                	lw	t1,84(sp)
20012430:	43c6                	lw	t2,80(sp)
20012432:	4436                	lw	s0,76(sp)
20012434:	4526                	lw	a0,72(sp)
20012436:	4596                	lw	a1,68(sp)
20012438:	4606                	lw	a2,64(sp)
2001243a:	56f2                	lw	a3,60(sp)
2001243c:	5762                	lw	a4,56(sp)
2001243e:	57d2                	lw	a5,52(sp)
20012440:	5842                	lw	a6,48(sp)
20012442:	58b2                	lw	a7,44(sp)
20012444:	5e22                	lw	t3,40(sp)
20012446:	5e92                	lw	t4,36(sp)
20012448:	5f02                	lw	t5,32(sp)
2001244a:	4ff2                	lw	t6,28(sp)
2001244c:	6125                	addi	sp,sp,96
2001244e:	30200073          	mret

20012452 <metal_lc10_interrupt_vector_handler>:
metal_lc10_interrupt_vector_handler():
E:/GitHub/HiFive01-RevB/FS_workspace/004_UART_TXRX/freedom-metal/src/drivers/riscv_cpu.c:265

/* The metal_lc10_interrupt_vector_handler() function can be redefined. */
void __attribute__((weak, interrupt))
metal_lc10_interrupt_vector_handler(void) {
20012452:	711d                	addi	sp,sp,-96
20012454:	ce86                	sw	ra,92(sp)
20012456:	cc96                	sw	t0,88(sp)
20012458:	ca9a                	sw	t1,84(sp)
2001245a:	c89e                	sw	t2,80(sp)
2001245c:	c6a2                	sw	s0,76(sp)
2001245e:	c4aa                	sw	a0,72(sp)
20012460:	c2ae                	sw	a1,68(sp)
20012462:	c0b2                	sw	a2,64(sp)
20012464:	de36                	sw	a3,60(sp)
20012466:	dc3a                	sw	a4,56(sp)
20012468:	da3e                	sw	a5,52(sp)
2001246a:	d842                	sw	a6,48(sp)
2001246c:	d646                	sw	a7,44(sp)
2001246e:	d472                	sw	t3,40(sp)
20012470:	d276                	sw	t4,36(sp)
20012472:	d07a                	sw	t5,32(sp)
20012474:	ce7e                	sw	t6,28(sp)
20012476:	1080                	addi	s0,sp,96
E:/GitHub/HiFive01-RevB/FS_workspace/004_UART_TXRX/freedom-metal/src/drivers/riscv_cpu.c:266
    __METAL_IRQ_VECTOR_HANDLER(METAL_INTERRUPT_ID_LC10);
20012478:	c2aff0ef          	jal	ra,200118a2 <__metal_myhart_id>
2001247c:	872a                	mv	a4,a0
2001247e:	800017b7          	lui	a5,0x80001
20012482:	070a                	slli	a4,a4,0x2
20012484:	ab078793          	addi	a5,a5,-1360 # 80000ab0 <__global_pointer$+0xfffff800>
20012488:	97ba                	add	a5,a5,a4
2001248a:	439c                	lw	a5,0(a5)
2001248c:	faf42623          	sw	a5,-84(s0)
20012490:	fac42783          	lw	a5,-84(s0)
20012494:	c78d                	beqz	a5,200124be <metal_lc10_interrupt_vector_handler+0x6c>
E:/GitHub/HiFive01-RevB/FS_workspace/004_UART_TXRX/freedom-metal/src/drivers/riscv_cpu.c:266 (discriminator 1)
20012496:	fac42503          	lw	a0,-84(s0)
2001249a:	b8aff0ef          	jal	ra,20011824 <__metal_driver_cpu_interrupt_controller>
2001249e:	faa42423          	sw	a0,-88(s0)
200124a2:	fa842783          	lw	a5,-88(s0)
200124a6:	3087a783          	lw	a5,776(a5)
200124aa:	faf42223          	sw	a5,-92(s0)
200124ae:	fa842783          	lw	a5,-88(s0)
200124b2:	3007a783          	lw	a5,768(a5)
200124b6:	fa442583          	lw	a1,-92(s0)
200124ba:	4569                	li	a0,26
200124bc:	9782                	jalr	a5
E:/GitHub/HiFive01-RevB/FS_workspace/004_UART_TXRX/freedom-metal/src/drivers/riscv_cpu.c:267
}
200124be:	0001                	nop
200124c0:	40f6                	lw	ra,92(sp)
200124c2:	42e6                	lw	t0,88(sp)
200124c4:	4356                	lw	t1,84(sp)
200124c6:	43c6                	lw	t2,80(sp)
200124c8:	4436                	lw	s0,76(sp)
200124ca:	4526                	lw	a0,72(sp)
200124cc:	4596                	lw	a1,68(sp)
200124ce:	4606                	lw	a2,64(sp)
200124d0:	56f2                	lw	a3,60(sp)
200124d2:	5762                	lw	a4,56(sp)
200124d4:	57d2                	lw	a5,52(sp)
200124d6:	5842                	lw	a6,48(sp)
200124d8:	58b2                	lw	a7,44(sp)
200124da:	5e22                	lw	t3,40(sp)
200124dc:	5e92                	lw	t4,36(sp)
200124de:	5f02                	lw	t5,32(sp)
200124e0:	4ff2                	lw	t6,28(sp)
200124e2:	6125                	addi	sp,sp,96
200124e4:	30200073          	mret

200124e8 <metal_lc11_interrupt_vector_handler>:
metal_lc11_interrupt_vector_handler():
E:/GitHub/HiFive01-RevB/FS_workspace/004_UART_TXRX/freedom-metal/src/drivers/riscv_cpu.c:271

/* The metal_lc11_interrupt_vector_handler() function can be redefined. */
void __attribute__((weak, interrupt))
metal_lc11_interrupt_vector_handler(void) {
200124e8:	711d                	addi	sp,sp,-96
200124ea:	ce86                	sw	ra,92(sp)
200124ec:	cc96                	sw	t0,88(sp)
200124ee:	ca9a                	sw	t1,84(sp)
200124f0:	c89e                	sw	t2,80(sp)
200124f2:	c6a2                	sw	s0,76(sp)
200124f4:	c4aa                	sw	a0,72(sp)
200124f6:	c2ae                	sw	a1,68(sp)
200124f8:	c0b2                	sw	a2,64(sp)
200124fa:	de36                	sw	a3,60(sp)
200124fc:	dc3a                	sw	a4,56(sp)
200124fe:	da3e                	sw	a5,52(sp)
20012500:	d842                	sw	a6,48(sp)
20012502:	d646                	sw	a7,44(sp)
20012504:	d472                	sw	t3,40(sp)
20012506:	d276                	sw	t4,36(sp)
20012508:	d07a                	sw	t5,32(sp)
2001250a:	ce7e                	sw	t6,28(sp)
2001250c:	1080                	addi	s0,sp,96
E:/GitHub/HiFive01-RevB/FS_workspace/004_UART_TXRX/freedom-metal/src/drivers/riscv_cpu.c:272
    __METAL_IRQ_VECTOR_HANDLER(METAL_INTERRUPT_ID_LC11);
2001250e:	b94ff0ef          	jal	ra,200118a2 <__metal_myhart_id>
20012512:	872a                	mv	a4,a0
20012514:	800017b7          	lui	a5,0x80001
20012518:	070a                	slli	a4,a4,0x2
2001251a:	ab078793          	addi	a5,a5,-1360 # 80000ab0 <__global_pointer$+0xfffff800>
2001251e:	97ba                	add	a5,a5,a4
20012520:	439c                	lw	a5,0(a5)
20012522:	faf42623          	sw	a5,-84(s0)
20012526:	fac42783          	lw	a5,-84(s0)
2001252a:	c78d                	beqz	a5,20012554 <metal_lc11_interrupt_vector_handler+0x6c>
E:/GitHub/HiFive01-RevB/FS_workspace/004_UART_TXRX/freedom-metal/src/drivers/riscv_cpu.c:272 (discriminator 1)
2001252c:	fac42503          	lw	a0,-84(s0)
20012530:	af4ff0ef          	jal	ra,20011824 <__metal_driver_cpu_interrupt_controller>
20012534:	faa42423          	sw	a0,-88(s0)
20012538:	fa842783          	lw	a5,-88(s0)
2001253c:	3207a783          	lw	a5,800(a5)
20012540:	faf42223          	sw	a5,-92(s0)
20012544:	fa842783          	lw	a5,-88(s0)
20012548:	3187a783          	lw	a5,792(a5)
2001254c:	fa442583          	lw	a1,-92(s0)
20012550:	456d                	li	a0,27
20012552:	9782                	jalr	a5
E:/GitHub/HiFive01-RevB/FS_workspace/004_UART_TXRX/freedom-metal/src/drivers/riscv_cpu.c:273
}
20012554:	0001                	nop
20012556:	40f6                	lw	ra,92(sp)
20012558:	42e6                	lw	t0,88(sp)
2001255a:	4356                	lw	t1,84(sp)
2001255c:	43c6                	lw	t2,80(sp)
2001255e:	4436                	lw	s0,76(sp)
20012560:	4526                	lw	a0,72(sp)
20012562:	4596                	lw	a1,68(sp)
20012564:	4606                	lw	a2,64(sp)
20012566:	56f2                	lw	a3,60(sp)
20012568:	5762                	lw	a4,56(sp)
2001256a:	57d2                	lw	a5,52(sp)
2001256c:	5842                	lw	a6,48(sp)
2001256e:	58b2                	lw	a7,44(sp)
20012570:	5e22                	lw	t3,40(sp)
20012572:	5e92                	lw	t4,36(sp)
20012574:	5f02                	lw	t5,32(sp)
20012576:	4ff2                	lw	t6,28(sp)
20012578:	6125                	addi	sp,sp,96
2001257a:	30200073          	mret

2001257e <metal_lc12_interrupt_vector_handler>:
metal_lc12_interrupt_vector_handler():
E:/GitHub/HiFive01-RevB/FS_workspace/004_UART_TXRX/freedom-metal/src/drivers/riscv_cpu.c:277

/* The metal_lc12_interrupt_vector_handler() function can be redefined. */
void __attribute__((weak, interrupt))
metal_lc12_interrupt_vector_handler(void) {
2001257e:	711d                	addi	sp,sp,-96
20012580:	ce86                	sw	ra,92(sp)
20012582:	cc96                	sw	t0,88(sp)
20012584:	ca9a                	sw	t1,84(sp)
20012586:	c89e                	sw	t2,80(sp)
20012588:	c6a2                	sw	s0,76(sp)
2001258a:	c4aa                	sw	a0,72(sp)
2001258c:	c2ae                	sw	a1,68(sp)
2001258e:	c0b2                	sw	a2,64(sp)
20012590:	de36                	sw	a3,60(sp)
20012592:	dc3a                	sw	a4,56(sp)
20012594:	da3e                	sw	a5,52(sp)
20012596:	d842                	sw	a6,48(sp)
20012598:	d646                	sw	a7,44(sp)
2001259a:	d472                	sw	t3,40(sp)
2001259c:	d276                	sw	t4,36(sp)
2001259e:	d07a                	sw	t5,32(sp)
200125a0:	ce7e                	sw	t6,28(sp)
200125a2:	1080                	addi	s0,sp,96
E:/GitHub/HiFive01-RevB/FS_workspace/004_UART_TXRX/freedom-metal/src/drivers/riscv_cpu.c:278
    __METAL_IRQ_VECTOR_HANDLER(METAL_INTERRUPT_ID_LC12);
200125a4:	afeff0ef          	jal	ra,200118a2 <__metal_myhart_id>
200125a8:	872a                	mv	a4,a0
200125aa:	800017b7          	lui	a5,0x80001
200125ae:	070a                	slli	a4,a4,0x2
200125b0:	ab078793          	addi	a5,a5,-1360 # 80000ab0 <__global_pointer$+0xfffff800>
200125b4:	97ba                	add	a5,a5,a4
200125b6:	439c                	lw	a5,0(a5)
200125b8:	faf42623          	sw	a5,-84(s0)
200125bc:	fac42783          	lw	a5,-84(s0)
200125c0:	c78d                	beqz	a5,200125ea <metal_lc12_interrupt_vector_handler+0x6c>
E:/GitHub/HiFive01-RevB/FS_workspace/004_UART_TXRX/freedom-metal/src/drivers/riscv_cpu.c:278 (discriminator 1)
200125c2:	fac42503          	lw	a0,-84(s0)
200125c6:	a5eff0ef          	jal	ra,20011824 <__metal_driver_cpu_interrupt_controller>
200125ca:	faa42423          	sw	a0,-88(s0)
200125ce:	fa842783          	lw	a5,-88(s0)
200125d2:	3387a783          	lw	a5,824(a5)
200125d6:	faf42223          	sw	a5,-92(s0)
200125da:	fa842783          	lw	a5,-88(s0)
200125de:	3307a783          	lw	a5,816(a5)
200125e2:	fa442583          	lw	a1,-92(s0)
200125e6:	4571                	li	a0,28
200125e8:	9782                	jalr	a5
E:/GitHub/HiFive01-RevB/FS_workspace/004_UART_TXRX/freedom-metal/src/drivers/riscv_cpu.c:279
}
200125ea:	0001                	nop
200125ec:	40f6                	lw	ra,92(sp)
200125ee:	42e6                	lw	t0,88(sp)
200125f0:	4356                	lw	t1,84(sp)
200125f2:	43c6                	lw	t2,80(sp)
200125f4:	4436                	lw	s0,76(sp)
200125f6:	4526                	lw	a0,72(sp)
200125f8:	4596                	lw	a1,68(sp)
200125fa:	4606                	lw	a2,64(sp)
200125fc:	56f2                	lw	a3,60(sp)
200125fe:	5762                	lw	a4,56(sp)
20012600:	57d2                	lw	a5,52(sp)
20012602:	5842                	lw	a6,48(sp)
20012604:	58b2                	lw	a7,44(sp)
20012606:	5e22                	lw	t3,40(sp)
20012608:	5e92                	lw	t4,36(sp)
2001260a:	5f02                	lw	t5,32(sp)
2001260c:	4ff2                	lw	t6,28(sp)
2001260e:	6125                	addi	sp,sp,96
20012610:	30200073          	mret

20012614 <metal_lc13_interrupt_vector_handler>:
metal_lc13_interrupt_vector_handler():
E:/GitHub/HiFive01-RevB/FS_workspace/004_UART_TXRX/freedom-metal/src/drivers/riscv_cpu.c:283

/* The metal_lc13_interrupt_vector_handler() function can be redefined. */
void __attribute__((weak, interrupt))
metal_lc13_interrupt_vector_handler(void) {
20012614:	711d                	addi	sp,sp,-96
20012616:	ce86                	sw	ra,92(sp)
20012618:	cc96                	sw	t0,88(sp)
2001261a:	ca9a                	sw	t1,84(sp)
2001261c:	c89e                	sw	t2,80(sp)
2001261e:	c6a2                	sw	s0,76(sp)
20012620:	c4aa                	sw	a0,72(sp)
20012622:	c2ae                	sw	a1,68(sp)
20012624:	c0b2                	sw	a2,64(sp)
20012626:	de36                	sw	a3,60(sp)
20012628:	dc3a                	sw	a4,56(sp)
2001262a:	da3e                	sw	a5,52(sp)
2001262c:	d842                	sw	a6,48(sp)
2001262e:	d646                	sw	a7,44(sp)
20012630:	d472                	sw	t3,40(sp)
20012632:	d276                	sw	t4,36(sp)
20012634:	d07a                	sw	t5,32(sp)
20012636:	ce7e                	sw	t6,28(sp)
20012638:	1080                	addi	s0,sp,96
E:/GitHub/HiFive01-RevB/FS_workspace/004_UART_TXRX/freedom-metal/src/drivers/riscv_cpu.c:284
    __METAL_IRQ_VECTOR_HANDLER(METAL_INTERRUPT_ID_LC13);
2001263a:	a68ff0ef          	jal	ra,200118a2 <__metal_myhart_id>
2001263e:	872a                	mv	a4,a0
20012640:	800017b7          	lui	a5,0x80001
20012644:	070a                	slli	a4,a4,0x2
20012646:	ab078793          	addi	a5,a5,-1360 # 80000ab0 <__global_pointer$+0xfffff800>
2001264a:	97ba                	add	a5,a5,a4
2001264c:	439c                	lw	a5,0(a5)
2001264e:	faf42623          	sw	a5,-84(s0)
20012652:	fac42783          	lw	a5,-84(s0)
20012656:	c78d                	beqz	a5,20012680 <metal_lc13_interrupt_vector_handler+0x6c>
E:/GitHub/HiFive01-RevB/FS_workspace/004_UART_TXRX/freedom-metal/src/drivers/riscv_cpu.c:284 (discriminator 1)
20012658:	fac42503          	lw	a0,-84(s0)
2001265c:	9c8ff0ef          	jal	ra,20011824 <__metal_driver_cpu_interrupt_controller>
20012660:	faa42423          	sw	a0,-88(s0)
20012664:	fa842783          	lw	a5,-88(s0)
20012668:	3507a783          	lw	a5,848(a5)
2001266c:	faf42223          	sw	a5,-92(s0)
20012670:	fa842783          	lw	a5,-88(s0)
20012674:	3487a783          	lw	a5,840(a5)
20012678:	fa442583          	lw	a1,-92(s0)
2001267c:	4575                	li	a0,29
2001267e:	9782                	jalr	a5
E:/GitHub/HiFive01-RevB/FS_workspace/004_UART_TXRX/freedom-metal/src/drivers/riscv_cpu.c:285
}
20012680:	0001                	nop
20012682:	40f6                	lw	ra,92(sp)
20012684:	42e6                	lw	t0,88(sp)
20012686:	4356                	lw	t1,84(sp)
20012688:	43c6                	lw	t2,80(sp)
2001268a:	4436                	lw	s0,76(sp)
2001268c:	4526                	lw	a0,72(sp)
2001268e:	4596                	lw	a1,68(sp)
20012690:	4606                	lw	a2,64(sp)
20012692:	56f2                	lw	a3,60(sp)
20012694:	5762                	lw	a4,56(sp)
20012696:	57d2                	lw	a5,52(sp)
20012698:	5842                	lw	a6,48(sp)
2001269a:	58b2                	lw	a7,44(sp)
2001269c:	5e22                	lw	t3,40(sp)
2001269e:	5e92                	lw	t4,36(sp)
200126a0:	5f02                	lw	t5,32(sp)
200126a2:	4ff2                	lw	t6,28(sp)
200126a4:	6125                	addi	sp,sp,96
200126a6:	30200073          	mret

200126aa <metal_lc14_interrupt_vector_handler>:
metal_lc14_interrupt_vector_handler():
E:/GitHub/HiFive01-RevB/FS_workspace/004_UART_TXRX/freedom-metal/src/drivers/riscv_cpu.c:289

/* The metal_lc14_interrupt_vector_handler() function can be redefined. */
void __attribute__((weak, interrupt))
metal_lc14_interrupt_vector_handler(void) {
200126aa:	711d                	addi	sp,sp,-96
200126ac:	ce86                	sw	ra,92(sp)
200126ae:	cc96                	sw	t0,88(sp)
200126b0:	ca9a                	sw	t1,84(sp)
200126b2:	c89e                	sw	t2,80(sp)
200126b4:	c6a2                	sw	s0,76(sp)
200126b6:	c4aa                	sw	a0,72(sp)
200126b8:	c2ae                	sw	a1,68(sp)
200126ba:	c0b2                	sw	a2,64(sp)
200126bc:	de36                	sw	a3,60(sp)
200126be:	dc3a                	sw	a4,56(sp)
200126c0:	da3e                	sw	a5,52(sp)
200126c2:	d842                	sw	a6,48(sp)
200126c4:	d646                	sw	a7,44(sp)
200126c6:	d472                	sw	t3,40(sp)
200126c8:	d276                	sw	t4,36(sp)
200126ca:	d07a                	sw	t5,32(sp)
200126cc:	ce7e                	sw	t6,28(sp)
200126ce:	1080                	addi	s0,sp,96
E:/GitHub/HiFive01-RevB/FS_workspace/004_UART_TXRX/freedom-metal/src/drivers/riscv_cpu.c:290
    __METAL_IRQ_VECTOR_HANDLER(METAL_INTERRUPT_ID_LC14);
200126d0:	9d2ff0ef          	jal	ra,200118a2 <__metal_myhart_id>
200126d4:	872a                	mv	a4,a0
200126d6:	800017b7          	lui	a5,0x80001
200126da:	070a                	slli	a4,a4,0x2
200126dc:	ab078793          	addi	a5,a5,-1360 # 80000ab0 <__global_pointer$+0xfffff800>
200126e0:	97ba                	add	a5,a5,a4
200126e2:	439c                	lw	a5,0(a5)
200126e4:	faf42623          	sw	a5,-84(s0)
200126e8:	fac42783          	lw	a5,-84(s0)
200126ec:	c78d                	beqz	a5,20012716 <metal_lc14_interrupt_vector_handler+0x6c>
E:/GitHub/HiFive01-RevB/FS_workspace/004_UART_TXRX/freedom-metal/src/drivers/riscv_cpu.c:290 (discriminator 1)
200126ee:	fac42503          	lw	a0,-84(s0)
200126f2:	932ff0ef          	jal	ra,20011824 <__metal_driver_cpu_interrupt_controller>
200126f6:	faa42423          	sw	a0,-88(s0)
200126fa:	fa842783          	lw	a5,-88(s0)
200126fe:	3687a783          	lw	a5,872(a5)
20012702:	faf42223          	sw	a5,-92(s0)
20012706:	fa842783          	lw	a5,-88(s0)
2001270a:	3607a783          	lw	a5,864(a5)
2001270e:	fa442583          	lw	a1,-92(s0)
20012712:	4579                	li	a0,30
20012714:	9782                	jalr	a5
E:/GitHub/HiFive01-RevB/FS_workspace/004_UART_TXRX/freedom-metal/src/drivers/riscv_cpu.c:291
}
20012716:	0001                	nop
20012718:	40f6                	lw	ra,92(sp)
2001271a:	42e6                	lw	t0,88(sp)
2001271c:	4356                	lw	t1,84(sp)
2001271e:	43c6                	lw	t2,80(sp)
20012720:	4436                	lw	s0,76(sp)
20012722:	4526                	lw	a0,72(sp)
20012724:	4596                	lw	a1,68(sp)
20012726:	4606                	lw	a2,64(sp)
20012728:	56f2                	lw	a3,60(sp)
2001272a:	5762                	lw	a4,56(sp)
2001272c:	57d2                	lw	a5,52(sp)
2001272e:	5842                	lw	a6,48(sp)
20012730:	58b2                	lw	a7,44(sp)
20012732:	5e22                	lw	t3,40(sp)
20012734:	5e92                	lw	t4,36(sp)
20012736:	5f02                	lw	t5,32(sp)
20012738:	4ff2                	lw	t6,28(sp)
2001273a:	6125                	addi	sp,sp,96
2001273c:	30200073          	mret

20012740 <metal_lc15_interrupt_vector_handler>:
metal_lc15_interrupt_vector_handler():
E:/GitHub/HiFive01-RevB/FS_workspace/004_UART_TXRX/freedom-metal/src/drivers/riscv_cpu.c:295

/* The metal_lc15_interrupt_vector_handler() function can be redefined. */
void __attribute__((weak, interrupt))
metal_lc15_interrupt_vector_handler(void) {
20012740:	711d                	addi	sp,sp,-96
20012742:	ce86                	sw	ra,92(sp)
20012744:	cc96                	sw	t0,88(sp)
20012746:	ca9a                	sw	t1,84(sp)
20012748:	c89e                	sw	t2,80(sp)
2001274a:	c6a2                	sw	s0,76(sp)
2001274c:	c4aa                	sw	a0,72(sp)
2001274e:	c2ae                	sw	a1,68(sp)
20012750:	c0b2                	sw	a2,64(sp)
20012752:	de36                	sw	a3,60(sp)
20012754:	dc3a                	sw	a4,56(sp)
20012756:	da3e                	sw	a5,52(sp)
20012758:	d842                	sw	a6,48(sp)
2001275a:	d646                	sw	a7,44(sp)
2001275c:	d472                	sw	t3,40(sp)
2001275e:	d276                	sw	t4,36(sp)
20012760:	d07a                	sw	t5,32(sp)
20012762:	ce7e                	sw	t6,28(sp)
20012764:	1080                	addi	s0,sp,96
E:/GitHub/HiFive01-RevB/FS_workspace/004_UART_TXRX/freedom-metal/src/drivers/riscv_cpu.c:296
    __METAL_IRQ_VECTOR_HANDLER(METAL_INTERRUPT_ID_LC15);
20012766:	93cff0ef          	jal	ra,200118a2 <__metal_myhart_id>
2001276a:	872a                	mv	a4,a0
2001276c:	800017b7          	lui	a5,0x80001
20012770:	070a                	slli	a4,a4,0x2
20012772:	ab078793          	addi	a5,a5,-1360 # 80000ab0 <__global_pointer$+0xfffff800>
20012776:	97ba                	add	a5,a5,a4
20012778:	439c                	lw	a5,0(a5)
2001277a:	faf42623          	sw	a5,-84(s0)
2001277e:	fac42783          	lw	a5,-84(s0)
20012782:	c78d                	beqz	a5,200127ac <metal_lc15_interrupt_vector_handler+0x6c>
E:/GitHub/HiFive01-RevB/FS_workspace/004_UART_TXRX/freedom-metal/src/drivers/riscv_cpu.c:296 (discriminator 1)
20012784:	fac42503          	lw	a0,-84(s0)
20012788:	89cff0ef          	jal	ra,20011824 <__metal_driver_cpu_interrupt_controller>
2001278c:	faa42423          	sw	a0,-88(s0)
20012790:	fa842783          	lw	a5,-88(s0)
20012794:	3807a783          	lw	a5,896(a5)
20012798:	faf42223          	sw	a5,-92(s0)
2001279c:	fa842783          	lw	a5,-88(s0)
200127a0:	3787a783          	lw	a5,888(a5)
200127a4:	fa442583          	lw	a1,-92(s0)
200127a8:	457d                	li	a0,31
200127aa:	9782                	jalr	a5
E:/GitHub/HiFive01-RevB/FS_workspace/004_UART_TXRX/freedom-metal/src/drivers/riscv_cpu.c:297
}
200127ac:	0001                	nop
200127ae:	40f6                	lw	ra,92(sp)
200127b0:	42e6                	lw	t0,88(sp)
200127b2:	4356                	lw	t1,84(sp)
200127b4:	43c6                	lw	t2,80(sp)
200127b6:	4436                	lw	s0,76(sp)
200127b8:	4526                	lw	a0,72(sp)
200127ba:	4596                	lw	a1,68(sp)
200127bc:	4606                	lw	a2,64(sp)
200127be:	56f2                	lw	a3,60(sp)
200127c0:	5762                	lw	a4,56(sp)
200127c2:	57d2                	lw	a5,52(sp)
200127c4:	5842                	lw	a6,48(sp)
200127c6:	58b2                	lw	a7,44(sp)
200127c8:	5e22                	lw	t3,40(sp)
200127ca:	5e92                	lw	t4,36(sp)
200127cc:	5f02                	lw	t5,32(sp)
200127ce:	4ff2                	lw	t6,28(sp)
200127d0:	6125                	addi	sp,sp,96
200127d2:	30200073          	mret

200127d6 <__metal_controller_interrupt_vector_mode>:
__metal_controller_interrupt_vector_mode():
E:/GitHub/HiFive01-RevB/FS_workspace/004_UART_TXRX/freedom-metal/src/drivers/riscv_cpu.c:299

metal_vector_mode __metal_controller_interrupt_vector_mode(void) {
200127d6:	1101                	addi	sp,sp,-32
200127d8:	ce22                	sw	s0,28(sp)
200127da:	1000                	addi	s0,sp,32
E:/GitHub/HiFive01-RevB/FS_workspace/004_UART_TXRX/freedom-metal/src/drivers/riscv_cpu.c:302
    uintptr_t val;

    __asm__ volatile("csrr %0, mtvec" : "=r"(val));
200127dc:	305027f3          	csrr	a5,mtvec
200127e0:	fef42623          	sw	a5,-20(s0)
E:/GitHub/HiFive01-RevB/FS_workspace/004_UART_TXRX/freedom-metal/src/drivers/riscv_cpu.c:303
    val &= METAL_MTVEC_MASK;
200127e4:	fec42783          	lw	a5,-20(s0)
200127e8:	03f7f793          	andi	a5,a5,63
200127ec:	fef42623          	sw	a5,-20(s0)
E:/GitHub/HiFive01-RevB/FS_workspace/004_UART_TXRX/freedom-metal/src/drivers/riscv_cpu.c:305

    switch (val) {
200127f0:	fec42703          	lw	a4,-20(s0)
200127f4:	478d                	li	a5,3
200127f6:	02f70363          	beq	a4,a5,2001281c <__metal_controller_interrupt_vector_mode+0x46>
200127fa:	fec42703          	lw	a4,-20(s0)
200127fe:	478d                	li	a5,3
20012800:	02e7e263          	bltu	a5,a4,20012824 <__metal_controller_interrupt_vector_mode+0x4e>
20012804:	fec42703          	lw	a4,-20(s0)
20012808:	4785                	li	a5,1
2001280a:	00f70b63          	beq	a4,a5,20012820 <__metal_controller_interrupt_vector_mode+0x4a>
2001280e:	fec42703          	lw	a4,-20(s0)
20012812:	4789                	li	a5,2
20012814:	00f71863          	bne	a4,a5,20012824 <__metal_controller_interrupt_vector_mode+0x4e>
E:/GitHub/HiFive01-RevB/FS_workspace/004_UART_TXRX/freedom-metal/src/drivers/riscv_cpu.c:307
    case METAL_MTVEC_CLIC:
        return METAL_SELECTIVE_VECTOR_MODE;
20012818:	478d                	li	a5,3
2001281a:	a031                	j	20012826 <__metal_controller_interrupt_vector_mode+0x50>
E:/GitHub/HiFive01-RevB/FS_workspace/004_UART_TXRX/freedom-metal/src/drivers/riscv_cpu.c:309
    case METAL_MTVEC_CLIC_VECTORED:
        return METAL_HARDWARE_VECTOR_MODE;
2001281c:	4791                	li	a5,4
2001281e:	a021                	j	20012826 <__metal_controller_interrupt_vector_mode+0x50>
E:/GitHub/HiFive01-RevB/FS_workspace/004_UART_TXRX/freedom-metal/src/drivers/riscv_cpu.c:311
    case METAL_MTVEC_VECTORED:
        return METAL_VECTOR_MODE;
20012820:	4785                	li	a5,1
20012822:	a011                	j	20012826 <__metal_controller_interrupt_vector_mode+0x50>
E:/GitHub/HiFive01-RevB/FS_workspace/004_UART_TXRX/freedom-metal/src/drivers/riscv_cpu.c:313
    }
    return METAL_DIRECT_MODE;
20012824:	4781                	li	a5,0
E:/GitHub/HiFive01-RevB/FS_workspace/004_UART_TXRX/freedom-metal/src/drivers/riscv_cpu.c:314
}
20012826:	853e                	mv	a0,a5
20012828:	4472                	lw	s0,28(sp)
2001282a:	6105                	addi	sp,sp,32
2001282c:	8082                	ret

2001282e <__metal_controller_interrupt_vector>:
__metal_controller_interrupt_vector():
E:/GitHub/HiFive01-RevB/FS_workspace/004_UART_TXRX/freedom-metal/src/drivers/riscv_cpu.c:317

void __metal_controller_interrupt_vector(metal_vector_mode mode,
                                         void *vec_table) {
2001282e:	7179                	addi	sp,sp,-48
20012830:	d622                	sw	s0,44(sp)
20012832:	1800                	addi	s0,sp,48
20012834:	fca42e23          	sw	a0,-36(s0)
20012838:	fcb42c23          	sw	a1,-40(s0)
E:/GitHub/HiFive01-RevB/FS_workspace/004_UART_TXRX/freedom-metal/src/drivers/riscv_cpu.c:320
    uintptr_t trap_entry, val;

    __asm__ volatile("csrr %0, mtvec" : "=r"(val));
2001283c:	305027f3          	csrr	a5,mtvec
20012840:	fef42623          	sw	a5,-20(s0)
E:/GitHub/HiFive01-RevB/FS_workspace/004_UART_TXRX/freedom-metal/src/drivers/riscv_cpu.c:321
    val &= ~(METAL_MTVEC_CLIC_VECTORED | METAL_MTVEC_CLIC_RESERVED);
20012844:	fec42783          	lw	a5,-20(s0)
20012848:	fc07f793          	andi	a5,a5,-64
2001284c:	fef42623          	sw	a5,-20(s0)
E:/GitHub/HiFive01-RevB/FS_workspace/004_UART_TXRX/freedom-metal/src/drivers/riscv_cpu.c:322
    trap_entry = (uintptr_t)vec_table;
20012850:	fd842783          	lw	a5,-40(s0)
20012854:	fef42423          	sw	a5,-24(s0)
E:/GitHub/HiFive01-RevB/FS_workspace/004_UART_TXRX/freedom-metal/src/drivers/riscv_cpu.c:324

    switch (mode) {
20012858:	fdc42703          	lw	a4,-36(s0)
2001285c:	4791                	li	a5,4
2001285e:	04f70563          	beq	a4,a5,200128a8 <__metal_controller_interrupt_vector+0x7a>
20012862:	fdc42703          	lw	a4,-36(s0)
20012866:	4791                	li	a5,4
20012868:	06e7e863          	bltu	a5,a4,200128d8 <__metal_controller_interrupt_vector+0xaa>
2001286c:	fdc42703          	lw	a4,-36(s0)
20012870:	478d                	li	a5,3
20012872:	06e7e363          	bltu	a5,a4,200128d8 <__metal_controller_interrupt_vector+0xaa>
20012876:	fdc42703          	lw	a4,-36(s0)
2001287a:	4789                	li	a5,2
2001287c:	00f77b63          	bgeu	a4,a5,20012892 <__metal_controller_interrupt_vector+0x64>
20012880:	fdc42783          	lw	a5,-36(s0)
20012884:	c7a1                	beqz	a5,200128cc <__metal_controller_interrupt_vector+0x9e>
20012886:	fdc42703          	lw	a4,-36(s0)
2001288a:	4785                	li	a5,1
2001288c:	02f70963          	beq	a4,a5,200128be <__metal_controller_interrupt_vector+0x90>
E:/GitHub/HiFive01-RevB/FS_workspace/004_UART_TXRX/freedom-metal/src/drivers/riscv_cpu.c:344
    case METAL_DIRECT_MODE:
        __asm__ volatile(
            "csrw mtvec, %0" ::"r"(trap_entry & ~METAL_MTVEC_CLIC_VECTORED));
        break;
    }
}
20012890:	a0a1                	j	200128d8 <__metal_controller_interrupt_vector+0xaa>
E:/GitHub/HiFive01-RevB/FS_workspace/004_UART_TXRX/freedom-metal/src/drivers/riscv_cpu.c:327
        __asm__ volatile("csrw 0x307, %0" ::"r"(trap_entry));
20012892:	fe842783          	lw	a5,-24(s0)
20012896:	30779073          	csrw	mtvt,a5
E:/GitHub/HiFive01-RevB/FS_workspace/004_UART_TXRX/freedom-metal/src/drivers/riscv_cpu.c:328
        __asm__ volatile("csrw mtvec, %0" ::"r"(val | METAL_MTVEC_CLIC));
2001289a:	fec42783          	lw	a5,-20(s0)
2001289e:	0027e793          	ori	a5,a5,2
200128a2:	30579073          	csrw	mtvec,a5
E:/GitHub/HiFive01-RevB/FS_workspace/004_UART_TXRX/freedom-metal/src/drivers/riscv_cpu.c:329
        break;
200128a6:	a80d                	j	200128d8 <__metal_controller_interrupt_vector+0xaa>
E:/GitHub/HiFive01-RevB/FS_workspace/004_UART_TXRX/freedom-metal/src/drivers/riscv_cpu.c:331
        __asm__ volatile("csrw 0x307, %0" ::"r"(trap_entry));
200128a8:	fe842783          	lw	a5,-24(s0)
200128ac:	30779073          	csrw	mtvt,a5
E:/GitHub/HiFive01-RevB/FS_workspace/004_UART_TXRX/freedom-metal/src/drivers/riscv_cpu.c:333
            "csrw mtvec, %0" ::"r"(val | METAL_MTVEC_CLIC_VECTORED));
200128b0:	fec42783          	lw	a5,-20(s0)
200128b4:	0037e793          	ori	a5,a5,3
E:/GitHub/HiFive01-RevB/FS_workspace/004_UART_TXRX/freedom-metal/src/drivers/riscv_cpu.c:332
        __asm__ volatile(
200128b8:	30579073          	csrw	mtvec,a5
E:/GitHub/HiFive01-RevB/FS_workspace/004_UART_TXRX/freedom-metal/src/drivers/riscv_cpu.c:334
        break;
200128bc:	a831                	j	200128d8 <__metal_controller_interrupt_vector+0xaa>
E:/GitHub/HiFive01-RevB/FS_workspace/004_UART_TXRX/freedom-metal/src/drivers/riscv_cpu.c:337
            "csrw mtvec, %0" ::"r"(trap_entry | METAL_MTVEC_VECTORED));
200128be:	fe842783          	lw	a5,-24(s0)
200128c2:	0017e793          	ori	a5,a5,1
E:/GitHub/HiFive01-RevB/FS_workspace/004_UART_TXRX/freedom-metal/src/drivers/riscv_cpu.c:336
        __asm__ volatile(
200128c6:	30579073          	csrw	mtvec,a5
E:/GitHub/HiFive01-RevB/FS_workspace/004_UART_TXRX/freedom-metal/src/drivers/riscv_cpu.c:338
        break;
200128ca:	a039                	j	200128d8 <__metal_controller_interrupt_vector+0xaa>
E:/GitHub/HiFive01-RevB/FS_workspace/004_UART_TXRX/freedom-metal/src/drivers/riscv_cpu.c:341
            "csrw mtvec, %0" ::"r"(trap_entry & ~METAL_MTVEC_CLIC_VECTORED));
200128cc:	fe842783          	lw	a5,-24(s0)
200128d0:	9bf1                	andi	a5,a5,-4
E:/GitHub/HiFive01-RevB/FS_workspace/004_UART_TXRX/freedom-metal/src/drivers/riscv_cpu.c:340
        __asm__ volatile(
200128d2:	30579073          	csrw	mtvec,a5
E:/GitHub/HiFive01-RevB/FS_workspace/004_UART_TXRX/freedom-metal/src/drivers/riscv_cpu.c:342
        break;
200128d6:	0001                	nop
E:/GitHub/HiFive01-RevB/FS_workspace/004_UART_TXRX/freedom-metal/src/drivers/riscv_cpu.c:344
}
200128d8:	0001                	nop
200128da:	5432                	lw	s0,44(sp)
200128dc:	6145                	addi	sp,sp,48
200128de:	8082                	ret

200128e0 <__metal_valid_interrupt_id>:
__metal_valid_interrupt_id():
E:/GitHub/HiFive01-RevB/FS_workspace/004_UART_TXRX/freedom-metal/src/drivers/riscv_cpu.c:346

int __metal_valid_interrupt_id(int id) {
200128e0:	1101                	addi	sp,sp,-32
200128e2:	ce22                	sw	s0,28(sp)
200128e4:	1000                	addi	s0,sp,32
200128e6:	fea42623          	sw	a0,-20(s0)
E:/GitHub/HiFive01-RevB/FS_workspace/004_UART_TXRX/freedom-metal/src/drivers/riscv_cpu.c:347
    switch (id) {
200128ea:	fec42703          	lw	a4,-20(s0)
200128ee:	47fd                	li	a5,31
200128f0:	02e7c663          	blt	a5,a4,2001291c <__metal_valid_interrupt_id+0x3c>
200128f4:	fec42703          	lw	a4,-20(s0)
200128f8:	478d                	li	a5,3
200128fa:	02f74963          	blt	a4,a5,2001292c <__metal_valid_interrupt_id+0x4c>
200128fe:	fec42783          	lw	a5,-20(s0)
20012902:	4705                	li	a4,1
20012904:	00f71733          	sll	a4,a4,a5
20012908:	77c5                	lui	a5,0xffff1
2001290a:	88878793          	addi	a5,a5,-1912 # ffff0888 <__global_pointer$+0x7ffef5d8>
2001290e:	8ff9                	and	a5,a5,a4
20012910:	00f037b3          	snez	a5,a5
20012914:	0ff7f793          	zext.b	a5,a5
20012918:	eb81                	bnez	a5,20012928 <__metal_valid_interrupt_id+0x48>
E:/GitHub/HiFive01-RevB/FS_workspace/004_UART_TXRX/freedom-metal/src/drivers/riscv_cpu.c:370
    case METAL_INTERRUPT_ID_LC14:
    case METAL_INTERRUPT_ID_LC15:
    case METAL_INTERRUPT_ID_BEU:
        return 1;
    default:
        break;
2001291a:	a809                	j	2001292c <__metal_valid_interrupt_id+0x4c>
E:/GitHub/HiFive01-RevB/FS_workspace/004_UART_TXRX/freedom-metal/src/drivers/riscv_cpu.c:347
    switch (id) {
2001291c:	fec42703          	lw	a4,-20(s0)
20012920:	08000793          	li	a5,128
20012924:	00f71463          	bne	a4,a5,2001292c <__metal_valid_interrupt_id+0x4c>
E:/GitHub/HiFive01-RevB/FS_workspace/004_UART_TXRX/freedom-metal/src/drivers/riscv_cpu.c:368
        return 1;
20012928:	4785                	li	a5,1
2001292a:	a019                	j	20012930 <__metal_valid_interrupt_id+0x50>
E:/GitHub/HiFive01-RevB/FS_workspace/004_UART_TXRX/freedom-metal/src/drivers/riscv_cpu.c:370
        break;
2001292c:	0001                	nop
E:/GitHub/HiFive01-RevB/FS_workspace/004_UART_TXRX/freedom-metal/src/drivers/riscv_cpu.c:373
    }

    return 0;
2001292e:	4781                	li	a5,0
E:/GitHub/HiFive01-RevB/FS_workspace/004_UART_TXRX/freedom-metal/src/drivers/riscv_cpu.c:374
}
20012930:	853e                	mv	a0,a5
20012932:	4472                	lw	s0,28(sp)
20012934:	6105                	addi	sp,sp,32
20012936:	8082                	ret

20012938 <__metal_local_interrupt_enable>:
__metal_local_interrupt_enable():
E:/GitHub/HiFive01-RevB/FS_workspace/004_UART_TXRX/freedom-metal/src/drivers/riscv_cpu.c:377

int __metal_local_interrupt_enable(struct metal_interrupt *controller,
                                   metal_interrupt_id_e id, int enable) {
20012938:	7179                	addi	sp,sp,-48
2001293a:	d606                	sw	ra,44(sp)
2001293c:	d422                	sw	s0,40(sp)
2001293e:	1800                	addi	s0,sp,48
20012940:	fca42e23          	sw	a0,-36(s0)
20012944:	fcb42c23          	sw	a1,-40(s0)
20012948:	fcc42a23          	sw	a2,-44(s0)
E:/GitHub/HiFive01-RevB/FS_workspace/004_UART_TXRX/freedom-metal/src/drivers/riscv_cpu.c:378
    int rc = 0;
2001294c:	fe042623          	sw	zero,-20(s0)
E:/GitHub/HiFive01-RevB/FS_workspace/004_UART_TXRX/freedom-metal/src/drivers/riscv_cpu.c:380

    if (!controller) {
20012950:	fdc42783          	lw	a5,-36(s0)
20012954:	e399                	bnez	a5,2001295a <__metal_local_interrupt_enable+0x22>
E:/GitHub/HiFive01-RevB/FS_workspace/004_UART_TXRX/freedom-metal/src/drivers/riscv_cpu.c:381
        return -1;
20012956:	57fd                	li	a5,-1
20012958:	a849                	j	200129ea <__metal_local_interrupt_enable+0xb2>
2001295a:	fd842703          	lw	a4,-40(s0)
2001295e:	47fd                	li	a5,31
20012960:	08e7e063          	bltu	a5,a4,200129e0 <__metal_local_interrupt_enable+0xa8>
20012964:	fd842783          	lw	a5,-40(s0)
20012968:	00279713          	slli	a4,a5,0x2
2001296c:	200107b7          	lui	a5,0x20010
20012970:	3d878793          	addi	a5,a5,984 # 200103d8 <__metal_driver_vtable_riscv_clint0+0x64>
20012974:	97ba                	add	a5,a5,a4
20012976:	439c                	lw	a5,0(a5)
20012978:	8782                	jr	a5
E:/GitHub/HiFive01-RevB/FS_workspace/004_UART_TXRX/freedom-metal/src/drivers/riscv_cpu.c:386
    }

    switch (id) {
    case METAL_INTERRUPT_ID_BASE:
        if (enable) {
2001297a:	fd442783          	lw	a5,-44(s0)
2001297e:	c781                	beqz	a5,20012986 <__metal_local_interrupt_enable+0x4e>
E:/GitHub/HiFive01-RevB/FS_workspace/004_UART_TXRX/freedom-metal/src/drivers/riscv_cpu.c:387
            __metal_interrupt_global_enable();
20012980:	f3dfe0ef          	jal	ra,200118bc <__metal_interrupt_global_enable>
E:/GitHub/HiFive01-RevB/FS_workspace/004_UART_TXRX/freedom-metal/src/drivers/riscv_cpu.c:391
        } else {
            __metal_interrupt_global_disable();
        }
        break;
20012984:	a08d                	j	200129e6 <__metal_local_interrupt_enable+0xae>
E:/GitHub/HiFive01-RevB/FS_workspace/004_UART_TXRX/freedom-metal/src/drivers/riscv_cpu.c:389
            __metal_interrupt_global_disable();
20012986:	f4ffe0ef          	jal	ra,200118d4 <__metal_interrupt_global_disable>
E:/GitHub/HiFive01-RevB/FS_workspace/004_UART_TXRX/freedom-metal/src/drivers/riscv_cpu.c:391
        break;
2001298a:	a8b1                	j	200129e6 <__metal_local_interrupt_enable+0xae>
E:/GitHub/HiFive01-RevB/FS_workspace/004_UART_TXRX/freedom-metal/src/drivers/riscv_cpu.c:393
    case METAL_INTERRUPT_ID_SW:
        if (enable) {
2001298c:	fd442783          	lw	a5,-44(s0)
20012990:	c781                	beqz	a5,20012998 <__metal_local_interrupt_enable+0x60>
E:/GitHub/HiFive01-RevB/FS_workspace/004_UART_TXRX/freedom-metal/src/drivers/riscv_cpu.c:394
            __metal_interrupt_software_enable();
20012992:	f5bfe0ef          	jal	ra,200118ec <__metal_interrupt_software_enable>
E:/GitHub/HiFive01-RevB/FS_workspace/004_UART_TXRX/freedom-metal/src/drivers/riscv_cpu.c:398
        } else {
            __metal_interrupt_software_disable();
        }
        break;
20012996:	a881                	j	200129e6 <__metal_local_interrupt_enable+0xae>
E:/GitHub/HiFive01-RevB/FS_workspace/004_UART_TXRX/freedom-metal/src/drivers/riscv_cpu.c:396
            __metal_interrupt_software_disable();
20012998:	f6dfe0ef          	jal	ra,20011904 <__metal_interrupt_software_disable>
E:/GitHub/HiFive01-RevB/FS_workspace/004_UART_TXRX/freedom-metal/src/drivers/riscv_cpu.c:398
        break;
2001299c:	a0a9                	j	200129e6 <__metal_local_interrupt_enable+0xae>
E:/GitHub/HiFive01-RevB/FS_workspace/004_UART_TXRX/freedom-metal/src/drivers/riscv_cpu.c:400
    case METAL_INTERRUPT_ID_TMR:
        if (enable) {
2001299e:	fd442783          	lw	a5,-44(s0)
200129a2:	c781                	beqz	a5,200129aa <__metal_local_interrupt_enable+0x72>
E:/GitHub/HiFive01-RevB/FS_workspace/004_UART_TXRX/freedom-metal/src/drivers/riscv_cpu.c:401
            __metal_interrupt_timer_enable();
200129a4:	f79fe0ef          	jal	ra,2001191c <__metal_interrupt_timer_enable>
E:/GitHub/HiFive01-RevB/FS_workspace/004_UART_TXRX/freedom-metal/src/drivers/riscv_cpu.c:405
        } else {
            __metal_interrupt_timer_disable();
        }
        break;
200129a8:	a83d                	j	200129e6 <__metal_local_interrupt_enable+0xae>
E:/GitHub/HiFive01-RevB/FS_workspace/004_UART_TXRX/freedom-metal/src/drivers/riscv_cpu.c:403
            __metal_interrupt_timer_disable();
200129aa:	f8dfe0ef          	jal	ra,20011936 <__metal_interrupt_timer_disable>
E:/GitHub/HiFive01-RevB/FS_workspace/004_UART_TXRX/freedom-metal/src/drivers/riscv_cpu.c:405
        break;
200129ae:	a825                	j	200129e6 <__metal_local_interrupt_enable+0xae>
E:/GitHub/HiFive01-RevB/FS_workspace/004_UART_TXRX/freedom-metal/src/drivers/riscv_cpu.c:407
    case METAL_INTERRUPT_ID_EXT:
        if (enable) {
200129b0:	fd442783          	lw	a5,-44(s0)
200129b4:	c781                	beqz	a5,200129bc <__metal_local_interrupt_enable+0x84>
E:/GitHub/HiFive01-RevB/FS_workspace/004_UART_TXRX/freedom-metal/src/drivers/riscv_cpu.c:408
            __metal_interrupt_external_enable();
200129b6:	f9bfe0ef          	jal	ra,20011950 <__metal_interrupt_external_enable>
E:/GitHub/HiFive01-RevB/FS_workspace/004_UART_TXRX/freedom-metal/src/drivers/riscv_cpu.c:412
        } else {
            __metal_interrupt_external_disable();
        }
        break;
200129ba:	a035                	j	200129e6 <__metal_local_interrupt_enable+0xae>
E:/GitHub/HiFive01-RevB/FS_workspace/004_UART_TXRX/freedom-metal/src/drivers/riscv_cpu.c:410
            __metal_interrupt_external_disable();
200129bc:	fb1fe0ef          	jal	ra,2001196c <__metal_interrupt_external_disable>
E:/GitHub/HiFive01-RevB/FS_workspace/004_UART_TXRX/freedom-metal/src/drivers/riscv_cpu.c:412
        break;
200129c0:	a01d                	j	200129e6 <__metal_local_interrupt_enable+0xae>
E:/GitHub/HiFive01-RevB/FS_workspace/004_UART_TXRX/freedom-metal/src/drivers/riscv_cpu.c:429
    case METAL_INTERRUPT_ID_LC11:
    case METAL_INTERRUPT_ID_LC12:
    case METAL_INTERRUPT_ID_LC13:
    case METAL_INTERRUPT_ID_LC14:
    case METAL_INTERRUPT_ID_LC15:
        if (enable) {
200129c2:	fd442783          	lw	a5,-44(s0)
200129c6:	c799                	beqz	a5,200129d4 <__metal_local_interrupt_enable+0x9c>
E:/GitHub/HiFive01-RevB/FS_workspace/004_UART_TXRX/freedom-metal/src/drivers/riscv_cpu.c:430
            __metal_interrupt_local_enable(id);
200129c8:	fd842783          	lw	a5,-40(s0)
200129cc:	853e                	mv	a0,a5
200129ce:	fbbfe0ef          	jal	ra,20011988 <__metal_interrupt_local_enable>
E:/GitHub/HiFive01-RevB/FS_workspace/004_UART_TXRX/freedom-metal/src/drivers/riscv_cpu.c:434
        } else {
            __metal_interrupt_local_disable(id);
        }
        break;
200129d2:	a811                	j	200129e6 <__metal_local_interrupt_enable+0xae>
E:/GitHub/HiFive01-RevB/FS_workspace/004_UART_TXRX/freedom-metal/src/drivers/riscv_cpu.c:432
            __metal_interrupt_local_disable(id);
200129d4:	fd842783          	lw	a5,-40(s0)
200129d8:	853e                	mv	a0,a5
200129da:	fdbfe0ef          	jal	ra,200119b4 <__metal_interrupt_local_disable>
E:/GitHub/HiFive01-RevB/FS_workspace/004_UART_TXRX/freedom-metal/src/drivers/riscv_cpu.c:434
        break;
200129de:	a021                	j	200129e6 <__metal_local_interrupt_enable+0xae>
E:/GitHub/HiFive01-RevB/FS_workspace/004_UART_TXRX/freedom-metal/src/drivers/riscv_cpu.c:436
    default:
        rc = -1;
200129e0:	57fd                	li	a5,-1
200129e2:	fef42623          	sw	a5,-20(s0)
E:/GitHub/HiFive01-RevB/FS_workspace/004_UART_TXRX/freedom-metal/src/drivers/riscv_cpu.c:438
    }
    return rc;
200129e6:	fec42783          	lw	a5,-20(s0)
E:/GitHub/HiFive01-RevB/FS_workspace/004_UART_TXRX/freedom-metal/src/drivers/riscv_cpu.c:439
}
200129ea:	853e                	mv	a0,a5
200129ec:	50b2                	lw	ra,44(sp)
200129ee:	5422                	lw	s0,40(sp)
200129f0:	6145                	addi	sp,sp,48
200129f2:	8082                	ret

200129f4 <__metal_exception_register>:
__metal_exception_register():
E:/GitHub/HiFive01-RevB/FS_workspace/004_UART_TXRX/freedom-metal/src/drivers/riscv_cpu.c:442

int __metal_exception_register(struct metal_interrupt *controller, int ecode,
                               metal_exception_handler_t isr) {
200129f4:	7179                	addi	sp,sp,-48
200129f6:	d622                	sw	s0,44(sp)
200129f8:	1800                	addi	s0,sp,48
200129fa:	fca42e23          	sw	a0,-36(s0)
200129fe:	fcb42c23          	sw	a1,-40(s0)
20012a02:	fcc42a23          	sw	a2,-44(s0)
E:/GitHub/HiFive01-RevB/FS_workspace/004_UART_TXRX/freedom-metal/src/drivers/riscv_cpu.c:443
    struct __metal_driver_riscv_cpu_intc *intc = (void *)(controller);
20012a06:	fdc42783          	lw	a5,-36(s0)
20012a0a:	fef42623          	sw	a5,-20(s0)
E:/GitHub/HiFive01-RevB/FS_workspace/004_UART_TXRX/freedom-metal/src/drivers/riscv_cpu.c:445

    if ((ecode < METAL_MAX_EXCEPTION_CODE) && isr) {
20012a0e:	fd842703          	lw	a4,-40(s0)
20012a12:	47ad                	li	a5,11
20012a14:	02e7c263          	blt	a5,a4,20012a38 <__metal_exception_register+0x44>
E:/GitHub/HiFive01-RevB/FS_workspace/004_UART_TXRX/freedom-metal/src/drivers/riscv_cpu.c:445 (discriminator 1)
20012a18:	fd442783          	lw	a5,-44(s0)
20012a1c:	cf91                	beqz	a5,20012a38 <__metal_exception_register+0x44>
E:/GitHub/HiFive01-RevB/FS_workspace/004_UART_TXRX/freedom-metal/src/drivers/riscv_cpu.c:446
        intc->metal_exception_table[ecode] = isr;
20012a1e:	fec42703          	lw	a4,-20(s0)
20012a22:	fd842783          	lw	a5,-40(s0)
20012a26:	0e878793          	addi	a5,a5,232
20012a2a:	078a                	slli	a5,a5,0x2
20012a2c:	97ba                	add	a5,a5,a4
20012a2e:	fd442703          	lw	a4,-44(s0)
20012a32:	c398                	sw	a4,0(a5)
E:/GitHub/HiFive01-RevB/FS_workspace/004_UART_TXRX/freedom-metal/src/drivers/riscv_cpu.c:447
        return 0;
20012a34:	4781                	li	a5,0
20012a36:	a011                	j	20012a3a <__metal_exception_register+0x46>
E:/GitHub/HiFive01-RevB/FS_workspace/004_UART_TXRX/freedom-metal/src/drivers/riscv_cpu.c:449
    }
    return -1;
20012a38:	57fd                	li	a5,-1
E:/GitHub/HiFive01-RevB/FS_workspace/004_UART_TXRX/freedom-metal/src/drivers/riscv_cpu.c:450
}
20012a3a:	853e                	mv	a0,a5
20012a3c:	5432                	lw	s0,44(sp)
20012a3e:	6145                	addi	sp,sp,48
20012a40:	8082                	ret

20012a42 <__metal_driver_riscv_cpu_controller_interrupt_init>:
__metal_driver_riscv_cpu_controller_interrupt_init():
E:/GitHub/HiFive01-RevB/FS_workspace/004_UART_TXRX/freedom-metal/src/drivers/riscv_cpu.c:454

extern void early_trap_vector(void);
void __metal_driver_riscv_cpu_controller_interrupt_init(
    struct metal_interrupt *controller) {
20012a42:	7179                	addi	sp,sp,-48
20012a44:	d606                	sw	ra,44(sp)
20012a46:	d422                	sw	s0,40(sp)
20012a48:	1800                	addi	s0,sp,48
20012a4a:	fca42e23          	sw	a0,-36(s0)
E:/GitHub/HiFive01-RevB/FS_workspace/004_UART_TXRX/freedom-metal/src/drivers/riscv_cpu.c:455
    struct __metal_driver_riscv_cpu_intc *intc = (void *)(controller);
20012a4e:	fdc42783          	lw	a5,-36(s0)
20012a52:	fef42223          	sw	a5,-28(s0)
E:/GitHub/HiFive01-RevB/FS_workspace/004_UART_TXRX/freedom-metal/src/drivers/riscv_cpu.c:457

    if (!intc->init_done) {
20012a56:	fe442783          	lw	a5,-28(s0)
20012a5a:	43dc                	lw	a5,4(a5)
20012a5c:	efdd                	bnez	a5,20012b1a <__metal_driver_riscv_cpu_controller_interrupt_init+0xd8>
E:/GitHub/HiFive01-RevB/FS_workspace/004_UART_TXRX/freedom-metal/src/drivers/riscv_cpu.c:459
        /* Default to use direct interrupt, setup sw cb table*/
        for (int i = 0; i < METAL_MAX_MI; i++) {
20012a5e:	fe042623          	sw	zero,-20(s0)
20012a62:	a0b9                	j	20012ab0 <__metal_driver_riscv_cpu_controller_interrupt_init+0x6e>
E:/GitHub/HiFive01-RevB/FS_workspace/004_UART_TXRX/freedom-metal/src/drivers/riscv_cpu.c:460 (discriminator 3)
            intc->metal_int_table[i].handler = NULL;
20012a64:	fe442683          	lw	a3,-28(s0)
20012a68:	fec42703          	lw	a4,-20(s0)
20012a6c:	87ba                	mv	a5,a4
20012a6e:	0786                	slli	a5,a5,0x1
20012a70:	97ba                	add	a5,a5,a4
20012a72:	078e                	slli	a5,a5,0x3
20012a74:	97b6                	add	a5,a5,a3
20012a76:	0807a823          	sw	zero,144(a5)
E:/GitHub/HiFive01-RevB/FS_workspace/004_UART_TXRX/freedom-metal/src/drivers/riscv_cpu.c:461 (discriminator 3)
            intc->metal_int_table[i].sub_int = NULL;
20012a7a:	fe442683          	lw	a3,-28(s0)
20012a7e:	fec42703          	lw	a4,-20(s0)
20012a82:	87ba                	mv	a5,a4
20012a84:	0786                	slli	a5,a5,0x1
20012a86:	97ba                	add	a5,a5,a4
20012a88:	078e                	slli	a5,a5,0x3
20012a8a:	97b6                	add	a5,a5,a3
20012a8c:	0807aa23          	sw	zero,148(a5)
E:/GitHub/HiFive01-RevB/FS_workspace/004_UART_TXRX/freedom-metal/src/drivers/riscv_cpu.c:462 (discriminator 3)
            intc->metal_int_table[i].exint_data = NULL;
20012a90:	fe442683          	lw	a3,-28(s0)
20012a94:	fec42703          	lw	a4,-20(s0)
20012a98:	87ba                	mv	a5,a4
20012a9a:	0786                	slli	a5,a5,0x1
20012a9c:	97ba                	add	a5,a5,a4
20012a9e:	078e                	slli	a5,a5,0x3
20012aa0:	97b6                	add	a5,a5,a3
20012aa2:	0807ac23          	sw	zero,152(a5)
E:/GitHub/HiFive01-RevB/FS_workspace/004_UART_TXRX/freedom-metal/src/drivers/riscv_cpu.c:459 (discriminator 3)
        for (int i = 0; i < METAL_MAX_MI; i++) {
20012aa6:	fec42783          	lw	a5,-20(s0)
20012aaa:	0785                	addi	a5,a5,1
20012aac:	fef42623          	sw	a5,-20(s0)
E:/GitHub/HiFive01-RevB/FS_workspace/004_UART_TXRX/freedom-metal/src/drivers/riscv_cpu.c:459 (discriminator 1)
20012ab0:	fec42703          	lw	a4,-20(s0)
20012ab4:	47fd                	li	a5,31
20012ab6:	fae7d7e3          	bge	a5,a4,20012a64 <__metal_driver_riscv_cpu_controller_interrupt_init+0x22>
E:/GitHub/HiFive01-RevB/FS_workspace/004_UART_TXRX/freedom-metal/src/drivers/riscv_cpu.c:465
        }

        for (int i = 0; i < METAL_MAX_ME; i++) {
20012aba:	fe042423          	sw	zero,-24(s0)
20012abe:	a01d                	j	20012ae4 <__metal_driver_riscv_cpu_controller_interrupt_init+0xa2>
E:/GitHub/HiFive01-RevB/FS_workspace/004_UART_TXRX/freedom-metal/src/drivers/riscv_cpu.c:466 (discriminator 3)
            intc->metal_exception_table[i] = __metal_default_exception_handler;
20012ac0:	fe442703          	lw	a4,-28(s0)
20012ac4:	fe842783          	lw	a5,-24(s0)
20012ac8:	0e878793          	addi	a5,a5,232
20012acc:	078a                	slli	a5,a5,0x2
20012ace:	97ba                	add	a5,a5,a4
20012ad0:	20012737          	lui	a4,0x20012
20012ad4:	9e070713          	addi	a4,a4,-1568 # 200119e0 <__metal_default_exception_handler>
20012ad8:	c398                	sw	a4,0(a5)
E:/GitHub/HiFive01-RevB/FS_workspace/004_UART_TXRX/freedom-metal/src/drivers/riscv_cpu.c:465 (discriminator 3)
        for (int i = 0; i < METAL_MAX_ME; i++) {
20012ada:	fe842783          	lw	a5,-24(s0)
20012ade:	0785                	addi	a5,a5,1
20012ae0:	fef42423          	sw	a5,-24(s0)
E:/GitHub/HiFive01-RevB/FS_workspace/004_UART_TXRX/freedom-metal/src/drivers/riscv_cpu.c:465 (discriminator 1)
20012ae4:	fe842703          	lw	a4,-24(s0)
20012ae8:	47ad                	li	a5,11
20012aea:	fce7dbe3          	bge	a5,a4,20012ac0 <__metal_driver_riscv_cpu_controller_interrupt_init+0x7e>
E:/GitHub/HiFive01-RevB/FS_workspace/004_UART_TXRX/freedom-metal/src/drivers/riscv_cpu.c:475
         * Set the real trap handler if the value of mtvec is equal to
         * early_trap_vector. If mtvec is not equal to early_trap_vector,
         * that means user has own trap handler, then we don't overwrite it.
         */
        uintptr_t mtvec;
        __asm__ volatile("csrr %0, mtvec" : "=r"(mtvec));
20012aee:	305027f3          	csrr	a5,mtvec
20012af2:	fef42023          	sw	a5,-32(s0)
E:/GitHub/HiFive01-RevB/FS_workspace/004_UART_TXRX/freedom-metal/src/drivers/riscv_cpu.c:476
        if (mtvec == (uintptr_t)&early_trap_vector) {
20012af6:	200107b7          	lui	a5,0x20010
20012afa:	13478793          	addi	a5,a5,308 # 20010134 <early_trap_vector>
20012afe:	fe042703          	lw	a4,-32(s0)
20012b02:	00f71863          	bne	a4,a5,20012b12 <__metal_driver_riscv_cpu_controller_interrupt_init+0xd0>
E:/GitHub/HiFive01-RevB/FS_workspace/004_UART_TXRX/freedom-metal/src/drivers/riscv_cpu.c:477
            __metal_controller_interrupt_vector(
20012b06:	200127b7          	lui	a5,0x20012
20012b0a:	c8078593          	addi	a1,a5,-896 # 20011c80 <__metal_exception_handler>
20012b0e:	4501                	li	a0,0
20012b10:	3b39                	jal	2001282e <__metal_controller_interrupt_vector>
E:/GitHub/HiFive01-RevB/FS_workspace/004_UART_TXRX/freedom-metal/src/drivers/riscv_cpu.c:481
                METAL_DIRECT_MODE,
                (void *)(uintptr_t)&__metal_exception_handler);
        }
        intc->init_done = 1;
20012b12:	fe442783          	lw	a5,-28(s0)
20012b16:	4705                	li	a4,1
20012b18:	c3d8                	sw	a4,4(a5)
E:/GitHub/HiFive01-RevB/FS_workspace/004_UART_TXRX/freedom-metal/src/drivers/riscv_cpu.c:483
    }
}
20012b1a:	0001                	nop
20012b1c:	50b2                	lw	ra,44(sp)
20012b1e:	5422                	lw	s0,40(sp)
20012b20:	6145                	addi	sp,sp,48
20012b22:	8082                	ret

20012b24 <__metal_driver_riscv_cpu_controller_interrupt_register>:
__metal_driver_riscv_cpu_controller_interrupt_register():
E:/GitHub/HiFive01-RevB/FS_workspace/004_UART_TXRX/freedom-metal/src/drivers/riscv_cpu.c:487

int __metal_driver_riscv_cpu_controller_interrupt_register(
    struct metal_interrupt *controller, int id, metal_interrupt_handler_t isr,
    void *priv) {
20012b24:	7179                	addi	sp,sp,-48
20012b26:	d606                	sw	ra,44(sp)
20012b28:	d422                	sw	s0,40(sp)
20012b2a:	1800                	addi	s0,sp,48
20012b2c:	fca42e23          	sw	a0,-36(s0)
20012b30:	fcb42c23          	sw	a1,-40(s0)
20012b34:	fcc42a23          	sw	a2,-44(s0)
20012b38:	fcd42823          	sw	a3,-48(s0)
E:/GitHub/HiFive01-RevB/FS_workspace/004_UART_TXRX/freedom-metal/src/drivers/riscv_cpu.c:488
    int rc = 0;
20012b3c:	fe042623          	sw	zero,-20(s0)
E:/GitHub/HiFive01-RevB/FS_workspace/004_UART_TXRX/freedom-metal/src/drivers/riscv_cpu.c:489
    struct __metal_driver_riscv_cpu_intc *intc = (void *)(controller);
20012b40:	fdc42783          	lw	a5,-36(s0)
20012b44:	fef42423          	sw	a5,-24(s0)
E:/GitHub/HiFive01-RevB/FS_workspace/004_UART_TXRX/freedom-metal/src/drivers/riscv_cpu.c:491

    if (!__metal_valid_interrupt_id(id)) {
20012b48:	fd842503          	lw	a0,-40(s0)
20012b4c:	3b51                	jal	200128e0 <__metal_valid_interrupt_id>
20012b4e:	87aa                	mv	a5,a0
20012b50:	e399                	bnez	a5,20012b56 <__metal_driver_riscv_cpu_controller_interrupt_register+0x32>
E:/GitHub/HiFive01-RevB/FS_workspace/004_UART_TXRX/freedom-metal/src/drivers/riscv_cpu.c:492
        return -11;
20012b52:	57d5                	li	a5,-11
20012b54:	a25d                	j	20012cfa <__metal_driver_riscv_cpu_controller_interrupt_register+0x1d6>
E:/GitHub/HiFive01-RevB/FS_workspace/004_UART_TXRX/freedom-metal/src/drivers/riscv_cpu.c:494
    }
    if ((id == METAL_INTERRUPT_ID_BEU) &&
20012b56:	fd842703          	lw	a4,-40(s0)
20012b5a:	08000793          	li	a5,128
20012b5e:	00f71763          	bne	a4,a5,20012b6c <__metal_driver_riscv_cpu_controller_interrupt_register+0x48>
E:/GitHub/HiFive01-RevB/FS_workspace/004_UART_TXRX/freedom-metal/src/drivers/riscv_cpu.c:495 (discriminator 1)
        (__metal_controller_interrupt_vector_mode() != METAL_DIRECT_MODE)) {
20012b62:	3995                	jal	200127d6 <__metal_controller_interrupt_vector_mode>
20012b64:	87aa                	mv	a5,a0
E:/GitHub/HiFive01-RevB/FS_workspace/004_UART_TXRX/freedom-metal/src/drivers/riscv_cpu.c:494 (discriminator 1)
    if ((id == METAL_INTERRUPT_ID_BEU) &&
20012b66:	c399                	beqz	a5,20012b6c <__metal_driver_riscv_cpu_controller_interrupt_register+0x48>
E:/GitHub/HiFive01-RevB/FS_workspace/004_UART_TXRX/freedom-metal/src/drivers/riscv_cpu.c:498
        /* Only allow registration of the bus error unit interrupt if
         * interrupt vectoring if off */
        return -13;
20012b68:	57cd                	li	a5,-13
20012b6a:	aa41                	j	20012cfa <__metal_driver_riscv_cpu_controller_interrupt_register+0x1d6>
E:/GitHub/HiFive01-RevB/FS_workspace/004_UART_TXRX/freedom-metal/src/drivers/riscv_cpu.c:501
    }

    if (isr) {
20012b6c:	fd442783          	lw	a5,-44(s0)
20012b70:	cfb9                	beqz	a5,20012bce <__metal_driver_riscv_cpu_controller_interrupt_register+0xaa>
E:/GitHub/HiFive01-RevB/FS_workspace/004_UART_TXRX/freedom-metal/src/drivers/riscv_cpu.c:502
        if (id == METAL_INTERRUPT_ID_BEU) {
20012b72:	fd842703          	lw	a4,-40(s0)
20012b76:	08000793          	li	a5,128
20012b7a:	00f71f63          	bne	a4,a5,20012b98 <__metal_driver_riscv_cpu_controller_interrupt_register+0x74>
E:/GitHub/HiFive01-RevB/FS_workspace/004_UART_TXRX/freedom-metal/src/drivers/riscv_cpu.c:503
            intc->metal_int_beu.handler = isr;
20012b7e:	fe842783          	lw	a5,-24(s0)
20012b82:	fd442703          	lw	a4,-44(s0)
20012b86:	38e7a823          	sw	a4,912(a5)
E:/GitHub/HiFive01-RevB/FS_workspace/004_UART_TXRX/freedom-metal/src/drivers/riscv_cpu.c:504
            intc->metal_int_beu.exint_data = priv;
20012b8a:	fe842783          	lw	a5,-24(s0)
20012b8e:	fd042703          	lw	a4,-48(s0)
20012b92:	38e7ac23          	sw	a4,920(a5)
20012b96:	a285                	j	20012cf6 <__metal_driver_riscv_cpu_controller_interrupt_register+0x1d2>
E:/GitHub/HiFive01-RevB/FS_workspace/004_UART_TXRX/freedom-metal/src/drivers/riscv_cpu.c:506
        } else {
            intc->metal_int_table[id].handler = isr;
20012b98:	fe842683          	lw	a3,-24(s0)
20012b9c:	fd842703          	lw	a4,-40(s0)
20012ba0:	87ba                	mv	a5,a4
20012ba2:	0786                	slli	a5,a5,0x1
20012ba4:	97ba                	add	a5,a5,a4
20012ba6:	078e                	slli	a5,a5,0x3
20012ba8:	97b6                	add	a5,a5,a3
20012baa:	fd442703          	lw	a4,-44(s0)
20012bae:	08e7a823          	sw	a4,144(a5)
E:/GitHub/HiFive01-RevB/FS_workspace/004_UART_TXRX/freedom-metal/src/drivers/riscv_cpu.c:507
            intc->metal_int_table[id].exint_data = priv;
20012bb2:	fe842683          	lw	a3,-24(s0)
20012bb6:	fd842703          	lw	a4,-40(s0)
20012bba:	87ba                	mv	a5,a4
20012bbc:	0786                	slli	a5,a5,0x1
20012bbe:	97ba                	add	a5,a5,a4
20012bc0:	078e                	slli	a5,a5,0x3
20012bc2:	97b6                	add	a5,a5,a3
20012bc4:	fd042703          	lw	a4,-48(s0)
20012bc8:	08e7ac23          	sw	a4,152(a5)
20012bcc:	a22d                	j	20012cf6 <__metal_driver_riscv_cpu_controller_interrupt_register+0x1d2>
E:/GitHub/HiFive01-RevB/FS_workspace/004_UART_TXRX/freedom-metal/src/drivers/riscv_cpu.c:510
        }
    } else {
        switch (id) {
20012bce:	fd842703          	lw	a4,-40(s0)
20012bd2:	08000793          	li	a5,128
20012bd6:	0cf70163          	beq	a4,a5,20012c98 <__metal_driver_riscv_cpu_controller_interrupt_register+0x174>
20012bda:	fd842703          	lw	a4,-40(s0)
20012bde:	08000793          	li	a5,128
20012be2:	10e7c763          	blt	a5,a4,20012cf0 <__metal_driver_riscv_cpu_controller_interrupt_register+0x1cc>
20012be6:	fd842703          	lw	a4,-40(s0)
20012bea:	47fd                	li	a5,31
20012bec:	10e7c263          	blt	a5,a4,20012cf0 <__metal_driver_riscv_cpu_controller_interrupt_register+0x1cc>
20012bf0:	fd842703          	lw	a4,-40(s0)
20012bf4:	47c1                	li	a5,16
20012bf6:	0cf75063          	bge	a4,a5,20012cb6 <__metal_driver_riscv_cpu_controller_interrupt_register+0x192>
20012bfa:	fd842703          	lw	a4,-40(s0)
20012bfe:	47ad                	li	a5,11
20012c00:	0af70b63          	beq	a4,a5,20012cb6 <__metal_driver_riscv_cpu_controller_interrupt_register+0x192>
20012c04:	fd842703          	lw	a4,-40(s0)
20012c08:	47ad                	li	a5,11
20012c0a:	0ee7c363          	blt	a5,a4,20012cf0 <__metal_driver_riscv_cpu_controller_interrupt_register+0x1cc>
20012c0e:	fd842703          	lw	a4,-40(s0)
20012c12:	478d                	li	a5,3
20012c14:	00f70863          	beq	a4,a5,20012c24 <__metal_driver_riscv_cpu_controller_interrupt_register+0x100>
20012c18:	fd842703          	lw	a4,-40(s0)
20012c1c:	479d                	li	a5,7
20012c1e:	04f70063          	beq	a4,a5,20012c5e <__metal_driver_riscv_cpu_controller_interrupt_register+0x13a>
20012c22:	a0f9                	j	20012cf0 <__metal_driver_riscv_cpu_controller_interrupt_register+0x1cc>
E:/GitHub/HiFive01-RevB/FS_workspace/004_UART_TXRX/freedom-metal/src/drivers/riscv_cpu.c:512
        case METAL_INTERRUPT_ID_SW:
            intc->metal_int_table[id].handler = __metal_default_sw_handler;
20012c24:	fe842683          	lw	a3,-24(s0)
20012c28:	fd842703          	lw	a4,-40(s0)
20012c2c:	87ba                	mv	a5,a4
20012c2e:	0786                	slli	a5,a5,0x1
20012c30:	97ba                	add	a5,a5,a4
20012c32:	078e                	slli	a5,a5,0x3
20012c34:	97b6                	add	a5,a5,a3
20012c36:	20012737          	lui	a4,0x20012
20012c3a:	ad070713          	addi	a4,a4,-1328 # 20011ad0 <__metal_default_sw_handler>
20012c3e:	08e7a823          	sw	a4,144(a5)
E:/GitHub/HiFive01-RevB/FS_workspace/004_UART_TXRX/freedom-metal/src/drivers/riscv_cpu.c:513
            intc->metal_int_table[id].sub_int = priv;
20012c42:	fe842683          	lw	a3,-24(s0)
20012c46:	fd842703          	lw	a4,-40(s0)
20012c4a:	87ba                	mv	a5,a4
20012c4c:	0786                	slli	a5,a5,0x1
20012c4e:	97ba                	add	a5,a5,a4
20012c50:	078e                	slli	a5,a5,0x3
20012c52:	97b6                	add	a5,a5,a3
20012c54:	fd042703          	lw	a4,-48(s0)
20012c58:	08e7aa23          	sw	a4,148(a5)
E:/GitHub/HiFive01-RevB/FS_workspace/004_UART_TXRX/freedom-metal/src/drivers/riscv_cpu.c:514
            break;
20012c5c:	a869                	j	20012cf6 <__metal_driver_riscv_cpu_controller_interrupt_register+0x1d2>
E:/GitHub/HiFive01-RevB/FS_workspace/004_UART_TXRX/freedom-metal/src/drivers/riscv_cpu.c:516
        case METAL_INTERRUPT_ID_TMR:
            intc->metal_int_table[id].handler = __metal_default_timer_handler;
20012c5e:	fe842683          	lw	a3,-24(s0)
20012c62:	fd842703          	lw	a4,-40(s0)
20012c66:	87ba                	mv	a5,a4
20012c68:	0786                	slli	a5,a5,0x1
20012c6a:	97ba                	add	a5,a5,a4
20012c6c:	078e                	slli	a5,a5,0x3
20012c6e:	97b6                	add	a5,a5,a3
20012c70:	20012737          	lui	a4,0x20012
20012c74:	be070713          	addi	a4,a4,-1056 # 20011be0 <__metal_default_timer_handler>
20012c78:	08e7a823          	sw	a4,144(a5)
E:/GitHub/HiFive01-RevB/FS_workspace/004_UART_TXRX/freedom-metal/src/drivers/riscv_cpu.c:517
            intc->metal_int_table[id].sub_int = priv;
20012c7c:	fe842683          	lw	a3,-24(s0)
20012c80:	fd842703          	lw	a4,-40(s0)
20012c84:	87ba                	mv	a5,a4
20012c86:	0786                	slli	a5,a5,0x1
20012c88:	97ba                	add	a5,a5,a4
20012c8a:	078e                	slli	a5,a5,0x3
20012c8c:	97b6                	add	a5,a5,a3
20012c8e:	fd042703          	lw	a4,-48(s0)
20012c92:	08e7aa23          	sw	a4,148(a5)
E:/GitHub/HiFive01-RevB/FS_workspace/004_UART_TXRX/freedom-metal/src/drivers/riscv_cpu.c:518
            break;
20012c96:	a085                	j	20012cf6 <__metal_driver_riscv_cpu_controller_interrupt_register+0x1d2>
E:/GitHub/HiFive01-RevB/FS_workspace/004_UART_TXRX/freedom-metal/src/drivers/riscv_cpu.c:520
        case METAL_INTERRUPT_ID_BEU:
            intc->metal_int_beu.handler = __metal_default_beu_handler;
20012c98:	fe842783          	lw	a5,-24(s0)
20012c9c:	20012737          	lui	a4,0x20012
20012ca0:	bca70713          	addi	a4,a4,-1078 # 20011bca <__metal_default_beu_handler>
20012ca4:	38e7a823          	sw	a4,912(a5)
E:/GitHub/HiFive01-RevB/FS_workspace/004_UART_TXRX/freedom-metal/src/drivers/riscv_cpu.c:521
            intc->metal_int_beu.exint_data = priv;
20012ca8:	fe842783          	lw	a5,-24(s0)
20012cac:	fd042703          	lw	a4,-48(s0)
20012cb0:	38e7ac23          	sw	a4,920(a5)
E:/GitHub/HiFive01-RevB/FS_workspace/004_UART_TXRX/freedom-metal/src/drivers/riscv_cpu.c:522
            break;
20012cb4:	a089                	j	20012cf6 <__metal_driver_riscv_cpu_controller_interrupt_register+0x1d2>
E:/GitHub/HiFive01-RevB/FS_workspace/004_UART_TXRX/freedom-metal/src/drivers/riscv_cpu.c:540
        case METAL_INTERRUPT_ID_LC11:
        case METAL_INTERRUPT_ID_LC12:
        case METAL_INTERRUPT_ID_LC13:
        case METAL_INTERRUPT_ID_LC14:
        case METAL_INTERRUPT_ID_LC15:
            intc->metal_int_table[id].handler =
20012cb6:	fe842683          	lw	a3,-24(s0)
20012cba:	fd842703          	lw	a4,-40(s0)
20012cbe:	87ba                	mv	a5,a4
20012cc0:	0786                	slli	a5,a5,0x1
20012cc2:	97ba                	add	a5,a5,a4
20012cc4:	078e                	slli	a5,a5,0x3
20012cc6:	97b6                	add	a5,a5,a3
20012cc8:	20012737          	lui	a4,0x20012
20012ccc:	9f870713          	addi	a4,a4,-1544 # 200119f8 <__metal_default_interrupt_handler>
20012cd0:	08e7a823          	sw	a4,144(a5)
E:/GitHub/HiFive01-RevB/FS_workspace/004_UART_TXRX/freedom-metal/src/drivers/riscv_cpu.c:542
                __metal_default_interrupt_handler;
            intc->metal_int_table[id].sub_int = priv;
20012cd4:	fe842683          	lw	a3,-24(s0)
20012cd8:	fd842703          	lw	a4,-40(s0)
20012cdc:	87ba                	mv	a5,a4
20012cde:	0786                	slli	a5,a5,0x1
20012ce0:	97ba                	add	a5,a5,a4
20012ce2:	078e                	slli	a5,a5,0x3
20012ce4:	97b6                	add	a5,a5,a3
20012ce6:	fd042703          	lw	a4,-48(s0)
20012cea:	08e7aa23          	sw	a4,148(a5)
E:/GitHub/HiFive01-RevB/FS_workspace/004_UART_TXRX/freedom-metal/src/drivers/riscv_cpu.c:543
            break;
20012cee:	a021                	j	20012cf6 <__metal_driver_riscv_cpu_controller_interrupt_register+0x1d2>
E:/GitHub/HiFive01-RevB/FS_workspace/004_UART_TXRX/freedom-metal/src/drivers/riscv_cpu.c:545
        default:
            rc = -12;
20012cf0:	57d1                	li	a5,-12
20012cf2:	fef42623          	sw	a5,-20(s0)
E:/GitHub/HiFive01-RevB/FS_workspace/004_UART_TXRX/freedom-metal/src/drivers/riscv_cpu.c:548
        }
    }
    return rc;
20012cf6:	fec42783          	lw	a5,-20(s0)
E:/GitHub/HiFive01-RevB/FS_workspace/004_UART_TXRX/freedom-metal/src/drivers/riscv_cpu.c:549
}
20012cfa:	853e                	mv	a0,a5
20012cfc:	50b2                	lw	ra,44(sp)
20012cfe:	5422                	lw	s0,40(sp)
20012d00:	6145                	addi	sp,sp,48
20012d02:	8082                	ret

20012d04 <__metal_driver_riscv_cpu_controller_interrupt_enable>:
__metal_driver_riscv_cpu_controller_interrupt_enable():
E:/GitHub/HiFive01-RevB/FS_workspace/004_UART_TXRX/freedom-metal/src/drivers/riscv_cpu.c:552

int __metal_driver_riscv_cpu_controller_interrupt_enable(
    struct metal_interrupt *controller, int id) {
20012d04:	1101                	addi	sp,sp,-32
20012d06:	ce06                	sw	ra,28(sp)
20012d08:	cc22                	sw	s0,24(sp)
20012d0a:	1000                	addi	s0,sp,32
20012d0c:	fea42623          	sw	a0,-20(s0)
20012d10:	feb42423          	sw	a1,-24(s0)
E:/GitHub/HiFive01-RevB/FS_workspace/004_UART_TXRX/freedom-metal/src/drivers/riscv_cpu.c:553
    return __metal_local_interrupt_enable(controller, id, METAL_ENABLE);
20012d14:	fe842783          	lw	a5,-24(s0)
20012d18:	4605                	li	a2,1
20012d1a:	85be                	mv	a1,a5
20012d1c:	fec42503          	lw	a0,-20(s0)
20012d20:	3921                	jal	20012938 <__metal_local_interrupt_enable>
20012d22:	87aa                	mv	a5,a0
E:/GitHub/HiFive01-RevB/FS_workspace/004_UART_TXRX/freedom-metal/src/drivers/riscv_cpu.c:554
}
20012d24:	853e                	mv	a0,a5
20012d26:	40f2                	lw	ra,28(sp)
20012d28:	4462                	lw	s0,24(sp)
20012d2a:	6105                	addi	sp,sp,32
20012d2c:	8082                	ret

20012d2e <__metal_driver_riscv_cpu_controller_interrupt_disable>:
__metal_driver_riscv_cpu_controller_interrupt_disable():
E:/GitHub/HiFive01-RevB/FS_workspace/004_UART_TXRX/freedom-metal/src/drivers/riscv_cpu.c:557

int __metal_driver_riscv_cpu_controller_interrupt_disable(
    struct metal_interrupt *controller, int id) {
20012d2e:	1101                	addi	sp,sp,-32
20012d30:	ce06                	sw	ra,28(sp)
20012d32:	cc22                	sw	s0,24(sp)
20012d34:	1000                	addi	s0,sp,32
20012d36:	fea42623          	sw	a0,-20(s0)
20012d3a:	feb42423          	sw	a1,-24(s0)
E:/GitHub/HiFive01-RevB/FS_workspace/004_UART_TXRX/freedom-metal/src/drivers/riscv_cpu.c:558
    return __metal_local_interrupt_enable(controller, id, METAL_DISABLE);
20012d3e:	fe842783          	lw	a5,-24(s0)
20012d42:	4601                	li	a2,0
20012d44:	85be                	mv	a1,a5
20012d46:	fec42503          	lw	a0,-20(s0)
20012d4a:	36fd                	jal	20012938 <__metal_local_interrupt_enable>
20012d4c:	87aa                	mv	a5,a0
E:/GitHub/HiFive01-RevB/FS_workspace/004_UART_TXRX/freedom-metal/src/drivers/riscv_cpu.c:559
}
20012d4e:	853e                	mv	a0,a5
20012d50:	40f2                	lw	ra,28(sp)
20012d52:	4462                	lw	s0,24(sp)
20012d54:	6105                	addi	sp,sp,32
20012d56:	8082                	ret

20012d58 <__metal_driver_riscv_cpu_controller_get_vector_mode>:
__metal_driver_riscv_cpu_controller_get_vector_mode():
E:/GitHub/HiFive01-RevB/FS_workspace/004_UART_TXRX/freedom-metal/src/drivers/riscv_cpu.c:591
    }
    return -1;
}

metal_vector_mode __metal_driver_riscv_cpu_controller_get_vector_mode(
    struct metal_interrupt *controller) {
20012d58:	1101                	addi	sp,sp,-32
20012d5a:	ce06                	sw	ra,28(sp)
20012d5c:	cc22                	sw	s0,24(sp)
20012d5e:	1000                	addi	s0,sp,32
20012d60:	fea42623          	sw	a0,-20(s0)
E:/GitHub/HiFive01-RevB/FS_workspace/004_UART_TXRX/freedom-metal/src/drivers/riscv_cpu.c:592
    return __metal_controller_interrupt_vector_mode();
20012d64:	3c8d                	jal	200127d6 <__metal_controller_interrupt_vector_mode>
20012d66:	87aa                	mv	a5,a0
E:/GitHub/HiFive01-RevB/FS_workspace/004_UART_TXRX/freedom-metal/src/drivers/riscv_cpu.c:593
}
20012d68:	853e                	mv	a0,a5
20012d6a:	40f2                	lw	ra,28(sp)
20012d6c:	4462                	lw	s0,24(sp)
20012d6e:	6105                	addi	sp,sp,32
20012d70:	8082                	ret

20012d72 <__metal_driver_riscv_cpu_controller_set_vector_mode>:
__metal_driver_riscv_cpu_controller_set_vector_mode():
E:/GitHub/HiFive01-RevB/FS_workspace/004_UART_TXRX/freedom-metal/src/drivers/riscv_cpu.c:596

int __metal_driver_riscv_cpu_controller_set_vector_mode(
    struct metal_interrupt *controller, metal_vector_mode mode) {
20012d72:	1101                	addi	sp,sp,-32
20012d74:	ce06                	sw	ra,28(sp)
20012d76:	cc22                	sw	s0,24(sp)
20012d78:	1000                	addi	s0,sp,32
20012d7a:	fea42623          	sw	a0,-20(s0)
20012d7e:	feb42423          	sw	a1,-24(s0)
E:/GitHub/HiFive01-RevB/FS_workspace/004_UART_TXRX/freedom-metal/src/drivers/riscv_cpu.c:598

    if (mode == METAL_DIRECT_MODE) {
20012d82:	fe842783          	lw	a5,-24(s0)
20012d86:	eb91                	bnez	a5,20012d9a <__metal_driver_riscv_cpu_controller_set_vector_mode+0x28>
E:/GitHub/HiFive01-RevB/FS_workspace/004_UART_TXRX/freedom-metal/src/drivers/riscv_cpu.c:599
        __metal_controller_interrupt_vector(
20012d88:	200127b7          	lui	a5,0x20012
20012d8c:	c8078593          	addi	a1,a5,-896 # 20011c80 <__metal_exception_handler>
20012d90:	fe842503          	lw	a0,-24(s0)
20012d94:	3c69                	jal	2001282e <__metal_controller_interrupt_vector>
E:/GitHub/HiFive01-RevB/FS_workspace/004_UART_TXRX/freedom-metal/src/drivers/riscv_cpu.c:601
            mode, (void *)(uintptr_t)&__metal_exception_handler);
        return 0;
20012d96:	4781                	li	a5,0
20012d98:	a005                	j	20012db8 <__metal_driver_riscv_cpu_controller_set_vector_mode+0x46>
E:/GitHub/HiFive01-RevB/FS_workspace/004_UART_TXRX/freedom-metal/src/drivers/riscv_cpu.c:603
    }
    if (mode == METAL_VECTOR_MODE) {
20012d9a:	fe842703          	lw	a4,-24(s0)
20012d9e:	4785                	li	a5,1
20012da0:	00f71b63          	bne	a4,a5,20012db6 <__metal_driver_riscv_cpu_controller_set_vector_mode+0x44>
E:/GitHub/HiFive01-RevB/FS_workspace/004_UART_TXRX/freedom-metal/src/drivers/riscv_cpu.c:604
        __metal_controller_interrupt_vector(
20012da4:	200167b7          	lui	a5,0x20016
20012da8:	d0078593          	addi	a1,a5,-768 # 20015d00 <__metal_vector_table>
20012dac:	fe842503          	lw	a0,-24(s0)
20012db0:	3cbd                	jal	2001282e <__metal_controller_interrupt_vector>
E:/GitHub/HiFive01-RevB/FS_workspace/004_UART_TXRX/freedom-metal/src/drivers/riscv_cpu.c:606
            mode, (void *)(uintptr_t)__metal_vector_table);
        return 0;
20012db2:	4781                	li	a5,0
20012db4:	a011                	j	20012db8 <__metal_driver_riscv_cpu_controller_set_vector_mode+0x46>
E:/GitHub/HiFive01-RevB/FS_workspace/004_UART_TXRX/freedom-metal/src/drivers/riscv_cpu.c:608
    }
    return -1;
20012db6:	57fd                	li	a5,-1
E:/GitHub/HiFive01-RevB/FS_workspace/004_UART_TXRX/freedom-metal/src/drivers/riscv_cpu.c:609
}
20012db8:	853e                	mv	a0,a5
20012dba:	40f2                	lw	ra,28(sp)
20012dbc:	4462                	lw	s0,24(sp)
20012dbe:	6105                	addi	sp,sp,32
20012dc0:	8082                	ret

20012dc2 <__metal_driver_riscv_cpu_controller_command_request>:
__metal_driver_riscv_cpu_controller_command_request():
E:/GitHub/HiFive01-RevB/FS_workspace/004_UART_TXRX/freedom-metal/src/drivers/riscv_cpu.c:612

int __metal_driver_riscv_cpu_controller_command_request(
    struct metal_interrupt *controller, int cmd, void *data) {
20012dc2:	1101                	addi	sp,sp,-32
20012dc4:	ce22                	sw	s0,28(sp)
20012dc6:	1000                	addi	s0,sp,32
20012dc8:	fea42623          	sw	a0,-20(s0)
20012dcc:	feb42423          	sw	a1,-24(s0)
20012dd0:	fec42223          	sw	a2,-28(s0)
E:/GitHub/HiFive01-RevB/FS_workspace/004_UART_TXRX/freedom-metal/src/drivers/riscv_cpu.c:615
    /* NOP for now, unless local interrupt lines the like of clic, clint, plic
     */
    return 0;
20012dd4:	4781                	li	a5,0
E:/GitHub/HiFive01-RevB/FS_workspace/004_UART_TXRX/freedom-metal/src/drivers/riscv_cpu.c:616
}
20012dd6:	853e                	mv	a0,a5
20012dd8:	4472                	lw	s0,28(sp)
20012dda:	6105                	addi	sp,sp,32
20012ddc:	8082                	ret

20012dde <__metal_driver_cpu_mcycle_get>:
__metal_driver_cpu_mcycle_get():
E:/GitHub/HiFive01-RevB/FS_workspace/004_UART_TXRX/freedom-metal/src/drivers/riscv_cpu.c:620

/* CPU driver !!! */

unsigned long long __metal_driver_cpu_mcycle_get(struct metal_cpu *cpu) {
20012dde:	7139                	addi	sp,sp,-64
20012de0:	de22                	sw	s0,60(sp)
20012de2:	0080                	addi	s0,sp,64
20012de4:	fca42623          	sw	a0,-52(s0)
E:/GitHub/HiFive01-RevB/FS_workspace/004_UART_TXRX/freedom-metal/src/drivers/riscv_cpu.c:621
    unsigned long long val = 0;
20012de8:	4501                	li	a0,0
20012dea:	4581                	li	a1,0
20012dec:	fea42423          	sw	a0,-24(s0)
20012df0:	feb42623          	sw	a1,-20(s0)
E:/GitHub/HiFive01-RevB/FS_workspace/004_UART_TXRX/freedom-metal/src/drivers/riscv_cpu.c:627 (discriminator 1)

#if __riscv_xlen == 32
    unsigned long hi, hi1, lo;

    do {
        __asm__ volatile("csrr %0, mcycleh" : "=r"(hi));
20012df4:	b80025f3          	csrr	a1,mcycleh
20012df8:	feb42223          	sw	a1,-28(s0)
E:/GitHub/HiFive01-RevB/FS_workspace/004_UART_TXRX/freedom-metal/src/drivers/riscv_cpu.c:628 (discriminator 1)
        __asm__ volatile("csrr %0, mcycle" : "=r"(lo));
20012dfc:	b00025f3          	csrr	a1,mcycle
20012e00:	feb42023          	sw	a1,-32(s0)
E:/GitHub/HiFive01-RevB/FS_workspace/004_UART_TXRX/freedom-metal/src/drivers/riscv_cpu.c:629 (discriminator 1)
        __asm__ volatile("csrr %0, mcycleh" : "=r"(hi1));
20012e04:	b80025f3          	csrr	a1,mcycleh
20012e08:	fcb42e23          	sw	a1,-36(s0)
E:/GitHub/HiFive01-RevB/FS_workspace/004_UART_TXRX/freedom-metal/src/drivers/riscv_cpu.c:632 (discriminator 1)
        /* hi != hi1 means mcycle overflow during we get value,
         * so we must retry. */
    } while (hi != hi1);
20012e0c:	fe442503          	lw	a0,-28(s0)
20012e10:	fdc42583          	lw	a1,-36(s0)
20012e14:	feb510e3          	bne	a0,a1,20012df4 <__metal_driver_cpu_mcycle_get+0x16>
E:/GitHub/HiFive01-RevB/FS_workspace/004_UART_TXRX/freedom-metal/src/drivers/riscv_cpu.c:634

    val = ((unsigned long long)hi << 32) | lo;
20012e18:	fe442583          	lw	a1,-28(s0)
20012e1c:	882e                	mv	a6,a1
20012e1e:	4881                	li	a7,0
20012e20:	00081793          	slli	a5,a6,0x0
20012e24:	4701                	li	a4,0
20012e26:	fe042583          	lw	a1,-32(s0)
20012e2a:	862e                	mv	a2,a1
20012e2c:	4681                	li	a3,0
20012e2e:	00c765b3          	or	a1,a4,a2
20012e32:	feb42423          	sw	a1,-24(s0)
20012e36:	8fd5                	or	a5,a5,a3
20012e38:	fef42623          	sw	a5,-20(s0)
E:/GitHub/HiFive01-RevB/FS_workspace/004_UART_TXRX/freedom-metal/src/drivers/riscv_cpu.c:639
#else
    __asm__ volatile("csrr %0, mcycle" : "=r"(val));
#endif

    return val;
20012e3c:	fe842703          	lw	a4,-24(s0)
20012e40:	fec42783          	lw	a5,-20(s0)
E:/GitHub/HiFive01-RevB/FS_workspace/004_UART_TXRX/freedom-metal/src/drivers/riscv_cpu.c:640
}
20012e44:	853a                	mv	a0,a4
20012e46:	85be                	mv	a1,a5
20012e48:	5472                	lw	s0,60(sp)
20012e4a:	6121                	addi	sp,sp,64
20012e4c:	8082                	ret

20012e4e <__metal_driver_cpu_timebase_get>:
__metal_driver_cpu_timebase_get():
E:/GitHub/HiFive01-RevB/FS_workspace/004_UART_TXRX/freedom-metal/src/drivers/riscv_cpu.c:642

unsigned long long __metal_driver_cpu_timebase_get(struct metal_cpu *cpu) {
20012e4e:	7179                	addi	sp,sp,-48
20012e50:	d606                	sw	ra,44(sp)
20012e52:	d422                	sw	s0,40(sp)
20012e54:	d24a                	sw	s2,36(sp)
20012e56:	d04e                	sw	s3,32(sp)
20012e58:	1800                	addi	s0,sp,48
20012e5a:	fca42e23          	sw	a0,-36(s0)
E:/GitHub/HiFive01-RevB/FS_workspace/004_UART_TXRX/freedom-metal/src/drivers/riscv_cpu.c:644
    int timebase;
    if (!cpu) {
20012e5e:	fdc42783          	lw	a5,-36(s0)
20012e62:	e781                	bnez	a5,20012e6a <__metal_driver_cpu_timebase_get+0x1c>
E:/GitHub/HiFive01-RevB/FS_workspace/004_UART_TXRX/freedom-metal/src/drivers/riscv_cpu.c:645
        return 0;
20012e64:	4901                	li	s2,0
20012e66:	4981                	li	s3,0
20012e68:	a821                	j	20012e80 <__metal_driver_cpu_timebase_get+0x32>
E:/GitHub/HiFive01-RevB/FS_workspace/004_UART_TXRX/freedom-metal/src/drivers/riscv_cpu.c:648
    }

    timebase = __metal_driver_cpu_timebase((struct metal_cpu *)cpu);
20012e6a:	fdc42503          	lw	a0,-36(s0)
20012e6e:	98dfe0ef          	jal	ra,200117fa <__metal_driver_cpu_timebase>
20012e72:	fea42623          	sw	a0,-20(s0)
E:/GitHub/HiFive01-RevB/FS_workspace/004_UART_TXRX/freedom-metal/src/drivers/riscv_cpu.c:649
    return timebase;
20012e76:	fec42783          	lw	a5,-20(s0)
20012e7a:	893e                	mv	s2,a5
20012e7c:	87fd                	srai	a5,a5,0x1f
20012e7e:	89be                	mv	s3,a5
E:/GitHub/HiFive01-RevB/FS_workspace/004_UART_TXRX/freedom-metal/src/drivers/riscv_cpu.c:650
}
20012e80:	874a                	mv	a4,s2
20012e82:	87ce                	mv	a5,s3
20012e84:	853a                	mv	a0,a4
20012e86:	85be                	mv	a1,a5
20012e88:	50b2                	lw	ra,44(sp)
20012e8a:	5422                	lw	s0,40(sp)
20012e8c:	5912                	lw	s2,36(sp)
20012e8e:	5982                	lw	s3,32(sp)
20012e90:	6145                	addi	sp,sp,48
20012e92:	8082                	ret

20012e94 <__metal_driver_cpu_mtime_get>:
__metal_driver_cpu_mtime_get():
E:/GitHub/HiFive01-RevB/FS_workspace/004_UART_TXRX/freedom-metal/src/drivers/riscv_cpu.c:652

unsigned long long __metal_driver_cpu_mtime_get(struct metal_cpu *cpu) {
20012e94:	7179                	addi	sp,sp,-48
20012e96:	d606                	sw	ra,44(sp)
20012e98:	d422                	sw	s0,40(sp)
20012e9a:	1800                	addi	s0,sp,48
20012e9c:	fca42e23          	sw	a0,-36(s0)
E:/GitHub/HiFive01-RevB/FS_workspace/004_UART_TXRX/freedom-metal/src/drivers/riscv_cpu.c:653
    unsigned long long time = 0;
20012ea0:	4781                	li	a5,0
20012ea2:	4801                	li	a6,0
20012ea4:	fef42023          	sw	a5,-32(s0)
20012ea8:	ff042223          	sw	a6,-28(s0)
E:/GitHub/HiFive01-RevB/FS_workspace/004_UART_TXRX/freedom-metal/src/drivers/riscv_cpu.c:657
    struct metal_interrupt *tmr_intc;
    struct __metal_driver_riscv_cpu_intc *intc =
        (struct __metal_driver_riscv_cpu_intc *)
            __metal_driver_cpu_interrupt_controller(cpu);
20012eac:	fdc42503          	lw	a0,-36(s0)
20012eb0:	975fe0ef          	jal	ra,20011824 <__metal_driver_cpu_interrupt_controller>
20012eb4:	fea42623          	sw	a0,-20(s0)
E:/GitHub/HiFive01-RevB/FS_workspace/004_UART_TXRX/freedom-metal/src/drivers/riscv_cpu.c:659

    if (intc) {
20012eb8:	fec42783          	lw	a5,-20(s0)
20012ebc:	c78d                	beqz	a5,20012ee6 <__metal_driver_cpu_mtime_get+0x52>
E:/GitHub/HiFive01-RevB/FS_workspace/004_UART_TXRX/freedom-metal/src/drivers/riscv_cpu.c:660
        tmr_intc = intc->metal_int_table[METAL_INTERRUPT_ID_TMR].sub_int;
20012ebe:	fec42783          	lw	a5,-20(s0)
20012ec2:	13c7a783          	lw	a5,316(a5)
20012ec6:	fef42423          	sw	a5,-24(s0)
E:/GitHub/HiFive01-RevB/FS_workspace/004_UART_TXRX/freedom-metal/src/drivers/riscv_cpu.c:661
        if (tmr_intc) {
20012eca:	fe842783          	lw	a5,-24(s0)
20012ece:	cf81                	beqz	a5,20012ee6 <__metal_driver_cpu_mtime_get+0x52>
E:/GitHub/HiFive01-RevB/FS_workspace/004_UART_TXRX/freedom-metal/src/drivers/riscv_cpu.c:662
            tmr_intc->vtable->command_request(tmr_intc, METAL_TIMER_MTIME_GET,
20012ed0:	fe842783          	lw	a5,-24(s0)
20012ed4:	439c                	lw	a5,0(a5)
20012ed6:	47f8                	lw	a4,76(a5)
20012ed8:	fe040793          	addi	a5,s0,-32
20012edc:	863e                	mv	a2,a5
20012ede:	4585                	li	a1,1
20012ee0:	fe842503          	lw	a0,-24(s0)
20012ee4:	9702                	jalr	a4
E:/GitHub/HiFive01-RevB/FS_workspace/004_UART_TXRX/freedom-metal/src/drivers/riscv_cpu.c:666
                                              &time);
        }
    }
    return time;
20012ee6:	fe042703          	lw	a4,-32(s0)
20012eea:	fe442783          	lw	a5,-28(s0)
E:/GitHub/HiFive01-RevB/FS_workspace/004_UART_TXRX/freedom-metal/src/drivers/riscv_cpu.c:667
}
20012eee:	853a                	mv	a0,a4
20012ef0:	85be                	mv	a1,a5
20012ef2:	50b2                	lw	ra,44(sp)
20012ef4:	5422                	lw	s0,40(sp)
20012ef6:	6145                	addi	sp,sp,48
20012ef8:	8082                	ret

20012efa <__metal_driver_cpu_mtimecmp_set>:
__metal_driver_cpu_mtimecmp_set():
E:/GitHub/HiFive01-RevB/FS_workspace/004_UART_TXRX/freedom-metal/src/drivers/riscv_cpu.c:670

int __metal_driver_cpu_mtimecmp_set(struct metal_cpu *cpu,
                                    unsigned long long time) {
20012efa:	7179                	addi	sp,sp,-48
20012efc:	d606                	sw	ra,44(sp)
20012efe:	d422                	sw	s0,40(sp)
20012f00:	d226                	sw	s1,36(sp)
20012f02:	1800                	addi	s0,sp,48
20012f04:	fca42e23          	sw	a0,-36(s0)
20012f08:	fcb42823          	sw	a1,-48(s0)
20012f0c:	fcc42a23          	sw	a2,-44(s0)
E:/GitHub/HiFive01-RevB/FS_workspace/004_UART_TXRX/freedom-metal/src/drivers/riscv_cpu.c:671
    int rc = -1;
20012f10:	57fd                	li	a5,-1
20012f12:	fef42623          	sw	a5,-20(s0)
E:/GitHub/HiFive01-RevB/FS_workspace/004_UART_TXRX/freedom-metal/src/drivers/riscv_cpu.c:675
    struct metal_interrupt *tmr_intc;
    struct __metal_driver_riscv_cpu_intc *intc =
        (struct __metal_driver_riscv_cpu_intc *)
            __metal_driver_cpu_interrupt_controller(cpu);
20012f16:	fdc42503          	lw	a0,-36(s0)
20012f1a:	90bfe0ef          	jal	ra,20011824 <__metal_driver_cpu_interrupt_controller>
20012f1e:	fea42423          	sw	a0,-24(s0)
E:/GitHub/HiFive01-RevB/FS_workspace/004_UART_TXRX/freedom-metal/src/drivers/riscv_cpu.c:677

    if (intc) {
20012f22:	fe842783          	lw	a5,-24(s0)
20012f26:	cf8d                	beqz	a5,20012f60 <__metal_driver_cpu_mtimecmp_set+0x66>
E:/GitHub/HiFive01-RevB/FS_workspace/004_UART_TXRX/freedom-metal/src/drivers/riscv_cpu.c:678
        tmr_intc = intc->metal_int_table[METAL_INTERRUPT_ID_TMR].sub_int;
20012f28:	fe842783          	lw	a5,-24(s0)
20012f2c:	13c7a783          	lw	a5,316(a5)
20012f30:	fef42223          	sw	a5,-28(s0)
E:/GitHub/HiFive01-RevB/FS_workspace/004_UART_TXRX/freedom-metal/src/drivers/riscv_cpu.c:679
        if (tmr_intc) {
20012f34:	fe442783          	lw	a5,-28(s0)
20012f38:	c785                	beqz	a5,20012f60 <__metal_driver_cpu_mtimecmp_set+0x66>
E:/GitHub/HiFive01-RevB/FS_workspace/004_UART_TXRX/freedom-metal/src/drivers/riscv_cpu.c:680
            rc = tmr_intc->vtable->mtimecmp_set(
20012f3a:	fe442783          	lw	a5,-28(s0)
20012f3e:	439c                	lw	a5,0(a5)
20012f40:	4ba4                	lw	s1,80(a5)
20012f42:	fdc42503          	lw	a0,-36(s0)
20012f46:	891fe0ef          	jal	ra,200117d6 <__metal_driver_cpu_hartid>
20012f4a:	87aa                	mv	a5,a0
20012f4c:	fd042603          	lw	a2,-48(s0)
20012f50:	fd442683          	lw	a3,-44(s0)
20012f54:	85be                	mv	a1,a5
20012f56:	fe442503          	lw	a0,-28(s0)
20012f5a:	9482                	jalr	s1
20012f5c:	fea42623          	sw	a0,-20(s0)
E:/GitHub/HiFive01-RevB/FS_workspace/004_UART_TXRX/freedom-metal/src/drivers/riscv_cpu.c:684
                tmr_intc, __metal_driver_cpu_hartid(cpu), time);
        }
    }
    return rc;
20012f60:	fec42783          	lw	a5,-20(s0)
E:/GitHub/HiFive01-RevB/FS_workspace/004_UART_TXRX/freedom-metal/src/drivers/riscv_cpu.c:685
}
20012f64:	853e                	mv	a0,a5
20012f66:	50b2                	lw	ra,44(sp)
20012f68:	5422                	lw	s0,40(sp)
20012f6a:	5492                	lw	s1,36(sp)
20012f6c:	6145                	addi	sp,sp,48
20012f6e:	8082                	ret

20012f70 <__metal_driver_cpu_timer_controller_interrupt>:
__metal_driver_cpu_timer_controller_interrupt():
E:/GitHub/HiFive01-RevB/FS_workspace/004_UART_TXRX/freedom-metal/src/drivers/riscv_cpu.c:688

struct metal_interrupt *
__metal_driver_cpu_timer_controller_interrupt(struct metal_cpu *cpu) {
20012f70:	1101                	addi	sp,sp,-32
20012f72:	ce22                	sw	s0,28(sp)
20012f74:	1000                	addi	s0,sp,32
20012f76:	fea42623          	sw	a0,-20(s0)
E:/GitHub/HiFive01-RevB/FS_workspace/004_UART_TXRX/freedom-metal/src/drivers/riscv_cpu.c:690
#ifdef __METAL_DT_RISCV_CLINT0_HANDLE
    return __METAL_DT_RISCV_CLINT0_HANDLE;
20012f7a:	800017b7          	lui	a5,0x80001
20012f7e:	abc78793          	addi	a5,a5,-1348 # 80000abc <__global_pointer$+0xfffff80c>
E:/GitHub/HiFive01-RevB/FS_workspace/004_UART_TXRX/freedom-metal/src/drivers/riscv_cpu.c:699
#else
#pragma message("There is no interrupt controller for Timer interrupt")
    return NULL;
#endif
#endif
}
20012f82:	853e                	mv	a0,a5
20012f84:	4472                	lw	s0,28(sp)
20012f86:	6105                	addi	sp,sp,32
20012f88:	8082                	ret

20012f8a <__metal_driver_cpu_get_timer_interrupt_id>:
__metal_driver_cpu_get_timer_interrupt_id():
E:/GitHub/HiFive01-RevB/FS_workspace/004_UART_TXRX/freedom-metal/src/drivers/riscv_cpu.c:701

int __metal_driver_cpu_get_timer_interrupt_id(struct metal_cpu *cpu) {
20012f8a:	1101                	addi	sp,sp,-32
20012f8c:	ce22                	sw	s0,28(sp)
20012f8e:	1000                	addi	s0,sp,32
20012f90:	fea42623          	sw	a0,-20(s0)
E:/GitHub/HiFive01-RevB/FS_workspace/004_UART_TXRX/freedom-metal/src/drivers/riscv_cpu.c:702
    return METAL_INTERRUPT_ID_TMR;
20012f94:	479d                	li	a5,7
E:/GitHub/HiFive01-RevB/FS_workspace/004_UART_TXRX/freedom-metal/src/drivers/riscv_cpu.c:703
}
20012f96:	853e                	mv	a0,a5
20012f98:	4472                	lw	s0,28(sp)
20012f9a:	6105                	addi	sp,sp,32
20012f9c:	8082                	ret

20012f9e <__metal_driver_cpu_sw_controller_interrupt>:
__metal_driver_cpu_sw_controller_interrupt():
E:/GitHub/HiFive01-RevB/FS_workspace/004_UART_TXRX/freedom-metal/src/drivers/riscv_cpu.c:706

struct metal_interrupt *
__metal_driver_cpu_sw_controller_interrupt(struct metal_cpu *cpu) {
20012f9e:	1101                	addi	sp,sp,-32
20012fa0:	ce22                	sw	s0,28(sp)
20012fa2:	1000                	addi	s0,sp,32
20012fa4:	fea42623          	sw	a0,-20(s0)
E:/GitHub/HiFive01-RevB/FS_workspace/004_UART_TXRX/freedom-metal/src/drivers/riscv_cpu.c:708
#ifdef __METAL_DT_RISCV_CLINT0_HANDLE
    return __METAL_DT_RISCV_CLINT0_HANDLE;
20012fa8:	800017b7          	lui	a5,0x80001
20012fac:	abc78793          	addi	a5,a5,-1348 # 80000abc <__global_pointer$+0xfffff80c>
E:/GitHub/HiFive01-RevB/FS_workspace/004_UART_TXRX/freedom-metal/src/drivers/riscv_cpu.c:717
#else
#pragma message("There is no interrupt controller for Software interrupt")
    return NULL;
#endif
#endif
}
20012fb0:	853e                	mv	a0,a5
20012fb2:	4472                	lw	s0,28(sp)
20012fb4:	6105                	addi	sp,sp,32
20012fb6:	8082                	ret

20012fb8 <__metal_driver_cpu_get_sw_interrupt_id>:
__metal_driver_cpu_get_sw_interrupt_id():
E:/GitHub/HiFive01-RevB/FS_workspace/004_UART_TXRX/freedom-metal/src/drivers/riscv_cpu.c:719

int __metal_driver_cpu_get_sw_interrupt_id(struct metal_cpu *cpu) {
20012fb8:	1101                	addi	sp,sp,-32
20012fba:	ce22                	sw	s0,28(sp)
20012fbc:	1000                	addi	s0,sp,32
20012fbe:	fea42623          	sw	a0,-20(s0)
E:/GitHub/HiFive01-RevB/FS_workspace/004_UART_TXRX/freedom-metal/src/drivers/riscv_cpu.c:720
    return METAL_INTERRUPT_ID_SW;
20012fc2:	478d                	li	a5,3
E:/GitHub/HiFive01-RevB/FS_workspace/004_UART_TXRX/freedom-metal/src/drivers/riscv_cpu.c:721
}
20012fc4:	853e                	mv	a0,a5
20012fc6:	4472                	lw	s0,28(sp)
20012fc8:	6105                	addi	sp,sp,32
20012fca:	8082                	ret

20012fcc <__metal_driver_cpu_set_sw_ipi>:
__metal_driver_cpu_set_sw_ipi():
E:/GitHub/HiFive01-RevB/FS_workspace/004_UART_TXRX/freedom-metal/src/drivers/riscv_cpu.c:723

int __metal_driver_cpu_set_sw_ipi(struct metal_cpu *cpu, int hartid) {
20012fcc:	7179                	addi	sp,sp,-48
20012fce:	d606                	sw	ra,44(sp)
20012fd0:	d422                	sw	s0,40(sp)
20012fd2:	1800                	addi	s0,sp,48
20012fd4:	fca42e23          	sw	a0,-36(s0)
20012fd8:	fcb42c23          	sw	a1,-40(s0)
E:/GitHub/HiFive01-RevB/FS_workspace/004_UART_TXRX/freedom-metal/src/drivers/riscv_cpu.c:724
    int rc = -1;
20012fdc:	57fd                	li	a5,-1
20012fde:	fef42623          	sw	a5,-20(s0)
E:/GitHub/HiFive01-RevB/FS_workspace/004_UART_TXRX/freedom-metal/src/drivers/riscv_cpu.c:728
    struct metal_interrupt *sw_intc;
    struct __metal_driver_riscv_cpu_intc *intc =
        (struct __metal_driver_riscv_cpu_intc *)
            __metal_driver_cpu_interrupt_controller(cpu);
20012fe2:	fdc42503          	lw	a0,-36(s0)
20012fe6:	83ffe0ef          	jal	ra,20011824 <__metal_driver_cpu_interrupt_controller>
20012fea:	fea42423          	sw	a0,-24(s0)
E:/GitHub/HiFive01-RevB/FS_workspace/004_UART_TXRX/freedom-metal/src/drivers/riscv_cpu.c:730

    if (intc) {
20012fee:	fe842783          	lw	a5,-24(s0)
20012ff2:	c79d                	beqz	a5,20013020 <__metal_driver_cpu_set_sw_ipi+0x54>
E:/GitHub/HiFive01-RevB/FS_workspace/004_UART_TXRX/freedom-metal/src/drivers/riscv_cpu.c:731
        sw_intc = intc->metal_int_table[METAL_INTERRUPT_ID_SW].sub_int;
20012ff4:	fe842783          	lw	a5,-24(s0)
20012ff8:	0dc7a783          	lw	a5,220(a5)
20012ffc:	fef42223          	sw	a5,-28(s0)
E:/GitHub/HiFive01-RevB/FS_workspace/004_UART_TXRX/freedom-metal/src/drivers/riscv_cpu.c:732
        if (sw_intc) {
20013000:	fe442783          	lw	a5,-28(s0)
20013004:	cf91                	beqz	a5,20013020 <__metal_driver_cpu_set_sw_ipi+0x54>
E:/GitHub/HiFive01-RevB/FS_workspace/004_UART_TXRX/freedom-metal/src/drivers/riscv_cpu.c:733
            rc = sw_intc->vtable->command_request(
20013006:	fe442783          	lw	a5,-28(s0)
2001300a:	439c                	lw	a5,0(a5)
2001300c:	47f8                	lw	a4,76(a5)
2001300e:	fd840793          	addi	a5,s0,-40
20013012:	863e                	mv	a2,a5
20013014:	458d                	li	a1,3
20013016:	fe442503          	lw	a0,-28(s0)
2001301a:	9702                	jalr	a4
2001301c:	fea42623          	sw	a0,-20(s0)
E:/GitHub/HiFive01-RevB/FS_workspace/004_UART_TXRX/freedom-metal/src/drivers/riscv_cpu.c:737
                sw_intc, METAL_SOFTWARE_IPI_SET, &hartid);
        }
    }
    return rc;
20013020:	fec42783          	lw	a5,-20(s0)
E:/GitHub/HiFive01-RevB/FS_workspace/004_UART_TXRX/freedom-metal/src/drivers/riscv_cpu.c:738
}
20013024:	853e                	mv	a0,a5
20013026:	50b2                	lw	ra,44(sp)
20013028:	5422                	lw	s0,40(sp)
2001302a:	6145                	addi	sp,sp,48
2001302c:	8082                	ret

2001302e <__metal_driver_cpu_clear_sw_ipi>:
__metal_driver_cpu_clear_sw_ipi():
E:/GitHub/HiFive01-RevB/FS_workspace/004_UART_TXRX/freedom-metal/src/drivers/riscv_cpu.c:740

int __metal_driver_cpu_clear_sw_ipi(struct metal_cpu *cpu, int hartid) {
2001302e:	7179                	addi	sp,sp,-48
20013030:	d606                	sw	ra,44(sp)
20013032:	d422                	sw	s0,40(sp)
20013034:	1800                	addi	s0,sp,48
20013036:	fca42e23          	sw	a0,-36(s0)
2001303a:	fcb42c23          	sw	a1,-40(s0)
E:/GitHub/HiFive01-RevB/FS_workspace/004_UART_TXRX/freedom-metal/src/drivers/riscv_cpu.c:741
    int rc = -1;
2001303e:	57fd                	li	a5,-1
20013040:	fef42623          	sw	a5,-20(s0)
E:/GitHub/HiFive01-RevB/FS_workspace/004_UART_TXRX/freedom-metal/src/drivers/riscv_cpu.c:745
    struct metal_interrupt *sw_intc;
    struct __metal_driver_riscv_cpu_intc *intc =
        (struct __metal_driver_riscv_cpu_intc *)
            __metal_driver_cpu_interrupt_controller(cpu);
20013044:	fdc42503          	lw	a0,-36(s0)
20013048:	fdcfe0ef          	jal	ra,20011824 <__metal_driver_cpu_interrupt_controller>
2001304c:	fea42423          	sw	a0,-24(s0)
E:/GitHub/HiFive01-RevB/FS_workspace/004_UART_TXRX/freedom-metal/src/drivers/riscv_cpu.c:747

    if (intc) {
20013050:	fe842783          	lw	a5,-24(s0)
20013054:	c79d                	beqz	a5,20013082 <__metal_driver_cpu_clear_sw_ipi+0x54>
E:/GitHub/HiFive01-RevB/FS_workspace/004_UART_TXRX/freedom-metal/src/drivers/riscv_cpu.c:748
        sw_intc = intc->metal_int_table[METAL_INTERRUPT_ID_SW].sub_int;
20013056:	fe842783          	lw	a5,-24(s0)
2001305a:	0dc7a783          	lw	a5,220(a5)
2001305e:	fef42223          	sw	a5,-28(s0)
E:/GitHub/HiFive01-RevB/FS_workspace/004_UART_TXRX/freedom-metal/src/drivers/riscv_cpu.c:749
        if (sw_intc) {
20013062:	fe442783          	lw	a5,-28(s0)
20013066:	cf91                	beqz	a5,20013082 <__metal_driver_cpu_clear_sw_ipi+0x54>
E:/GitHub/HiFive01-RevB/FS_workspace/004_UART_TXRX/freedom-metal/src/drivers/riscv_cpu.c:750
            rc = sw_intc->vtable->command_request(
20013068:	fe442783          	lw	a5,-28(s0)
2001306c:	439c                	lw	a5,0(a5)
2001306e:	47f8                	lw	a4,76(a5)
20013070:	fd840793          	addi	a5,s0,-40
20013074:	863e                	mv	a2,a5
20013076:	4589                	li	a1,2
20013078:	fe442503          	lw	a0,-28(s0)
2001307c:	9702                	jalr	a4
2001307e:	fea42623          	sw	a0,-20(s0)
E:/GitHub/HiFive01-RevB/FS_workspace/004_UART_TXRX/freedom-metal/src/drivers/riscv_cpu.c:754
                sw_intc, METAL_SOFTWARE_IPI_CLEAR, &hartid);
        }
    }
    return rc;
20013082:	fec42783          	lw	a5,-20(s0)
E:/GitHub/HiFive01-RevB/FS_workspace/004_UART_TXRX/freedom-metal/src/drivers/riscv_cpu.c:755
}
20013086:	853e                	mv	a0,a5
20013088:	50b2                	lw	ra,44(sp)
2001308a:	5422                	lw	s0,40(sp)
2001308c:	6145                	addi	sp,sp,48
2001308e:	8082                	ret

20013090 <__metal_driver_cpu_get_msip>:
__metal_driver_cpu_get_msip():
E:/GitHub/HiFive01-RevB/FS_workspace/004_UART_TXRX/freedom-metal/src/drivers/riscv_cpu.c:757

int __metal_driver_cpu_get_msip(struct metal_cpu *cpu, int hartid) {
20013090:	7179                	addi	sp,sp,-48
20013092:	d606                	sw	ra,44(sp)
20013094:	d422                	sw	s0,40(sp)
20013096:	1800                	addi	s0,sp,48
20013098:	fca42e23          	sw	a0,-36(s0)
2001309c:	fcb42c23          	sw	a1,-40(s0)
E:/GitHub/HiFive01-RevB/FS_workspace/004_UART_TXRX/freedom-metal/src/drivers/riscv_cpu.c:758
    int rc = 0;
200130a0:	fe042623          	sw	zero,-20(s0)
E:/GitHub/HiFive01-RevB/FS_workspace/004_UART_TXRX/freedom-metal/src/drivers/riscv_cpu.c:762
    struct metal_interrupt *sw_intc;
    struct __metal_driver_riscv_cpu_intc *intc =
        (struct __metal_driver_riscv_cpu_intc *)
            __metal_driver_cpu_interrupt_controller(cpu);
200130a4:	fdc42503          	lw	a0,-36(s0)
200130a8:	f7cfe0ef          	jal	ra,20011824 <__metal_driver_cpu_interrupt_controller>
200130ac:	fea42423          	sw	a0,-24(s0)
E:/GitHub/HiFive01-RevB/FS_workspace/004_UART_TXRX/freedom-metal/src/drivers/riscv_cpu.c:764

    if (intc) {
200130b0:	fe842783          	lw	a5,-24(s0)
200130b4:	c79d                	beqz	a5,200130e2 <__metal_driver_cpu_get_msip+0x52>
E:/GitHub/HiFive01-RevB/FS_workspace/004_UART_TXRX/freedom-metal/src/drivers/riscv_cpu.c:765
        sw_intc = intc->metal_int_table[METAL_INTERRUPT_ID_SW].sub_int;
200130b6:	fe842783          	lw	a5,-24(s0)
200130ba:	0dc7a783          	lw	a5,220(a5)
200130be:	fef42223          	sw	a5,-28(s0)
E:/GitHub/HiFive01-RevB/FS_workspace/004_UART_TXRX/freedom-metal/src/drivers/riscv_cpu.c:766
        if (sw_intc) {
200130c2:	fe442783          	lw	a5,-28(s0)
200130c6:	cf91                	beqz	a5,200130e2 <__metal_driver_cpu_get_msip+0x52>
E:/GitHub/HiFive01-RevB/FS_workspace/004_UART_TXRX/freedom-metal/src/drivers/riscv_cpu.c:767
            rc = sw_intc->vtable->command_request(
200130c8:	fe442783          	lw	a5,-28(s0)
200130cc:	439c                	lw	a5,0(a5)
200130ce:	47f8                	lw	a4,76(a5)
200130d0:	fd840793          	addi	a5,s0,-40
200130d4:	863e                	mv	a2,a5
200130d6:	4591                	li	a1,4
200130d8:	fe442503          	lw	a0,-28(s0)
200130dc:	9702                	jalr	a4
200130de:	fea42623          	sw	a0,-20(s0)
E:/GitHub/HiFive01-RevB/FS_workspace/004_UART_TXRX/freedom-metal/src/drivers/riscv_cpu.c:771
                sw_intc, METAL_SOFTWARE_MSIP_GET, &hartid);
        }
    }
    return rc;
200130e2:	fec42783          	lw	a5,-20(s0)
E:/GitHub/HiFive01-RevB/FS_workspace/004_UART_TXRX/freedom-metal/src/drivers/riscv_cpu.c:772
}
200130e6:	853e                	mv	a0,a5
200130e8:	50b2                	lw	ra,44(sp)
200130ea:	5422                	lw	s0,40(sp)
200130ec:	6145                	addi	sp,sp,48
200130ee:	8082                	ret

200130f0 <__metal_driver_cpu_controller_interrupt>:
__metal_driver_cpu_controller_interrupt():
E:/GitHub/HiFive01-RevB/FS_workspace/004_UART_TXRX/freedom-metal/src/drivers/riscv_cpu.c:775

struct metal_interrupt *
__metal_driver_cpu_controller_interrupt(struct metal_cpu *cpu) {
200130f0:	1101                	addi	sp,sp,-32
200130f2:	ce06                	sw	ra,28(sp)
200130f4:	cc22                	sw	s0,24(sp)
200130f6:	1000                	addi	s0,sp,32
200130f8:	fea42623          	sw	a0,-20(s0)
E:/GitHub/HiFive01-RevB/FS_workspace/004_UART_TXRX/freedom-metal/src/drivers/riscv_cpu.c:776
    return __metal_driver_cpu_interrupt_controller(cpu);
200130fc:	fec42503          	lw	a0,-20(s0)
20013100:	f24fe0ef          	jal	ra,20011824 <__metal_driver_cpu_interrupt_controller>
20013104:	87aa                	mv	a5,a0
E:/GitHub/HiFive01-RevB/FS_workspace/004_UART_TXRX/freedom-metal/src/drivers/riscv_cpu.c:777
}
20013106:	853e                	mv	a0,a5
20013108:	40f2                	lw	ra,28(sp)
2001310a:	4462                	lw	s0,24(sp)
2001310c:	6105                	addi	sp,sp,32
2001310e:	8082                	ret

20013110 <__metal_driver_cpu_exception_register>:
__metal_driver_cpu_exception_register():
E:/GitHub/HiFive01-RevB/FS_workspace/004_UART_TXRX/freedom-metal/src/drivers/riscv_cpu.c:798
    }
    return -1;
}

int __metal_driver_cpu_exception_register(struct metal_cpu *cpu, int ecode,
                                          metal_exception_handler_t isr) {
20013110:	7179                	addi	sp,sp,-48
20013112:	d606                	sw	ra,44(sp)
20013114:	d422                	sw	s0,40(sp)
20013116:	1800                	addi	s0,sp,48
20013118:	fca42e23          	sw	a0,-36(s0)
2001311c:	fcb42c23          	sw	a1,-40(s0)
20013120:	fcc42a23          	sw	a2,-44(s0)
E:/GitHub/HiFive01-RevB/FS_workspace/004_UART_TXRX/freedom-metal/src/drivers/riscv_cpu.c:801
    struct __metal_driver_riscv_cpu_intc *intc =
        (struct __metal_driver_riscv_cpu_intc *)
            __metal_driver_cpu_interrupt_controller(cpu);
20013124:	fdc42503          	lw	a0,-36(s0)
20013128:	efcfe0ef          	jal	ra,20011824 <__metal_driver_cpu_interrupt_controller>
2001312c:	fea42623          	sw	a0,-20(s0)
E:/GitHub/HiFive01-RevB/FS_workspace/004_UART_TXRX/freedom-metal/src/drivers/riscv_cpu.c:803

    if (intc) {
20013130:	fec42783          	lw	a5,-20(s0)
20013134:	cb99                	beqz	a5,2001314a <__metal_driver_cpu_exception_register+0x3a>
E:/GitHub/HiFive01-RevB/FS_workspace/004_UART_TXRX/freedom-metal/src/drivers/riscv_cpu.c:804
        return __metal_exception_register((struct metal_interrupt *)intc, ecode,
20013136:	fd442603          	lw	a2,-44(s0)
2001313a:	fd842583          	lw	a1,-40(s0)
2001313e:	fec42503          	lw	a0,-20(s0)
20013142:	8b3ff0ef          	jal	ra,200129f4 <__metal_exception_register>
20013146:	87aa                	mv	a5,a0
20013148:	a011                	j	2001314c <__metal_driver_cpu_exception_register+0x3c>
E:/GitHub/HiFive01-RevB/FS_workspace/004_UART_TXRX/freedom-metal/src/drivers/riscv_cpu.c:807
                                          isr);
    }
    return -1;
2001314a:	57fd                	li	a5,-1
E:/GitHub/HiFive01-RevB/FS_workspace/004_UART_TXRX/freedom-metal/src/drivers/riscv_cpu.c:808
}
2001314c:	853e                	mv	a0,a5
2001314e:	50b2                	lw	ra,44(sp)
20013150:	5422                	lw	s0,40(sp)
20013152:	6145                	addi	sp,sp,48
20013154:	8082                	ret

20013156 <__metal_driver_cpu_get_instruction_length>:
__metal_driver_cpu_get_instruction_length():
E:/GitHub/HiFive01-RevB/FS_workspace/004_UART_TXRX/freedom-metal/src/drivers/riscv_cpu.c:811

int __metal_driver_cpu_get_instruction_length(struct metal_cpu *cpu,
                                              uintptr_t epc) {
20013156:	1101                	addi	sp,sp,-32
20013158:	ce22                	sw	s0,28(sp)
2001315a:	1000                	addi	s0,sp,32
2001315c:	fea42623          	sw	a0,-20(s0)
20013160:	feb42423          	sw	a1,-24(s0)
E:/GitHub/HiFive01-RevB/FS_workspace/004_UART_TXRX/freedom-metal/src/drivers/riscv_cpu.c:817
    /**
     * Per ISA compressed instruction has last two bits of opcode set.
     * The encoding '00' '01' '10' are used for compressed instruction.
     * Only enconding '11' isn't regarded as compressed instruction (>16b).
     */
    return ((*(unsigned short *)epc & METAL_INSN_LENGTH_MASK) ==
20013164:	fe842783          	lw	a5,-24(s0)
20013168:	0007d783          	lhu	a5,0(a5)
2001316c:	0037f713          	andi	a4,a5,3
E:/GitHub/HiFive01-RevB/FS_workspace/004_UART_TXRX/freedom-metal/src/drivers/riscv_cpu.c:820
            METAL_INSN_NOT_COMPRESSED)
               ? 4
               : 2;
20013170:	478d                	li	a5,3
20013172:	00f71463          	bne	a4,a5,2001317a <__metal_driver_cpu_get_instruction_length+0x24>
E:/GitHub/HiFive01-RevB/FS_workspace/004_UART_TXRX/freedom-metal/src/drivers/riscv_cpu.c:820 (discriminator 1)
20013176:	4791                	li	a5,4
20013178:	a011                	j	2001317c <__metal_driver_cpu_get_instruction_length+0x26>
E:/GitHub/HiFive01-RevB/FS_workspace/004_UART_TXRX/freedom-metal/src/drivers/riscv_cpu.c:820 (discriminator 2)
2001317a:	4789                	li	a5,2
E:/GitHub/HiFive01-RevB/FS_workspace/004_UART_TXRX/freedom-metal/src/drivers/riscv_cpu.c:821 (discriminator 5)
}
2001317c:	853e                	mv	a0,a5
2001317e:	4472                	lw	s0,28(sp)
20013180:	6105                	addi	sp,sp,32
20013182:	8082                	ret

20013184 <__metal_driver_cpu_get_exception_pc>:
__metal_driver_cpu_get_exception_pc():
E:/GitHub/HiFive01-RevB/FS_workspace/004_UART_TXRX/freedom-metal/src/drivers/riscv_cpu.c:823

uintptr_t __metal_driver_cpu_get_exception_pc(struct metal_cpu *cpu) {
20013184:	7179                	addi	sp,sp,-48
20013186:	d622                	sw	s0,44(sp)
20013188:	1800                	addi	s0,sp,48
2001318a:	fca42e23          	sw	a0,-36(s0)
E:/GitHub/HiFive01-RevB/FS_workspace/004_UART_TXRX/freedom-metal/src/drivers/riscv_cpu.c:825
    uintptr_t mepc;
    __asm__ volatile("csrr %0, mepc" : "=r"(mepc));
2001318e:	341027f3          	csrr	a5,mepc
20013192:	fef42623          	sw	a5,-20(s0)
E:/GitHub/HiFive01-RevB/FS_workspace/004_UART_TXRX/freedom-metal/src/drivers/riscv_cpu.c:826
    return mepc;
20013196:	fec42783          	lw	a5,-20(s0)
E:/GitHub/HiFive01-RevB/FS_workspace/004_UART_TXRX/freedom-metal/src/drivers/riscv_cpu.c:827
}
2001319a:	853e                	mv	a0,a5
2001319c:	5432                	lw	s0,44(sp)
2001319e:	6145                	addi	sp,sp,48
200131a0:	8082                	ret

200131a2 <__metal_driver_cpu_set_exception_pc>:
__metal_driver_cpu_set_exception_pc():
E:/GitHub/HiFive01-RevB/FS_workspace/004_UART_TXRX/freedom-metal/src/drivers/riscv_cpu.c:829

int __metal_driver_cpu_set_exception_pc(struct metal_cpu *cpu, uintptr_t mepc) {
200131a2:	1101                	addi	sp,sp,-32
200131a4:	ce22                	sw	s0,28(sp)
200131a6:	1000                	addi	s0,sp,32
200131a8:	fea42623          	sw	a0,-20(s0)
200131ac:	feb42423          	sw	a1,-24(s0)
E:/GitHub/HiFive01-RevB/FS_workspace/004_UART_TXRX/freedom-metal/src/drivers/riscv_cpu.c:830
    __asm__ volatile("csrw mepc, %0" ::"r"(mepc));
200131b0:	fe842783          	lw	a5,-24(s0)
200131b4:	34179073          	csrw	mepc,a5
E:/GitHub/HiFive01-RevB/FS_workspace/004_UART_TXRX/freedom-metal/src/drivers/riscv_cpu.c:831
    return 0;
200131b8:	4781                	li	a5,0
E:/GitHub/HiFive01-RevB/FS_workspace/004_UART_TXRX/freedom-metal/src/drivers/riscv_cpu.c:832
}
200131ba:	853e                	mv	a0,a5
200131bc:	4472                	lw	s0,28(sp)
200131be:	6105                	addi	sp,sp,32
200131c0:	8082                	ret

200131c2 <__metal_driver_cpu_get_buserror>:
__metal_driver_cpu_get_buserror():
E:/GitHub/HiFive01-RevB/FS_workspace/004_UART_TXRX/freedom-metal/src/drivers/riscv_cpu.c:834

struct metal_buserror *__metal_driver_cpu_get_buserror(struct metal_cpu *cpu) {
200131c2:	1101                	addi	sp,sp,-32
200131c4:	ce06                	sw	ra,28(sp)
200131c6:	cc22                	sw	s0,24(sp)
200131c8:	1000                	addi	s0,sp,32
200131ca:	fea42623          	sw	a0,-20(s0)
E:/GitHub/HiFive01-RevB/FS_workspace/004_UART_TXRX/freedom-metal/src/drivers/riscv_cpu.c:835
    return __metal_driver_cpu_buserror(cpu);
200131ce:	fec42503          	lw	a0,-20(s0)
200131d2:	e7cfe0ef          	jal	ra,2001184e <__metal_driver_cpu_buserror>
200131d6:	87aa                	mv	a5,a0
E:/GitHub/HiFive01-RevB/FS_workspace/004_UART_TXRX/freedom-metal/src/drivers/riscv_cpu.c:836
}
200131d8:	853e                	mv	a0,a5
200131da:	40f2                	lw	ra,28(sp)
200131dc:	4462                	lw	s0,24(sp)
200131de:	6105                	addi	sp,sp,32
200131e0:	8082                	ret

200131e2 <__metal_driver_sifive_plic0_control_base>:
__metal_driver_sifive_plic0_control_base():
E:\GitHub\HiFive01-RevB\FS_workspace\004_UART_TXRX\bsp\build\debug/./metal/machine.h:345



/* --------------------- sifive_plic0 ------------ */
static __inline__ unsigned long __metal_driver_sifive_plic0_control_base(struct metal_interrupt *controller)
{
200131e2:	1101                	addi	sp,sp,-32
200131e4:	ce22                	sw	s0,28(sp)
200131e6:	1000                	addi	s0,sp,32
200131e8:	fea42623          	sw	a0,-20(s0)
E:\GitHub\HiFive01-RevB\FS_workspace\004_UART_TXRX\bsp\build\debug/./metal/machine.h:346
	if ((uintptr_t)controller == (uintptr_t)&__metal_dt_interrupt_controller_c000000) {
200131ec:	fec42703          	lw	a4,-20(s0)
200131f0:	800007b7          	lui	a5,0x80000
200131f4:	41078793          	addi	a5,a5,1040 # 80000410 <__global_pointer$+0xfffff160>
200131f8:	00f71563          	bne	a4,a5,20013202 <__metal_driver_sifive_plic0_control_base+0x20>
E:\GitHub\HiFive01-RevB\FS_workspace\004_UART_TXRX\bsp\build\debug/./metal/machine.h:347
		return METAL_RISCV_PLIC0_C000000_BASE_ADDRESS;
200131fc:	0c0007b7          	lui	a5,0xc000
20013200:	a011                	j	20013204 <__metal_driver_sifive_plic0_control_base+0x22>
E:\GitHub\HiFive01-RevB\FS_workspace\004_UART_TXRX\bsp\build\debug/./metal/machine.h:350
	}
	else {
		return 0;
20013202:	4781                	li	a5,0
E:\GitHub\HiFive01-RevB\FS_workspace\004_UART_TXRX\bsp\build\debug/./metal/machine.h:352
	}
}
20013204:	853e                	mv	a0,a5
20013206:	4472                	lw	s0,28(sp)
20013208:	6105                	addi	sp,sp,32
2001320a:	8082                	ret

2001320c <__metal_driver_sifive_plic0_num_interrupts>:
__metal_driver_sifive_plic0_num_interrupts():
E:\GitHub\HiFive01-RevB\FS_workspace\004_UART_TXRX\bsp\build\debug/./metal/machine.h:365
		return 0;
	}
}

static __inline__ int __metal_driver_sifive_plic0_num_interrupts(struct metal_interrupt *controller)
{
2001320c:	1101                	addi	sp,sp,-32
2001320e:	ce22                	sw	s0,28(sp)
20013210:	1000                	addi	s0,sp,32
20013212:	fea42623          	sw	a0,-20(s0)
E:\GitHub\HiFive01-RevB\FS_workspace\004_UART_TXRX\bsp\build\debug/./metal/machine.h:366
	if ((uintptr_t)controller == (uintptr_t)&__metal_dt_interrupt_controller_c000000) {
20013216:	fec42703          	lw	a4,-20(s0)
2001321a:	800007b7          	lui	a5,0x80000
2001321e:	41078793          	addi	a5,a5,1040 # 80000410 <__global_pointer$+0xfffff160>
20013222:	00f71563          	bne	a4,a5,2001322c <__metal_driver_sifive_plic0_num_interrupts+0x20>
E:\GitHub\HiFive01-RevB\FS_workspace\004_UART_TXRX\bsp\build\debug/./metal/machine.h:367
		return METAL_RISCV_PLIC0_C000000_RISCV_NDEV;
20013226:	03500793          	li	a5,53
2001322a:	a011                	j	2001322e <__metal_driver_sifive_plic0_num_interrupts+0x22>
E:\GitHub\HiFive01-RevB\FS_workspace\004_UART_TXRX\bsp\build\debug/./metal/machine.h:370
	}
	else {
		return 0;
2001322c:	4781                	li	a5,0
E:\GitHub\HiFive01-RevB\FS_workspace\004_UART_TXRX\bsp\build\debug/./metal/machine.h:372
	}
}
2001322e:	853e                	mv	a0,a5
20013230:	4472                	lw	s0,28(sp)
20013232:	6105                	addi	sp,sp,32
20013234:	8082                	ret

20013236 <__metal_driver_sifive_plic0_max_priority>:
__metal_driver_sifive_plic0_max_priority():
E:\GitHub\HiFive01-RevB\FS_workspace\004_UART_TXRX\bsp\build\debug/./metal/machine.h:375

static __inline__ int __metal_driver_sifive_plic0_max_priority(struct metal_interrupt *controller)
{
20013236:	1101                	addi	sp,sp,-32
20013238:	ce22                	sw	s0,28(sp)
2001323a:	1000                	addi	s0,sp,32
2001323c:	fea42623          	sw	a0,-20(s0)
E:\GitHub\HiFive01-RevB\FS_workspace\004_UART_TXRX\bsp\build\debug/./metal/machine.h:376
	if ((uintptr_t)controller == (uintptr_t)&__metal_dt_interrupt_controller_c000000) {
20013240:	fec42703          	lw	a4,-20(s0)
20013244:	800007b7          	lui	a5,0x80000
20013248:	41078793          	addi	a5,a5,1040 # 80000410 <__global_pointer$+0xfffff160>
2001324c:	00f71463          	bne	a4,a5,20013254 <__metal_driver_sifive_plic0_max_priority+0x1e>
E:\GitHub\HiFive01-RevB\FS_workspace\004_UART_TXRX\bsp\build\debug/./metal/machine.h:377
		return METAL_RISCV_PLIC0_C000000_RISCV_MAX_PRIORITY;
20013250:	479d                	li	a5,7
20013252:	a011                	j	20013256 <__metal_driver_sifive_plic0_max_priority+0x20>
E:\GitHub\HiFive01-RevB\FS_workspace\004_UART_TXRX\bsp\build\debug/./metal/machine.h:380
	}
	else {
		return 0;
20013254:	4781                	li	a5,0
E:\GitHub\HiFive01-RevB\FS_workspace\004_UART_TXRX\bsp\build\debug/./metal/machine.h:382
	}
}
20013256:	853e                	mv	a0,a5
20013258:	4472                	lw	s0,28(sp)
2001325a:	6105                	addi	sp,sp,32
2001325c:	8082                	ret

2001325e <__metal_driver_sifive_plic0_interrupt_parents>:
__metal_driver_sifive_plic0_interrupt_parents():
E:\GitHub\HiFive01-RevB\FS_workspace\004_UART_TXRX\bsp\build\debug/./metal/machine.h:385

static __inline__ struct metal_interrupt * __metal_driver_sifive_plic0_interrupt_parents(struct metal_interrupt *controller, int idx)
{
2001325e:	1101                	addi	sp,sp,-32
20013260:	ce22                	sw	s0,28(sp)
20013262:	1000                	addi	s0,sp,32
20013264:	fea42623          	sw	a0,-20(s0)
20013268:	feb42423          	sw	a1,-24(s0)
E:\GitHub\HiFive01-RevB\FS_workspace\004_UART_TXRX\bsp\build\debug/./metal/machine.h:386
	if (idx == 0) {
2001326c:	fe842783          	lw	a5,-24(s0)
20013270:	e791                	bnez	a5,2001327c <__metal_driver_sifive_plic0_interrupt_parents+0x1e>
E:\GitHub\HiFive01-RevB\FS_workspace\004_UART_TXRX\bsp\build\debug/./metal/machine.h:387
		return (struct metal_interrupt *)&__metal_dt_cpu_0_interrupt_controller.controller;
20013272:	800007b7          	lui	a5,0x80000
20013276:	04078793          	addi	a5,a5,64 # 80000040 <__global_pointer$+0xffffed90>
2001327a:	a011                	j	2001327e <__metal_driver_sifive_plic0_interrupt_parents+0x20>
E:\GitHub\HiFive01-RevB\FS_workspace\004_UART_TXRX\bsp\build\debug/./metal/machine.h:390
	}
	else {
		return NULL;
2001327c:	4781                	li	a5,0
E:\GitHub\HiFive01-RevB\FS_workspace\004_UART_TXRX\bsp\build\debug/./metal/machine.h:392
	}
}
2001327e:	853e                	mv	a0,a5
20013280:	4472                	lw	s0,28(sp)
20013282:	6105                	addi	sp,sp,32
20013284:	8082                	ret

20013286 <__metal_driver_sifive_plic0_interrupt_lines>:
__metal_driver_sifive_plic0_interrupt_lines():
E:\GitHub\HiFive01-RevB\FS_workspace\004_UART_TXRX\bsp\build\debug/./metal/machine.h:395

static __inline__ int __metal_driver_sifive_plic0_interrupt_lines(struct metal_interrupt *controller, int idx)
{
20013286:	1101                	addi	sp,sp,-32
20013288:	ce22                	sw	s0,28(sp)
2001328a:	1000                	addi	s0,sp,32
2001328c:	fea42623          	sw	a0,-20(s0)
20013290:	feb42423          	sw	a1,-24(s0)
E:\GitHub\HiFive01-RevB\FS_workspace\004_UART_TXRX\bsp\build\debug/./metal/machine.h:396
	if (idx == 0) {
20013294:	fe842783          	lw	a5,-24(s0)
20013298:	e399                	bnez	a5,2001329e <__metal_driver_sifive_plic0_interrupt_lines+0x18>
E:\GitHub\HiFive01-RevB\FS_workspace\004_UART_TXRX\bsp\build\debug/./metal/machine.h:397
		return 11;
2001329a:	47ad                	li	a5,11
2001329c:	a011                	j	200132a0 <__metal_driver_sifive_plic0_interrupt_lines+0x1a>
E:\GitHub\HiFive01-RevB\FS_workspace\004_UART_TXRX\bsp\build\debug/./metal/machine.h:400
	}
	else {
		return 0;
2001329e:	4781                	li	a5,0
E:\GitHub\HiFive01-RevB\FS_workspace\004_UART_TXRX\bsp\build\debug/./metal/machine.h:402
	}
}
200132a0:	853e                	mv	a0,a5
200132a2:	4472                	lw	s0,28(sp)
200132a4:	6105                	addi	sp,sp,32
200132a6:	8082                	ret

200132a8 <__metal_driver_sifive_plic0_context_ids>:
__metal_driver_sifive_plic0_context_ids():
E:\GitHub\HiFive01-RevB\FS_workspace\004_UART_TXRX\bsp\build\debug/./metal/machine.h:405

static __inline__ int __metal_driver_sifive_plic0_context_ids(int hartid)
{
200132a8:	1101                	addi	sp,sp,-32
200132aa:	ce22                	sw	s0,28(sp)
200132ac:	1000                	addi	s0,sp,32
200132ae:	fea42623          	sw	a0,-20(s0)
E:\GitHub\HiFive01-RevB\FS_workspace\004_UART_TXRX\bsp\build\debug/./metal/machine.h:406
	if (hartid == 0) {
200132b2:	fec42783          	lw	a5,-20(s0)
200132b6:	e399                	bnez	a5,200132bc <__metal_driver_sifive_plic0_context_ids+0x14>
E:\GitHub\HiFive01-RevB\FS_workspace\004_UART_TXRX\bsp\build\debug/./metal/machine.h:407
		return 0;
200132b8:	4781                	li	a5,0
200132ba:	a011                	j	200132be <__metal_driver_sifive_plic0_context_ids+0x16>
E:\GitHub\HiFive01-RevB\FS_workspace\004_UART_TXRX\bsp\build\debug/./metal/machine.h:410
	}
	else {
		return -1;
200132bc:	57fd                	li	a5,-1
E:\GitHub\HiFive01-RevB\FS_workspace\004_UART_TXRX\bsp\build\debug/./metal/machine.h:412
	}
}
200132be:	853e                	mv	a0,a5
200132c0:	4472                	lw	s0,28(sp)
200132c2:	6105                	addi	sp,sp,32
200132c4:	8082                	ret

200132c6 <__metal_plic0_claim_interrupt>:
__metal_plic0_claim_interrupt():
E:/GitHub/HiFive01-RevB/FS_workspace/004_UART_TXRX/freedom-metal/src/drivers/riscv_plic0.c:18
#include <metal/machine.h>
#include <metal/shutdown.h>

unsigned int
__metal_plic0_claim_interrupt(struct __metal_driver_riscv_plic0 *plic,
                              int context_id) {
200132c6:	7179                	addi	sp,sp,-48
200132c8:	d606                	sw	ra,44(sp)
200132ca:	d422                	sw	s0,40(sp)
200132cc:	1800                	addi	s0,sp,48
200132ce:	fca42e23          	sw	a0,-36(s0)
200132d2:	fcb42c23          	sw	a1,-40(s0)
E:/GitHub/HiFive01-RevB/FS_workspace/004_UART_TXRX/freedom-metal/src/drivers/riscv_plic0.c:19
    unsigned long control_base = __metal_driver_sifive_plic0_control_base(
200132d6:	fdc42503          	lw	a0,-36(s0)
200132da:	3721                	jal	200131e2 <__metal_driver_sifive_plic0_control_base>
200132dc:	fea42623          	sw	a0,-20(s0)
E:/GitHub/HiFive01-RevB/FS_workspace/004_UART_TXRX/freedom-metal/src/drivers/riscv_plic0.c:21
        (struct metal_interrupt *)plic);
    return __METAL_ACCESS_ONCE(
200132e0:	fd842783          	lw	a5,-40(s0)
200132e4:	00c79713          	slli	a4,a5,0xc
200132e8:	fec42783          	lw	a5,-20(s0)
200132ec:	973e                	add	a4,a4,a5
200132ee:	002007b7          	lui	a5,0x200
200132f2:	0791                	addi	a5,a5,4
200132f4:	97ba                	add	a5,a5,a4
200132f6:	439c                	lw	a5,0(a5)
E:/GitHub/HiFive01-RevB/FS_workspace/004_UART_TXRX/freedom-metal/src/drivers/riscv_plic0.c:25
        (__metal_io_u32 *)(control_base + METAL_RISCV_PLIC0_CONTEXT_BASE +
                           (context_id * METAL_RISCV_PLIC0_CONTEXT_PER_HART) +
                           METAL_RISCV_PLIC0_CONTEXT_CLAIM));
}
200132f8:	853e                	mv	a0,a5
200132fa:	50b2                	lw	ra,44(sp)
200132fc:	5422                	lw	s0,40(sp)
200132fe:	6145                	addi	sp,sp,48
20013300:	8082                	ret

20013302 <__metal_plic0_complete_interrupt>:
__metal_plic0_complete_interrupt():
E:/GitHub/HiFive01-RevB/FS_workspace/004_UART_TXRX/freedom-metal/src/drivers/riscv_plic0.c:28

void __metal_plic0_complete_interrupt(struct __metal_driver_riscv_plic0 *plic,
                                      int context_id, unsigned int id) {
20013302:	7179                	addi	sp,sp,-48
20013304:	d606                	sw	ra,44(sp)
20013306:	d422                	sw	s0,40(sp)
20013308:	1800                	addi	s0,sp,48
2001330a:	fca42e23          	sw	a0,-36(s0)
2001330e:	fcb42c23          	sw	a1,-40(s0)
20013312:	fcc42a23          	sw	a2,-44(s0)
E:/GitHub/HiFive01-RevB/FS_workspace/004_UART_TXRX/freedom-metal/src/drivers/riscv_plic0.c:29
    unsigned long control_base = __metal_driver_sifive_plic0_control_base(
20013316:	fdc42503          	lw	a0,-36(s0)
2001331a:	35e1                	jal	200131e2 <__metal_driver_sifive_plic0_control_base>
2001331c:	fea42623          	sw	a0,-20(s0)
E:/GitHub/HiFive01-RevB/FS_workspace/004_UART_TXRX/freedom-metal/src/drivers/riscv_plic0.c:31
        (struct metal_interrupt *)plic);
    __METAL_ACCESS_ONCE(
20013320:	fd842783          	lw	a5,-40(s0)
20013324:	00c79713          	slli	a4,a5,0xc
20013328:	fec42783          	lw	a5,-20(s0)
2001332c:	973e                	add	a4,a4,a5
2001332e:	002007b7          	lui	a5,0x200
20013332:	0791                	addi	a5,a5,4
20013334:	97ba                	add	a5,a5,a4
20013336:	873e                	mv	a4,a5
E:/GitHub/HiFive01-RevB/FS_workspace/004_UART_TXRX/freedom-metal/src/drivers/riscv_plic0.c:34
        (__metal_io_u32 *)(control_base + METAL_RISCV_PLIC0_CONTEXT_BASE +
                           (context_id * METAL_RISCV_PLIC0_CONTEXT_PER_HART) +
                           METAL_RISCV_PLIC0_CONTEXT_CLAIM)) = id;
20013338:	fd442783          	lw	a5,-44(s0)
2001333c:	c31c                	sw	a5,0(a4)
E:/GitHub/HiFive01-RevB/FS_workspace/004_UART_TXRX/freedom-metal/src/drivers/riscv_plic0.c:35
}
2001333e:	0001                	nop
20013340:	50b2                	lw	ra,44(sp)
20013342:	5422                	lw	s0,40(sp)
20013344:	6145                	addi	sp,sp,48
20013346:	8082                	ret

20013348 <__metal_plic0_set_threshold>:
__metal_plic0_set_threshold():
E:/GitHub/HiFive01-RevB/FS_workspace/004_UART_TXRX/freedom-metal/src/drivers/riscv_plic0.c:38

int __metal_plic0_set_threshold(struct metal_interrupt *controller,
                                int context_id, unsigned int threshold) {
20013348:	7179                	addi	sp,sp,-48
2001334a:	d606                	sw	ra,44(sp)
2001334c:	d422                	sw	s0,40(sp)
2001334e:	1800                	addi	s0,sp,48
20013350:	fca42e23          	sw	a0,-36(s0)
20013354:	fcb42c23          	sw	a1,-40(s0)
20013358:	fcc42a23          	sw	a2,-44(s0)
E:/GitHub/HiFive01-RevB/FS_workspace/004_UART_TXRX/freedom-metal/src/drivers/riscv_plic0.c:40
    unsigned long control_base =
        __metal_driver_sifive_plic0_control_base(controller);
2001335c:	fdc42503          	lw	a0,-36(s0)
20013360:	3549                	jal	200131e2 <__metal_driver_sifive_plic0_control_base>
20013362:	fea42623          	sw	a0,-20(s0)
E:/GitHub/HiFive01-RevB/FS_workspace/004_UART_TXRX/freedom-metal/src/drivers/riscv_plic0.c:41
    __METAL_ACCESS_ONCE(
20013366:	fd842783          	lw	a5,-40(s0)
2001336a:	00c79713          	slli	a4,a5,0xc
2001336e:	fec42783          	lw	a5,-20(s0)
20013372:	973e                	add	a4,a4,a5
20013374:	002007b7          	lui	a5,0x200
20013378:	97ba                	add	a5,a5,a4
2001337a:	873e                	mv	a4,a5
E:/GitHub/HiFive01-RevB/FS_workspace/004_UART_TXRX/freedom-metal/src/drivers/riscv_plic0.c:44
        (__metal_io_u32 *)(control_base + METAL_RISCV_PLIC0_CONTEXT_BASE +
                           (context_id * METAL_RISCV_PLIC0_CONTEXT_PER_HART) +
                           METAL_RISCV_PLIC0_CONTEXT_THRESHOLD)) = threshold;
2001337c:	fd442783          	lw	a5,-44(s0)
20013380:	c31c                	sw	a5,0(a4)
E:/GitHub/HiFive01-RevB/FS_workspace/004_UART_TXRX/freedom-metal/src/drivers/riscv_plic0.c:45
    return 0;
20013382:	4781                	li	a5,0
E:/GitHub/HiFive01-RevB/FS_workspace/004_UART_TXRX/freedom-metal/src/drivers/riscv_plic0.c:46
}
20013384:	853e                	mv	a0,a5
20013386:	50b2                	lw	ra,44(sp)
20013388:	5422                	lw	s0,40(sp)
2001338a:	6145                	addi	sp,sp,48
2001338c:	8082                	ret

2001338e <__metal_plic0_get_threshold>:
__metal_plic0_get_threshold():
E:/GitHub/HiFive01-RevB/FS_workspace/004_UART_TXRX/freedom-metal/src/drivers/riscv_plic0.c:49

unsigned int __metal_plic0_get_threshold(struct metal_interrupt *controller,
                                         int context_id) {
2001338e:	7179                	addi	sp,sp,-48
20013390:	d606                	sw	ra,44(sp)
20013392:	d422                	sw	s0,40(sp)
20013394:	1800                	addi	s0,sp,48
20013396:	fca42e23          	sw	a0,-36(s0)
2001339a:	fcb42c23          	sw	a1,-40(s0)
E:/GitHub/HiFive01-RevB/FS_workspace/004_UART_TXRX/freedom-metal/src/drivers/riscv_plic0.c:51
    unsigned long control_base =
        __metal_driver_sifive_plic0_control_base(controller);
2001339e:	fdc42503          	lw	a0,-36(s0)
200133a2:	3581                	jal	200131e2 <__metal_driver_sifive_plic0_control_base>
200133a4:	fea42623          	sw	a0,-20(s0)
E:/GitHub/HiFive01-RevB/FS_workspace/004_UART_TXRX/freedom-metal/src/drivers/riscv_plic0.c:52
    return __METAL_ACCESS_ONCE(
200133a8:	fd842783          	lw	a5,-40(s0)
200133ac:	00c79713          	slli	a4,a5,0xc
200133b0:	fec42783          	lw	a5,-20(s0)
200133b4:	973e                	add	a4,a4,a5
200133b6:	002007b7          	lui	a5,0x200
200133ba:	97ba                	add	a5,a5,a4
200133bc:	439c                	lw	a5,0(a5)
E:/GitHub/HiFive01-RevB/FS_workspace/004_UART_TXRX/freedom-metal/src/drivers/riscv_plic0.c:56
        (__metal_io_u32 *)(control_base + METAL_RISCV_PLIC0_CONTEXT_BASE +
                           (context_id * METAL_RISCV_PLIC0_CONTEXT_PER_HART) +
                           METAL_RISCV_PLIC0_CONTEXT_THRESHOLD));
}
200133be:	853e                	mv	a0,a5
200133c0:	50b2                	lw	ra,44(sp)
200133c2:	5422                	lw	s0,40(sp)
200133c4:	6145                	addi	sp,sp,48
200133c6:	8082                	ret

200133c8 <__metal_driver_riscv_plic0_set_priority>:
__metal_driver_riscv_plic0_set_priority():
E:/GitHub/HiFive01-RevB/FS_workspace/004_UART_TXRX/freedom-metal/src/drivers/riscv_plic0.c:59

int __metal_driver_riscv_plic0_set_priority(struct metal_interrupt *controller,
                                            int id, unsigned int priority) {
200133c8:	7179                	addi	sp,sp,-48
200133ca:	d606                	sw	ra,44(sp)
200133cc:	d422                	sw	s0,40(sp)
200133ce:	1800                	addi	s0,sp,48
200133d0:	fca42e23          	sw	a0,-36(s0)
200133d4:	fcb42c23          	sw	a1,-40(s0)
200133d8:	fcc42a23          	sw	a2,-44(s0)
E:/GitHub/HiFive01-RevB/FS_workspace/004_UART_TXRX/freedom-metal/src/drivers/riscv_plic0.c:60
    unsigned long control_base = __metal_driver_sifive_plic0_control_base(
200133dc:	fdc42503          	lw	a0,-36(s0)
200133e0:	3509                	jal	200131e2 <__metal_driver_sifive_plic0_control_base>
200133e2:	fea42623          	sw	a0,-20(s0)
E:/GitHub/HiFive01-RevB/FS_workspace/004_UART_TXRX/freedom-metal/src/drivers/riscv_plic0.c:62
        (struct metal_interrupt *)controller);
    unsigned int max_priority = __metal_driver_sifive_plic0_max_priority(
200133e6:	fdc42503          	lw	a0,-36(s0)
200133ea:	35b1                	jal	20013236 <__metal_driver_sifive_plic0_max_priority>
200133ec:	87aa                	mv	a5,a0
200133ee:	fef42423          	sw	a5,-24(s0)
E:/GitHub/HiFive01-RevB/FS_workspace/004_UART_TXRX/freedom-metal/src/drivers/riscv_plic0.c:64
        (struct metal_interrupt *)controller);
    if ((max_priority) && (priority < max_priority)) {
200133f2:	fe842783          	lw	a5,-24(s0)
200133f6:	c785                	beqz	a5,2001341e <__metal_driver_riscv_plic0_set_priority+0x56>
E:/GitHub/HiFive01-RevB/FS_workspace/004_UART_TXRX/freedom-metal/src/drivers/riscv_plic0.c:64 (discriminator 1)
200133f8:	fd442703          	lw	a4,-44(s0)
200133fc:	fe842783          	lw	a5,-24(s0)
20013400:	00f77f63          	bgeu	a4,a5,2001341e <__metal_driver_riscv_plic0_set_priority+0x56>
E:/GitHub/HiFive01-RevB/FS_workspace/004_UART_TXRX/freedom-metal/src/drivers/riscv_plic0.c:65
        __METAL_ACCESS_ONCE(
20013404:	fd842783          	lw	a5,-40(s0)
20013408:	078a                	slli	a5,a5,0x2
2001340a:	873e                	mv	a4,a5
2001340c:	fec42783          	lw	a5,-20(s0)
20013410:	97ba                	add	a5,a5,a4
20013412:	873e                	mv	a4,a5
E:/GitHub/HiFive01-RevB/FS_workspace/004_UART_TXRX/freedom-metal/src/drivers/riscv_plic0.c:67
            (__metal_io_u32 *)(control_base + METAL_RISCV_PLIC0_PRIORITY_BASE +
                               (id << METAL_PLIC_SOURCE_PRIORITY_SHIFT))) =
20013414:	fd442783          	lw	a5,-44(s0)
20013418:	c31c                	sw	a5,0(a4)
E:/GitHub/HiFive01-RevB/FS_workspace/004_UART_TXRX/freedom-metal/src/drivers/riscv_plic0.c:69
            priority;
        return 0;
2001341a:	4781                	li	a5,0
2001341c:	a011                	j	20013420 <__metal_driver_riscv_plic0_set_priority+0x58>
E:/GitHub/HiFive01-RevB/FS_workspace/004_UART_TXRX/freedom-metal/src/drivers/riscv_plic0.c:71
    }
    return -1;
2001341e:	57fd                	li	a5,-1
E:/GitHub/HiFive01-RevB/FS_workspace/004_UART_TXRX/freedom-metal/src/drivers/riscv_plic0.c:72
}
20013420:	853e                	mv	a0,a5
20013422:	50b2                	lw	ra,44(sp)
20013424:	5422                	lw	s0,40(sp)
20013426:	6145                	addi	sp,sp,48
20013428:	8082                	ret

2001342a <__metal_driver_riscv_plic0_get_priority>:
__metal_driver_riscv_plic0_get_priority():
E:/GitHub/HiFive01-RevB/FS_workspace/004_UART_TXRX/freedom-metal/src/drivers/riscv_plic0.c:76

unsigned int
__metal_driver_riscv_plic0_get_priority(struct metal_interrupt *controller,
                                        int id) {
2001342a:	7179                	addi	sp,sp,-48
2001342c:	d606                	sw	ra,44(sp)
2001342e:	d422                	sw	s0,40(sp)
20013430:	1800                	addi	s0,sp,48
20013432:	fca42e23          	sw	a0,-36(s0)
20013436:	fcb42c23          	sw	a1,-40(s0)
E:/GitHub/HiFive01-RevB/FS_workspace/004_UART_TXRX/freedom-metal/src/drivers/riscv_plic0.c:78
    unsigned long control_base =
        __metal_driver_sifive_plic0_control_base(controller);
2001343a:	fdc42503          	lw	a0,-36(s0)
2001343e:	3355                	jal	200131e2 <__metal_driver_sifive_plic0_control_base>
20013440:	fea42623          	sw	a0,-20(s0)
E:/GitHub/HiFive01-RevB/FS_workspace/004_UART_TXRX/freedom-metal/src/drivers/riscv_plic0.c:80

    return __METAL_ACCESS_ONCE(
20013444:	fd842783          	lw	a5,-40(s0)
20013448:	078a                	slli	a5,a5,0x2
2001344a:	873e                	mv	a4,a5
2001344c:	fec42783          	lw	a5,-20(s0)
20013450:	97ba                	add	a5,a5,a4
20013452:	439c                	lw	a5,0(a5)
E:/GitHub/HiFive01-RevB/FS_workspace/004_UART_TXRX/freedom-metal/src/drivers/riscv_plic0.c:83
        (__metal_io_u32 *)(control_base + METAL_RISCV_PLIC0_PRIORITY_BASE +
                           (id << METAL_PLIC_SOURCE_PRIORITY_SHIFT)));
}
20013454:	853e                	mv	a0,a5
20013456:	50b2                	lw	ra,44(sp)
20013458:	5422                	lw	s0,40(sp)
2001345a:	6145                	addi	sp,sp,48
2001345c:	8082                	ret

2001345e <__metal_plic0_enable>:
__metal_plic0_enable():
E:/GitHub/HiFive01-RevB/FS_workspace/004_UART_TXRX/freedom-metal/src/drivers/riscv_plic0.c:86

int __metal_plic0_enable(struct __metal_driver_riscv_plic0 *plic,
                         int context_id, int id, int enable) {
2001345e:	7179                	addi	sp,sp,-48
20013460:	d606                	sw	ra,44(sp)
20013462:	d422                	sw	s0,40(sp)
20013464:	1800                	addi	s0,sp,48
20013466:	fca42e23          	sw	a0,-36(s0)
2001346a:	fcb42c23          	sw	a1,-40(s0)
2001346e:	fcc42a23          	sw	a2,-44(s0)
20013472:	fcd42823          	sw	a3,-48(s0)
E:/GitHub/HiFive01-RevB/FS_workspace/004_UART_TXRX/freedom-metal/src/drivers/riscv_plic0.c:88
    unsigned int current;
    unsigned long control_base = __metal_driver_sifive_plic0_control_base(
20013476:	fdc42503          	lw	a0,-36(s0)
2001347a:	33a5                	jal	200131e2 <__metal_driver_sifive_plic0_control_base>
2001347c:	fea42623          	sw	a0,-20(s0)
E:/GitHub/HiFive01-RevB/FS_workspace/004_UART_TXRX/freedom-metal/src/drivers/riscv_plic0.c:91
        (struct metal_interrupt *)plic);

    current = __METAL_ACCESS_ONCE(
20013480:	fd842783          	lw	a5,-40(s0)
20013484:	00779713          	slli	a4,a5,0x7
20013488:	fec42783          	lw	a5,-20(s0)
2001348c:	97ba                	add	a5,a5,a4
2001348e:	fd442703          	lw	a4,-44(s0)
20013492:	8715                	srai	a4,a4,0x5
20013494:	070a                	slli	a4,a4,0x2
20013496:	973e                	add	a4,a4,a5
20013498:	6789                	lui	a5,0x2
2001349a:	97ba                	add	a5,a5,a4
2001349c:	439c                	lw	a5,0(a5)
2001349e:	fef42423          	sw	a5,-24(s0)
E:/GitHub/HiFive01-RevB/FS_workspace/004_UART_TXRX/freedom-metal/src/drivers/riscv_plic0.c:100
    __METAL_ACCESS_ONCE(
        (__metal_io_u32 *)(control_base + METAL_RISCV_PLIC0_ENABLE_BASE +
                           (context_id * METAL_RISCV_PLIC0_ENABLE_PER_HART) +
                           ((id >> METAL_PLIC_SOURCE_SHIFT) * 4))) =
        enable ? (current | (1 << (id & METAL_PLIC_SOURCE_MASK)))
               : (current & ~(1 << (id & METAL_PLIC_SOURCE_MASK)));
200134a2:	fd042783          	lw	a5,-48(s0)
200134a6:	cf81                	beqz	a5,200134be <__metal_plic0_enable+0x60>
E:/GitHub/HiFive01-RevB/FS_workspace/004_UART_TXRX/freedom-metal/src/drivers/riscv_plic0.c:99 (discriminator 1)
        enable ? (current | (1 << (id & METAL_PLIC_SOURCE_MASK)))
200134a8:	fd442783          	lw	a5,-44(s0)
200134ac:	8bfd                	andi	a5,a5,31
200134ae:	4705                	li	a4,1
200134b0:	00f717b3          	sll	a5,a4,a5
200134b4:	873e                	mv	a4,a5
E:/GitHub/HiFive01-RevB/FS_workspace/004_UART_TXRX/freedom-metal/src/drivers/riscv_plic0.c:100 (discriminator 1)
               : (current & ~(1 << (id & METAL_PLIC_SOURCE_MASK)));
200134b6:	fe842783          	lw	a5,-24(s0)
200134ba:	8fd9                	or	a5,a5,a4
200134bc:	a829                	j	200134d6 <__metal_plic0_enable+0x78>
E:/GitHub/HiFive01-RevB/FS_workspace/004_UART_TXRX/freedom-metal/src/drivers/riscv_plic0.c:100 (discriminator 2)
200134be:	fd442783          	lw	a5,-44(s0)
200134c2:	8bfd                	andi	a5,a5,31
200134c4:	4705                	li	a4,1
200134c6:	00f717b3          	sll	a5,a4,a5
200134ca:	fff7c793          	not	a5,a5
200134ce:	873e                	mv	a4,a5
200134d0:	fe842783          	lw	a5,-24(s0)
200134d4:	8ff9                	and	a5,a5,a4
E:/GitHub/HiFive01-RevB/FS_workspace/004_UART_TXRX/freedom-metal/src/drivers/riscv_plic0.c:95
    __METAL_ACCESS_ONCE(
200134d6:	fd842703          	lw	a4,-40(s0)
200134da:	00771693          	slli	a3,a4,0x7
200134de:	fec42703          	lw	a4,-20(s0)
200134e2:	9736                	add	a4,a4,a3
200134e4:	fd442683          	lw	a3,-44(s0)
200134e8:	8695                	srai	a3,a3,0x5
200134ea:	068a                	slli	a3,a3,0x2
200134ec:	96ba                	add	a3,a3,a4
200134ee:	6709                	lui	a4,0x2
200134f0:	9736                	add	a4,a4,a3
E:/GitHub/HiFive01-RevB/FS_workspace/004_UART_TXRX/freedom-metal/src/drivers/riscv_plic0.c:98
                           ((id >> METAL_PLIC_SOURCE_SHIFT) * 4))) =
200134f2:	c31c                	sw	a5,0(a4)
E:/GitHub/HiFive01-RevB/FS_workspace/004_UART_TXRX/freedom-metal/src/drivers/riscv_plic0.c:102

    return 0;
200134f4:	4781                	li	a5,0
E:/GitHub/HiFive01-RevB/FS_workspace/004_UART_TXRX/freedom-metal/src/drivers/riscv_plic0.c:103
}
200134f6:	853e                	mv	a0,a5
200134f8:	50b2                	lw	ra,44(sp)
200134fa:	5422                	lw	s0,40(sp)
200134fc:	6145                	addi	sp,sp,48
200134fe:	8082                	ret

20013500 <__metal_plic0_default_handler>:
__metal_plic0_default_handler():
E:/GitHub/HiFive01-RevB/FS_workspace/004_UART_TXRX/freedom-metal/src/drivers/riscv_plic0.c:105

void __metal_plic0_default_handler(int id, void *priv) { metal_shutdown(300); }
20013500:	1101                	addi	sp,sp,-32
20013502:	ce06                	sw	ra,28(sp)
20013504:	cc22                	sw	s0,24(sp)
20013506:	1000                	addi	s0,sp,32
20013508:	fea42623          	sw	a0,-20(s0)
2001350c:	feb42423          	sw	a1,-24(s0)
20013510:	12c00513          	li	a0,300
20013514:	66c020ef          	jal	ra,20015b80 <metal_shutdown>

20013518 <__metal_plic0_handler>:
__metal_plic0_handler():
E:/GitHub/HiFive01-RevB/FS_workspace/004_UART_TXRX/freedom-metal/src/drivers/riscv_plic0.c:107

void __metal_plic0_handler(int id, void *priv) {
20013518:	7179                	addi	sp,sp,-48
2001351a:	d606                	sw	ra,44(sp)
2001351c:	d422                	sw	s0,40(sp)
2001351e:	1800                	addi	s0,sp,48
20013520:	fca42e23          	sw	a0,-36(s0)
20013524:	fcb42c23          	sw	a1,-40(s0)
E:/GitHub/HiFive01-RevB/FS_workspace/004_UART_TXRX/freedom-metal/src/drivers/riscv_plic0.c:108
    struct __metal_driver_riscv_plic0 *plic = priv;
20013528:	fd842783          	lw	a5,-40(s0)
2001352c:	fef42623          	sw	a5,-20(s0)
E:/GitHub/HiFive01-RevB/FS_workspace/004_UART_TXRX/freedom-metal/src/drivers/riscv_plic0.c:110
    int contextid =
        __metal_driver_sifive_plic0_context_ids(__metal_myhart_id());
20013530:	b72fe0ef          	jal	ra,200118a2 <__metal_myhart_id>
20013534:	87aa                	mv	a5,a0
20013536:	853e                	mv	a0,a5
20013538:	3b85                	jal	200132a8 <__metal_driver_sifive_plic0_context_ids>
2001353a:	fea42423          	sw	a0,-24(s0)
E:/GitHub/HiFive01-RevB/FS_workspace/004_UART_TXRX/freedom-metal/src/drivers/riscv_plic0.c:111
    unsigned int idx = __metal_plic0_claim_interrupt(plic, contextid);
2001353e:	fe842583          	lw	a1,-24(s0)
20013542:	fec42503          	lw	a0,-20(s0)
20013546:	3341                	jal	200132c6 <__metal_plic0_claim_interrupt>
20013548:	fea42223          	sw	a0,-28(s0)
E:/GitHub/HiFive01-RevB/FS_workspace/004_UART_TXRX/freedom-metal/src/drivers/riscv_plic0.c:112
    unsigned int num_interrupts = __metal_driver_sifive_plic0_num_interrupts(
2001354c:	fec42503          	lw	a0,-20(s0)
20013550:	3975                	jal	2001320c <__metal_driver_sifive_plic0_num_interrupts>
20013552:	87aa                	mv	a5,a0
20013554:	fef42023          	sw	a5,-32(s0)
E:/GitHub/HiFive01-RevB/FS_workspace/004_UART_TXRX/freedom-metal/src/drivers/riscv_plic0.c:115
        (struct metal_interrupt *)plic);

    if ((idx < num_interrupts) && (plic->metal_exint_table[idx])) {
20013558:	fe442703          	lw	a4,-28(s0)
2001355c:	fe042783          	lw	a5,-32(s0)
20013560:	04f77263          	bgeu	a4,a5,200135a4 <__metal_plic0_handler+0x8c>
E:/GitHub/HiFive01-RevB/FS_workspace/004_UART_TXRX/freedom-metal/src/drivers/riscv_plic0.c:115 (discriminator 1)
20013564:	fec42703          	lw	a4,-20(s0)
20013568:	fe442783          	lw	a5,-28(s0)
2001356c:	078a                	slli	a5,a5,0x2
2001356e:	97ba                	add	a5,a5,a4
20013570:	479c                	lw	a5,8(a5)
20013572:	cb8d                	beqz	a5,200135a4 <__metal_plic0_handler+0x8c>
E:/GitHub/HiFive01-RevB/FS_workspace/004_UART_TXRX/freedom-metal/src/drivers/riscv_plic0.c:116
        plic->metal_exint_table[idx](idx,
20013574:	fec42703          	lw	a4,-20(s0)
20013578:	fe442783          	lw	a5,-28(s0)
2001357c:	078a                	slli	a5,a5,0x2
2001357e:	97ba                	add	a5,a5,a4
20013580:	0087a803          	lw	a6,8(a5) # 2008 <__heap_size+0x1808>
20013584:	fe442603          	lw	a2,-28(s0)
20013588:	fec42683          	lw	a3,-20(s0)
2001358c:	fe442703          	lw	a4,-28(s0)
20013590:	87ba                	mv	a5,a4
20013592:	0786                	slli	a5,a5,0x1
20013594:	97ba                	add	a5,a5,a4
20013596:	078e                	slli	a5,a5,0x3
20013598:	97b6                	add	a5,a5,a3
2001359a:	0f07a783          	lw	a5,240(a5)
2001359e:	85be                	mv	a1,a5
200135a0:	8532                	mv	a0,a2
200135a2:	9802                	jalr	a6
E:/GitHub/HiFive01-RevB/FS_workspace/004_UART_TXRX/freedom-metal/src/drivers/riscv_plic0.c:120
                                     plic->metal_exdata_table[idx].exint_data);
    }

    __metal_plic0_complete_interrupt(plic, contextid, idx);
200135a4:	fe442603          	lw	a2,-28(s0)
200135a8:	fe842583          	lw	a1,-24(s0)
200135ac:	fec42503          	lw	a0,-20(s0)
200135b0:	3b89                	jal	20013302 <__metal_plic0_complete_interrupt>
E:/GitHub/HiFive01-RevB/FS_workspace/004_UART_TXRX/freedom-metal/src/drivers/riscv_plic0.c:121
}
200135b2:	0001                	nop
200135b4:	50b2                	lw	ra,44(sp)
200135b6:	5422                	lw	s0,40(sp)
200135b8:	6145                	addi	sp,sp,48
200135ba:	8082                	ret

200135bc <__metal_driver_riscv_plic0_init>:
__metal_driver_riscv_plic0_init():
E:/GitHub/HiFive01-RevB/FS_workspace/004_UART_TXRX/freedom-metal/src/drivers/riscv_plic0.c:123

void __metal_driver_riscv_plic0_init(struct metal_interrupt *controller) {
200135bc:	7139                	addi	sp,sp,-64
200135be:	de06                	sw	ra,60(sp)
200135c0:	dc22                	sw	s0,56(sp)
200135c2:	0080                	addi	s0,sp,64
200135c4:	fca42623          	sw	a0,-52(s0)
E:/GitHub/HiFive01-RevB/FS_workspace/004_UART_TXRX/freedom-metal/src/drivers/riscv_plic0.c:124
    struct __metal_driver_riscv_plic0 *plic = (void *)(controller);
200135c8:	fcc42783          	lw	a5,-52(s0)
200135cc:	fef42223          	sw	a5,-28(s0)
E:/GitHub/HiFive01-RevB/FS_workspace/004_UART_TXRX/freedom-metal/src/drivers/riscv_plic0.c:126

    if (!plic->init_done) {
200135d0:	fe442783          	lw	a5,-28(s0)
200135d4:	43dc                	lw	a5,4(a5)
200135d6:	12079663          	bnez	a5,20013702 <__metal_driver_riscv_plic0_init+0x146>
E:/GitHub/HiFive01-RevB/FS_workspace/004_UART_TXRX/freedom-metal/src/drivers/riscv_plic0.c:130
        int num_interrupts, line;
        struct metal_interrupt *intc;

        for (int parent = 0; parent < __METAL_PLIC_NUM_PARENTS; parent++) {
200135da:	fe042623          	sw	zero,-20(s0)
200135de:	aa11                	j	200136f2 <__metal_driver_riscv_plic0_init+0x136>
E:/GitHub/HiFive01-RevB/FS_workspace/004_UART_TXRX/freedom-metal/src/drivers/riscv_plic0.c:132
            num_interrupts =
                __metal_driver_sifive_plic0_num_interrupts(controller);
200135e0:	fcc42503          	lw	a0,-52(s0)
200135e4:	3125                	jal	2001320c <__metal_driver_sifive_plic0_num_interrupts>
200135e6:	fea42023          	sw	a0,-32(s0)
E:/GitHub/HiFive01-RevB/FS_workspace/004_UART_TXRX/freedom-metal/src/drivers/riscv_plic0.c:133
            intc = __metal_driver_sifive_plic0_interrupt_parents(controller,
200135ea:	fec42583          	lw	a1,-20(s0)
200135ee:	fcc42503          	lw	a0,-52(s0)
200135f2:	31b5                	jal	2001325e <__metal_driver_sifive_plic0_interrupt_parents>
200135f4:	fca42e23          	sw	a0,-36(s0)
E:/GitHub/HiFive01-RevB/FS_workspace/004_UART_TXRX/freedom-metal/src/drivers/riscv_plic0.c:136
                                                                 parent);
            line =
                __metal_driver_sifive_plic0_interrupt_lines(controller, parent);
200135f8:	fec42583          	lw	a1,-20(s0)
200135fc:	fcc42503          	lw	a0,-52(s0)
20013600:	3159                	jal	20013286 <__metal_driver_sifive_plic0_interrupt_lines>
20013602:	fca42c23          	sw	a0,-40(s0)
E:/GitHub/HiFive01-RevB/FS_workspace/004_UART_TXRX/freedom-metal/src/drivers/riscv_plic0.c:139

            /* Initialize ist parent controller, aka cpu_intc. */
            intc->vtable->interrupt_init(intc);
20013606:	fdc42783          	lw	a5,-36(s0)
2001360a:	439c                	lw	a5,0(a5)
2001360c:	439c                	lw	a5,0(a5)
2001360e:	fdc42503          	lw	a0,-36(s0)
20013612:	9782                	jalr	a5
E:/GitHub/HiFive01-RevB/FS_workspace/004_UART_TXRX/freedom-metal/src/drivers/riscv_plic0.c:141

            for (int i = 0; i < PLIC0_MAX_INTERRUPTS; i++) {
20013614:	fe042423          	sw	zero,-24(s0)
20013618:	a885                	j	20013688 <__metal_driver_riscv_plic0_init+0xcc>
E:/GitHub/HiFive01-RevB/FS_workspace/004_UART_TXRX/freedom-metal/src/drivers/riscv_plic0.c:142
                __metal_plic0_enable(plic, parent, i, METAL_DISABLE);
2001361a:	4681                	li	a3,0
2001361c:	fe842603          	lw	a2,-24(s0)
20013620:	fec42583          	lw	a1,-20(s0)
20013624:	fe442503          	lw	a0,-28(s0)
20013628:	3d1d                	jal	2001345e <__metal_plic0_enable>
E:/GitHub/HiFive01-RevB/FS_workspace/004_UART_TXRX/freedom-metal/src/drivers/riscv_plic0.c:143
                if (i < num_interrupts) {
2001362a:	fe842703          	lw	a4,-24(s0)
2001362e:	fe042783          	lw	a5,-32(s0)
20013632:	04f75663          	bge	a4,a5,2001367e <__metal_driver_riscv_plic0_init+0xc2>
E:/GitHub/HiFive01-RevB/FS_workspace/004_UART_TXRX/freedom-metal/src/drivers/riscv_plic0.c:144
                    __metal_driver_riscv_plic0_set_priority(controller, i, 0);
20013636:	4601                	li	a2,0
20013638:	fe842583          	lw	a1,-24(s0)
2001363c:	fcc42503          	lw	a0,-52(s0)
20013640:	3361                	jal	200133c8 <__metal_driver_riscv_plic0_set_priority>
E:/GitHub/HiFive01-RevB/FS_workspace/004_UART_TXRX/freedom-metal/src/drivers/riscv_plic0.c:145
                    plic->metal_exint_table[i] = NULL;
20013642:	fe442703          	lw	a4,-28(s0)
20013646:	fe842783          	lw	a5,-24(s0)
2001364a:	078a                	slli	a5,a5,0x2
2001364c:	97ba                	add	a5,a5,a4
2001364e:	0007a423          	sw	zero,8(a5)
E:/GitHub/HiFive01-RevB/FS_workspace/004_UART_TXRX/freedom-metal/src/drivers/riscv_plic0.c:146
                    plic->metal_exdata_table[i].sub_int = NULL;
20013652:	fe442683          	lw	a3,-28(s0)
20013656:	fe842703          	lw	a4,-24(s0)
2001365a:	87ba                	mv	a5,a4
2001365c:	0786                	slli	a5,a5,0x1
2001365e:	97ba                	add	a5,a5,a4
20013660:	078e                	slli	a5,a5,0x3
20013662:	97b6                	add	a5,a5,a3
20013664:	0e07a623          	sw	zero,236(a5)
E:/GitHub/HiFive01-RevB/FS_workspace/004_UART_TXRX/freedom-metal/src/drivers/riscv_plic0.c:147
                    plic->metal_exdata_table[i].exint_data = NULL;
20013668:	fe442683          	lw	a3,-28(s0)
2001366c:	fe842703          	lw	a4,-24(s0)
20013670:	87ba                	mv	a5,a4
20013672:	0786                	slli	a5,a5,0x1
20013674:	97ba                	add	a5,a5,a4
20013676:	078e                	slli	a5,a5,0x3
20013678:	97b6                	add	a5,a5,a3
2001367a:	0e07a823          	sw	zero,240(a5)
E:/GitHub/HiFive01-RevB/FS_workspace/004_UART_TXRX/freedom-metal/src/drivers/riscv_plic0.c:141 (discriminator 2)
            for (int i = 0; i < PLIC0_MAX_INTERRUPTS; i++) {
2001367e:	fe842783          	lw	a5,-24(s0)
20013682:	0785                	addi	a5,a5,1
20013684:	fef42423          	sw	a5,-24(s0)
E:/GitHub/HiFive01-RevB/FS_workspace/004_UART_TXRX/freedom-metal/src/drivers/riscv_plic0.c:141 (discriminator 1)
20013688:	fe842703          	lw	a4,-24(s0)
2001368c:	3ff00793          	li	a5,1023
20013690:	f8e7d5e3          	bge	a5,a4,2001361a <__metal_driver_riscv_plic0_init+0x5e>
E:/GitHub/HiFive01-RevB/FS_workspace/004_UART_TXRX/freedom-metal/src/drivers/riscv_plic0.c:151 (discriminator 2)
                }
            }

            __metal_plic0_set_threshold(controller, parent, 0);
20013694:	4601                	li	a2,0
20013696:	fec42583          	lw	a1,-20(s0)
2001369a:	fcc42503          	lw	a0,-52(s0)
2001369e:	316d                	jal	20013348 <__metal_plic0_set_threshold>
E:/GitHub/HiFive01-RevB/FS_workspace/004_UART_TXRX/freedom-metal/src/drivers/riscv_plic0.c:154 (discriminator 2)

            /* Register plic (ext) interrupt with with parent controller */
            intc->vtable->interrupt_register(intc, line, NULL, plic);
200136a0:	fdc42783          	lw	a5,-36(s0)
200136a4:	439c                	lw	a5,0(a5)
200136a6:	4fdc                	lw	a5,28(a5)
200136a8:	fe442683          	lw	a3,-28(s0)
200136ac:	4601                	li	a2,0
200136ae:	fd842583          	lw	a1,-40(s0)
200136b2:	fdc42503          	lw	a0,-36(s0)
200136b6:	9782                	jalr	a5
E:/GitHub/HiFive01-RevB/FS_workspace/004_UART_TXRX/freedom-metal/src/drivers/riscv_plic0.c:156 (discriminator 2)
            /* Register plic handler for dispatching its device interrupts */
            intc->vtable->interrupt_register(intc, line, __metal_plic0_handler,
200136b8:	fdc42783          	lw	a5,-36(s0)
200136bc:	439c                	lw	a5,0(a5)
200136be:	4fd8                	lw	a4,28(a5)
200136c0:	fe442683          	lw	a3,-28(s0)
200136c4:	200137b7          	lui	a5,0x20013
200136c8:	51878613          	addi	a2,a5,1304 # 20013518 <__metal_plic0_handler>
200136cc:	fd842583          	lw	a1,-40(s0)
200136d0:	fdc42503          	lw	a0,-36(s0)
200136d4:	9702                	jalr	a4
E:/GitHub/HiFive01-RevB/FS_workspace/004_UART_TXRX/freedom-metal/src/drivers/riscv_plic0.c:159 (discriminator 2)
                                             plic);
            /* Enable plic (ext) interrupt with with parent controller */
            intc->vtable->interrupt_enable(intc, line);
200136d6:	fdc42783          	lw	a5,-36(s0)
200136da:	439c                	lw	a5,0(a5)
200136dc:	53dc                	lw	a5,36(a5)
200136de:	fd842583          	lw	a1,-40(s0)
200136e2:	fdc42503          	lw	a0,-36(s0)
200136e6:	9782                	jalr	a5
E:/GitHub/HiFive01-RevB/FS_workspace/004_UART_TXRX/freedom-metal/src/drivers/riscv_plic0.c:130 (discriminator 2)
        for (int parent = 0; parent < __METAL_PLIC_NUM_PARENTS; parent++) {
200136e8:	fec42783          	lw	a5,-20(s0)
200136ec:	0785                	addi	a5,a5,1
200136ee:	fef42623          	sw	a5,-20(s0)
E:/GitHub/HiFive01-RevB/FS_workspace/004_UART_TXRX/freedom-metal/src/drivers/riscv_plic0.c:130 (discriminator 1)
200136f2:	fec42783          	lw	a5,-20(s0)
200136f6:	eef055e3          	blez	a5,200135e0 <__metal_driver_riscv_plic0_init+0x24>
E:/GitHub/HiFive01-RevB/FS_workspace/004_UART_TXRX/freedom-metal/src/drivers/riscv_plic0.c:161
        }
        plic->init_done = 1;
200136fa:	fe442783          	lw	a5,-28(s0)
200136fe:	4705                	li	a4,1
20013700:	c3d8                	sw	a4,4(a5)
E:/GitHub/HiFive01-RevB/FS_workspace/004_UART_TXRX/freedom-metal/src/drivers/riscv_plic0.c:163
    }
}
20013702:	0001                	nop
20013704:	50f2                	lw	ra,60(sp)
20013706:	5462                	lw	s0,56(sp)
20013708:	6121                	addi	sp,sp,64
2001370a:	8082                	ret

2001370c <__metal_driver_riscv_plic0_register>:
__metal_driver_riscv_plic0_register():
E:/GitHub/HiFive01-RevB/FS_workspace/004_UART_TXRX/freedom-metal/src/drivers/riscv_plic0.c:167

int __metal_driver_riscv_plic0_register(struct metal_interrupt *controller,
                                        int id, metal_interrupt_handler_t isr,
                                        void *priv) {
2001370c:	7179                	addi	sp,sp,-48
2001370e:	d606                	sw	ra,44(sp)
20013710:	d422                	sw	s0,40(sp)
20013712:	1800                	addi	s0,sp,48
20013714:	fca42e23          	sw	a0,-36(s0)
20013718:	fcb42c23          	sw	a1,-40(s0)
2001371c:	fcc42a23          	sw	a2,-44(s0)
20013720:	fcd42823          	sw	a3,-48(s0)
E:/GitHub/HiFive01-RevB/FS_workspace/004_UART_TXRX/freedom-metal/src/drivers/riscv_plic0.c:168
    struct __metal_driver_riscv_plic0 *plic = (void *)(controller);
20013724:	fdc42783          	lw	a5,-36(s0)
20013728:	fef42623          	sw	a5,-20(s0)
E:/GitHub/HiFive01-RevB/FS_workspace/004_UART_TXRX/freedom-metal/src/drivers/riscv_plic0.c:170

    if (id >= __metal_driver_sifive_plic0_num_interrupts(controller)) {
2001372c:	fdc42503          	lw	a0,-36(s0)
20013730:	addff0ef          	jal	ra,2001320c <__metal_driver_sifive_plic0_num_interrupts>
20013734:	872a                	mv	a4,a0
20013736:	fd842783          	lw	a5,-40(s0)
2001373a:	00e7c463          	blt	a5,a4,20013742 <__metal_driver_riscv_plic0_register+0x36>
E:/GitHub/HiFive01-RevB/FS_workspace/004_UART_TXRX/freedom-metal/src/drivers/riscv_plic0.c:171
        return -1;
2001373e:	57fd                	li	a5,-1
20013740:	a041                	j	200137c0 <__metal_driver_riscv_plic0_register+0xb4>
E:/GitHub/HiFive01-RevB/FS_workspace/004_UART_TXRX/freedom-metal/src/drivers/riscv_plic0.c:174
    }

    if (isr) {
20013742:	fd442783          	lw	a5,-44(s0)
20013746:	cf95                	beqz	a5,20013782 <__metal_driver_riscv_plic0_register+0x76>
E:/GitHub/HiFive01-RevB/FS_workspace/004_UART_TXRX/freedom-metal/src/drivers/riscv_plic0.c:175
        __metal_driver_riscv_plic0_set_priority(controller, id, 2);
20013748:	4609                	li	a2,2
2001374a:	fd842583          	lw	a1,-40(s0)
2001374e:	fdc42503          	lw	a0,-36(s0)
20013752:	399d                	jal	200133c8 <__metal_driver_riscv_plic0_set_priority>
E:/GitHub/HiFive01-RevB/FS_workspace/004_UART_TXRX/freedom-metal/src/drivers/riscv_plic0.c:176
        plic->metal_exint_table[id] = isr;
20013754:	fec42703          	lw	a4,-20(s0)
20013758:	fd842783          	lw	a5,-40(s0)
2001375c:	078a                	slli	a5,a5,0x2
2001375e:	97ba                	add	a5,a5,a4
20013760:	fd442703          	lw	a4,-44(s0)
20013764:	c798                	sw	a4,8(a5)
E:/GitHub/HiFive01-RevB/FS_workspace/004_UART_TXRX/freedom-metal/src/drivers/riscv_plic0.c:177
        plic->metal_exdata_table[id].exint_data = priv;
20013766:	fec42683          	lw	a3,-20(s0)
2001376a:	fd842703          	lw	a4,-40(s0)
2001376e:	87ba                	mv	a5,a4
20013770:	0786                	slli	a5,a5,0x1
20013772:	97ba                	add	a5,a5,a4
20013774:	078e                	slli	a5,a5,0x3
20013776:	97b6                	add	a5,a5,a3
20013778:	fd042703          	lw	a4,-48(s0)
2001377c:	0ee7a823          	sw	a4,240(a5)
20013780:	a83d                	j	200137be <__metal_driver_riscv_plic0_register+0xb2>
E:/GitHub/HiFive01-RevB/FS_workspace/004_UART_TXRX/freedom-metal/src/drivers/riscv_plic0.c:179
    } else {
        __metal_driver_riscv_plic0_set_priority(controller, id, 1);
20013782:	4605                	li	a2,1
20013784:	fd842583          	lw	a1,-40(s0)
20013788:	fdc42503          	lw	a0,-36(s0)
2001378c:	3935                	jal	200133c8 <__metal_driver_riscv_plic0_set_priority>
E:/GitHub/HiFive01-RevB/FS_workspace/004_UART_TXRX/freedom-metal/src/drivers/riscv_plic0.c:180
        plic->metal_exint_table[id] = __metal_plic0_default_handler;
2001378e:	fec42703          	lw	a4,-20(s0)
20013792:	fd842783          	lw	a5,-40(s0)
20013796:	078a                	slli	a5,a5,0x2
20013798:	97ba                	add	a5,a5,a4
2001379a:	20013737          	lui	a4,0x20013
2001379e:	50070713          	addi	a4,a4,1280 # 20013500 <__metal_plic0_default_handler>
200137a2:	c798                	sw	a4,8(a5)
E:/GitHub/HiFive01-RevB/FS_workspace/004_UART_TXRX/freedom-metal/src/drivers/riscv_plic0.c:181
        plic->metal_exdata_table[id].sub_int = priv;
200137a4:	fec42683          	lw	a3,-20(s0)
200137a8:	fd842703          	lw	a4,-40(s0)
200137ac:	87ba                	mv	a5,a4
200137ae:	0786                	slli	a5,a5,0x1
200137b0:	97ba                	add	a5,a5,a4
200137b2:	078e                	slli	a5,a5,0x3
200137b4:	97b6                	add	a5,a5,a3
200137b6:	fd042703          	lw	a4,-48(s0)
200137ba:	0ee7a623          	sw	a4,236(a5)
E:/GitHub/HiFive01-RevB/FS_workspace/004_UART_TXRX/freedom-metal/src/drivers/riscv_plic0.c:184
    }

    return 0;
200137be:	4781                	li	a5,0
E:/GitHub/HiFive01-RevB/FS_workspace/004_UART_TXRX/freedom-metal/src/drivers/riscv_plic0.c:185
}
200137c0:	853e                	mv	a0,a5
200137c2:	50b2                	lw	ra,44(sp)
200137c4:	5422                	lw	s0,40(sp)
200137c6:	6145                	addi	sp,sp,48
200137c8:	8082                	ret

200137ca <__metal_driver_riscv_plic0_enable>:
__metal_driver_riscv_plic0_enable():
E:/GitHub/HiFive01-RevB/FS_workspace/004_UART_TXRX/freedom-metal/src/drivers/riscv_plic0.c:188

int __metal_driver_riscv_plic0_enable(struct metal_interrupt *controller,
                                      int id) {
200137ca:	7179                	addi	sp,sp,-48
200137cc:	d606                	sw	ra,44(sp)
200137ce:	d422                	sw	s0,40(sp)
200137d0:	1800                	addi	s0,sp,48
200137d2:	fca42e23          	sw	a0,-36(s0)
200137d6:	fcb42c23          	sw	a1,-40(s0)
E:/GitHub/HiFive01-RevB/FS_workspace/004_UART_TXRX/freedom-metal/src/drivers/riscv_plic0.c:189
    struct __metal_driver_riscv_plic0 *plic = (void *)(controller);
200137da:	fdc42783          	lw	a5,-36(s0)
200137de:	fef42623          	sw	a5,-20(s0)
E:/GitHub/HiFive01-RevB/FS_workspace/004_UART_TXRX/freedom-metal/src/drivers/riscv_plic0.c:191

    if (id >= __metal_driver_sifive_plic0_num_interrupts(controller)) {
200137e2:	fdc42503          	lw	a0,-36(s0)
200137e6:	a27ff0ef          	jal	ra,2001320c <__metal_driver_sifive_plic0_num_interrupts>
200137ea:	872a                	mv	a4,a0
200137ec:	fd842783          	lw	a5,-40(s0)
200137f0:	00e7c463          	blt	a5,a4,200137f8 <__metal_driver_riscv_plic0_enable+0x2e>
E:/GitHub/HiFive01-RevB/FS_workspace/004_UART_TXRX/freedom-metal/src/drivers/riscv_plic0.c:192
        return -1;
200137f4:	57fd                	li	a5,-1
200137f6:	a821                	j	2001380e <__metal_driver_riscv_plic0_enable+0x44>
E:/GitHub/HiFive01-RevB/FS_workspace/004_UART_TXRX/freedom-metal/src/drivers/riscv_plic0.c:195
    }

    __metal_plic0_enable(plic, __metal_myhart_id(), id, METAL_ENABLE);
200137f8:	8aafe0ef          	jal	ra,200118a2 <__metal_myhart_id>
200137fc:	87aa                	mv	a5,a0
200137fe:	4685                	li	a3,1
20013800:	fd842603          	lw	a2,-40(s0)
20013804:	85be                	mv	a1,a5
20013806:	fec42503          	lw	a0,-20(s0)
2001380a:	3991                	jal	2001345e <__metal_plic0_enable>
E:/GitHub/HiFive01-RevB/FS_workspace/004_UART_TXRX/freedom-metal/src/drivers/riscv_plic0.c:196
    return 0;
2001380c:	4781                	li	a5,0
E:/GitHub/HiFive01-RevB/FS_workspace/004_UART_TXRX/freedom-metal/src/drivers/riscv_plic0.c:197
}
2001380e:	853e                	mv	a0,a5
20013810:	50b2                	lw	ra,44(sp)
20013812:	5422                	lw	s0,40(sp)
20013814:	6145                	addi	sp,sp,48
20013816:	8082                	ret

20013818 <__metal_driver_riscv_plic0_disable>:
__metal_driver_riscv_plic0_disable():
E:/GitHub/HiFive01-RevB/FS_workspace/004_UART_TXRX/freedom-metal/src/drivers/riscv_plic0.c:200

int __metal_driver_riscv_plic0_disable(struct metal_interrupt *controller,
                                       int id) {
20013818:	7179                	addi	sp,sp,-48
2001381a:	d606                	sw	ra,44(sp)
2001381c:	d422                	sw	s0,40(sp)
2001381e:	1800                	addi	s0,sp,48
20013820:	fca42e23          	sw	a0,-36(s0)
20013824:	fcb42c23          	sw	a1,-40(s0)
E:/GitHub/HiFive01-RevB/FS_workspace/004_UART_TXRX/freedom-metal/src/drivers/riscv_plic0.c:201
    struct __metal_driver_riscv_plic0 *plic = (void *)(controller);
20013828:	fdc42783          	lw	a5,-36(s0)
2001382c:	fef42623          	sw	a5,-20(s0)
E:/GitHub/HiFive01-RevB/FS_workspace/004_UART_TXRX/freedom-metal/src/drivers/riscv_plic0.c:203

    if (id >= __metal_driver_sifive_plic0_num_interrupts(controller)) {
20013830:	fdc42503          	lw	a0,-36(s0)
20013834:	9d9ff0ef          	jal	ra,2001320c <__metal_driver_sifive_plic0_num_interrupts>
20013838:	872a                	mv	a4,a0
2001383a:	fd842783          	lw	a5,-40(s0)
2001383e:	00e7c463          	blt	a5,a4,20013846 <__metal_driver_riscv_plic0_disable+0x2e>
E:/GitHub/HiFive01-RevB/FS_workspace/004_UART_TXRX/freedom-metal/src/drivers/riscv_plic0.c:204
        return -1;
20013842:	57fd                	li	a5,-1
20013844:	a821                	j	2001385c <__metal_driver_riscv_plic0_disable+0x44>
E:/GitHub/HiFive01-RevB/FS_workspace/004_UART_TXRX/freedom-metal/src/drivers/riscv_plic0.c:206
    }
    __metal_plic0_enable(plic, __metal_myhart_id(), id, METAL_DISABLE);
20013846:	85cfe0ef          	jal	ra,200118a2 <__metal_myhart_id>
2001384a:	87aa                	mv	a5,a0
2001384c:	4681                	li	a3,0
2001384e:	fd842603          	lw	a2,-40(s0)
20013852:	85be                	mv	a1,a5
20013854:	fec42503          	lw	a0,-20(s0)
20013858:	3119                	jal	2001345e <__metal_plic0_enable>
E:/GitHub/HiFive01-RevB/FS_workspace/004_UART_TXRX/freedom-metal/src/drivers/riscv_plic0.c:207
    return 0;
2001385a:	4781                	li	a5,0
E:/GitHub/HiFive01-RevB/FS_workspace/004_UART_TXRX/freedom-metal/src/drivers/riscv_plic0.c:208
}
2001385c:	853e                	mv	a0,a5
2001385e:	50b2                	lw	ra,44(sp)
20013860:	5422                	lw	s0,40(sp)
20013862:	6145                	addi	sp,sp,48
20013864:	8082                	ret

20013866 <__metal_driver_riscv_plic0_set_threshold>:
__metal_driver_riscv_plic0_set_threshold():
E:/GitHub/HiFive01-RevB/FS_workspace/004_UART_TXRX/freedom-metal/src/drivers/riscv_plic0.c:211

int __metal_driver_riscv_plic0_set_threshold(struct metal_interrupt *controller,
                                             unsigned int threshold) {
20013866:	1101                	addi	sp,sp,-32
20013868:	ce06                	sw	ra,28(sp)
2001386a:	cc22                	sw	s0,24(sp)
2001386c:	1000                	addi	s0,sp,32
2001386e:	fea42623          	sw	a0,-20(s0)
20013872:	feb42423          	sw	a1,-24(s0)
E:/GitHub/HiFive01-RevB/FS_workspace/004_UART_TXRX/freedom-metal/src/drivers/riscv_plic0.c:212
    return __metal_plic0_set_threshold(controller, __metal_myhart_id(),
20013876:	82cfe0ef          	jal	ra,200118a2 <__metal_myhart_id>
2001387a:	87aa                	mv	a5,a0
2001387c:	fe842603          	lw	a2,-24(s0)
20013880:	85be                	mv	a1,a5
20013882:	fec42503          	lw	a0,-20(s0)
20013886:	ac3ff0ef          	jal	ra,20013348 <__metal_plic0_set_threshold>
2001388a:	87aa                	mv	a5,a0
E:/GitHub/HiFive01-RevB/FS_workspace/004_UART_TXRX/freedom-metal/src/drivers/riscv_plic0.c:214
                                       threshold);
}
2001388c:	853e                	mv	a0,a5
2001388e:	40f2                	lw	ra,28(sp)
20013890:	4462                	lw	s0,24(sp)
20013892:	6105                	addi	sp,sp,32
20013894:	8082                	ret

20013896 <__metal_driver_riscv_plic0_get_threshold>:
__metal_driver_riscv_plic0_get_threshold():
E:/GitHub/HiFive01-RevB/FS_workspace/004_UART_TXRX/freedom-metal/src/drivers/riscv_plic0.c:217

unsigned int
__metal_driver_riscv_plic0_get_threshold(struct metal_interrupt *controller) {
20013896:	1101                	addi	sp,sp,-32
20013898:	ce06                	sw	ra,28(sp)
2001389a:	cc22                	sw	s0,24(sp)
2001389c:	1000                	addi	s0,sp,32
2001389e:	fea42623          	sw	a0,-20(s0)
E:/GitHub/HiFive01-RevB/FS_workspace/004_UART_TXRX/freedom-metal/src/drivers/riscv_plic0.c:218
    return __metal_plic0_get_threshold(controller, __metal_myhart_id());
200138a2:	800fe0ef          	jal	ra,200118a2 <__metal_myhart_id>
200138a6:	87aa                	mv	a5,a0
200138a8:	85be                	mv	a1,a5
200138aa:	fec42503          	lw	a0,-20(s0)
200138ae:	ae1ff0ef          	jal	ra,2001338e <__metal_plic0_get_threshold>
200138b2:	87aa                	mv	a5,a0
E:/GitHub/HiFive01-RevB/FS_workspace/004_UART_TXRX/freedom-metal/src/drivers/riscv_plic0.c:219
}
200138b4:	853e                	mv	a0,a5
200138b6:	40f2                	lw	ra,28(sp)
200138b8:	4462                	lw	s0,24(sp)
200138ba:	6105                	addi	sp,sp,32
200138bc:	8082                	ret

200138be <__metal_driver_riscv_plic0_affinity_enable>:
__metal_driver_riscv_plic0_affinity_enable():
E:/GitHub/HiFive01-RevB/FS_workspace/004_UART_TXRX/freedom-metal/src/drivers/riscv_plic0.c:223

metal_affinity
__metal_driver_riscv_plic0_affinity_enable(struct metal_interrupt *controller,
                                           metal_affinity bitmask, int id) {
200138be:	7179                	addi	sp,sp,-48
200138c0:	d606                	sw	ra,44(sp)
200138c2:	d422                	sw	s0,40(sp)
200138c4:	1800                	addi	s0,sp,48
200138c6:	fca42e23          	sw	a0,-36(s0)
200138ca:	fcb42c23          	sw	a1,-40(s0)
200138ce:	fcc42a23          	sw	a2,-44(s0)
E:/GitHub/HiFive01-RevB/FS_workspace/004_UART_TXRX/freedom-metal/src/drivers/riscv_plic0.c:224
    metal_affinity ret = {0};
200138d2:	fe042223          	sw	zero,-28(s0)
E:/GitHub/HiFive01-RevB/FS_workspace/004_UART_TXRX/freedom-metal/src/drivers/riscv_plic0.c:227
    int context;

    struct __metal_driver_riscv_plic0 *plic = (void *)(controller);
200138d6:	fdc42783          	lw	a5,-36(s0)
200138da:	fef42423          	sw	a5,-24(s0)
E:/GitHub/HiFive01-RevB/FS_workspace/004_UART_TXRX/freedom-metal/src/drivers/riscv_plic0.c:229

    if (id >= __metal_driver_sifive_plic0_num_interrupts(controller)) {
200138de:	fdc42503          	lw	a0,-36(s0)
200138e2:	92bff0ef          	jal	ra,2001320c <__metal_driver_sifive_plic0_num_interrupts>
200138e6:	872a                	mv	a4,a0
200138e8:	fd442783          	lw	a5,-44(s0)
200138ec:	00e7c863          	blt	a5,a4,200138fc <__metal_driver_riscv_plic0_affinity_enable+0x3e>
E:/GitHub/HiFive01-RevB/FS_workspace/004_UART_TXRX/freedom-metal/src/drivers/riscv_plic0.c:230
        metal_affinity_set_val(ret, -1);
200138f0:	57fd                	li	a5,-1
200138f2:	fef42223          	sw	a5,-28(s0)
E:/GitHub/HiFive01-RevB/FS_workspace/004_UART_TXRX/freedom-metal/src/drivers/riscv_plic0.c:231
        return ret;
200138f6:	fe442783          	lw	a5,-28(s0)
200138fa:	a891                	j	2001394e <__metal_driver_riscv_plic0_affinity_enable+0x90>
E:/GitHub/HiFive01-RevB/FS_workspace/004_UART_TXRX/freedom-metal/src/drivers/riscv_plic0.c:234
    }

    for_each_metal_affinity(context, bitmask) {
200138fc:	fe042623          	sw	zero,-20(s0)
20013900:	a091                	j	20013944 <__metal_driver_riscv_plic0_affinity_enable+0x86>
E:/GitHub/HiFive01-RevB/FS_workspace/004_UART_TXRX/freedom-metal/src/drivers/riscv_plic0.c:235
        if (context != 0)
20013902:	fec42783          	lw	a5,-20(s0)
20013906:	c78d                	beqz	a5,20013930 <__metal_driver_riscv_plic0_affinity_enable+0x72>
E:/GitHub/HiFive01-RevB/FS_workspace/004_UART_TXRX/freedom-metal/src/drivers/riscv_plic0.c:236
            metal_affinity_set_bit(
20013908:	4685                	li	a3,1
2001390a:	fd442603          	lw	a2,-44(s0)
2001390e:	fec42583          	lw	a1,-20(s0)
20013912:	fe842503          	lw	a0,-24(s0)
20013916:	36a1                	jal	2001345e <__metal_plic0_enable>
20013918:	87aa                	mv	a5,a0
2001391a:	0017f713          	andi	a4,a5,1
2001391e:	fec42783          	lw	a5,-20(s0)
20013922:	00f71733          	sll	a4,a4,a5
20013926:	fe442783          	lw	a5,-28(s0)
2001392a:	8fd9                	or	a5,a5,a4
2001392c:	fef42223          	sw	a5,-28(s0)
E:/GitHub/HiFive01-RevB/FS_workspace/004_UART_TXRX/freedom-metal/src/drivers/riscv_plic0.c:234 (discriminator 2)
    for_each_metal_affinity(context, bitmask) {
20013930:	fec42783          	lw	a5,-20(s0)
20013934:	0785                	addi	a5,a5,1
20013936:	fef42623          	sw	a5,-20(s0)
2001393a:	fd842783          	lw	a5,-40(s0)
2001393e:	8385                	srli	a5,a5,0x1
20013940:	fcf42c23          	sw	a5,-40(s0)
E:/GitHub/HiFive01-RevB/FS_workspace/004_UART_TXRX/freedom-metal/src/drivers/riscv_plic0.c:234 (discriminator 1)
20013944:	fd842783          	lw	a5,-40(s0)
20013948:	ffcd                	bnez	a5,20013902 <__metal_driver_riscv_plic0_affinity_enable+0x44>
E:/GitHub/HiFive01-RevB/FS_workspace/004_UART_TXRX/freedom-metal/src/drivers/riscv_plic0.c:241
                ret, context,
                __metal_plic0_enable(plic, context, id, METAL_ENABLE));
    }

    return ret;
2001394a:	fe442783          	lw	a5,-28(s0)
E:/GitHub/HiFive01-RevB/FS_workspace/004_UART_TXRX/freedom-metal/src/drivers/riscv_plic0.c:242 (discriminator 1)
}
2001394e:	853e                	mv	a0,a5
20013950:	50b2                	lw	ra,44(sp)
20013952:	5422                	lw	s0,40(sp)
20013954:	6145                	addi	sp,sp,48
20013956:	8082                	ret

20013958 <__metal_driver_riscv_plic0_affinity_disable>:
__metal_driver_riscv_plic0_affinity_disable():
E:/GitHub/HiFive01-RevB/FS_workspace/004_UART_TXRX/freedom-metal/src/drivers/riscv_plic0.c:246

metal_affinity
__metal_driver_riscv_plic0_affinity_disable(struct metal_interrupt *controller,
                                            metal_affinity bitmask, int id) {
20013958:	7179                	addi	sp,sp,-48
2001395a:	d606                	sw	ra,44(sp)
2001395c:	d422                	sw	s0,40(sp)
2001395e:	1800                	addi	s0,sp,48
20013960:	fca42e23          	sw	a0,-36(s0)
20013964:	fcb42c23          	sw	a1,-40(s0)
20013968:	fcc42a23          	sw	a2,-44(s0)
E:/GitHub/HiFive01-RevB/FS_workspace/004_UART_TXRX/freedom-metal/src/drivers/riscv_plic0.c:247
    metal_affinity ret = {0};
2001396c:	fe042223          	sw	zero,-28(s0)
E:/GitHub/HiFive01-RevB/FS_workspace/004_UART_TXRX/freedom-metal/src/drivers/riscv_plic0.c:250
    int context;

    struct __metal_driver_riscv_plic0 *plic = (void *)(controller);
20013970:	fdc42783          	lw	a5,-36(s0)
20013974:	fef42423          	sw	a5,-24(s0)
E:/GitHub/HiFive01-RevB/FS_workspace/004_UART_TXRX/freedom-metal/src/drivers/riscv_plic0.c:252

    if (id >= __metal_driver_sifive_plic0_num_interrupts(controller)) {
20013978:	fdc42503          	lw	a0,-36(s0)
2001397c:	891ff0ef          	jal	ra,2001320c <__metal_driver_sifive_plic0_num_interrupts>
20013980:	872a                	mv	a4,a0
20013982:	fd442783          	lw	a5,-44(s0)
20013986:	00e7c863          	blt	a5,a4,20013996 <__metal_driver_riscv_plic0_affinity_disable+0x3e>
E:/GitHub/HiFive01-RevB/FS_workspace/004_UART_TXRX/freedom-metal/src/drivers/riscv_plic0.c:253
        metal_affinity_set_val(ret, -1);
2001398a:	57fd                	li	a5,-1
2001398c:	fef42223          	sw	a5,-28(s0)
E:/GitHub/HiFive01-RevB/FS_workspace/004_UART_TXRX/freedom-metal/src/drivers/riscv_plic0.c:254
        return ret;
20013990:	fe442783          	lw	a5,-28(s0)
20013994:	a899                	j	200139ea <__metal_driver_riscv_plic0_affinity_disable+0x92>
E:/GitHub/HiFive01-RevB/FS_workspace/004_UART_TXRX/freedom-metal/src/drivers/riscv_plic0.c:257
    }

    for_each_metal_affinity(context, bitmask) {
20013996:	fe042623          	sw	zero,-20(s0)
2001399a:	a099                	j	200139e0 <__metal_driver_riscv_plic0_affinity_disable+0x88>
E:/GitHub/HiFive01-RevB/FS_workspace/004_UART_TXRX/freedom-metal/src/drivers/riscv_plic0.c:258
        if (context != 0)
2001399c:	fec42783          	lw	a5,-20(s0)
200139a0:	c795                	beqz	a5,200139cc <__metal_driver_riscv_plic0_affinity_disable+0x74>
E:/GitHub/HiFive01-RevB/FS_workspace/004_UART_TXRX/freedom-metal/src/drivers/riscv_plic0.c:259
            metal_affinity_set_bit(
200139a2:	4681                	li	a3,0
200139a4:	fd442603          	lw	a2,-44(s0)
200139a8:	fec42583          	lw	a1,-20(s0)
200139ac:	fe842503          	lw	a0,-24(s0)
200139b0:	aafff0ef          	jal	ra,2001345e <__metal_plic0_enable>
200139b4:	87aa                	mv	a5,a0
200139b6:	0017f713          	andi	a4,a5,1
200139ba:	fec42783          	lw	a5,-20(s0)
200139be:	00f71733          	sll	a4,a4,a5
200139c2:	fe442783          	lw	a5,-28(s0)
200139c6:	8fd9                	or	a5,a5,a4
200139c8:	fef42223          	sw	a5,-28(s0)
E:/GitHub/HiFive01-RevB/FS_workspace/004_UART_TXRX/freedom-metal/src/drivers/riscv_plic0.c:257 (discriminator 2)
    for_each_metal_affinity(context, bitmask) {
200139cc:	fec42783          	lw	a5,-20(s0)
200139d0:	0785                	addi	a5,a5,1
200139d2:	fef42623          	sw	a5,-20(s0)
200139d6:	fd842783          	lw	a5,-40(s0)
200139da:	8385                	srli	a5,a5,0x1
200139dc:	fcf42c23          	sw	a5,-40(s0)
E:/GitHub/HiFive01-RevB/FS_workspace/004_UART_TXRX/freedom-metal/src/drivers/riscv_plic0.c:257 (discriminator 1)
200139e0:	fd842783          	lw	a5,-40(s0)
200139e4:	ffc5                	bnez	a5,2001399c <__metal_driver_riscv_plic0_affinity_disable+0x44>
E:/GitHub/HiFive01-RevB/FS_workspace/004_UART_TXRX/freedom-metal/src/drivers/riscv_plic0.c:264
                ret, context,
                __metal_plic0_enable(plic, context, id, METAL_DISABLE));
    }

    return ret;
200139e6:	fe442783          	lw	a5,-28(s0)
E:/GitHub/HiFive01-RevB/FS_workspace/004_UART_TXRX/freedom-metal/src/drivers/riscv_plic0.c:265 (discriminator 1)
}
200139ea:	853e                	mv	a0,a5
200139ec:	50b2                	lw	ra,44(sp)
200139ee:	5422                	lw	s0,40(sp)
200139f0:	6145                	addi	sp,sp,48
200139f2:	8082                	ret

200139f4 <__metal_driver_riscv_plic0_affinity_set_threshold>:
__metal_driver_riscv_plic0_affinity_set_threshold():
E:/GitHub/HiFive01-RevB/FS_workspace/004_UART_TXRX/freedom-metal/src/drivers/riscv_plic0.c:269

metal_affinity __metal_driver_riscv_plic0_affinity_set_threshold(
    struct metal_interrupt *controller, metal_affinity bitmask,
    unsigned int threshold) {
200139f4:	7179                	addi	sp,sp,-48
200139f6:	d606                	sw	ra,44(sp)
200139f8:	d422                	sw	s0,40(sp)
200139fa:	1800                	addi	s0,sp,48
200139fc:	fca42e23          	sw	a0,-36(s0)
20013a00:	fcb42c23          	sw	a1,-40(s0)
20013a04:	fcc42a23          	sw	a2,-44(s0)
E:/GitHub/HiFive01-RevB/FS_workspace/004_UART_TXRX/freedom-metal/src/drivers/riscv_plic0.c:270
    metal_affinity ret = {0};
20013a08:	fe042423          	sw	zero,-24(s0)
E:/GitHub/HiFive01-RevB/FS_workspace/004_UART_TXRX/freedom-metal/src/drivers/riscv_plic0.c:273
    int context;

    for_each_metal_affinity(context, bitmask) {
20013a0c:	fe042623          	sw	zero,-20(s0)
20013a10:	a091                	j	20013a54 <__metal_driver_riscv_plic0_affinity_set_threshold+0x60>
E:/GitHub/HiFive01-RevB/FS_workspace/004_UART_TXRX/freedom-metal/src/drivers/riscv_plic0.c:274
        if (context != 0)
20013a12:	fec42783          	lw	a5,-20(s0)
20013a16:	c78d                	beqz	a5,20013a40 <__metal_driver_riscv_plic0_affinity_set_threshold+0x4c>
E:/GitHub/HiFive01-RevB/FS_workspace/004_UART_TXRX/freedom-metal/src/drivers/riscv_plic0.c:275
            metal_affinity_set_bit(
20013a18:	fd442603          	lw	a2,-44(s0)
20013a1c:	fec42583          	lw	a1,-20(s0)
20013a20:	fdc42503          	lw	a0,-36(s0)
20013a24:	925ff0ef          	jal	ra,20013348 <__metal_plic0_set_threshold>
20013a28:	87aa                	mv	a5,a0
20013a2a:	0017f713          	andi	a4,a5,1
20013a2e:	fec42783          	lw	a5,-20(s0)
20013a32:	00f71733          	sll	a4,a4,a5
20013a36:	fe842783          	lw	a5,-24(s0)
20013a3a:	8fd9                	or	a5,a5,a4
20013a3c:	fef42423          	sw	a5,-24(s0)
E:/GitHub/HiFive01-RevB/FS_workspace/004_UART_TXRX/freedom-metal/src/drivers/riscv_plic0.c:273 (discriminator 2)
    for_each_metal_affinity(context, bitmask) {
20013a40:	fec42783          	lw	a5,-20(s0)
20013a44:	0785                	addi	a5,a5,1
20013a46:	fef42623          	sw	a5,-20(s0)
20013a4a:	fd842783          	lw	a5,-40(s0)
20013a4e:	8385                	srli	a5,a5,0x1
20013a50:	fcf42c23          	sw	a5,-40(s0)
E:/GitHub/HiFive01-RevB/FS_workspace/004_UART_TXRX/freedom-metal/src/drivers/riscv_plic0.c:273 (discriminator 1)
20013a54:	fd842783          	lw	a5,-40(s0)
20013a58:	ffcd                	bnez	a5,20013a12 <__metal_driver_riscv_plic0_affinity_set_threshold+0x1e>
E:/GitHub/HiFive01-RevB/FS_workspace/004_UART_TXRX/freedom-metal/src/drivers/riscv_plic0.c:280
                ret, context,
                __metal_plic0_set_threshold(controller, context, threshold));
    }

    return ret;
20013a5a:	fe842783          	lw	a5,-24(s0)
E:/GitHub/HiFive01-RevB/FS_workspace/004_UART_TXRX/freedom-metal/src/drivers/riscv_plic0.c:281
}
20013a5e:	853e                	mv	a0,a5
20013a60:	50b2                	lw	ra,44(sp)
20013a62:	5422                	lw	s0,40(sp)
20013a64:	6145                	addi	sp,sp,48
20013a66:	8082                	ret

20013a68 <__metal_driver_riscv_plic0_affinity_get_threshold>:
__metal_driver_riscv_plic0_affinity_get_threshold():
E:/GitHub/HiFive01-RevB/FS_workspace/004_UART_TXRX/freedom-metal/src/drivers/riscv_plic0.c:284

unsigned int __metal_driver_riscv_plic0_affinity_get_threshold(
    struct metal_interrupt *controller, int context_id) {
20013a68:	1101                	addi	sp,sp,-32
20013a6a:	ce06                	sw	ra,28(sp)
20013a6c:	cc22                	sw	s0,24(sp)
20013a6e:	1000                	addi	s0,sp,32
20013a70:	fea42623          	sw	a0,-20(s0)
20013a74:	feb42423          	sw	a1,-24(s0)
E:/GitHub/HiFive01-RevB/FS_workspace/004_UART_TXRX/freedom-metal/src/drivers/riscv_plic0.c:285
    __metal_plic0_get_threshold(controller, context_id);
20013a78:	fe842583          	lw	a1,-24(s0)
20013a7c:	fec42503          	lw	a0,-20(s0)
20013a80:	90fff0ef          	jal	ra,2001338e <__metal_plic0_get_threshold>
E:/GitHub/HiFive01-RevB/FS_workspace/004_UART_TXRX/freedom-metal/src/drivers/riscv_plic0.c:286
    return 0;
20013a84:	4781                	li	a5,0
E:/GitHub/HiFive01-RevB/FS_workspace/004_UART_TXRX/freedom-metal/src/drivers/riscv_plic0.c:287
}
20013a86:	853e                	mv	a0,a5
20013a88:	40f2                	lw	ra,28(sp)
20013a8a:	4462                	lw	s0,24(sp)
20013a8c:	6105                	addi	sp,sp,32
20013a8e:	8082                	ret

20013a90 <__metal_driver_sifive_fe310_g000_hfrosc_ref>:
__metal_driver_sifive_fe310_g000_hfrosc_ref():
E:\GitHub\HiFive01-RevB\FS_workspace\004_UART_TXRX\bsp\build\debug/./metal/machine.h:1242



/* --------------------- sifive_fe310_g000_hfrosc ------------ */
static __inline__ struct metal_clock * __metal_driver_sifive_fe310_g000_hfrosc_ref(const struct metal_clock *clock)
{
20013a90:	1101                	addi	sp,sp,-32
20013a92:	ce22                	sw	s0,28(sp)
20013a94:	1000                	addi	s0,sp,32
20013a96:	fea42623          	sw	a0,-20(s0)
E:\GitHub\HiFive01-RevB\FS_workspace\004_UART_TXRX\bsp\build\debug/./metal/machine.h:1243
		return (struct metal_clock *)&__metal_dt_clock_2.clock;
20013a9a:	800007b7          	lui	a5,0x80000
20013a9e:	01878793          	addi	a5,a5,24 # 80000018 <__global_pointer$+0xffffed68>
E:\GitHub\HiFive01-RevB\FS_workspace\004_UART_TXRX\bsp\build\debug/./metal/machine.h:1244
}
20013aa2:	853e                	mv	a0,a5
20013aa4:	4472                	lw	s0,28(sp)
20013aa6:	6105                	addi	sp,sp,32
20013aa8:	8082                	ret

20013aaa <__metal_driver_sifive_fe310_g000_hfrosc_config_base>:
__metal_driver_sifive_fe310_g000_hfrosc_config_base():
E:\GitHub\HiFive01-RevB\FS_workspace\004_UART_TXRX\bsp\build\debug/./metal/machine.h:1247

static __inline__ struct __metal_driver_sifive_fe310_g000_prci * __metal_driver_sifive_fe310_g000_hfrosc_config_base(const struct metal_clock *clock)
{
20013aaa:	1101                	addi	sp,sp,-32
20013aac:	ce22                	sw	s0,28(sp)
20013aae:	1000                	addi	s0,sp,32
20013ab0:	fea42623          	sw	a0,-20(s0)
E:\GitHub\HiFive01-RevB\FS_workspace\004_UART_TXRX\bsp\build\debug/./metal/machine.h:1248
		return (struct __metal_driver_sifive_fe310_g000_prci *)&__metal_dt_prci_10008000;
20013ab4:	82c18793          	addi	a5,gp,-2004 # 80000adc <__metal_dt_prci_10008000>
E:\GitHub\HiFive01-RevB\FS_workspace\004_UART_TXRX\bsp\build\debug/./metal/machine.h:1249
}
20013ab8:	853e                	mv	a0,a5
20013aba:	4472                	lw	s0,28(sp)
20013abc:	6105                	addi	sp,sp,32
20013abe:	8082                	ret

20013ac0 <__metal_driver_sifive_fe310_g000_hfrosc_config_offset>:
__metal_driver_sifive_fe310_g000_hfrosc_config_offset():
E:\GitHub\HiFive01-RevB\FS_workspace\004_UART_TXRX\bsp\build\debug/./metal/machine.h:1257
{
		return &__metal_driver_vtable_sifive_fe310_g000_prci;
}

static __inline__ long __metal_driver_sifive_fe310_g000_hfrosc_config_offset(const struct metal_clock *clock)
{
20013ac0:	1101                	addi	sp,sp,-32
20013ac2:	ce22                	sw	s0,28(sp)
20013ac4:	1000                	addi	s0,sp,32
20013ac6:	fea42623          	sw	a0,-20(s0)
E:\GitHub\HiFive01-RevB\FS_workspace\004_UART_TXRX\bsp\build\debug/./metal/machine.h:1258
		return METAL_SIFIVE_FE310_G000_PRCI_HFROSCCFG;
20013aca:	4781                	li	a5,0
E:\GitHub\HiFive01-RevB\FS_workspace\004_UART_TXRX\bsp\build\debug/./metal/machine.h:1259
}
20013acc:	853e                	mv	a0,a5
20013ace:	4472                	lw	s0,28(sp)
20013ad0:	6105                	addi	sp,sp,32
20013ad2:	8082                	ret

20013ad4 <__metal_driver_sifive_fe310_g000_prci_vtable>:
__metal_driver_sifive_fe310_g000_prci_vtable():
E:\GitHub\HiFive01-RevB\FS_workspace\004_UART_TXRX\bsp\build\debug/./metal/machine.h:1374
{
		return METAL_SIFIVE_FE310_G000_PRCI_10008000_SIZE;
}

static __inline__ const struct __metal_driver_vtable_sifive_fe310_g000_prci * __metal_driver_sifive_fe310_g000_prci_vtable( )
{
20013ad4:	1141                	addi	sp,sp,-16
20013ad6:	c622                	sw	s0,12(sp)
20013ad8:	0800                	addi	s0,sp,16
E:\GitHub\HiFive01-RevB\FS_workspace\004_UART_TXRX\bsp\build\debug/./metal/machine.h:1375
		return &__metal_driver_vtable_sifive_fe310_g000_prci;
20013ada:	200117b7          	lui	a5,0x20011
20013ade:	f0878793          	addi	a5,a5,-248 # 20010f08 <__metal_driver_vtable_sifive_fe310_g000_prci>
E:\GitHub\HiFive01-RevB\FS_workspace\004_UART_TXRX\bsp\build\debug/./metal/machine.h:1376
}
20013ae2:	853e                	mv	a0,a5
20013ae4:	4432                	lw	s0,12(sp)
20013ae6:	0141                	addi	sp,sp,16
20013ae8:	8082                	ret

20013aea <__metal_driver_sifive_fe310_g000_hfrosc_get_rate_hz>:
__metal_driver_sifive_fe310_g000_hfrosc_get_rate_hz():
E:/GitHub/HiFive01-RevB/FS_workspace/004_UART_TXRX/freedom-metal/src/drivers/sifive_fe310-g000_hfrosc.c:17
#define CONFIG_TRIM 0x001F0000UL
#define CONFIG_ENABLE 0x40000000UL
#define CONFIG_READY 0x80000000UL

long __metal_driver_sifive_fe310_g000_hfrosc_get_rate_hz(
    const struct metal_clock *clock) {
20013aea:	7139                	addi	sp,sp,-64
20013aec:	de06                	sw	ra,60(sp)
20013aee:	dc22                	sw	s0,56(sp)
20013af0:	0080                	addi	s0,sp,64
20013af2:	fca42623          	sw	a0,-52(s0)
E:/GitHub/HiFive01-RevB/FS_workspace/004_UART_TXRX/freedom-metal/src/drivers/sifive_fe310-g000_hfrosc.c:19
    struct metal_clock *ref =
        __metal_driver_sifive_fe310_g000_hfrosc_ref(clock);
20013af6:	fcc42503          	lw	a0,-52(s0)
20013afa:	3f59                	jal	20013a90 <__metal_driver_sifive_fe310_g000_hfrosc_ref>
20013afc:	fea42623          	sw	a0,-20(s0)
E:/GitHub/HiFive01-RevB/FS_workspace/004_UART_TXRX/freedom-metal/src/drivers/sifive_fe310-g000_hfrosc.c:21
    long config_offset =
        __metal_driver_sifive_fe310_g000_hfrosc_config_offset(clock);
20013b00:	fcc42503          	lw	a0,-52(s0)
20013b04:	3f75                	jal	20013ac0 <__metal_driver_sifive_fe310_g000_hfrosc_config_offset>
20013b06:	fea42423          	sw	a0,-24(s0)
E:/GitHub/HiFive01-RevB/FS_workspace/004_UART_TXRX/freedom-metal/src/drivers/sifive_fe310-g000_hfrosc.c:23
    struct __metal_driver_sifive_fe310_g000_prci *config_base =
        __metal_driver_sifive_fe310_g000_hfrosc_config_base(clock);
20013b0a:	fcc42503          	lw	a0,-52(s0)
20013b0e:	3f71                	jal	20013aaa <__metal_driver_sifive_fe310_g000_hfrosc_config_base>
20013b10:	fea42223          	sw	a0,-28(s0)
E:/GitHub/HiFive01-RevB/FS_workspace/004_UART_TXRX/freedom-metal/src/drivers/sifive_fe310-g000_hfrosc.c:25
    const struct __metal_driver_vtable_sifive_fe310_g000_prci *vtable =
        __metal_driver_sifive_fe310_g000_prci_vtable();
20013b14:	37c1                	jal	20013ad4 <__metal_driver_sifive_fe310_g000_prci_vtable>
20013b16:	fea42023          	sw	a0,-32(s0)
E:/GitHub/HiFive01-RevB/FS_workspace/004_UART_TXRX/freedom-metal/src/drivers/sifive_fe310-g000_hfrosc.c:26
    long cfg = vtable->get_reg(config_base, config_offset);
20013b1a:	fe042783          	lw	a5,-32(s0)
20013b1e:	439c                	lw	a5,0(a5)
20013b20:	fe842583          	lw	a1,-24(s0)
20013b24:	fe442503          	lw	a0,-28(s0)
20013b28:	9782                	jalr	a5
20013b2a:	fca42e23          	sw	a0,-36(s0)
E:/GitHub/HiFive01-RevB/FS_workspace/004_UART_TXRX/freedom-metal/src/drivers/sifive_fe310-g000_hfrosc.c:28

    if ((cfg & CONFIG_ENABLE) == 0)
20013b2e:	fdc42703          	lw	a4,-36(s0)
20013b32:	400007b7          	lui	a5,0x40000
20013b36:	8ff9                	and	a5,a5,a4
20013b38:	e399                	bnez	a5,20013b3e <__metal_driver_sifive_fe310_g000_hfrosc_get_rate_hz+0x54>
E:/GitHub/HiFive01-RevB/FS_workspace/004_UART_TXRX/freedom-metal/src/drivers/sifive_fe310-g000_hfrosc.c:29
        return -1;
20013b3a:	57fd                	li	a5,-1
20013b3c:	a025                	j	20013b64 <__metal_driver_sifive_fe310_g000_hfrosc_get_rate_hz+0x7a>
E:/GitHub/HiFive01-RevB/FS_workspace/004_UART_TXRX/freedom-metal/src/drivers/sifive_fe310-g000_hfrosc.c:30
    if ((cfg & CONFIG_READY) == 0)
20013b3e:	fdc42783          	lw	a5,-36(s0)
20013b42:	0007c463          	bltz	a5,20013b4a <__metal_driver_sifive_fe310_g000_hfrosc_get_rate_hz+0x60>
E:/GitHub/HiFive01-RevB/FS_workspace/004_UART_TXRX/freedom-metal/src/drivers/sifive_fe310-g000_hfrosc.c:31
        return -1;
20013b46:	57fd                	li	a5,-1
20013b48:	a831                	j	20013b64 <__metal_driver_sifive_fe310_g000_hfrosc_get_rate_hz+0x7a>
E:/GitHub/HiFive01-RevB/FS_workspace/004_UART_TXRX/freedom-metal/src/drivers/sifive_fe310-g000_hfrosc.c:32
    return metal_clock_get_rate_hz(ref) / ((cfg & CONFIG_DIVIDER) + 1);
20013b4a:	fec42503          	lw	a0,-20(s0)
20013b4e:	4d1010ef          	jal	ra,2001581e <metal_clock_get_rate_hz>
20013b52:	87aa                	mv	a5,a0
20013b54:	873e                	mv	a4,a5
20013b56:	fdc42783          	lw	a5,-36(s0)
20013b5a:	03f7f793          	andi	a5,a5,63
20013b5e:	0785                	addi	a5,a5,1
20013b60:	02f757b3          	divu	a5,a4,a5
E:/GitHub/HiFive01-RevB/FS_workspace/004_UART_TXRX/freedom-metal/src/drivers/sifive_fe310-g000_hfrosc.c:33
}
20013b64:	853e                	mv	a0,a5
20013b66:	50f2                	lw	ra,60(sp)
20013b68:	5462                	lw	s0,56(sp)
20013b6a:	6121                	addi	sp,sp,64
20013b6c:	8082                	ret

20013b6e <__metal_driver_sifive_fe310_g000_hfrosc_set_rate_hz>:
__metal_driver_sifive_fe310_g000_hfrosc_set_rate_hz():
E:/GitHub/HiFive01-RevB/FS_workspace/004_UART_TXRX/freedom-metal/src/drivers/sifive_fe310-g000_hfrosc.c:36

long __metal_driver_sifive_fe310_g000_hfrosc_set_rate_hz(
    struct metal_clock *clock, long rate) {
20013b6e:	1101                	addi	sp,sp,-32
20013b70:	ce06                	sw	ra,28(sp)
20013b72:	cc22                	sw	s0,24(sp)
20013b74:	1000                	addi	s0,sp,32
20013b76:	fea42623          	sw	a0,-20(s0)
20013b7a:	feb42423          	sw	a1,-24(s0)
E:/GitHub/HiFive01-RevB/FS_workspace/004_UART_TXRX/freedom-metal/src/drivers/sifive_fe310-g000_hfrosc.c:37
    return __metal_driver_sifive_fe310_g000_hfrosc_get_rate_hz(clock);
20013b7e:	fec42503          	lw	a0,-20(s0)
20013b82:	37a5                	jal	20013aea <__metal_driver_sifive_fe310_g000_hfrosc_get_rate_hz>
20013b84:	87aa                	mv	a5,a0
E:/GitHub/HiFive01-RevB/FS_workspace/004_UART_TXRX/freedom-metal/src/drivers/sifive_fe310-g000_hfrosc.c:38
}
20013b86:	853e                	mv	a0,a5
20013b88:	40f2                	lw	ra,28(sp)
20013b8a:	4462                	lw	s0,24(sp)
20013b8c:	6105                	addi	sp,sp,32
20013b8e:	8082                	ret

20013b90 <__metal_driver_sifive_fe310_g000_hfxosc_ref>:
__metal_driver_sifive_fe310_g000_hfxosc_ref():
E:\GitHub\HiFive01-RevB\FS_workspace\004_UART_TXRX\bsp\build\debug/./metal/machine.h:1265
{
20013b90:	1101                	addi	sp,sp,-32
20013b92:	ce22                	sw	s0,28(sp)
20013b94:	1000                	addi	s0,sp,32
20013b96:	fea42623          	sw	a0,-20(s0)
E:\GitHub\HiFive01-RevB\FS_workspace\004_UART_TXRX\bsp\build\debug/./metal/machine.h:1266
		return (struct metal_clock *)&__metal_dt_clock_0.clock;
20013b9a:	800007b7          	lui	a5,0x80000
20013b9e:	00c78793          	addi	a5,a5,12 # 8000000c <__global_pointer$+0xffffed5c>
E:\GitHub\HiFive01-RevB\FS_workspace\004_UART_TXRX\bsp\build\debug/./metal/machine.h:1267
}
20013ba2:	853e                	mv	a0,a5
20013ba4:	4472                	lw	s0,28(sp)
20013ba6:	6105                	addi	sp,sp,32
20013ba8:	8082                	ret

20013baa <__metal_driver_sifive_fe310_g000_hfxosc_config_base>:
__metal_driver_sifive_fe310_g000_hfxosc_config_base():
E:\GitHub\HiFive01-RevB\FS_workspace\004_UART_TXRX\bsp\build\debug/./metal/machine.h:1270
{
20013baa:	1101                	addi	sp,sp,-32
20013bac:	ce22                	sw	s0,28(sp)
20013bae:	1000                	addi	s0,sp,32
20013bb0:	fea42623          	sw	a0,-20(s0)
E:\GitHub\HiFive01-RevB\FS_workspace\004_UART_TXRX\bsp\build\debug/./metal/machine.h:1271
		return (struct __metal_driver_sifive_fe310_g000_prci *)&__metal_dt_prci_10008000;
20013bb4:	82c18793          	addi	a5,gp,-2004 # 80000adc <__metal_dt_prci_10008000>
E:\GitHub\HiFive01-RevB\FS_workspace\004_UART_TXRX\bsp\build\debug/./metal/machine.h:1272
}
20013bb8:	853e                	mv	a0,a5
20013bba:	4472                	lw	s0,28(sp)
20013bbc:	6105                	addi	sp,sp,32
20013bbe:	8082                	ret

20013bc0 <__metal_driver_sifive_fe310_g000_hfxosc_config_offset>:
__metal_driver_sifive_fe310_g000_hfxosc_config_offset():
E:\GitHub\HiFive01-RevB\FS_workspace\004_UART_TXRX\bsp\build\debug/./metal/machine.h:1275
{
20013bc0:	1101                	addi	sp,sp,-32
20013bc2:	ce22                	sw	s0,28(sp)
20013bc4:	1000                	addi	s0,sp,32
20013bc6:	fea42623          	sw	a0,-20(s0)
E:\GitHub\HiFive01-RevB\FS_workspace\004_UART_TXRX\bsp\build\debug/./metal/machine.h:1276
		return METAL_SIFIVE_FE310_G000_PRCI_HFXOSCCFG;
20013bca:	4791                	li	a5,4
E:\GitHub\HiFive01-RevB\FS_workspace\004_UART_TXRX\bsp\build\debug/./metal/machine.h:1277
}
20013bcc:	853e                	mv	a0,a5
20013bce:	4472                	lw	s0,28(sp)
20013bd0:	6105                	addi	sp,sp,32
20013bd2:	8082                	ret

20013bd4 <__metal_driver_sifive_fe310_g000_prci_vtable>:
__metal_driver_sifive_fe310_g000_prci_vtable():
E:\GitHub\HiFive01-RevB\FS_workspace\004_UART_TXRX\bsp\build\debug/./metal/machine.h:1374
{
20013bd4:	1141                	addi	sp,sp,-16
20013bd6:	c622                	sw	s0,12(sp)
20013bd8:	0800                	addi	s0,sp,16
E:\GitHub\HiFive01-RevB\FS_workspace\004_UART_TXRX\bsp\build\debug/./metal/machine.h:1375
		return &__metal_driver_vtable_sifive_fe310_g000_prci;
20013bda:	200117b7          	lui	a5,0x20011
20013bde:	f0878793          	addi	a5,a5,-248 # 20010f08 <__metal_driver_vtable_sifive_fe310_g000_prci>
E:\GitHub\HiFive01-RevB\FS_workspace\004_UART_TXRX\bsp\build\debug/./metal/machine.h:1376
}
20013be2:	853e                	mv	a0,a5
20013be4:	4432                	lw	s0,12(sp)
20013be6:	0141                	addi	sp,sp,16
20013be8:	8082                	ret

20013bea <__metal_driver_sifive_fe310_g000_hfxosc_get_rate_hz>:
__metal_driver_sifive_fe310_g000_hfxosc_get_rate_hz():
E:/GitHub/HiFive01-RevB/FS_workspace/004_UART_TXRX/freedom-metal/src/drivers/sifive_fe310-g000_hfxosc.c:15

#define CONFIG_ENABLE 0x40000000UL
#define CONFIG_READY 0x80000000UL

long __metal_driver_sifive_fe310_g000_hfxosc_get_rate_hz(
    const struct metal_clock *clock) {
20013bea:	7139                	addi	sp,sp,-64
20013bec:	de06                	sw	ra,60(sp)
20013bee:	dc22                	sw	s0,56(sp)
20013bf0:	0080                	addi	s0,sp,64
20013bf2:	fca42623          	sw	a0,-52(s0)
E:/GitHub/HiFive01-RevB/FS_workspace/004_UART_TXRX/freedom-metal/src/drivers/sifive_fe310-g000_hfxosc.c:17
    struct metal_clock *ref =
        __metal_driver_sifive_fe310_g000_hfxosc_ref(clock);
20013bf6:	fcc42503          	lw	a0,-52(s0)
20013bfa:	3f59                	jal	20013b90 <__metal_driver_sifive_fe310_g000_hfxosc_ref>
20013bfc:	fea42623          	sw	a0,-20(s0)
E:/GitHub/HiFive01-RevB/FS_workspace/004_UART_TXRX/freedom-metal/src/drivers/sifive_fe310-g000_hfxosc.c:19
    long config_offset =
        __metal_driver_sifive_fe310_g000_hfxosc_config_offset(clock);
20013c00:	fcc42503          	lw	a0,-52(s0)
20013c04:	3f75                	jal	20013bc0 <__metal_driver_sifive_fe310_g000_hfxosc_config_offset>
20013c06:	fea42423          	sw	a0,-24(s0)
E:/GitHub/HiFive01-RevB/FS_workspace/004_UART_TXRX/freedom-metal/src/drivers/sifive_fe310-g000_hfxosc.c:21
    struct __metal_driver_sifive_fe310_g000_prci *config_base =
        __metal_driver_sifive_fe310_g000_hfxosc_config_base(clock);
20013c0a:	fcc42503          	lw	a0,-52(s0)
20013c0e:	3f71                	jal	20013baa <__metal_driver_sifive_fe310_g000_hfxosc_config_base>
20013c10:	fea42223          	sw	a0,-28(s0)
E:/GitHub/HiFive01-RevB/FS_workspace/004_UART_TXRX/freedom-metal/src/drivers/sifive_fe310-g000_hfxosc.c:23
    const struct __metal_driver_vtable_sifive_fe310_g000_prci *vtable =
        __metal_driver_sifive_fe310_g000_prci_vtable();
20013c14:	37c1                	jal	20013bd4 <__metal_driver_sifive_fe310_g000_prci_vtable>
20013c16:	fea42023          	sw	a0,-32(s0)
E:/GitHub/HiFive01-RevB/FS_workspace/004_UART_TXRX/freedom-metal/src/drivers/sifive_fe310-g000_hfxosc.c:24
    long cfg = vtable->get_reg(config_base, config_offset);
20013c1a:	fe042783          	lw	a5,-32(s0)
20013c1e:	439c                	lw	a5,0(a5)
20013c20:	fe842583          	lw	a1,-24(s0)
20013c24:	fe442503          	lw	a0,-28(s0)
20013c28:	9782                	jalr	a5
20013c2a:	fca42e23          	sw	a0,-36(s0)
E:/GitHub/HiFive01-RevB/FS_workspace/004_UART_TXRX/freedom-metal/src/drivers/sifive_fe310-g000_hfxosc.c:26

    if ((cfg & CONFIG_ENABLE) == 0)
20013c2e:	fdc42703          	lw	a4,-36(s0)
20013c32:	400007b7          	lui	a5,0x40000
20013c36:	8ff9                	and	a5,a5,a4
20013c38:	e399                	bnez	a5,20013c3e <__metal_driver_sifive_fe310_g000_hfxosc_get_rate_hz+0x54>
E:/GitHub/HiFive01-RevB/FS_workspace/004_UART_TXRX/freedom-metal/src/drivers/sifive_fe310-g000_hfxosc.c:27
        return -1;
20013c3a:	57fd                	li	a5,-1
20013c3c:	a821                	j	20013c54 <__metal_driver_sifive_fe310_g000_hfxosc_get_rate_hz+0x6a>
E:/GitHub/HiFive01-RevB/FS_workspace/004_UART_TXRX/freedom-metal/src/drivers/sifive_fe310-g000_hfxosc.c:28
    if ((cfg & CONFIG_READY) == 0)
20013c3e:	fdc42783          	lw	a5,-36(s0)
20013c42:	0007c463          	bltz	a5,20013c4a <__metal_driver_sifive_fe310_g000_hfxosc_get_rate_hz+0x60>
E:/GitHub/HiFive01-RevB/FS_workspace/004_UART_TXRX/freedom-metal/src/drivers/sifive_fe310-g000_hfxosc.c:29
        return -1;
20013c46:	57fd                	li	a5,-1
20013c48:	a031                	j	20013c54 <__metal_driver_sifive_fe310_g000_hfxosc_get_rate_hz+0x6a>
E:/GitHub/HiFive01-RevB/FS_workspace/004_UART_TXRX/freedom-metal/src/drivers/sifive_fe310-g000_hfxosc.c:30
    return metal_clock_get_rate_hz(ref);
20013c4a:	fec42503          	lw	a0,-20(s0)
20013c4e:	3d1010ef          	jal	ra,2001581e <metal_clock_get_rate_hz>
20013c52:	87aa                	mv	a5,a0
E:/GitHub/HiFive01-RevB/FS_workspace/004_UART_TXRX/freedom-metal/src/drivers/sifive_fe310-g000_hfxosc.c:31
}
20013c54:	853e                	mv	a0,a5
20013c56:	50f2                	lw	ra,60(sp)
20013c58:	5462                	lw	s0,56(sp)
20013c5a:	6121                	addi	sp,sp,64
20013c5c:	8082                	ret

20013c5e <__metal_driver_sifive_fe310_g000_hfxosc_set_rate_hz>:
__metal_driver_sifive_fe310_g000_hfxosc_set_rate_hz():
E:/GitHub/HiFive01-RevB/FS_workspace/004_UART_TXRX/freedom-metal/src/drivers/sifive_fe310-g000_hfxosc.c:34

long __metal_driver_sifive_fe310_g000_hfxosc_set_rate_hz(
    struct metal_clock *clock, long rate) {
20013c5e:	1101                	addi	sp,sp,-32
20013c60:	ce06                	sw	ra,28(sp)
20013c62:	cc22                	sw	s0,24(sp)
20013c64:	1000                	addi	s0,sp,32
20013c66:	fea42623          	sw	a0,-20(s0)
20013c6a:	feb42423          	sw	a1,-24(s0)
E:/GitHub/HiFive01-RevB/FS_workspace/004_UART_TXRX/freedom-metal/src/drivers/sifive_fe310-g000_hfxosc.c:35
    return __metal_driver_sifive_fe310_g000_hfxosc_get_rate_hz(clock);
20013c6e:	fec42503          	lw	a0,-20(s0)
20013c72:	3fa5                	jal	20013bea <__metal_driver_sifive_fe310_g000_hfxosc_get_rate_hz>
20013c74:	87aa                	mv	a5,a0
E:/GitHub/HiFive01-RevB/FS_workspace/004_UART_TXRX/freedom-metal/src/drivers/sifive_fe310-g000_hfxosc.c:36
}
20013c76:	853e                	mv	a0,a5
20013c78:	40f2                	lw	ra,28(sp)
20013c7a:	4462                	lw	s0,24(sp)
20013c7c:	6105                	addi	sp,sp,32
20013c7e:	8082                	ret

20013c80 <__metal_driver_sifive_fe310_g000_pll_pllsel0>:
__metal_driver_sifive_fe310_g000_pll_pllsel0():
E:\GitHub\HiFive01-RevB\FS_workspace\004_UART_TXRX\bsp\build\debug/./metal/machine.h:1326
{
20013c80:	1101                	addi	sp,sp,-32
20013c82:	ce22                	sw	s0,28(sp)
20013c84:	1000                	addi	s0,sp,32
20013c86:	fea42623          	sw	a0,-20(s0)
E:\GitHub\HiFive01-RevB\FS_workspace\004_UART_TXRX\bsp\build\debug/./metal/machine.h:1327
		return (struct metal_clock *)&__metal_dt_clock_3.clock;
20013c8a:	800017b7          	lui	a5,0x80001
20013c8e:	a2878793          	addi	a5,a5,-1496 # 80000a28 <__global_pointer$+0xfffff778>
E:\GitHub\HiFive01-RevB\FS_workspace\004_UART_TXRX\bsp\build\debug/./metal/machine.h:1328
}
20013c92:	853e                	mv	a0,a5
20013c94:	4472                	lw	s0,28(sp)
20013c96:	6105                	addi	sp,sp,32
20013c98:	8082                	ret

20013c9a <__metal_driver_sifive_fe310_g000_pll_pllref>:
__metal_driver_sifive_fe310_g000_pll_pllref():
E:\GitHub\HiFive01-RevB\FS_workspace\004_UART_TXRX\bsp\build\debug/./metal/machine.h:1331
{
20013c9a:	1101                	addi	sp,sp,-32
20013c9c:	ce22                	sw	s0,28(sp)
20013c9e:	1000                	addi	s0,sp,32
20013ca0:	fea42623          	sw	a0,-20(s0)
E:\GitHub\HiFive01-RevB\FS_workspace\004_UART_TXRX\bsp\build\debug/./metal/machine.h:1332
		return (struct metal_clock *)&__metal_dt_clock_1.clock;
20013ca4:	800017b7          	lui	a5,0x80001
20013ca8:	a3478793          	addi	a5,a5,-1484 # 80000a34 <__global_pointer$+0xfffff784>
E:\GitHub\HiFive01-RevB\FS_workspace\004_UART_TXRX\bsp\build\debug/./metal/machine.h:1333
}
20013cac:	853e                	mv	a0,a5
20013cae:	4472                	lw	s0,28(sp)
20013cb0:	6105                	addi	sp,sp,32
20013cb2:	8082                	ret

20013cb4 <__metal_driver_sifive_fe310_g000_pll_divider_base>:
__metal_driver_sifive_fe310_g000_pll_divider_base():
E:\GitHub\HiFive01-RevB\FS_workspace\004_UART_TXRX\bsp\build\debug/./metal/machine.h:1336
{
20013cb4:	1101                	addi	sp,sp,-32
20013cb6:	ce22                	sw	s0,28(sp)
20013cb8:	1000                	addi	s0,sp,32
20013cba:	fea42623          	sw	a0,-20(s0)
E:\GitHub\HiFive01-RevB\FS_workspace\004_UART_TXRX\bsp\build\debug/./metal/machine.h:1337
		return (struct __metal_driver_sifive_fe310_g000_prci *)&__metal_dt_prci_10008000;
20013cbe:	82c18793          	addi	a5,gp,-2004 # 80000adc <__metal_dt_prci_10008000>
E:\GitHub\HiFive01-RevB\FS_workspace\004_UART_TXRX\bsp\build\debug/./metal/machine.h:1338
}
20013cc2:	853e                	mv	a0,a5
20013cc4:	4472                	lw	s0,28(sp)
20013cc6:	6105                	addi	sp,sp,32
20013cc8:	8082                	ret

20013cca <__metal_driver_sifive_fe310_g000_pll_divider_offset>:
__metal_driver_sifive_fe310_g000_pll_divider_offset():
E:\GitHub\HiFive01-RevB\FS_workspace\004_UART_TXRX\bsp\build\debug/./metal/machine.h:1341
{
20013cca:	1101                	addi	sp,sp,-32
20013ccc:	ce22                	sw	s0,28(sp)
20013cce:	1000                	addi	s0,sp,32
20013cd0:	fea42623          	sw	a0,-20(s0)
E:\GitHub\HiFive01-RevB\FS_workspace\004_UART_TXRX\bsp\build\debug/./metal/machine.h:1342
		return METAL_SIFIVE_FE310_G000_PRCI_PLLOUTDIV;
20013cd4:	47b1                	li	a5,12
E:\GitHub\HiFive01-RevB\FS_workspace\004_UART_TXRX\bsp\build\debug/./metal/machine.h:1343
}
20013cd6:	853e                	mv	a0,a5
20013cd8:	4472                	lw	s0,28(sp)
20013cda:	6105                	addi	sp,sp,32
20013cdc:	8082                	ret

20013cde <__metal_driver_sifive_fe310_g000_pll_config_base>:
__metal_driver_sifive_fe310_g000_pll_config_base():
E:\GitHub\HiFive01-RevB\FS_workspace\004_UART_TXRX\bsp\build\debug/./metal/machine.h:1346
{
20013cde:	1141                	addi	sp,sp,-16
20013ce0:	c622                	sw	s0,12(sp)
20013ce2:	0800                	addi	s0,sp,16
E:\GitHub\HiFive01-RevB\FS_workspace\004_UART_TXRX\bsp\build\debug/./metal/machine.h:1347
		return (struct __metal_driver_sifive_fe310_g000_prci *)&__metal_dt_prci_10008000;
20013ce4:	82c18793          	addi	a5,gp,-2004 # 80000adc <__metal_dt_prci_10008000>
E:\GitHub\HiFive01-RevB\FS_workspace\004_UART_TXRX\bsp\build\debug/./metal/machine.h:1348
}
20013ce8:	853e                	mv	a0,a5
20013cea:	4432                	lw	s0,12(sp)
20013cec:	0141                	addi	sp,sp,16
20013cee:	8082                	ret

20013cf0 <__metal_driver_sifive_fe310_g000_pll_config_offset>:
__metal_driver_sifive_fe310_g000_pll_config_offset():
E:\GitHub\HiFive01-RevB\FS_workspace\004_UART_TXRX\bsp\build\debug/./metal/machine.h:1351
{
20013cf0:	1141                	addi	sp,sp,-16
20013cf2:	c622                	sw	s0,12(sp)
20013cf4:	0800                	addi	s0,sp,16
E:\GitHub\HiFive01-RevB\FS_workspace\004_UART_TXRX\bsp\build\debug/./metal/machine.h:1352
		return METAL_SIFIVE_FE310_G000_PRCI_PLLCFG;
20013cf6:	47a1                	li	a5,8
E:\GitHub\HiFive01-RevB\FS_workspace\004_UART_TXRX\bsp\build\debug/./metal/machine.h:1353
}
20013cf8:	853e                	mv	a0,a5
20013cfa:	4432                	lw	s0,12(sp)
20013cfc:	0141                	addi	sp,sp,16
20013cfe:	8082                	ret

20013d00 <__metal_driver_sifive_fe310_g000_pll_init_rate>:
__metal_driver_sifive_fe310_g000_pll_init_rate():
E:\GitHub\HiFive01-RevB\FS_workspace\004_UART_TXRX\bsp\build\debug/./metal/machine.h:1356
{
20013d00:	1141                	addi	sp,sp,-16
20013d02:	c622                	sw	s0,12(sp)
20013d04:	0800                	addi	s0,sp,16
E:\GitHub\HiFive01-RevB\FS_workspace\004_UART_TXRX\bsp\build\debug/./metal/machine.h:1357
		return 16000000;
20013d06:	00f427b7          	lui	a5,0xf42
20013d0a:	40078793          	addi	a5,a5,1024 # f42400 <__heap_size+0xf41c00>
E:\GitHub\HiFive01-RevB\FS_workspace\004_UART_TXRX\bsp\build\debug/./metal/machine.h:1358
}
20013d0e:	853e                	mv	a0,a5
20013d10:	4432                	lw	s0,12(sp)
20013d12:	0141                	addi	sp,sp,16
20013d14:	8082                	ret

20013d16 <__metal_driver_sifive_fe310_g000_prci_base>:
__metal_driver_sifive_fe310_g000_prci_base():
E:\GitHub\HiFive01-RevB\FS_workspace\004_UART_TXRX\bsp\build\debug/./metal/machine.h:1364
{
20013d16:	1141                	addi	sp,sp,-16
20013d18:	c622                	sw	s0,12(sp)
20013d1a:	0800                	addi	s0,sp,16
E:\GitHub\HiFive01-RevB\FS_workspace\004_UART_TXRX\bsp\build\debug/./metal/machine.h:1365
		return METAL_SIFIVE_FE310_G000_PRCI_10008000_BASE_ADDRESS;
20013d1c:	100087b7          	lui	a5,0x10008
E:\GitHub\HiFive01-RevB\FS_workspace\004_UART_TXRX\bsp\build\debug/./metal/machine.h:1366
}
20013d20:	853e                	mv	a0,a5
20013d22:	4432                	lw	s0,12(sp)
20013d24:	0141                	addi	sp,sp,16
20013d26:	8082                	ret

20013d28 <__metal_driver_sifive_fe310_g000_prci_vtable>:
__metal_driver_sifive_fe310_g000_prci_vtable():
E:\GitHub\HiFive01-RevB\FS_workspace\004_UART_TXRX\bsp\build\debug/./metal/machine.h:1374
{
20013d28:	1141                	addi	sp,sp,-16
20013d2a:	c622                	sw	s0,12(sp)
20013d2c:	0800                	addi	s0,sp,16
E:\GitHub\HiFive01-RevB\FS_workspace\004_UART_TXRX\bsp\build\debug/./metal/machine.h:1375
		return &__metal_driver_vtable_sifive_fe310_g000_prci;
20013d2e:	200117b7          	lui	a5,0x20011
20013d32:	f0878793          	addi	a5,a5,-248 # 20010f08 <__metal_driver_vtable_sifive_fe310_g000_prci>
E:\GitHub\HiFive01-RevB\FS_workspace\004_UART_TXRX\bsp\build\debug/./metal/machine.h:1376
}
20013d36:	853e                	mv	a0,a5
20013d38:	4432                	lw	s0,12(sp)
20013d3a:	0141                	addi	sp,sp,16
20013d3c:	8082                	ret

20013d3e <get_pll_config_freq>:
get_pll_config_freq():
E:/GitHub/HiFive01-RevB/FS_workspace/004_UART_TXRX/freedom-metal/src/drivers/sifive_fe310-g000_pll.c:141
                                const struct pll_config_t *config) {
20013d3e:	1101                	addi	sp,sp,-32
20013d40:	ce22                	sw	s0,28(sp)
20013d42:	1000                	addi	s0,sp,32
20013d44:	fea42623          	sw	a0,-20(s0)
20013d48:	feb42423          	sw	a1,-24(s0)
E:/GitHub/HiFive01-RevB/FS_workspace/004_UART_TXRX/freedom-metal/src/drivers/sifive_fe310-g000_pll.c:142
    if (pll_input_rate < config->min_input_rate ||
20013d4c:	fe842783          	lw	a5,-24(s0)
20013d50:	479c                	lw	a5,8(a5)
20013d52:	fec42703          	lw	a4,-20(s0)
20013d56:	00f76963          	bltu	a4,a5,20013d68 <get_pll_config_freq+0x2a>
E:/GitHub/HiFive01-RevB/FS_workspace/004_UART_TXRX/freedom-metal/src/drivers/sifive_fe310-g000_pll.c:143 (discriminator 1)
        pll_input_rate > config->max_input_rate)
20013d5a:	fe842783          	lw	a5,-24(s0)
20013d5e:	47dc                	lw	a5,12(a5)
E:/GitHub/HiFive01-RevB/FS_workspace/004_UART_TXRX/freedom-metal/src/drivers/sifive_fe310-g000_pll.c:142 (discriminator 1)
    if (pll_input_rate < config->min_input_rate ||
20013d60:	fec42703          	lw	a4,-20(s0)
20013d64:	00e7f463          	bgeu	a5,a4,20013d6c <get_pll_config_freq+0x2e>
E:/GitHub/HiFive01-RevB/FS_workspace/004_UART_TXRX/freedom-metal/src/drivers/sifive_fe310-g000_pll.c:144
        return PLL_CONFIG_NOT_VALID;
20013d68:	57fd                	li	a5,-1
20013d6a:	a829                	j	20013d84 <get_pll_config_freq+0x46>
E:/GitHub/HiFive01-RevB/FS_workspace/004_UART_TXRX/freedom-metal/src/drivers/sifive_fe310-g000_pll.c:146
    return pll_input_rate * config->multiplier / config->divisor;
20013d6c:	fe842783          	lw	a5,-24(s0)
20013d70:	4398                	lw	a4,0(a5)
20013d72:	fec42783          	lw	a5,-20(s0)
20013d76:	02f70733          	mul	a4,a4,a5
20013d7a:	fe842783          	lw	a5,-24(s0)
20013d7e:	43dc                	lw	a5,4(a5)
20013d80:	02f757b3          	divu	a5,a4,a5
E:/GitHub/HiFive01-RevB/FS_workspace/004_UART_TXRX/freedom-metal/src/drivers/sifive_fe310-g000_pll.c:147
}
20013d84:	853e                	mv	a0,a5
20013d86:	4472                	lw	s0,28(sp)
20013d88:	6105                	addi	sp,sp,32
20013d8a:	8082                	ret

20013d8c <__metal_driver_sifive_fe310_g000_pll_init>:
__metal_driver_sifive_fe310_g000_pll_init():
E:/GitHub/HiFive01-RevB/FS_workspace/004_UART_TXRX/freedom-metal/src/drivers/sifive_fe310-g000_pll.c:162
    struct __metal_driver_sifive_fe310_g000_pll *pll) {
20013d8c:	7139                	addi	sp,sp,-64
20013d8e:	de06                	sw	ra,60(sp)
20013d90:	dc22                	sw	s0,56(sp)
20013d92:	0080                	addi	s0,sp,64
20013d94:	fca42623          	sw	a0,-52(s0)
E:/GitHub/HiFive01-RevB/FS_workspace/004_UART_TXRX/freedom-metal/src/drivers/sifive_fe310-g000_pll.c:164
        __metal_driver_sifive_fe310_g000_pll_pllref(&(pll->clock));
20013d98:	fcc42783          	lw	a5,-52(s0)
20013d9c:	853e                	mv	a0,a5
20013d9e:	3df5                	jal	20013c9a <__metal_driver_sifive_fe310_g000_pll_pllref>
20013da0:	fea42623          	sw	a0,-20(s0)
E:/GitHub/HiFive01-RevB/FS_workspace/004_UART_TXRX/freedom-metal/src/drivers/sifive_fe310-g000_pll.c:165
    long init_rate = __metal_driver_sifive_fe310_g000_pll_init_rate();
20013da4:	3fb1                	jal	20013d00 <__metal_driver_sifive_fe310_g000_pll_init_rate>
20013da6:	fea42423          	sw	a0,-24(s0)
E:/GitHub/HiFive01-RevB/FS_workspace/004_UART_TXRX/freedom-metal/src/drivers/sifive_fe310-g000_pll.c:166
    long config_offset = __metal_driver_sifive_fe310_g000_pll_config_offset();
20013daa:	3799                	jal	20013cf0 <__metal_driver_sifive_fe310_g000_pll_config_offset>
20013dac:	fea42223          	sw	a0,-28(s0)
E:/GitHub/HiFive01-RevB/FS_workspace/004_UART_TXRX/freedom-metal/src/drivers/sifive_fe310-g000_pll.c:167
    long base = __metal_driver_sifive_fe310_g000_prci_base();
20013db0:	379d                	jal	20013d16 <__metal_driver_sifive_fe310_g000_prci_base>
20013db2:	fea42023          	sw	a0,-32(s0)
E:/GitHub/HiFive01-RevB/FS_workspace/004_UART_TXRX/freedom-metal/src/drivers/sifive_fe310-g000_pll.c:169
    __metal_io_u32 *pllcfg = (__metal_io_u32 *)(base + config_offset);
20013db6:	fe042703          	lw	a4,-32(s0)
20013dba:	fe442783          	lw	a5,-28(s0)
20013dbe:	97ba                	add	a5,a5,a4
20013dc0:	fcf42e23          	sw	a5,-36(s0)
E:/GitHub/HiFive01-RevB/FS_workspace/004_UART_TXRX/freedom-metal/src/drivers/sifive_fe310-g000_pll.c:173
    _metal_clock_call_all_callbacks(pll->clock._pre_rate_change_callback);
20013dc4:	fcc42783          	lw	a5,-52(s0)
20013dc8:	43dc                	lw	a5,4(a5)
20013dca:	853e                	mv	a0,a5
20013dcc:	1bd010ef          	jal	ra,20015788 <_metal_clock_call_all_callbacks>
E:/GitHub/HiFive01-RevB/FS_workspace/004_UART_TXRX/freedom-metal/src/drivers/sifive_fe310-g000_pll.c:177
    if ((__METAL_ACCESS_ONCE(pllcfg) & PLL_SEL) != 0)
20013dd0:	fdc42783          	lw	a5,-36(s0)
20013dd4:	4398                	lw	a4,0(a5)
20013dd6:	67c1                	lui	a5,0x10
20013dd8:	8ff9                	and	a5,a5,a4
20013dda:	cb91                	beqz	a5,20013dee <__metal_driver_sifive_fe310_g000_pll_init+0x62>
E:/GitHub/HiFive01-RevB/FS_workspace/004_UART_TXRX/freedom-metal/src/drivers/sifive_fe310-g000_pll.c:178
        __METAL_ACCESS_ONCE(pllcfg) &= ~(PLL_SEL);
20013ddc:	fdc42783          	lw	a5,-36(s0)
20013de0:	4398                	lw	a4,0(a5)
20013de2:	77c1                	lui	a5,0xffff0
20013de4:	17fd                	addi	a5,a5,-1
20013de6:	8f7d                	and	a4,a4,a5
20013de8:	fdc42783          	lw	a5,-36(s0)
20013dec:	c398                	sw	a4,0(a5)
E:/GitHub/HiFive01-RevB/FS_workspace/004_UART_TXRX/freedom-metal/src/drivers/sifive_fe310-g000_pll.c:181
    if (pllref != NULL)
20013dee:	fec42783          	lw	a5,-20(s0)
20013df2:	cb91                	beqz	a5,20013e06 <__metal_driver_sifive_fe310_g000_pll_init+0x7a>
E:/GitHub/HiFive01-RevB/FS_workspace/004_UART_TXRX/freedom-metal/src/drivers/sifive_fe310-g000_pll.c:182
        __METAL_ACCESS_ONCE(pllcfg) |= PLL_REFSEL;
20013df4:	fdc42783          	lw	a5,-36(s0)
20013df8:	4398                	lw	a4,0(a5)
20013dfa:	000207b7          	lui	a5,0x20
20013dfe:	8f5d                	or	a4,a4,a5
20013e00:	fdc42783          	lw	a5,-36(s0)
20013e04:	c398                	sw	a4,0(a5)
E:/GitHub/HiFive01-RevB/FS_workspace/004_UART_TXRX/freedom-metal/src/drivers/sifive_fe310-g000_pll.c:187
    pll->clock.vtable->set_rate_hz(&(pll->clock), init_rate);
20013e06:	fcc42783          	lw	a5,-52(s0)
20013e0a:	439c                	lw	a5,0(a5)
20013e0c:	43d8                	lw	a4,4(a5)
20013e0e:	fcc42783          	lw	a5,-52(s0)
20013e12:	fe842583          	lw	a1,-24(s0)
20013e16:	853e                	mv	a0,a5
20013e18:	9702                	jalr	a4
E:/GitHub/HiFive01-RevB/FS_workspace/004_UART_TXRX/freedom-metal/src/drivers/sifive_fe310-g000_pll.c:190
    _metal_clock_call_all_callbacks(pll->clock._post_rate_change_callback);
20013e1a:	fcc42783          	lw	a5,-52(s0)
20013e1e:	479c                	lw	a5,8(a5)
20013e20:	853e                	mv	a0,a5
20013e22:	167010ef          	jal	ra,20015788 <_metal_clock_call_all_callbacks>
E:/GitHub/HiFive01-RevB/FS_workspace/004_UART_TXRX/freedom-metal/src/drivers/sifive_fe310-g000_pll.c:191
}
20013e26:	0001                	nop
20013e28:	50f2                	lw	ra,60(sp)
20013e2a:	5462                	lw	s0,56(sp)
20013e2c:	6121                	addi	sp,sp,64
20013e2e:	8082                	ret

20013e30 <__metal_driver_sifive_fe310_g000_pll_get_rate_hz>:
__metal_driver_sifive_fe310_g000_pll_get_rate_hz():
E:/GitHub/HiFive01-RevB/FS_workspace/004_UART_TXRX/freedom-metal/src/drivers/sifive_fe310-g000_pll.c:194
    const struct metal_clock *clock) {
20013e30:	711d                	addi	sp,sp,-96
20013e32:	ce86                	sw	ra,92(sp)
20013e34:	cca2                	sw	s0,88(sp)
20013e36:	1080                	addi	s0,sp,96
20013e38:	faa42623          	sw	a0,-84(s0)
E:/GitHub/HiFive01-RevB/FS_workspace/004_UART_TXRX/freedom-metal/src/drivers/sifive_fe310-g000_pll.c:196
        __metal_driver_sifive_fe310_g000_pll_pllref(clock);
20013e3c:	fac42503          	lw	a0,-84(s0)
20013e40:	3da9                	jal	20013c9a <__metal_driver_sifive_fe310_g000_pll_pllref>
20013e42:	fea42623          	sw	a0,-20(s0)
E:/GitHub/HiFive01-RevB/FS_workspace/004_UART_TXRX/freedom-metal/src/drivers/sifive_fe310-g000_pll.c:198
        __metal_driver_sifive_fe310_g000_pll_pllsel0(clock);
20013e46:	fac42503          	lw	a0,-84(s0)
20013e4a:	3d1d                	jal	20013c80 <__metal_driver_sifive_fe310_g000_pll_pllsel0>
20013e4c:	fea42423          	sw	a0,-24(s0)
E:/GitHub/HiFive01-RevB/FS_workspace/004_UART_TXRX/freedom-metal/src/drivers/sifive_fe310-g000_pll.c:200
        __metal_driver_sifive_fe310_g000_pll_config_offset(clock);
20013e50:	fac42503          	lw	a0,-84(s0)
20013e54:	3d71                	jal	20013cf0 <__metal_driver_sifive_fe310_g000_pll_config_offset>
20013e56:	fea42223          	sw	a0,-28(s0)
E:/GitHub/HiFive01-RevB/FS_workspace/004_UART_TXRX/freedom-metal/src/drivers/sifive_fe310-g000_pll.c:202
        __metal_driver_sifive_fe310_g000_pll_config_base(clock);
20013e5a:	fac42503          	lw	a0,-84(s0)
20013e5e:	3541                	jal	20013cde <__metal_driver_sifive_fe310_g000_pll_config_base>
20013e60:	fea42023          	sw	a0,-32(s0)
E:/GitHub/HiFive01-RevB/FS_workspace/004_UART_TXRX/freedom-metal/src/drivers/sifive_fe310-g000_pll.c:204
        __metal_driver_sifive_fe310_g000_pll_divider_offset(clock);
20013e64:	fac42503          	lw	a0,-84(s0)
20013e68:	358d                	jal	20013cca <__metal_driver_sifive_fe310_g000_pll_divider_offset>
20013e6a:	fca42e23          	sw	a0,-36(s0)
E:/GitHub/HiFive01-RevB/FS_workspace/004_UART_TXRX/freedom-metal/src/drivers/sifive_fe310-g000_pll.c:206
        __metal_driver_sifive_fe310_g000_pll_divider_base(clock);
20013e6e:	fac42503          	lw	a0,-84(s0)
20013e72:	3589                	jal	20013cb4 <__metal_driver_sifive_fe310_g000_pll_divider_base>
20013e74:	fca42c23          	sw	a0,-40(s0)
E:/GitHub/HiFive01-RevB/FS_workspace/004_UART_TXRX/freedom-metal/src/drivers/sifive_fe310-g000_pll.c:208
        __metal_driver_sifive_fe310_g000_prci_vtable();
20013e78:	3d45                	jal	20013d28 <__metal_driver_sifive_fe310_g000_prci_vtable>
20013e7a:	fca42a23          	sw	a0,-44(s0)
E:/GitHub/HiFive01-RevB/FS_workspace/004_UART_TXRX/freedom-metal/src/drivers/sifive_fe310-g000_pll.c:210
    long cfg = vtable->get_reg(config_base, config_offset);
20013e7e:	fd442783          	lw	a5,-44(s0)
20013e82:	439c                	lw	a5,0(a5)
20013e84:	fe442583          	lw	a1,-28(s0)
20013e88:	fe042503          	lw	a0,-32(s0)
20013e8c:	9782                	jalr	a5
20013e8e:	fca42823          	sw	a0,-48(s0)
E:/GitHub/HiFive01-RevB/FS_workspace/004_UART_TXRX/freedom-metal/src/drivers/sifive_fe310-g000_pll.c:211
    long div = vtable->get_reg(divider_base, divider_offset);
20013e92:	fd442783          	lw	a5,-44(s0)
20013e96:	439c                	lw	a5,0(a5)
20013e98:	fdc42583          	lw	a1,-36(s0)
20013e9c:	fd842503          	lw	a0,-40(s0)
20013ea0:	9782                	jalr	a5
20013ea2:	fca42623          	sw	a0,-52(s0)
E:/GitHub/HiFive01-RevB/FS_workspace/004_UART_TXRX/freedom-metal/src/drivers/sifive_fe310-g000_pll.c:215
    if (__METAL_GET_FIELD(cfg, PLL_SEL) == 0)
20013ea6:	fd042703          	lw	a4,-48(s0)
20013eaa:	67c1                	lui	a5,0x10
20013eac:	8f7d                	and	a4,a4,a5
20013eae:	67c1                	lui	a5,0x10
20013eb0:	00f77863          	bgeu	a4,a5,20013ec0 <__metal_driver_sifive_fe310_g000_pll_get_rate_hz+0x90>
E:/GitHub/HiFive01-RevB/FS_workspace/004_UART_TXRX/freedom-metal/src/drivers/sifive_fe310-g000_pll.c:216
        return metal_clock_get_rate_hz(pllsel0);
20013eb4:	fe842503          	lw	a0,-24(s0)
20013eb8:	167010ef          	jal	ra,2001581e <metal_clock_get_rate_hz>
20013ebc:	87aa                	mv	a5,a0
20013ebe:	a8e1                	j	20013f96 <__metal_driver_sifive_fe310_g000_pll_get_rate_hz+0x166>
E:/GitHub/HiFive01-RevB/FS_workspace/004_UART_TXRX/freedom-metal/src/drivers/sifive_fe310-g000_pll.c:221
        __METAL_GET_FIELD(cfg, PLL_REFSEL) ? pllref : pllsel0);
20013ec0:	fd042703          	lw	a4,-48(s0)
20013ec4:	000207b7          	lui	a5,0x20
20013ec8:	8f7d                	and	a4,a4,a5
E:/GitHub/HiFive01-RevB/FS_workspace/004_UART_TXRX/freedom-metal/src/drivers/sifive_fe310-g000_pll.c:220
    long ref_hz = metal_clock_get_rate_hz(
20013eca:	000207b7          	lui	a5,0x20
20013ece:	00f76563          	bltu	a4,a5,20013ed8 <__metal_driver_sifive_fe310_g000_pll_get_rate_hz+0xa8>
E:/GitHub/HiFive01-RevB/FS_workspace/004_UART_TXRX/freedom-metal/src/drivers/sifive_fe310-g000_pll.c:220 (discriminator 1)
20013ed2:	fec42783          	lw	a5,-20(s0)
20013ed6:	a019                	j	20013edc <__metal_driver_sifive_fe310_g000_pll_get_rate_hz+0xac>
E:/GitHub/HiFive01-RevB/FS_workspace/004_UART_TXRX/freedom-metal/src/drivers/sifive_fe310-g000_pll.c:220 (discriminator 2)
20013ed8:	fe842783          	lw	a5,-24(s0)
E:/GitHub/HiFive01-RevB/FS_workspace/004_UART_TXRX/freedom-metal/src/drivers/sifive_fe310-g000_pll.c:220 (discriminator 4)
20013edc:	853e                	mv	a0,a5
20013ede:	141010ef          	jal	ra,2001581e <metal_clock_get_rate_hz>
20013ee2:	fca42423          	sw	a0,-56(s0)
E:/GitHub/HiFive01-RevB/FS_workspace/004_UART_TXRX/freedom-metal/src/drivers/sifive_fe310-g000_pll.c:225 (discriminator 4)
    if (__METAL_GET_FIELD(cfg, PLL_BYPASS))
20013ee6:	fd042703          	lw	a4,-48(s0)
20013eea:	000407b7          	lui	a5,0x40
20013eee:	8f7d                	and	a4,a4,a5
20013ef0:	000407b7          	lui	a5,0x40
20013ef4:	00f76563          	bltu	a4,a5,20013efe <__metal_driver_sifive_fe310_g000_pll_get_rate_hz+0xce>
E:/GitHub/HiFive01-RevB/FS_workspace/004_UART_TXRX/freedom-metal/src/drivers/sifive_fe310-g000_pll.c:226
        return ref_hz;
20013ef8:	fc842783          	lw	a5,-56(s0)
20013efc:	a869                	j	20013f96 <__metal_driver_sifive_fe310_g000_pll_get_rate_hz+0x166>
E:/GitHub/HiFive01-RevB/FS_workspace/004_UART_TXRX/freedom-metal/src/drivers/sifive_fe310-g000_pll.c:229
    long div_r = __METAL_GET_FIELD(cfg, PLL_R) + 1;
20013efe:	fd042783          	lw	a5,-48(s0)
20013f02:	8b9d                	andi	a5,a5,7
20013f04:	0785                	addi	a5,a5,1
20013f06:	fcf42223          	sw	a5,-60(s0)
E:/GitHub/HiFive01-RevB/FS_workspace/004_UART_TXRX/freedom-metal/src/drivers/sifive_fe310-g000_pll.c:230
    long mul_f = 2 * (__METAL_GET_FIELD(cfg, PLL_F) + 1);
20013f0a:	fd042783          	lw	a5,-48(s0)
20013f0e:	3f07f793          	andi	a5,a5,1008
20013f12:	8391                	srli	a5,a5,0x4
20013f14:	0785                	addi	a5,a5,1
20013f16:	0786                	slli	a5,a5,0x1
20013f18:	fcf42023          	sw	a5,-64(s0)
E:/GitHub/HiFive01-RevB/FS_workspace/004_UART_TXRX/freedom-metal/src/drivers/sifive_fe310-g000_pll.c:231
    if (__METAL_GET_FIELD(cfg, PLL_Q) == 0)
20013f1c:	fd042703          	lw	a4,-48(s0)
20013f20:	6785                	lui	a5,0x1
20013f22:	c0078793          	addi	a5,a5,-1024 # c00 <__heap_size+0x400>
20013f26:	8f7d                	and	a4,a4,a5
20013f28:	3ff00793          	li	a5,1023
20013f2c:	00e7e463          	bltu	a5,a4,20013f34 <__metal_driver_sifive_fe310_g000_pll_get_rate_hz+0x104>
E:/GitHub/HiFive01-RevB/FS_workspace/004_UART_TXRX/freedom-metal/src/drivers/sifive_fe310-g000_pll.c:232
        return -1;
20013f30:	57fd                	li	a5,-1
20013f32:	a095                	j	20013f96 <__metal_driver_sifive_fe310_g000_pll_get_rate_hz+0x166>
E:/GitHub/HiFive01-RevB/FS_workspace/004_UART_TXRX/freedom-metal/src/drivers/sifive_fe310-g000_pll.c:233
    long div_q = 1 << __METAL_GET_FIELD(cfg, PLL_Q);
20013f34:	fd042703          	lw	a4,-48(s0)
20013f38:	6785                	lui	a5,0x1
20013f3a:	c0078793          	addi	a5,a5,-1024 # c00 <__heap_size+0x400>
20013f3e:	8ff9                	and	a5,a5,a4
20013f40:	83a9                	srli	a5,a5,0xa
20013f42:	4705                	li	a4,1
20013f44:	00f717b3          	sll	a5,a4,a5
20013f48:	faf42e23          	sw	a5,-68(s0)
E:/GitHub/HiFive01-RevB/FS_workspace/004_UART_TXRX/freedom-metal/src/drivers/sifive_fe310-g000_pll.c:238
    long pllout = (((ref_hz / div_r) * mul_f) / div_q);
20013f4c:	fc842703          	lw	a4,-56(s0)
20013f50:	fc442783          	lw	a5,-60(s0)
20013f54:	02f74733          	div	a4,a4,a5
20013f58:	fc042783          	lw	a5,-64(s0)
20013f5c:	02f70733          	mul	a4,a4,a5
20013f60:	fbc42783          	lw	a5,-68(s0)
20013f64:	02f747b3          	div	a5,a4,a5
20013f68:	faf42c23          	sw	a5,-72(s0)
E:/GitHub/HiFive01-RevB/FS_workspace/004_UART_TXRX/freedom-metal/src/drivers/sifive_fe310-g000_pll.c:239
    if (__METAL_GET_FIELD(div, DIV_1))
20013f6c:	fcc42783          	lw	a5,-52(s0)
20013f70:	1007f713          	andi	a4,a5,256
20013f74:	0ff00793          	li	a5,255
20013f78:	00e7f563          	bgeu	a5,a4,20013f82 <__metal_driver_sifive_fe310_g000_pll_get_rate_hz+0x152>
E:/GitHub/HiFive01-RevB/FS_workspace/004_UART_TXRX/freedom-metal/src/drivers/sifive_fe310-g000_pll.c:240
        return pllout;
20013f7c:	fb842783          	lw	a5,-72(s0)
20013f80:	a819                	j	20013f96 <__metal_driver_sifive_fe310_g000_pll_get_rate_hz+0x166>
E:/GitHub/HiFive01-RevB/FS_workspace/004_UART_TXRX/freedom-metal/src/drivers/sifive_fe310-g000_pll.c:242
    return pllout / (2 * (__METAL_GET_FIELD(div, DIV_DIV) + 1));
20013f82:	fb842703          	lw	a4,-72(s0)
20013f86:	fcc42783          	lw	a5,-52(s0)
20013f8a:	03f7f793          	andi	a5,a5,63
20013f8e:	0785                	addi	a5,a5,1
20013f90:	0786                	slli	a5,a5,0x1
20013f92:	02f757b3          	divu	a5,a4,a5
E:/GitHub/HiFive01-RevB/FS_workspace/004_UART_TXRX/freedom-metal/src/drivers/sifive_fe310-g000_pll.c:243
}
20013f96:	853e                	mv	a0,a5
20013f98:	40f6                	lw	ra,92(sp)
20013f9a:	4466                	lw	s0,88(sp)
20013f9c:	6125                	addi	sp,sp,96
20013f9e:	8082                	ret

20013fa0 <find_closest_config>:
find_closest_config():
E:/GitHub/HiFive01-RevB/FS_workspace/004_UART_TXRX/freedom-metal/src/drivers/sifive_fe310-g000_pll.c:253
static int find_closest_config(long ref_hz, long rate) {
20013fa0:	7139                	addi	sp,sp,-64
20013fa2:	de06                	sw	ra,60(sp)
20013fa4:	dc22                	sw	s0,56(sp)
20013fa6:	0080                	addi	s0,sp,64
20013fa8:	fca42623          	sw	a0,-52(s0)
20013fac:	fcb42423          	sw	a1,-56(s0)
E:/GitHub/HiFive01-RevB/FS_workspace/004_UART_TXRX/freedom-metal/src/drivers/sifive_fe310-g000_pll.c:254
    int closest_index = -1;
20013fb0:	57fd                	li	a5,-1
20013fb2:	fef42623          	sw	a5,-20(s0)
E:/GitHub/HiFive01-RevB/FS_workspace/004_UART_TXRX/freedom-metal/src/drivers/sifive_fe310-g000_pll.c:255
    long closest_diff = LONG_MAX;
20013fb6:	800007b7          	lui	a5,0x80000
20013fba:	fff7c793          	not	a5,a5
20013fbe:	fef42423          	sw	a5,-24(s0)
E:/GitHub/HiFive01-RevB/FS_workspace/004_UART_TXRX/freedom-metal/src/drivers/sifive_fe310-g000_pll.c:259
    for (int i = (sizeof(pll_configs) / sizeof(pll_configs[0])) - 1; i >= 0;
20013fc2:	04300793          	li	a5,67
20013fc6:	fef42223          	sw	a5,-28(s0)
20013fca:	a0ad                	j	20014034 <find_closest_config+0x94>
E:/GitHub/HiFive01-RevB/FS_workspace/004_UART_TXRX/freedom-metal/src/drivers/sifive_fe310-g000_pll.c:261
        long config_freq = get_pll_config_freq(ref_hz, &(pll_configs[i]));
20013fcc:	fcc42683          	lw	a3,-52(s0)
20013fd0:	fe442783          	lw	a5,-28(s0)
20013fd4:	00579713          	slli	a4,a5,0x5
20013fd8:	200107b7          	lui	a5,0x20010
20013fdc:	56478793          	addi	a5,a5,1380 # 20010564 <pll_configs>
20013fe0:	97ba                	add	a5,a5,a4
20013fe2:	85be                	mv	a1,a5
20013fe4:	8536                	mv	a0,a3
20013fe6:	3ba1                	jal	20013d3e <get_pll_config_freq>
20013fe8:	fea42023          	sw	a0,-32(s0)
E:/GitHub/HiFive01-RevB/FS_workspace/004_UART_TXRX/freedom-metal/src/drivers/sifive_fe310-g000_pll.c:262
        if (config_freq != PLL_CONFIG_NOT_VALID) {
20013fec:	fe042703          	lw	a4,-32(s0)
20013ff0:	57fd                	li	a5,-1
20013ff2:	02f70c63          	beq	a4,a5,2001402a <find_closest_config+0x8a>
E:/GitHub/HiFive01-RevB/FS_workspace/004_UART_TXRX/freedom-metal/src/drivers/sifive_fe310-g000_pll.c:263
            long freq_diff = labs(config_freq - rate);
20013ff6:	fe042703          	lw	a4,-32(s0)
20013ffa:	fc842783          	lw	a5,-56(s0)
20013ffe:	8f1d                	sub	a4,a4,a5
20014000:	41f75793          	srai	a5,a4,0x1f
20014004:	8f3d                	xor	a4,a4,a5
20014006:	40f707b3          	sub	a5,a4,a5
2001400a:	fcf42e23          	sw	a5,-36(s0)
E:/GitHub/HiFive01-RevB/FS_workspace/004_UART_TXRX/freedom-metal/src/drivers/sifive_fe310-g000_pll.c:265
            if (freq_diff < closest_diff) {
2001400e:	fdc42703          	lw	a4,-36(s0)
20014012:	fe842783          	lw	a5,-24(s0)
20014016:	00f75a63          	bge	a4,a5,2001402a <find_closest_config+0x8a>
E:/GitHub/HiFive01-RevB/FS_workspace/004_UART_TXRX/freedom-metal/src/drivers/sifive_fe310-g000_pll.c:266
                closest_index = i;
2001401a:	fe442783          	lw	a5,-28(s0)
2001401e:	fef42623          	sw	a5,-20(s0)
E:/GitHub/HiFive01-RevB/FS_workspace/004_UART_TXRX/freedom-metal/src/drivers/sifive_fe310-g000_pll.c:267
                closest_diff = freq_diff;
20014022:	fdc42783          	lw	a5,-36(s0)
20014026:	fef42423          	sw	a5,-24(s0)
E:/GitHub/HiFive01-RevB/FS_workspace/004_UART_TXRX/freedom-metal/src/drivers/sifive_fe310-g000_pll.c:260
         i--) {
2001402a:	fe442783          	lw	a5,-28(s0)
2001402e:	17fd                	addi	a5,a5,-1
20014030:	fef42223          	sw	a5,-28(s0)
E:/GitHub/HiFive01-RevB/FS_workspace/004_UART_TXRX/freedom-metal/src/drivers/sifive_fe310-g000_pll.c:259 (discriminator 1)
    for (int i = (sizeof(pll_configs) / sizeof(pll_configs[0])) - 1; i >= 0;
20014034:	fe442783          	lw	a5,-28(s0)
20014038:	f807dae3          	bgez	a5,20013fcc <find_closest_config+0x2c>
E:/GitHub/HiFive01-RevB/FS_workspace/004_UART_TXRX/freedom-metal/src/drivers/sifive_fe310-g000_pll.c:272
    return closest_index;
2001403c:	fec42783          	lw	a5,-20(s0)
E:/GitHub/HiFive01-RevB/FS_workspace/004_UART_TXRX/freedom-metal/src/drivers/sifive_fe310-g000_pll.c:273
}
20014040:	853e                	mv	a0,a5
20014042:	50f2                	lw	ra,60(sp)
20014044:	5462                	lw	s0,56(sp)
20014046:	6121                	addi	sp,sp,64
20014048:	8082                	ret

2001404a <configure_pll>:
configure_pll():
E:/GitHub/HiFive01-RevB/FS_workspace/004_UART_TXRX/freedom-metal/src/drivers/sifive_fe310-g000_pll.c:290
                          const struct pll_config_t *config) {
2001404a:	7179                	addi	sp,sp,-48
2001404c:	d606                	sw	ra,44(sp)
2001404e:	d422                	sw	s0,40(sp)
20014050:	1800                	addi	s0,sp,48
20014052:	fca42e23          	sw	a0,-36(s0)
20014056:	fcb42c23          	sw	a1,-40(s0)
2001405a:	fcc42a23          	sw	a2,-44(s0)
E:/GitHub/HiFive01-RevB/FS_workspace/004_UART_TXRX/freedom-metal/src/drivers/sifive_fe310-g000_pll.c:291
    __METAL_ACCESS_ONCE(pllcfg) &= ~(PLL_R);
2001405e:	fdc42783          	lw	a5,-36(s0)
20014062:	439c                	lw	a5,0(a5)
20014064:	ff87f713          	andi	a4,a5,-8
20014068:	fdc42783          	lw	a5,-36(s0)
2001406c:	c398                	sw	a4,0(a5)
E:/GitHub/HiFive01-RevB/FS_workspace/004_UART_TXRX/freedom-metal/src/drivers/sifive_fe310-g000_pll.c:292
    __METAL_ACCESS_ONCE(pllcfg) |= PLL_R_SHIFT(config->r);
2001406e:	fdc42783          	lw	a5,-36(s0)
20014072:	4398                	lw	a4,0(a5)
20014074:	fd442783          	lw	a5,-44(s0)
20014078:	4b9c                	lw	a5,16(a5)
2001407a:	8b9d                	andi	a5,a5,7
2001407c:	8f5d                	or	a4,a4,a5
2001407e:	fdc42783          	lw	a5,-36(s0)
20014082:	c398                	sw	a4,0(a5)
E:/GitHub/HiFive01-RevB/FS_workspace/004_UART_TXRX/freedom-metal/src/drivers/sifive_fe310-g000_pll.c:294
    __METAL_ACCESS_ONCE(pllcfg) &= ~(PLL_F);
20014084:	fdc42783          	lw	a5,-36(s0)
20014088:	439c                	lw	a5,0(a5)
2001408a:	c0f7f713          	andi	a4,a5,-1009
2001408e:	fdc42783          	lw	a5,-36(s0)
20014092:	c398                	sw	a4,0(a5)
E:/GitHub/HiFive01-RevB/FS_workspace/004_UART_TXRX/freedom-metal/src/drivers/sifive_fe310-g000_pll.c:295
    __METAL_ACCESS_ONCE(pllcfg) |= PLL_F_SHIFT(config->f);
20014094:	fdc42783          	lw	a5,-36(s0)
20014098:	4398                	lw	a4,0(a5)
2001409a:	fd442783          	lw	a5,-44(s0)
2001409e:	4bdc                	lw	a5,20(a5)
200140a0:	0792                	slli	a5,a5,0x4
200140a2:	3f07f793          	andi	a5,a5,1008
200140a6:	8f5d                	or	a4,a4,a5
200140a8:	fdc42783          	lw	a5,-36(s0)
200140ac:	c398                	sw	a4,0(a5)
E:/GitHub/HiFive01-RevB/FS_workspace/004_UART_TXRX/freedom-metal/src/drivers/sifive_fe310-g000_pll.c:297
    __METAL_ACCESS_ONCE(pllcfg) &= ~(PLL_Q);
200140ae:	fdc42783          	lw	a5,-36(s0)
200140b2:	4398                	lw	a4,0(a5)
200140b4:	77fd                	lui	a5,0xfffff
200140b6:	3ff78793          	addi	a5,a5,1023 # fffff3ff <__global_pointer$+0x7fffe14f>
200140ba:	8f7d                	and	a4,a4,a5
200140bc:	fdc42783          	lw	a5,-36(s0)
200140c0:	c398                	sw	a4,0(a5)
E:/GitHub/HiFive01-RevB/FS_workspace/004_UART_TXRX/freedom-metal/src/drivers/sifive_fe310-g000_pll.c:298
    __METAL_ACCESS_ONCE(pllcfg) |= PLL_Q_SHIFT(config->q);
200140c2:	fdc42783          	lw	a5,-36(s0)
200140c6:	4398                	lw	a4,0(a5)
200140c8:	fd442783          	lw	a5,-44(s0)
200140cc:	4f9c                	lw	a5,24(a5)
200140ce:	00a79693          	slli	a3,a5,0xa
200140d2:	6785                	lui	a5,0x1
200140d4:	c0078793          	addi	a5,a5,-1024 # c00 <__heap_size+0x400>
200140d8:	8ff5                	and	a5,a5,a3
200140da:	8f5d                	or	a4,a4,a5
200140dc:	fdc42783          	lw	a5,-36(s0)
200140e0:	c398                	sw	a4,0(a5)
E:/GitHub/HiFive01-RevB/FS_workspace/004_UART_TXRX/freedom-metal/src/drivers/sifive_fe310-g000_pll.c:300
    if (config->d < 0) {
200140e2:	fd442783          	lw	a5,-44(s0)
200140e6:	4fdc                	lw	a5,28(a5)
200140e8:	0207db63          	bgez	a5,2001411e <configure_pll+0xd4>
E:/GitHub/HiFive01-RevB/FS_workspace/004_UART_TXRX/freedom-metal/src/drivers/sifive_fe310-g000_pll.c:302
        __METAL_ACCESS_ONCE(plloutdiv) |= DIV_1;
200140ec:	fd842783          	lw	a5,-40(s0)
200140f0:	439c                	lw	a5,0(a5)
200140f2:	1007e713          	ori	a4,a5,256
200140f6:	fd842783          	lw	a5,-40(s0)
200140fa:	c398                	sw	a4,0(a5)
E:/GitHub/HiFive01-RevB/FS_workspace/004_UART_TXRX/freedom-metal/src/drivers/sifive_fe310-g000_pll.c:304
        __METAL_ACCESS_ONCE(plloutdiv) &= ~(DIV_DIV);
200140fc:	fd842783          	lw	a5,-40(s0)
20014100:	439c                	lw	a5,0(a5)
20014102:	fc07f713          	andi	a4,a5,-64
20014106:	fd842783          	lw	a5,-40(s0)
2001410a:	c398                	sw	a4,0(a5)
E:/GitHub/HiFive01-RevB/FS_workspace/004_UART_TXRX/freedom-metal/src/drivers/sifive_fe310-g000_pll.c:305
        __METAL_ACCESS_ONCE(plloutdiv) |= PLL_DIV_SHIFT(1);
2001410c:	fd842783          	lw	a5,-40(s0)
20014110:	439c                	lw	a5,0(a5)
20014112:	0017e713          	ori	a4,a5,1
20014116:	fd842783          	lw	a5,-40(s0)
2001411a:	c398                	sw	a4,0(a5)
2001411c:	a82d                	j	20014156 <configure_pll+0x10c>
E:/GitHub/HiFive01-RevB/FS_workspace/004_UART_TXRX/freedom-metal/src/drivers/sifive_fe310-g000_pll.c:307
        __METAL_ACCESS_ONCE(plloutdiv) &= ~(DIV_1);
2001411e:	fd842783          	lw	a5,-40(s0)
20014122:	439c                	lw	a5,0(a5)
20014124:	eff7f713          	andi	a4,a5,-257
20014128:	fd842783          	lw	a5,-40(s0)
2001412c:	c398                	sw	a4,0(a5)
E:/GitHub/HiFive01-RevB/FS_workspace/004_UART_TXRX/freedom-metal/src/drivers/sifive_fe310-g000_pll.c:309
        __METAL_ACCESS_ONCE(plloutdiv) &= ~(DIV_DIV);
2001412e:	fd842783          	lw	a5,-40(s0)
20014132:	439c                	lw	a5,0(a5)
20014134:	fc07f713          	andi	a4,a5,-64
20014138:	fd842783          	lw	a5,-40(s0)
2001413c:	c398                	sw	a4,0(a5)
E:/GitHub/HiFive01-RevB/FS_workspace/004_UART_TXRX/freedom-metal/src/drivers/sifive_fe310-g000_pll.c:310
        __METAL_ACCESS_ONCE(plloutdiv) |= PLL_DIV_SHIFT(config->d);
2001413e:	fd842783          	lw	a5,-40(s0)
20014142:	4398                	lw	a4,0(a5)
20014144:	fd442783          	lw	a5,-44(s0)
20014148:	4fdc                	lw	a5,28(a5)
2001414a:	03f7f793          	andi	a5,a5,63
2001414e:	8f5d                	or	a4,a4,a5
20014150:	fd842783          	lw	a5,-40(s0)
20014154:	c398                	sw	a4,0(a5)
E:/GitHub/HiFive01-RevB/FS_workspace/004_UART_TXRX/freedom-metal/src/drivers/sifive_fe310-g000_pll.c:313
    __METAL_ACCESS_ONCE(pllcfg) &= ~(PLL_BYPASS);
20014156:	fdc42783          	lw	a5,-36(s0)
2001415a:	4398                	lw	a4,0(a5)
2001415c:	fffc07b7          	lui	a5,0xfffc0
20014160:	17fd                	addi	a5,a5,-1
20014162:	8f7d                	and	a4,a4,a5
20014164:	fdc42783          	lw	a5,-36(s0)
20014168:	c398                	sw	a4,0(a5)
E:/GitHub/HiFive01-RevB/FS_workspace/004_UART_TXRX/freedom-metal/src/drivers/sifive_fe310-g000_pll.c:318
    __metal_driver_riscv_clint0_command_request(__METAL_DT_RISCV_CLINT0_HANDLE,
2001416a:	fe040793          	addi	a5,s0,-32
2001416e:	863e                	mv	a2,a5
20014170:	4585                	li	a1,1
20014172:	800017b7          	lui	a5,0x80001
20014176:	abc78513          	addi	a0,a5,-1348 # 80000abc <__global_pointer$+0xfffff80c>
2001417a:	cb8fd0ef          	jal	ra,20011632 <__metal_driver_riscv_clint0_command_request>
E:/GitHub/HiFive01-RevB/FS_workspace/004_UART_TXRX/freedom-metal/src/drivers/sifive_fe310-g000_pll.c:320
    mtime_end = mtime + PLL_LOCK_WAIT_TICKS;
2001417e:	fe042603          	lw	a2,-32(s0)
20014182:	fe442683          	lw	a3,-28(s0)
20014186:	4511                	li	a0,4
20014188:	4581                	li	a1,0
2001418a:	00a60733          	add	a4,a2,a0
2001418e:	883a                	mv	a6,a4
20014190:	00c83833          	sltu	a6,a6,a2
20014194:	00b687b3          	add	a5,a3,a1
20014198:	00f806b3          	add	a3,a6,a5
2001419c:	87b6                	mv	a5,a3
2001419e:	fee42423          	sw	a4,-24(s0)
200141a2:	fef42623          	sw	a5,-20(s0)
E:/GitHub/HiFive01-RevB/FS_workspace/004_UART_TXRX/freedom-metal/src/drivers/sifive_fe310-g000_pll.c:321
    while (mtime <= mtime_end) {
200141a6:	a819                	j	200141bc <configure_pll+0x172>
E:/GitHub/HiFive01-RevB/FS_workspace/004_UART_TXRX/freedom-metal/src/drivers/sifive_fe310-g000_pll.c:322
        __metal_driver_riscv_clint0_command_request(
200141a8:	fe040793          	addi	a5,s0,-32
200141ac:	863e                	mv	a2,a5
200141ae:	4585                	li	a1,1
200141b0:	800017b7          	lui	a5,0x80001
200141b4:	abc78513          	addi	a0,a5,-1348 # 80000abc <__global_pointer$+0xfffff80c>
200141b8:	c7afd0ef          	jal	ra,20011632 <__metal_driver_riscv_clint0_command_request>
E:/GitHub/HiFive01-RevB/FS_workspace/004_UART_TXRX/freedom-metal/src/drivers/sifive_fe310-g000_pll.c:321
    while (mtime <= mtime_end) {
200141bc:	fe042703          	lw	a4,-32(s0)
200141c0:	fe442783          	lw	a5,-28(s0)
200141c4:	fec42683          	lw	a3,-20(s0)
200141c8:	863e                	mv	a2,a5
200141ca:	00c6ec63          	bltu	a3,a2,200141e2 <configure_pll+0x198>
200141ce:	fec42683          	lw	a3,-20(s0)
200141d2:	863e                	mv	a2,a5
200141d4:	fcc69ae3          	bne	a3,a2,200141a8 <configure_pll+0x15e>
200141d8:	fe842683          	lw	a3,-24(s0)
200141dc:	87ba                	mv	a5,a4
200141de:	fcf6f5e3          	bgeu	a3,a5,200141a8 <configure_pll+0x15e>
E:/GitHub/HiFive01-RevB/FS_workspace/004_UART_TXRX/freedom-metal/src/drivers/sifive_fe310-g000_pll.c:340
    while ((__METAL_ACCESS_ONCE(pllcfg) & PLL_LOCK) == 0)
200141e2:	0001                	nop
E:/GitHub/HiFive01-RevB/FS_workspace/004_UART_TXRX/freedom-metal/src/drivers/sifive_fe310-g000_pll.c:340 (discriminator 1)
200141e4:	fdc42783          	lw	a5,-36(s0)
200141e8:	439c                	lw	a5,0(a5)
200141ea:	fe07dde3          	bgez	a5,200141e4 <configure_pll+0x19a>
E:/GitHub/HiFive01-RevB/FS_workspace/004_UART_TXRX/freedom-metal/src/drivers/sifive_fe310-g000_pll.c:342
}
200141ee:	0001                	nop
200141f0:	0001                	nop
200141f2:	50b2                	lw	ra,44(sp)
200141f4:	5422                	lw	s0,40(sp)
200141f6:	6145                	addi	sp,sp,48
200141f8:	8082                	ret

200141fa <__metal_driver_sifive_fe310_g000_pll_set_rate_hz>:
__metal_driver_sifive_fe310_g000_pll_set_rate_hz():
E:/GitHub/HiFive01-RevB/FS_workspace/004_UART_TXRX/freedom-metal/src/drivers/sifive_fe310-g000_pll.c:345
                                                      long rate) {
200141fa:	715d                	addi	sp,sp,-80
200141fc:	c686                	sw	ra,76(sp)
200141fe:	c4a2                	sw	s0,72(sp)
20014200:	0880                	addi	s0,sp,80
20014202:	faa42e23          	sw	a0,-68(s0)
20014206:	fab42c23          	sw	a1,-72(s0)
E:/GitHub/HiFive01-RevB/FS_workspace/004_UART_TXRX/freedom-metal/src/drivers/sifive_fe310-g000_pll.c:347
        __metal_driver_sifive_fe310_g000_pll_pllref(clock);
2001420a:	fbc42503          	lw	a0,-68(s0)
2001420e:	a8dff0ef          	jal	ra,20013c9a <__metal_driver_sifive_fe310_g000_pll_pllref>
20014212:	fea42623          	sw	a0,-20(s0)
E:/GitHub/HiFive01-RevB/FS_workspace/004_UART_TXRX/freedom-metal/src/drivers/sifive_fe310-g000_pll.c:349
        __metal_driver_sifive_fe310_g000_pll_pllsel0(clock);
20014216:	fbc42503          	lw	a0,-68(s0)
2001421a:	a67ff0ef          	jal	ra,20013c80 <__metal_driver_sifive_fe310_g000_pll_pllsel0>
2001421e:	fea42423          	sw	a0,-24(s0)
E:/GitHub/HiFive01-RevB/FS_workspace/004_UART_TXRX/freedom-metal/src/drivers/sifive_fe310-g000_pll.c:351
        __metal_driver_sifive_fe310_g000_pll_config_offset(clock);
20014222:	fbc42503          	lw	a0,-68(s0)
20014226:	acbff0ef          	jal	ra,20013cf0 <__metal_driver_sifive_fe310_g000_pll_config_offset>
2001422a:	fea42223          	sw	a0,-28(s0)
E:/GitHub/HiFive01-RevB/FS_workspace/004_UART_TXRX/freedom-metal/src/drivers/sifive_fe310-g000_pll.c:353
        __metal_driver_sifive_fe310_g000_pll_divider_offset(clock);
2001422e:	fbc42503          	lw	a0,-68(s0)
20014232:	a99ff0ef          	jal	ra,20013cca <__metal_driver_sifive_fe310_g000_pll_divider_offset>
20014236:	fea42023          	sw	a0,-32(s0)
E:/GitHub/HiFive01-RevB/FS_workspace/004_UART_TXRX/freedom-metal/src/drivers/sifive_fe310-g000_pll.c:354
    long base = __metal_driver_sifive_fe310_g000_prci_base();
2001423a:	addff0ef          	jal	ra,20013d16 <__metal_driver_sifive_fe310_g000_prci_base>
2001423e:	fca42e23          	sw	a0,-36(s0)
E:/GitHub/HiFive01-RevB/FS_workspace/004_UART_TXRX/freedom-metal/src/drivers/sifive_fe310-g000_pll.c:356
    __metal_io_u32 *pllcfg = (__metal_io_u32 *)(base + config_offset);
20014242:	fdc42703          	lw	a4,-36(s0)
20014246:	fe442783          	lw	a5,-28(s0)
2001424a:	97ba                	add	a5,a5,a4
2001424c:	fcf42c23          	sw	a5,-40(s0)
E:/GitHub/HiFive01-RevB/FS_workspace/004_UART_TXRX/freedom-metal/src/drivers/sifive_fe310-g000_pll.c:357
    __metal_io_u32 *plloutdiv = (__metal_io_u32 *)(base + divider_offset);
20014250:	fdc42703          	lw	a4,-36(s0)
20014254:	fe042783          	lw	a5,-32(s0)
20014258:	97ba                	add	a5,a5,a4
2001425a:	fcf42a23          	sw	a5,-44(s0)
E:/GitHub/HiFive01-RevB/FS_workspace/004_UART_TXRX/freedom-metal/src/drivers/sifive_fe310-g000_pll.c:360
    if (__METAL_ACCESS_ONCE(pllcfg) & PLL_SEL)
2001425e:	fd842783          	lw	a5,-40(s0)
20014262:	4398                	lw	a4,0(a5)
20014264:	67c1                	lui	a5,0x10
20014266:	8ff9                	and	a5,a5,a4
20014268:	cb91                	beqz	a5,2001427c <__metal_driver_sifive_fe310_g000_pll_set_rate_hz+0x82>
E:/GitHub/HiFive01-RevB/FS_workspace/004_UART_TXRX/freedom-metal/src/drivers/sifive_fe310-g000_pll.c:361
        __METAL_ACCESS_ONCE(pllcfg) &= ~(PLL_SEL);
2001426a:	fd842783          	lw	a5,-40(s0)
2001426e:	4398                	lw	a4,0(a5)
20014270:	77c1                	lui	a5,0xffff0
20014272:	17fd                	addi	a5,a5,-1
20014274:	8f7d                	and	a4,a4,a5
20014276:	fd842783          	lw	a5,-40(s0)
2001427a:	c398                	sw	a4,0(a5)
E:/GitHub/HiFive01-RevB/FS_workspace/004_UART_TXRX/freedom-metal/src/drivers/sifive_fe310-g000_pll.c:366
        __METAL_ACCESS_ONCE(pllcfg) & PLL_REFSEL ? pllref : pllsel0);
2001427c:	fd842783          	lw	a5,-40(s0)
20014280:	4398                	lw	a4,0(a5)
20014282:	000207b7          	lui	a5,0x20
20014286:	8ff9                	and	a5,a5,a4
E:/GitHub/HiFive01-RevB/FS_workspace/004_UART_TXRX/freedom-metal/src/drivers/sifive_fe310-g000_pll.c:365
    long ref_hz = metal_clock_get_rate_hz(
20014288:	c781                	beqz	a5,20014290 <__metal_driver_sifive_fe310_g000_pll_set_rate_hz+0x96>
E:/GitHub/HiFive01-RevB/FS_workspace/004_UART_TXRX/freedom-metal/src/drivers/sifive_fe310-g000_pll.c:365 (discriminator 1)
2001428a:	fec42783          	lw	a5,-20(s0)
2001428e:	a019                	j	20014294 <__metal_driver_sifive_fe310_g000_pll_set_rate_hz+0x9a>
E:/GitHub/HiFive01-RevB/FS_workspace/004_UART_TXRX/freedom-metal/src/drivers/sifive_fe310-g000_pll.c:365 (discriminator 2)
20014290:	fe842783          	lw	a5,-24(s0)
E:/GitHub/HiFive01-RevB/FS_workspace/004_UART_TXRX/freedom-metal/src/drivers/sifive_fe310-g000_pll.c:365 (discriminator 4)
20014294:	853e                	mv	a0,a5
20014296:	588010ef          	jal	ra,2001581e <metal_clock_get_rate_hz>
2001429a:	fca42823          	sw	a0,-48(s0)
E:/GitHub/HiFive01-RevB/FS_workspace/004_UART_TXRX/freedom-metal/src/drivers/sifive_fe310-g000_pll.c:370 (discriminator 4)
    if ((ref_hz * 3 / 4) <= rate && (ref_hz * 5 / 4) >= rate) {
2001429e:	fd042703          	lw	a4,-48(s0)
200142a2:	87ba                	mv	a5,a4
200142a4:	0786                	slli	a5,a5,0x1
200142a6:	97ba                	add	a5,a5,a4
200142a8:	41f7d713          	srai	a4,a5,0x1f
200142ac:	8b0d                	andi	a4,a4,3
200142ae:	97ba                	add	a5,a5,a4
200142b0:	8789                	srai	a5,a5,0x2
200142b2:	873e                	mv	a4,a5
200142b4:	fb842783          	lw	a5,-72(s0)
200142b8:	02e7cb63          	blt	a5,a4,200142ee <__metal_driver_sifive_fe310_g000_pll_set_rate_hz+0xf4>
E:/GitHub/HiFive01-RevB/FS_workspace/004_UART_TXRX/freedom-metal/src/drivers/sifive_fe310-g000_pll.c:370 (discriminator 1)
200142bc:	fd042703          	lw	a4,-48(s0)
200142c0:	87ba                	mv	a5,a4
200142c2:	078a                	slli	a5,a5,0x2
200142c4:	97ba                	add	a5,a5,a4
200142c6:	41f7d713          	srai	a4,a5,0x1f
200142ca:	8b0d                	andi	a4,a4,3
200142cc:	97ba                	add	a5,a5,a4
200142ce:	8789                	srai	a5,a5,0x2
200142d0:	873e                	mv	a4,a5
200142d2:	fb842783          	lw	a5,-72(s0)
200142d6:	00f74c63          	blt	a4,a5,200142ee <__metal_driver_sifive_fe310_g000_pll_set_rate_hz+0xf4>
E:/GitHub/HiFive01-RevB/FS_workspace/004_UART_TXRX/freedom-metal/src/drivers/sifive_fe310-g000_pll.c:371
        __METAL_ACCESS_ONCE(pllcfg) |= PLL_BYPASS;
200142da:	fd842783          	lw	a5,-40(s0)
200142de:	4398                	lw	a4,0(a5)
200142e0:	000407b7          	lui	a5,0x40
200142e4:	8f5d                	or	a4,a4,a5
200142e6:	fd842783          	lw	a5,-40(s0)
200142ea:	c398                	sw	a4,0(a5)
200142ec:	a0b1                	j	20014338 <__metal_driver_sifive_fe310_g000_pll_set_rate_hz+0x13e>
E:/GitHub/HiFive01-RevB/FS_workspace/004_UART_TXRX/freedom-metal/src/drivers/sifive_fe310-g000_pll.c:373
        int config_index = find_closest_config(ref_hz, rate);
200142ee:	fb842583          	lw	a1,-72(s0)
200142f2:	fd042503          	lw	a0,-48(s0)
200142f6:	316d                	jal	20013fa0 <find_closest_config>
200142f8:	fca42623          	sw	a0,-52(s0)
E:/GitHub/HiFive01-RevB/FS_workspace/004_UART_TXRX/freedom-metal/src/drivers/sifive_fe310-g000_pll.c:374
        if (config_index != -1) {
200142fc:	fcc42703          	lw	a4,-52(s0)
20014300:	57fd                	li	a5,-1
20014302:	02f70263          	beq	a4,a5,20014326 <__metal_driver_sifive_fe310_g000_pll_set_rate_hz+0x12c>
E:/GitHub/HiFive01-RevB/FS_workspace/004_UART_TXRX/freedom-metal/src/drivers/sifive_fe310-g000_pll.c:375
            configure_pll(pllcfg, plloutdiv, &(pll_configs[config_index]));
20014306:	fcc42783          	lw	a5,-52(s0)
2001430a:	00579713          	slli	a4,a5,0x5
2001430e:	200107b7          	lui	a5,0x20010
20014312:	56478793          	addi	a5,a5,1380 # 20010564 <pll_configs>
20014316:	97ba                	add	a5,a5,a4
20014318:	863e                	mv	a2,a5
2001431a:	fd442583          	lw	a1,-44(s0)
2001431e:	fd842503          	lw	a0,-40(s0)
20014322:	3325                	jal	2001404a <configure_pll>
20014324:	a811                	j	20014338 <__metal_driver_sifive_fe310_g000_pll_set_rate_hz+0x13e>
E:/GitHub/HiFive01-RevB/FS_workspace/004_UART_TXRX/freedom-metal/src/drivers/sifive_fe310-g000_pll.c:378
            __METAL_ACCESS_ONCE(pllcfg) |= PLL_BYPASS;
20014326:	fd842783          	lw	a5,-40(s0)
2001432a:	4398                	lw	a4,0(a5)
2001432c:	000407b7          	lui	a5,0x40
20014330:	8f5d                	or	a4,a4,a5
20014332:	fd842783          	lw	a5,-40(s0)
20014336:	c398                	sw	a4,0(a5)
E:/GitHub/HiFive01-RevB/FS_workspace/004_UART_TXRX/freedom-metal/src/drivers/sifive_fe310-g000_pll.c:383
    __METAL_ACCESS_ONCE(pllcfg) |= PLL_SEL;
20014338:	fd842783          	lw	a5,-40(s0)
2001433c:	4398                	lw	a4,0(a5)
2001433e:	67c1                	lui	a5,0x10
20014340:	8f5d                	or	a4,a4,a5
20014342:	fd842783          	lw	a5,-40(s0)
20014346:	c398                	sw	a4,0(a5)
E:/GitHub/HiFive01-RevB/FS_workspace/004_UART_TXRX/freedom-metal/src/drivers/sifive_fe310-g000_pll.c:385
    return __metal_driver_sifive_fe310_g000_pll_get_rate_hz(clock);
20014348:	fbc42503          	lw	a0,-68(s0)
2001434c:	ae5ff0ef          	jal	ra,20013e30 <__metal_driver_sifive_fe310_g000_pll_get_rate_hz>
20014350:	87aa                	mv	a5,a0
E:/GitHub/HiFive01-RevB/FS_workspace/004_UART_TXRX/freedom-metal/src/drivers/sifive_fe310-g000_pll.c:386
}
20014352:	853e                	mv	a0,a5
20014354:	40b6                	lw	ra,76(sp)
20014356:	4426                	lw	s0,72(sp)
20014358:	6161                	addi	sp,sp,80
2001435a:	8082                	ret

2001435c <__metal_driver_sifive_fe310_g000_prci_base>:
__metal_driver_sifive_fe310_g000_prci_base():
E:\GitHub\HiFive01-RevB\FS_workspace\004_UART_TXRX\bsp\build\debug/./metal/machine.h:1364
{
2001435c:	1141                	addi	sp,sp,-16
2001435e:	c622                	sw	s0,12(sp)
20014360:	0800                	addi	s0,sp,16
E:\GitHub\HiFive01-RevB\FS_workspace\004_UART_TXRX\bsp\build\debug/./metal/machine.h:1365
		return METAL_SIFIVE_FE310_G000_PRCI_10008000_BASE_ADDRESS;
20014362:	100087b7          	lui	a5,0x10008
E:\GitHub\HiFive01-RevB\FS_workspace\004_UART_TXRX\bsp\build\debug/./metal/machine.h:1366
}
20014366:	853e                	mv	a0,a5
20014368:	4432                	lw	s0,12(sp)
2001436a:	0141                	addi	sp,sp,16
2001436c:	8082                	ret

2001436e <__metal_driver_sifive_fe310_g000_prci_get_reg>:
__metal_driver_sifive_fe310_g000_prci_get_reg():
E:/GitHub/HiFive01-RevB/FS_workspace/004_UART_TXRX/freedom-metal/src/drivers/sifive_fe310-g000_prci.c:12

#include <metal/drivers/sifive_fe310-g000_prci.h>
#include <metal/machine.h>

long __metal_driver_sifive_fe310_g000_prci_get_reg(
    const struct __metal_driver_sifive_fe310_g000_prci *prci, long offset) {
2001436e:	7179                	addi	sp,sp,-48
20014370:	d606                	sw	ra,44(sp)
20014372:	d422                	sw	s0,40(sp)
20014374:	1800                	addi	s0,sp,48
20014376:	fca42e23          	sw	a0,-36(s0)
2001437a:	fcb42c23          	sw	a1,-40(s0)
E:/GitHub/HiFive01-RevB/FS_workspace/004_UART_TXRX/freedom-metal/src/drivers/sifive_fe310-g000_prci.c:13
    unsigned long base = __metal_driver_sifive_fe310_g000_prci_base();
2001437e:	3ff9                	jal	2001435c <__metal_driver_sifive_fe310_g000_prci_base>
20014380:	87aa                	mv	a5,a0
20014382:	fef42623          	sw	a5,-20(s0)
E:/GitHub/HiFive01-RevB/FS_workspace/004_UART_TXRX/freedom-metal/src/drivers/sifive_fe310-g000_prci.c:14
    return __METAL_ACCESS_ONCE((__metal_io_u32 *)(base + offset));
20014386:	fd842703          	lw	a4,-40(s0)
2001438a:	fec42783          	lw	a5,-20(s0)
2001438e:	97ba                	add	a5,a5,a4
20014390:	439c                	lw	a5,0(a5)
E:/GitHub/HiFive01-RevB/FS_workspace/004_UART_TXRX/freedom-metal/src/drivers/sifive_fe310-g000_prci.c:15
}
20014392:	853e                	mv	a0,a5
20014394:	50b2                	lw	ra,44(sp)
20014396:	5422                	lw	s0,40(sp)
20014398:	6145                	addi	sp,sp,48
2001439a:	8082                	ret

2001439c <__metal_driver_sifive_fe310_g000_prci_set_reg>:
__metal_driver_sifive_fe310_g000_prci_set_reg():
E:/GitHub/HiFive01-RevB/FS_workspace/004_UART_TXRX/freedom-metal/src/drivers/sifive_fe310-g000_prci.c:19

long __metal_driver_sifive_fe310_g000_prci_set_reg(
    const struct __metal_driver_sifive_fe310_g000_prci *prci, long offset,
    long value) {
2001439c:	7179                	addi	sp,sp,-48
2001439e:	d606                	sw	ra,44(sp)
200143a0:	d422                	sw	s0,40(sp)
200143a2:	1800                	addi	s0,sp,48
200143a4:	fca42e23          	sw	a0,-36(s0)
200143a8:	fcb42c23          	sw	a1,-40(s0)
200143ac:	fcc42a23          	sw	a2,-44(s0)
E:/GitHub/HiFive01-RevB/FS_workspace/004_UART_TXRX/freedom-metal/src/drivers/sifive_fe310-g000_prci.c:20
    unsigned long base = __metal_driver_sifive_fe310_g000_prci_base();
200143b0:	3775                	jal	2001435c <__metal_driver_sifive_fe310_g000_prci_base>
200143b2:	87aa                	mv	a5,a0
200143b4:	fef42623          	sw	a5,-20(s0)
E:/GitHub/HiFive01-RevB/FS_workspace/004_UART_TXRX/freedom-metal/src/drivers/sifive_fe310-g000_prci.c:21
    return __METAL_ACCESS_ONCE((__metal_io_u32 *)(base + offset)) = value;
200143b8:	fd842703          	lw	a4,-40(s0)
200143bc:	fec42783          	lw	a5,-20(s0)
200143c0:	97ba                	add	a5,a5,a4
200143c2:	873e                	mv	a4,a5
200143c4:	fd442783          	lw	a5,-44(s0)
200143c8:	c31c                	sw	a5,0(a4)
E:/GitHub/HiFive01-RevB/FS_workspace/004_UART_TXRX/freedom-metal/src/drivers/sifive_fe310-g000_prci.c:22
}
200143ca:	853e                	mv	a0,a5
200143cc:	50b2                	lw	ra,44(sp)
200143ce:	5422                	lw	s0,40(sp)
200143d0:	6145                	addi	sp,sp,48
200143d2:	8082                	ret

200143d4 <__metal_driver_sifive_gpio_led_gpio>:
__metal_driver_sifive_gpio_led_gpio():
E:\GitHub\HiFive01-RevB\FS_workspace\004_UART_TXRX\bsp\build\debug/./metal/machine.h:579
{
200143d4:	1101                	addi	sp,sp,-32
200143d6:	ce22                	sw	s0,28(sp)
200143d8:	1000                	addi	s0,sp,32
200143da:	fea42623          	sw	a0,-20(s0)
E:\GitHub\HiFive01-RevB\FS_workspace\004_UART_TXRX\bsp\build\debug/./metal/machine.h:580
	if ((uintptr_t)led == (uintptr_t)&__metal_dt_led_0) {
200143de:	fec42703          	lw	a4,-20(s0)
200143e2:	82018793          	addi	a5,gp,-2016 # 80000ad0 <__metal_dt_led_0>
200143e6:	00f71563          	bne	a4,a5,200143f0 <__metal_driver_sifive_gpio_led_gpio+0x1c>
E:\GitHub\HiFive01-RevB\FS_workspace\004_UART_TXRX\bsp\build\debug/./metal/machine.h:581
		return (struct metal_gpio *)&__metal_dt_gpio_10012000;
200143ea:	81c18793          	addi	a5,gp,-2020 # 80000acc <__metal_dt_gpio_10012000>
200143ee:	a025                	j	20014416 <__metal_driver_sifive_gpio_led_gpio+0x42>
E:\GitHub\HiFive01-RevB\FS_workspace\004_UART_TXRX\bsp\build\debug/./metal/machine.h:583
	else if ((uintptr_t)led == (uintptr_t)&__metal_dt_led_1) {
200143f0:	fec42703          	lw	a4,-20(s0)
200143f4:	82418793          	addi	a5,gp,-2012 # 80000ad4 <__metal_dt_led_1>
200143f8:	00f71563          	bne	a4,a5,20014402 <__metal_driver_sifive_gpio_led_gpio+0x2e>
E:\GitHub\HiFive01-RevB\FS_workspace\004_UART_TXRX\bsp\build\debug/./metal/machine.h:584
		return (struct metal_gpio *)&__metal_dt_gpio_10012000;
200143fc:	81c18793          	addi	a5,gp,-2020 # 80000acc <__metal_dt_gpio_10012000>
20014400:	a819                	j	20014416 <__metal_driver_sifive_gpio_led_gpio+0x42>
E:\GitHub\HiFive01-RevB\FS_workspace\004_UART_TXRX\bsp\build\debug/./metal/machine.h:586
	else if ((uintptr_t)led == (uintptr_t)&__metal_dt_led_2) {
20014402:	fec42703          	lw	a4,-20(s0)
20014406:	82818793          	addi	a5,gp,-2008 # 80000ad8 <__metal_dt_led_2>
2001440a:	00f71563          	bne	a4,a5,20014414 <__metal_driver_sifive_gpio_led_gpio+0x40>
E:\GitHub\HiFive01-RevB\FS_workspace\004_UART_TXRX\bsp\build\debug/./metal/machine.h:587
		return (struct metal_gpio *)&__metal_dt_gpio_10012000;
2001440e:	81c18793          	addi	a5,gp,-2020 # 80000acc <__metal_dt_gpio_10012000>
20014412:	a011                	j	20014416 <__metal_driver_sifive_gpio_led_gpio+0x42>
E:\GitHub\HiFive01-RevB\FS_workspace\004_UART_TXRX\bsp\build\debug/./metal/machine.h:590
		return NULL;
20014414:	4781                	li	a5,0
E:\GitHub\HiFive01-RevB\FS_workspace\004_UART_TXRX\bsp\build\debug/./metal/machine.h:592
}
20014416:	853e                	mv	a0,a5
20014418:	4472                	lw	s0,28(sp)
2001441a:	6105                	addi	sp,sp,32
2001441c:	8082                	ret

2001441e <__metal_driver_sifive_gpio_led_pin>:
__metal_driver_sifive_gpio_led_pin():
E:\GitHub\HiFive01-RevB\FS_workspace\004_UART_TXRX\bsp\build\debug/./metal/machine.h:595
{
2001441e:	1101                	addi	sp,sp,-32
20014420:	ce22                	sw	s0,28(sp)
20014422:	1000                	addi	s0,sp,32
20014424:	fea42623          	sw	a0,-20(s0)
E:\GitHub\HiFive01-RevB\FS_workspace\004_UART_TXRX\bsp\build\debug/./metal/machine.h:596
	if ((uintptr_t)led == (uintptr_t)&__metal_dt_led_0) {
20014428:	fec42703          	lw	a4,-20(s0)
2001442c:	82018793          	addi	a5,gp,-2016 # 80000ad0 <__metal_dt_led_0>
20014430:	00f71463          	bne	a4,a5,20014438 <__metal_driver_sifive_gpio_led_pin+0x1a>
E:\GitHub\HiFive01-RevB\FS_workspace\004_UART_TXRX\bsp\build\debug/./metal/machine.h:597
		return 22;
20014434:	47d9                	li	a5,22
20014436:	a015                	j	2001445a <__metal_driver_sifive_gpio_led_pin+0x3c>
E:\GitHub\HiFive01-RevB\FS_workspace\004_UART_TXRX\bsp\build\debug/./metal/machine.h:599
	else if ((uintptr_t)led == (uintptr_t)&__metal_dt_led_1) {
20014438:	fec42703          	lw	a4,-20(s0)
2001443c:	82418793          	addi	a5,gp,-2012 # 80000ad4 <__metal_dt_led_1>
20014440:	00f71463          	bne	a4,a5,20014448 <__metal_driver_sifive_gpio_led_pin+0x2a>
E:\GitHub\HiFive01-RevB\FS_workspace\004_UART_TXRX\bsp\build\debug/./metal/machine.h:600
		return 19;
20014444:	47cd                	li	a5,19
20014446:	a811                	j	2001445a <__metal_driver_sifive_gpio_led_pin+0x3c>
E:\GitHub\HiFive01-RevB\FS_workspace\004_UART_TXRX\bsp\build\debug/./metal/machine.h:602
	else if ((uintptr_t)led == (uintptr_t)&__metal_dt_led_2) {
20014448:	fec42703          	lw	a4,-20(s0)
2001444c:	82818793          	addi	a5,gp,-2008 # 80000ad8 <__metal_dt_led_2>
20014450:	00f71463          	bne	a4,a5,20014458 <__metal_driver_sifive_gpio_led_pin+0x3a>
E:\GitHub\HiFive01-RevB\FS_workspace\004_UART_TXRX\bsp\build\debug/./metal/machine.h:603
		return 21;
20014454:	47d5                	li	a5,21
20014456:	a011                	j	2001445a <__metal_driver_sifive_gpio_led_pin+0x3c>
E:\GitHub\HiFive01-RevB\FS_workspace\004_UART_TXRX\bsp\build\debug/./metal/machine.h:606
		return 0;
20014458:	4781                	li	a5,0
E:\GitHub\HiFive01-RevB\FS_workspace\004_UART_TXRX\bsp\build\debug/./metal/machine.h:608
}
2001445a:	853e                	mv	a0,a5
2001445c:	4472                	lw	s0,28(sp)
2001445e:	6105                	addi	sp,sp,32
20014460:	8082                	ret

20014462 <__metal_driver_sifive_gpio_led_label>:
__metal_driver_sifive_gpio_led_label():
E:\GitHub\HiFive01-RevB\FS_workspace\004_UART_TXRX\bsp\build\debug/./metal/machine.h:611
{
20014462:	1101                	addi	sp,sp,-32
20014464:	ce22                	sw	s0,28(sp)
20014466:	1000                	addi	s0,sp,32
20014468:	fea42623          	sw	a0,-20(s0)
E:\GitHub\HiFive01-RevB\FS_workspace\004_UART_TXRX\bsp\build\debug/./metal/machine.h:612
	if ((uintptr_t)led == (uintptr_t)&__metal_dt_led_0) {
2001446c:	fec42703          	lw	a4,-20(s0)
20014470:	82018793          	addi	a5,gp,-2016 # 80000ad0 <__metal_dt_led_0>
20014474:	00f71763          	bne	a4,a5,20014482 <__metal_driver_sifive_gpio_led_label+0x20>
E:\GitHub\HiFive01-RevB\FS_workspace\004_UART_TXRX\bsp\build\debug/./metal/machine.h:613
		return "LD0red";
20014478:	200117b7          	lui	a5,0x20011
2001447c:	df078793          	addi	a5,a5,-528 # 20010df0 <__metal_driver_vtable_sifive_fe310_g000_pll+0xc>
20014480:	a81d                	j	200144b6 <__metal_driver_sifive_gpio_led_label+0x54>
E:\GitHub\HiFive01-RevB\FS_workspace\004_UART_TXRX\bsp\build\debug/./metal/machine.h:615
	else if ((uintptr_t)led == (uintptr_t)&__metal_dt_led_1) {
20014482:	fec42703          	lw	a4,-20(s0)
20014486:	82418793          	addi	a5,gp,-2012 # 80000ad4 <__metal_dt_led_1>
2001448a:	00f71763          	bne	a4,a5,20014498 <__metal_driver_sifive_gpio_led_label+0x36>
E:\GitHub\HiFive01-RevB\FS_workspace\004_UART_TXRX\bsp\build\debug/./metal/machine.h:616
		return "LD0green";
2001448e:	200117b7          	lui	a5,0x20011
20014492:	df878793          	addi	a5,a5,-520 # 20010df8 <__metal_driver_vtable_sifive_fe310_g000_pll+0x14>
20014496:	a005                	j	200144b6 <__metal_driver_sifive_gpio_led_label+0x54>
E:\GitHub\HiFive01-RevB\FS_workspace\004_UART_TXRX\bsp\build\debug/./metal/machine.h:618
	else if ((uintptr_t)led == (uintptr_t)&__metal_dt_led_2) {
20014498:	fec42703          	lw	a4,-20(s0)
2001449c:	82818793          	addi	a5,gp,-2008 # 80000ad8 <__metal_dt_led_2>
200144a0:	00f71763          	bne	a4,a5,200144ae <__metal_driver_sifive_gpio_led_label+0x4c>
E:\GitHub\HiFive01-RevB\FS_workspace\004_UART_TXRX\bsp\build\debug/./metal/machine.h:619
		return "LD0blue";
200144a4:	200117b7          	lui	a5,0x20011
200144a8:	e0478793          	addi	a5,a5,-508 # 20010e04 <__metal_driver_vtable_sifive_fe310_g000_pll+0x20>
200144ac:	a029                	j	200144b6 <__metal_driver_sifive_gpio_led_label+0x54>
E:\GitHub\HiFive01-RevB\FS_workspace\004_UART_TXRX\bsp\build\debug/./metal/machine.h:622
		return "";
200144ae:	200117b7          	lui	a5,0x20011
200144b2:	e0c78793          	addi	a5,a5,-500 # 20010e0c <__metal_driver_vtable_sifive_fe310_g000_pll+0x28>
E:\GitHub\HiFive01-RevB\FS_workspace\004_UART_TXRX\bsp\build\debug/./metal/machine.h:624
}
200144b6:	853e                	mv	a0,a5
200144b8:	4472                	lw	s0,28(sp)
200144ba:	6105                	addi	sp,sp,32
200144bc:	8082                	ret

200144be <__metal_driver_led_exist>:
__metal_driver_led_exist():
E:/GitHub/HiFive01-RevB/FS_workspace/004_UART_TXRX/freedom-metal/src/drivers/sifive_gpio-leds.c:13
#include <metal/drivers/sifive_gpio-leds.h>
#include <metal/gpio.h>
#include <metal/machine.h>
#include <string.h>

int __metal_driver_led_exist(struct metal_led *led, char *label) {
200144be:	1101                	addi	sp,sp,-32
200144c0:	ce06                	sw	ra,28(sp)
200144c2:	cc22                	sw	s0,24(sp)
200144c4:	1000                	addi	s0,sp,32
200144c6:	fea42623          	sw	a0,-20(s0)
200144ca:	feb42423          	sw	a1,-24(s0)
E:/GitHub/HiFive01-RevB/FS_workspace/004_UART_TXRX/freedom-metal/src/drivers/sifive_gpio-leds.c:14
    if (strcmp(__metal_driver_sifive_gpio_led_label(led), label) == 0) {
200144ce:	fec42503          	lw	a0,-20(s0)
200144d2:	3f41                	jal	20014462 <__metal_driver_sifive_gpio_led_label>
200144d4:	87aa                	mv	a5,a0
200144d6:	fe842583          	lw	a1,-24(s0)
200144da:	853e                	mv	a0,a5
200144dc:	237010ef          	jal	ra,20015f12 <strcmp>
200144e0:	87aa                	mv	a5,a0
200144e2:	e399                	bnez	a5,200144e8 <__metal_driver_led_exist+0x2a>
E:/GitHub/HiFive01-RevB/FS_workspace/004_UART_TXRX/freedom-metal/src/drivers/sifive_gpio-leds.c:15
        return 1;
200144e4:	4785                	li	a5,1
200144e6:	a011                	j	200144ea <__metal_driver_led_exist+0x2c>
E:/GitHub/HiFive01-RevB/FS_workspace/004_UART_TXRX/freedom-metal/src/drivers/sifive_gpio-leds.c:17
    }
    return 0;
200144e8:	4781                	li	a5,0
E:/GitHub/HiFive01-RevB/FS_workspace/004_UART_TXRX/freedom-metal/src/drivers/sifive_gpio-leds.c:18
}
200144ea:	853e                	mv	a0,a5
200144ec:	40f2                	lw	ra,28(sp)
200144ee:	4462                	lw	s0,24(sp)
200144f0:	6105                	addi	sp,sp,32
200144f2:	8082                	ret

200144f4 <__metal_driver_led_enable>:
__metal_driver_led_enable():
E:/GitHub/HiFive01-RevB/FS_workspace/004_UART_TXRX/freedom-metal/src/drivers/sifive_gpio-leds.c:20

void __metal_driver_led_enable(struct metal_led *led) {
200144f4:	7179                	addi	sp,sp,-48
200144f6:	d606                	sw	ra,44(sp)
200144f8:	d422                	sw	s0,40(sp)
200144fa:	1800                	addi	s0,sp,48
200144fc:	fca42e23          	sw	a0,-36(s0)
E:/GitHub/HiFive01-RevB/FS_workspace/004_UART_TXRX/freedom-metal/src/drivers/sifive_gpio-leds.c:24
    int pin;
    struct metal_gpio *gpio;

    pin = __metal_driver_sifive_gpio_led_pin(led);
20014500:	fdc42503          	lw	a0,-36(s0)
20014504:	3f29                	jal	2001441e <__metal_driver_sifive_gpio_led_pin>
20014506:	fea42623          	sw	a0,-20(s0)
E:/GitHub/HiFive01-RevB/FS_workspace/004_UART_TXRX/freedom-metal/src/drivers/sifive_gpio-leds.c:25
    gpio = __metal_driver_sifive_gpio_led_gpio(led);
2001450a:	fdc42503          	lw	a0,-36(s0)
2001450e:	35d9                	jal	200143d4 <__metal_driver_sifive_gpio_led_gpio>
20014510:	fea42423          	sw	a0,-24(s0)
E:/GitHub/HiFive01-RevB/FS_workspace/004_UART_TXRX/freedom-metal/src/drivers/sifive_gpio-leds.c:27

    if (gpio != NULL) {
20014514:	fe842783          	lw	a5,-24(s0)
20014518:	cf89                	beqz	a5,20014532 <__metal_driver_led_enable+0x3e>
E:/GitHub/HiFive01-RevB/FS_workspace/004_UART_TXRX/freedom-metal/src/drivers/sifive_gpio-leds.c:29
        /* Configure LED as output */
        metal_gpio_disable_input((struct metal_gpio *)gpio, pin);
2001451a:	fec42583          	lw	a1,-20(s0)
2001451e:	fe842503          	lw	a0,-24(s0)
20014522:	438010ef          	jal	ra,2001595a <metal_gpio_disable_input>
E:/GitHub/HiFive01-RevB/FS_workspace/004_UART_TXRX/freedom-metal/src/drivers/sifive_gpio-leds.c:30
        metal_gpio_enable_output((struct metal_gpio *)gpio, pin);
20014526:	fec42583          	lw	a1,-20(s0)
2001452a:	fe842503          	lw	a0,-24(s0)
2001452e:	46c010ef          	jal	ra,2001599a <metal_gpio_enable_output>
E:/GitHub/HiFive01-RevB/FS_workspace/004_UART_TXRX/freedom-metal/src/drivers/sifive_gpio-leds.c:32
    }
}
20014532:	0001                	nop
20014534:	50b2                	lw	ra,44(sp)
20014536:	5422                	lw	s0,40(sp)
20014538:	6145                	addi	sp,sp,48
2001453a:	8082                	ret

2001453c <__metal_driver_led_on>:
__metal_driver_led_on():
E:/GitHub/HiFive01-RevB/FS_workspace/004_UART_TXRX/freedom-metal/src/drivers/sifive_gpio-leds.c:34

void __metal_driver_led_on(struct metal_led *led) {
2001453c:	7179                	addi	sp,sp,-48
2001453e:	d606                	sw	ra,44(sp)
20014540:	d422                	sw	s0,40(sp)
20014542:	1800                	addi	s0,sp,48
20014544:	fca42e23          	sw	a0,-36(s0)
E:/GitHub/HiFive01-RevB/FS_workspace/004_UART_TXRX/freedom-metal/src/drivers/sifive_gpio-leds.c:38
    int pin;
    struct metal_gpio *gpio;

    pin = __metal_driver_sifive_gpio_led_pin(led);
20014548:	fdc42503          	lw	a0,-36(s0)
2001454c:	3dc9                	jal	2001441e <__metal_driver_sifive_gpio_led_pin>
2001454e:	fea42623          	sw	a0,-20(s0)
E:/GitHub/HiFive01-RevB/FS_workspace/004_UART_TXRX/freedom-metal/src/drivers/sifive_gpio-leds.c:39
    gpio = __metal_driver_sifive_gpio_led_gpio(led);
20014552:	fdc42503          	lw	a0,-36(s0)
20014556:	3dbd                	jal	200143d4 <__metal_driver_sifive_gpio_led_gpio>
20014558:	fea42423          	sw	a0,-24(s0)
E:/GitHub/HiFive01-RevB/FS_workspace/004_UART_TXRX/freedom-metal/src/drivers/sifive_gpio-leds.c:41

    if (gpio != NULL) {
2001455c:	fe842783          	lw	a5,-24(s0)
20014560:	cb81                	beqz	a5,20014570 <__metal_driver_led_on+0x34>
E:/GitHub/HiFive01-RevB/FS_workspace/004_UART_TXRX/freedom-metal/src/drivers/sifive_gpio-leds.c:42
        metal_gpio_set_pin((struct metal_gpio *)gpio, pin, 1);
20014562:	4605                	li	a2,1
20014564:	fec42583          	lw	a1,-20(s0)
20014568:	fe842503          	lw	a0,-24(s0)
2001456c:	46e010ef          	jal	ra,200159da <metal_gpio_set_pin>
E:/GitHub/HiFive01-RevB/FS_workspace/004_UART_TXRX/freedom-metal/src/drivers/sifive_gpio-leds.c:44
    }
}
20014570:	0001                	nop
20014572:	50b2                	lw	ra,44(sp)
20014574:	5422                	lw	s0,40(sp)
20014576:	6145                	addi	sp,sp,48
20014578:	8082                	ret

2001457a <__metal_driver_led_off>:
__metal_driver_led_off():
E:/GitHub/HiFive01-RevB/FS_workspace/004_UART_TXRX/freedom-metal/src/drivers/sifive_gpio-leds.c:46

void __metal_driver_led_off(struct metal_led *led) {
2001457a:	7179                	addi	sp,sp,-48
2001457c:	d606                	sw	ra,44(sp)
2001457e:	d422                	sw	s0,40(sp)
20014580:	1800                	addi	s0,sp,48
20014582:	fca42e23          	sw	a0,-36(s0)
E:/GitHub/HiFive01-RevB/FS_workspace/004_UART_TXRX/freedom-metal/src/drivers/sifive_gpio-leds.c:50
    int pin;
    struct metal_gpio *gpio;

    pin = __metal_driver_sifive_gpio_led_pin(led);
20014586:	fdc42503          	lw	a0,-36(s0)
2001458a:	3d51                	jal	2001441e <__metal_driver_sifive_gpio_led_pin>
2001458c:	fea42623          	sw	a0,-20(s0)
E:/GitHub/HiFive01-RevB/FS_workspace/004_UART_TXRX/freedom-metal/src/drivers/sifive_gpio-leds.c:51
    gpio = __metal_driver_sifive_gpio_led_gpio(led);
20014590:	fdc42503          	lw	a0,-36(s0)
20014594:	3581                	jal	200143d4 <__metal_driver_sifive_gpio_led_gpio>
20014596:	fea42423          	sw	a0,-24(s0)
E:/GitHub/HiFive01-RevB/FS_workspace/004_UART_TXRX/freedom-metal/src/drivers/sifive_gpio-leds.c:53

    if (gpio != NULL) {
2001459a:	fe842783          	lw	a5,-24(s0)
2001459e:	cb81                	beqz	a5,200145ae <__metal_driver_led_off+0x34>
E:/GitHub/HiFive01-RevB/FS_workspace/004_UART_TXRX/freedom-metal/src/drivers/sifive_gpio-leds.c:54
        metal_gpio_set_pin((struct metal_gpio *)gpio, pin, 0);
200145a0:	4601                	li	a2,0
200145a2:	fec42583          	lw	a1,-20(s0)
200145a6:	fe842503          	lw	a0,-24(s0)
200145aa:	430010ef          	jal	ra,200159da <metal_gpio_set_pin>
E:/GitHub/HiFive01-RevB/FS_workspace/004_UART_TXRX/freedom-metal/src/drivers/sifive_gpio-leds.c:56
    }
}
200145ae:	0001                	nop
200145b0:	50b2                	lw	ra,44(sp)
200145b2:	5422                	lw	s0,40(sp)
200145b4:	6145                	addi	sp,sp,48
200145b6:	8082                	ret

200145b8 <__metal_driver_led_toggle>:
__metal_driver_led_toggle():
E:/GitHub/HiFive01-RevB/FS_workspace/004_UART_TXRX/freedom-metal/src/drivers/sifive_gpio-leds.c:58

void __metal_driver_led_toggle(struct metal_led *led) {
200145b8:	7179                	addi	sp,sp,-48
200145ba:	d606                	sw	ra,44(sp)
200145bc:	d422                	sw	s0,40(sp)
200145be:	1800                	addi	s0,sp,48
200145c0:	fca42e23          	sw	a0,-36(s0)
E:/GitHub/HiFive01-RevB/FS_workspace/004_UART_TXRX/freedom-metal/src/drivers/sifive_gpio-leds.c:62
    int pin;
    struct metal_gpio *gpio;

    pin = __metal_driver_sifive_gpio_led_pin(led);
200145c4:	fdc42503          	lw	a0,-36(s0)
200145c8:	3d99                	jal	2001441e <__metal_driver_sifive_gpio_led_pin>
200145ca:	fea42623          	sw	a0,-20(s0)
E:/GitHub/HiFive01-RevB/FS_workspace/004_UART_TXRX/freedom-metal/src/drivers/sifive_gpio-leds.c:63
    gpio = __metal_driver_sifive_gpio_led_gpio(led);
200145ce:	fdc42503          	lw	a0,-36(s0)
200145d2:	3509                	jal	200143d4 <__metal_driver_sifive_gpio_led_gpio>
200145d4:	fea42423          	sw	a0,-24(s0)
E:/GitHub/HiFive01-RevB/FS_workspace/004_UART_TXRX/freedom-metal/src/drivers/sifive_gpio-leds.c:65

    if (gpio != NULL) {
200145d8:	fe842783          	lw	a5,-24(s0)
200145dc:	c799                	beqz	a5,200145ea <__metal_driver_led_toggle+0x32>
E:/GitHub/HiFive01-RevB/FS_workspace/004_UART_TXRX/freedom-metal/src/drivers/sifive_gpio-leds.c:66
        metal_gpio_toggle_pin((struct metal_gpio *)gpio, pin);
200145de:	fec42583          	lw	a1,-20(s0)
200145e2:	fe842503          	lw	a0,-24(s0)
200145e6:	45c010ef          	jal	ra,20015a42 <metal_gpio_toggle_pin>
E:/GitHub/HiFive01-RevB/FS_workspace/004_UART_TXRX/freedom-metal/src/drivers/sifive_gpio-leds.c:68
    }
}
200145ea:	0001                	nop
200145ec:	50b2                	lw	ra,44(sp)
200145ee:	5422                	lw	s0,40(sp)
200145f0:	6145                	addi	sp,sp,48
200145f2:	8082                	ret

200145f4 <__metal_driver_sifive_gpio0_base>:
__metal_driver_sifive_gpio0_base():
E:\GitHub\HiFive01-RevB\FS_workspace\004_UART_TXRX\bsp\build\debug/./metal/machine.h:430
{
200145f4:	1101                	addi	sp,sp,-32
200145f6:	ce22                	sw	s0,28(sp)
200145f8:	1000                	addi	s0,sp,32
200145fa:	fea42623          	sw	a0,-20(s0)
E:\GitHub\HiFive01-RevB\FS_workspace\004_UART_TXRX\bsp\build\debug/./metal/machine.h:431
	if ((uintptr_t)gpio == (uintptr_t)&__metal_dt_gpio_10012000) {
200145fe:	fec42703          	lw	a4,-20(s0)
20014602:	81c18793          	addi	a5,gp,-2020 # 80000acc <__metal_dt_gpio_10012000>
20014606:	00f71563          	bne	a4,a5,20014610 <__metal_driver_sifive_gpio0_base+0x1c>
E:\GitHub\HiFive01-RevB\FS_workspace\004_UART_TXRX\bsp\build\debug/./metal/machine.h:432
		return METAL_SIFIVE_GPIO0_10012000_BASE_ADDRESS;
2001460a:	100127b7          	lui	a5,0x10012
2001460e:	a011                	j	20014612 <__metal_driver_sifive_gpio0_base+0x1e>
E:\GitHub\HiFive01-RevB\FS_workspace\004_UART_TXRX\bsp\build\debug/./metal/machine.h:435
		return 0;
20014610:	4781                	li	a5,0
E:\GitHub\HiFive01-RevB\FS_workspace\004_UART_TXRX\bsp\build\debug/./metal/machine.h:437
}
20014612:	853e                	mv	a0,a5
20014614:	4472                	lw	s0,28(sp)
20014616:	6105                	addi	sp,sp,32
20014618:	8082                	ret

2001461a <__metal_driver_sifive_gpio0_interrupt_parent>:
__metal_driver_sifive_gpio0_interrupt_parent():
E:\GitHub\HiFive01-RevB\FS_workspace\004_UART_TXRX\bsp\build\debug/./metal/machine.h:460
{
2001461a:	1101                	addi	sp,sp,-32
2001461c:	ce22                	sw	s0,28(sp)
2001461e:	1000                	addi	s0,sp,32
20014620:	fea42623          	sw	a0,-20(s0)
E:\GitHub\HiFive01-RevB\FS_workspace\004_UART_TXRX\bsp\build\debug/./metal/machine.h:461
	if ((uintptr_t)gpio == (uintptr_t)&__metal_dt_gpio_10012000) {
20014624:	fec42703          	lw	a4,-20(s0)
20014628:	81c18793          	addi	a5,gp,-2020 # 80000acc <__metal_dt_gpio_10012000>
2001462c:	00f71763          	bne	a4,a5,2001463a <__metal_driver_sifive_gpio0_interrupt_parent+0x20>
E:\GitHub\HiFive01-RevB\FS_workspace\004_UART_TXRX\bsp\build\debug/./metal/machine.h:462
		return (struct metal_interrupt *)&__metal_dt_interrupt_controller_c000000.controller;
20014630:	800007b7          	lui	a5,0x80000
20014634:	41078793          	addi	a5,a5,1040 # 80000410 <__global_pointer$+0xfffff160>
20014638:	a011                	j	2001463c <__metal_driver_sifive_gpio0_interrupt_parent+0x22>
E:\GitHub\HiFive01-RevB\FS_workspace\004_UART_TXRX\bsp\build\debug/./metal/machine.h:465
		return 0;
2001463a:	4781                	li	a5,0
E:\GitHub\HiFive01-RevB\FS_workspace\004_UART_TXRX\bsp\build\debug/./metal/machine.h:467
}
2001463c:	853e                	mv	a0,a5
2001463e:	4472                	lw	s0,28(sp)
20014640:	6105                	addi	sp,sp,32
20014642:	8082                	ret

20014644 <__metal_driver_sifive_gpio0_interrupt_lines>:
__metal_driver_sifive_gpio0_interrupt_lines():
E:\GitHub\HiFive01-RevB\FS_workspace\004_UART_TXRX\bsp\build\debug/./metal/machine.h:470
{
20014644:	1101                	addi	sp,sp,-32
20014646:	ce22                	sw	s0,28(sp)
20014648:	1000                	addi	s0,sp,32
2001464a:	fea42623          	sw	a0,-20(s0)
2001464e:	feb42423          	sw	a1,-24(s0)
E:\GitHub\HiFive01-RevB\FS_workspace\004_UART_TXRX\bsp\build\debug/./metal/machine.h:471
	if (((uintptr_t)gpio == (uintptr_t)&__metal_dt_gpio_10012000) && (idx == 0)) {
20014652:	fec42703          	lw	a4,-20(s0)
20014656:	81c18793          	addi	a5,gp,-2020 # 80000acc <__metal_dt_gpio_10012000>
2001465a:	00f71763          	bne	a4,a5,20014668 <__metal_driver_sifive_gpio0_interrupt_lines+0x24>
E:\GitHub\HiFive01-RevB\FS_workspace\004_UART_TXRX\bsp\build\debug/./metal/machine.h:471 (discriminator 1)
2001465e:	fe842783          	lw	a5,-24(s0)
20014662:	e399                	bnez	a5,20014668 <__metal_driver_sifive_gpio0_interrupt_lines+0x24>
E:\GitHub\HiFive01-RevB\FS_workspace\004_UART_TXRX\bsp\build\debug/./metal/machine.h:472
		return 8;
20014664:	47a1                	li	a5,8
20014666:	ae15                	j	2001499a <__metal_driver_sifive_gpio0_interrupt_lines+0x356>
E:\GitHub\HiFive01-RevB\FS_workspace\004_UART_TXRX\bsp\build\debug/./metal/machine.h:474
	else if ((((uintptr_t)gpio == (uintptr_t)&__metal_dt_gpio_10012000) && (idx == 1))) {
20014668:	fec42703          	lw	a4,-20(s0)
2001466c:	81c18793          	addi	a5,gp,-2020 # 80000acc <__metal_dt_gpio_10012000>
20014670:	00f71963          	bne	a4,a5,20014682 <__metal_driver_sifive_gpio0_interrupt_lines+0x3e>
E:\GitHub\HiFive01-RevB\FS_workspace\004_UART_TXRX\bsp\build\debug/./metal/machine.h:474 (discriminator 1)
20014674:	fe842703          	lw	a4,-24(s0)
20014678:	4785                	li	a5,1
2001467a:	00f71463          	bne	a4,a5,20014682 <__metal_driver_sifive_gpio0_interrupt_lines+0x3e>
E:\GitHub\HiFive01-RevB\FS_workspace\004_UART_TXRX\bsp\build\debug/./metal/machine.h:475
		return 9;
2001467e:	47a5                	li	a5,9
20014680:	ae29                	j	2001499a <__metal_driver_sifive_gpio0_interrupt_lines+0x356>
E:\GitHub\HiFive01-RevB\FS_workspace\004_UART_TXRX\bsp\build\debug/./metal/machine.h:477
	else if ((((uintptr_t)gpio == (uintptr_t)&__metal_dt_gpio_10012000) && (idx == 2))) {
20014682:	fec42703          	lw	a4,-20(s0)
20014686:	81c18793          	addi	a5,gp,-2020 # 80000acc <__metal_dt_gpio_10012000>
2001468a:	00f71963          	bne	a4,a5,2001469c <__metal_driver_sifive_gpio0_interrupt_lines+0x58>
E:\GitHub\HiFive01-RevB\FS_workspace\004_UART_TXRX\bsp\build\debug/./metal/machine.h:477 (discriminator 1)
2001468e:	fe842703          	lw	a4,-24(s0)
20014692:	4789                	li	a5,2
20014694:	00f71463          	bne	a4,a5,2001469c <__metal_driver_sifive_gpio0_interrupt_lines+0x58>
E:\GitHub\HiFive01-RevB\FS_workspace\004_UART_TXRX\bsp\build\debug/./metal/machine.h:478
		return 10;
20014698:	47a9                	li	a5,10
2001469a:	a601                	j	2001499a <__metal_driver_sifive_gpio0_interrupt_lines+0x356>
E:\GitHub\HiFive01-RevB\FS_workspace\004_UART_TXRX\bsp\build\debug/./metal/machine.h:480
	else if ((((uintptr_t)gpio == (uintptr_t)&__metal_dt_gpio_10012000) && (idx == 3))) {
2001469c:	fec42703          	lw	a4,-20(s0)
200146a0:	81c18793          	addi	a5,gp,-2020 # 80000acc <__metal_dt_gpio_10012000>
200146a4:	00f71963          	bne	a4,a5,200146b6 <__metal_driver_sifive_gpio0_interrupt_lines+0x72>
E:\GitHub\HiFive01-RevB\FS_workspace\004_UART_TXRX\bsp\build\debug/./metal/machine.h:480 (discriminator 1)
200146a8:	fe842703          	lw	a4,-24(s0)
200146ac:	478d                	li	a5,3
200146ae:	00f71463          	bne	a4,a5,200146b6 <__metal_driver_sifive_gpio0_interrupt_lines+0x72>
E:\GitHub\HiFive01-RevB\FS_workspace\004_UART_TXRX\bsp\build\debug/./metal/machine.h:481
		return 11;
200146b2:	47ad                	li	a5,11
200146b4:	a4dd                	j	2001499a <__metal_driver_sifive_gpio0_interrupt_lines+0x356>
E:\GitHub\HiFive01-RevB\FS_workspace\004_UART_TXRX\bsp\build\debug/./metal/machine.h:483
	else if ((((uintptr_t)gpio == (uintptr_t)&__metal_dt_gpio_10012000) && (idx == 4))) {
200146b6:	fec42703          	lw	a4,-20(s0)
200146ba:	81c18793          	addi	a5,gp,-2020 # 80000acc <__metal_dt_gpio_10012000>
200146be:	00f71963          	bne	a4,a5,200146d0 <__metal_driver_sifive_gpio0_interrupt_lines+0x8c>
E:\GitHub\HiFive01-RevB\FS_workspace\004_UART_TXRX\bsp\build\debug/./metal/machine.h:483 (discriminator 1)
200146c2:	fe842703          	lw	a4,-24(s0)
200146c6:	4791                	li	a5,4
200146c8:	00f71463          	bne	a4,a5,200146d0 <__metal_driver_sifive_gpio0_interrupt_lines+0x8c>
E:\GitHub\HiFive01-RevB\FS_workspace\004_UART_TXRX\bsp\build\debug/./metal/machine.h:484
		return 12;
200146cc:	47b1                	li	a5,12
200146ce:	a4f1                	j	2001499a <__metal_driver_sifive_gpio0_interrupt_lines+0x356>
E:\GitHub\HiFive01-RevB\FS_workspace\004_UART_TXRX\bsp\build\debug/./metal/machine.h:486
	else if ((((uintptr_t)gpio == (uintptr_t)&__metal_dt_gpio_10012000) && (idx == 5))) {
200146d0:	fec42703          	lw	a4,-20(s0)
200146d4:	81c18793          	addi	a5,gp,-2020 # 80000acc <__metal_dt_gpio_10012000>
200146d8:	00f71963          	bne	a4,a5,200146ea <__metal_driver_sifive_gpio0_interrupt_lines+0xa6>
E:\GitHub\HiFive01-RevB\FS_workspace\004_UART_TXRX\bsp\build\debug/./metal/machine.h:486 (discriminator 1)
200146dc:	fe842703          	lw	a4,-24(s0)
200146e0:	4795                	li	a5,5
200146e2:	00f71463          	bne	a4,a5,200146ea <__metal_driver_sifive_gpio0_interrupt_lines+0xa6>
E:\GitHub\HiFive01-RevB\FS_workspace\004_UART_TXRX\bsp\build\debug/./metal/machine.h:487
		return 13;
200146e6:	47b5                	li	a5,13
200146e8:	ac4d                	j	2001499a <__metal_driver_sifive_gpio0_interrupt_lines+0x356>
E:\GitHub\HiFive01-RevB\FS_workspace\004_UART_TXRX\bsp\build\debug/./metal/machine.h:489
	else if ((((uintptr_t)gpio == (uintptr_t)&__metal_dt_gpio_10012000) && (idx == 6))) {
200146ea:	fec42703          	lw	a4,-20(s0)
200146ee:	81c18793          	addi	a5,gp,-2020 # 80000acc <__metal_dt_gpio_10012000>
200146f2:	00f71963          	bne	a4,a5,20014704 <__metal_driver_sifive_gpio0_interrupt_lines+0xc0>
E:\GitHub\HiFive01-RevB\FS_workspace\004_UART_TXRX\bsp\build\debug/./metal/machine.h:489 (discriminator 1)
200146f6:	fe842703          	lw	a4,-24(s0)
200146fa:	4799                	li	a5,6
200146fc:	00f71463          	bne	a4,a5,20014704 <__metal_driver_sifive_gpio0_interrupt_lines+0xc0>
E:\GitHub\HiFive01-RevB\FS_workspace\004_UART_TXRX\bsp\build\debug/./metal/machine.h:490
		return 14;
20014700:	47b9                	li	a5,14
20014702:	ac61                	j	2001499a <__metal_driver_sifive_gpio0_interrupt_lines+0x356>
E:\GitHub\HiFive01-RevB\FS_workspace\004_UART_TXRX\bsp\build\debug/./metal/machine.h:492
	else if ((((uintptr_t)gpio == (uintptr_t)&__metal_dt_gpio_10012000) && (idx == 7))) {
20014704:	fec42703          	lw	a4,-20(s0)
20014708:	81c18793          	addi	a5,gp,-2020 # 80000acc <__metal_dt_gpio_10012000>
2001470c:	00f71963          	bne	a4,a5,2001471e <__metal_driver_sifive_gpio0_interrupt_lines+0xda>
E:\GitHub\HiFive01-RevB\FS_workspace\004_UART_TXRX\bsp\build\debug/./metal/machine.h:492 (discriminator 1)
20014710:	fe842703          	lw	a4,-24(s0)
20014714:	479d                	li	a5,7
20014716:	00f71463          	bne	a4,a5,2001471e <__metal_driver_sifive_gpio0_interrupt_lines+0xda>
E:\GitHub\HiFive01-RevB\FS_workspace\004_UART_TXRX\bsp\build\debug/./metal/machine.h:493
		return 15;
2001471a:	47bd                	li	a5,15
2001471c:	acbd                	j	2001499a <__metal_driver_sifive_gpio0_interrupt_lines+0x356>
E:\GitHub\HiFive01-RevB\FS_workspace\004_UART_TXRX\bsp\build\debug/./metal/machine.h:495
	else if ((((uintptr_t)gpio == (uintptr_t)&__metal_dt_gpio_10012000) && (idx == 8))) {
2001471e:	fec42703          	lw	a4,-20(s0)
20014722:	81c18793          	addi	a5,gp,-2020 # 80000acc <__metal_dt_gpio_10012000>
20014726:	00f71963          	bne	a4,a5,20014738 <__metal_driver_sifive_gpio0_interrupt_lines+0xf4>
E:\GitHub\HiFive01-RevB\FS_workspace\004_UART_TXRX\bsp\build\debug/./metal/machine.h:495 (discriminator 1)
2001472a:	fe842703          	lw	a4,-24(s0)
2001472e:	47a1                	li	a5,8
20014730:	00f71463          	bne	a4,a5,20014738 <__metal_driver_sifive_gpio0_interrupt_lines+0xf4>
E:\GitHub\HiFive01-RevB\FS_workspace\004_UART_TXRX\bsp\build\debug/./metal/machine.h:496
		return 16;
20014734:	47c1                	li	a5,16
20014736:	a495                	j	2001499a <__metal_driver_sifive_gpio0_interrupt_lines+0x356>
E:\GitHub\HiFive01-RevB\FS_workspace\004_UART_TXRX\bsp\build\debug/./metal/machine.h:498
	else if ((((uintptr_t)gpio == (uintptr_t)&__metal_dt_gpio_10012000) && (idx == 9))) {
20014738:	fec42703          	lw	a4,-20(s0)
2001473c:	81c18793          	addi	a5,gp,-2020 # 80000acc <__metal_dt_gpio_10012000>
20014740:	00f71963          	bne	a4,a5,20014752 <__metal_driver_sifive_gpio0_interrupt_lines+0x10e>
E:\GitHub\HiFive01-RevB\FS_workspace\004_UART_TXRX\bsp\build\debug/./metal/machine.h:498 (discriminator 1)
20014744:	fe842703          	lw	a4,-24(s0)
20014748:	47a5                	li	a5,9
2001474a:	00f71463          	bne	a4,a5,20014752 <__metal_driver_sifive_gpio0_interrupt_lines+0x10e>
E:\GitHub\HiFive01-RevB\FS_workspace\004_UART_TXRX\bsp\build\debug/./metal/machine.h:499
		return 17;
2001474e:	47c5                	li	a5,17
20014750:	a4a9                	j	2001499a <__metal_driver_sifive_gpio0_interrupt_lines+0x356>
E:\GitHub\HiFive01-RevB\FS_workspace\004_UART_TXRX\bsp\build\debug/./metal/machine.h:501
	else if ((((uintptr_t)gpio == (uintptr_t)&__metal_dt_gpio_10012000) && (idx == 10))) {
20014752:	fec42703          	lw	a4,-20(s0)
20014756:	81c18793          	addi	a5,gp,-2020 # 80000acc <__metal_dt_gpio_10012000>
2001475a:	00f71963          	bne	a4,a5,2001476c <__metal_driver_sifive_gpio0_interrupt_lines+0x128>
E:\GitHub\HiFive01-RevB\FS_workspace\004_UART_TXRX\bsp\build\debug/./metal/machine.h:501 (discriminator 1)
2001475e:	fe842703          	lw	a4,-24(s0)
20014762:	47a9                	li	a5,10
20014764:	00f71463          	bne	a4,a5,2001476c <__metal_driver_sifive_gpio0_interrupt_lines+0x128>
E:\GitHub\HiFive01-RevB\FS_workspace\004_UART_TXRX\bsp\build\debug/./metal/machine.h:502
		return 18;
20014768:	47c9                	li	a5,18
2001476a:	ac05                	j	2001499a <__metal_driver_sifive_gpio0_interrupt_lines+0x356>
E:\GitHub\HiFive01-RevB\FS_workspace\004_UART_TXRX\bsp\build\debug/./metal/machine.h:504
	else if ((((uintptr_t)gpio == (uintptr_t)&__metal_dt_gpio_10012000) && (idx == 11))) {
2001476c:	fec42703          	lw	a4,-20(s0)
20014770:	81c18793          	addi	a5,gp,-2020 # 80000acc <__metal_dt_gpio_10012000>
20014774:	00f71963          	bne	a4,a5,20014786 <__metal_driver_sifive_gpio0_interrupt_lines+0x142>
E:\GitHub\HiFive01-RevB\FS_workspace\004_UART_TXRX\bsp\build\debug/./metal/machine.h:504 (discriminator 1)
20014778:	fe842703          	lw	a4,-24(s0)
2001477c:	47ad                	li	a5,11
2001477e:	00f71463          	bne	a4,a5,20014786 <__metal_driver_sifive_gpio0_interrupt_lines+0x142>
E:\GitHub\HiFive01-RevB\FS_workspace\004_UART_TXRX\bsp\build\debug/./metal/machine.h:505
		return 19;
20014782:	47cd                	li	a5,19
20014784:	ac19                	j	2001499a <__metal_driver_sifive_gpio0_interrupt_lines+0x356>
E:\GitHub\HiFive01-RevB\FS_workspace\004_UART_TXRX\bsp\build\debug/./metal/machine.h:507
	else if ((((uintptr_t)gpio == (uintptr_t)&__metal_dt_gpio_10012000) && (idx == 12))) {
20014786:	fec42703          	lw	a4,-20(s0)
2001478a:	81c18793          	addi	a5,gp,-2020 # 80000acc <__metal_dt_gpio_10012000>
2001478e:	00f71963          	bne	a4,a5,200147a0 <__metal_driver_sifive_gpio0_interrupt_lines+0x15c>
E:\GitHub\HiFive01-RevB\FS_workspace\004_UART_TXRX\bsp\build\debug/./metal/machine.h:507 (discriminator 1)
20014792:	fe842703          	lw	a4,-24(s0)
20014796:	47b1                	li	a5,12
20014798:	00f71463          	bne	a4,a5,200147a0 <__metal_driver_sifive_gpio0_interrupt_lines+0x15c>
E:\GitHub\HiFive01-RevB\FS_workspace\004_UART_TXRX\bsp\build\debug/./metal/machine.h:508
		return 20;
2001479c:	47d1                	li	a5,20
2001479e:	aaf5                	j	2001499a <__metal_driver_sifive_gpio0_interrupt_lines+0x356>
E:\GitHub\HiFive01-RevB\FS_workspace\004_UART_TXRX\bsp\build\debug/./metal/machine.h:510
	else if ((((uintptr_t)gpio == (uintptr_t)&__metal_dt_gpio_10012000) && (idx == 13))) {
200147a0:	fec42703          	lw	a4,-20(s0)
200147a4:	81c18793          	addi	a5,gp,-2020 # 80000acc <__metal_dt_gpio_10012000>
200147a8:	00f71963          	bne	a4,a5,200147ba <__metal_driver_sifive_gpio0_interrupt_lines+0x176>
E:\GitHub\HiFive01-RevB\FS_workspace\004_UART_TXRX\bsp\build\debug/./metal/machine.h:510 (discriminator 1)
200147ac:	fe842703          	lw	a4,-24(s0)
200147b0:	47b5                	li	a5,13
200147b2:	00f71463          	bne	a4,a5,200147ba <__metal_driver_sifive_gpio0_interrupt_lines+0x176>
E:\GitHub\HiFive01-RevB\FS_workspace\004_UART_TXRX\bsp\build\debug/./metal/machine.h:511
		return 21;
200147b6:	47d5                	li	a5,21
200147b8:	a2cd                	j	2001499a <__metal_driver_sifive_gpio0_interrupt_lines+0x356>
E:\GitHub\HiFive01-RevB\FS_workspace\004_UART_TXRX\bsp\build\debug/./metal/machine.h:513
	else if ((((uintptr_t)gpio == (uintptr_t)&__metal_dt_gpio_10012000) && (idx == 14))) {
200147ba:	fec42703          	lw	a4,-20(s0)
200147be:	81c18793          	addi	a5,gp,-2020 # 80000acc <__metal_dt_gpio_10012000>
200147c2:	00f71963          	bne	a4,a5,200147d4 <__metal_driver_sifive_gpio0_interrupt_lines+0x190>
E:\GitHub\HiFive01-RevB\FS_workspace\004_UART_TXRX\bsp\build\debug/./metal/machine.h:513 (discriminator 1)
200147c6:	fe842703          	lw	a4,-24(s0)
200147ca:	47b9                	li	a5,14
200147cc:	00f71463          	bne	a4,a5,200147d4 <__metal_driver_sifive_gpio0_interrupt_lines+0x190>
E:\GitHub\HiFive01-RevB\FS_workspace\004_UART_TXRX\bsp\build\debug/./metal/machine.h:514
		return 22;
200147d0:	47d9                	li	a5,22
200147d2:	a2e1                	j	2001499a <__metal_driver_sifive_gpio0_interrupt_lines+0x356>
E:\GitHub\HiFive01-RevB\FS_workspace\004_UART_TXRX\bsp\build\debug/./metal/machine.h:516
	else if ((((uintptr_t)gpio == (uintptr_t)&__metal_dt_gpio_10012000) && (idx == 15))) {
200147d4:	fec42703          	lw	a4,-20(s0)
200147d8:	81c18793          	addi	a5,gp,-2020 # 80000acc <__metal_dt_gpio_10012000>
200147dc:	00f71963          	bne	a4,a5,200147ee <__metal_driver_sifive_gpio0_interrupt_lines+0x1aa>
E:\GitHub\HiFive01-RevB\FS_workspace\004_UART_TXRX\bsp\build\debug/./metal/machine.h:516 (discriminator 1)
200147e0:	fe842703          	lw	a4,-24(s0)
200147e4:	47bd                	li	a5,15
200147e6:	00f71463          	bne	a4,a5,200147ee <__metal_driver_sifive_gpio0_interrupt_lines+0x1aa>
E:\GitHub\HiFive01-RevB\FS_workspace\004_UART_TXRX\bsp\build\debug/./metal/machine.h:517
		return 23;
200147ea:	47dd                	li	a5,23
200147ec:	a27d                	j	2001499a <__metal_driver_sifive_gpio0_interrupt_lines+0x356>
E:\GitHub\HiFive01-RevB\FS_workspace\004_UART_TXRX\bsp\build\debug/./metal/machine.h:519
	else if ((((uintptr_t)gpio == (uintptr_t)&__metal_dt_gpio_10012000) && (idx == 16))) {
200147ee:	fec42703          	lw	a4,-20(s0)
200147f2:	81c18793          	addi	a5,gp,-2020 # 80000acc <__metal_dt_gpio_10012000>
200147f6:	00f71963          	bne	a4,a5,20014808 <__metal_driver_sifive_gpio0_interrupt_lines+0x1c4>
E:\GitHub\HiFive01-RevB\FS_workspace\004_UART_TXRX\bsp\build\debug/./metal/machine.h:519 (discriminator 1)
200147fa:	fe842703          	lw	a4,-24(s0)
200147fe:	47c1                	li	a5,16
20014800:	00f71463          	bne	a4,a5,20014808 <__metal_driver_sifive_gpio0_interrupt_lines+0x1c4>
E:\GitHub\HiFive01-RevB\FS_workspace\004_UART_TXRX\bsp\build\debug/./metal/machine.h:520
		return 24;
20014804:	47e1                	li	a5,24
20014806:	aa51                	j	2001499a <__metal_driver_sifive_gpio0_interrupt_lines+0x356>
E:\GitHub\HiFive01-RevB\FS_workspace\004_UART_TXRX\bsp\build\debug/./metal/machine.h:522
	else if ((((uintptr_t)gpio == (uintptr_t)&__metal_dt_gpio_10012000) && (idx == 17))) {
20014808:	fec42703          	lw	a4,-20(s0)
2001480c:	81c18793          	addi	a5,gp,-2020 # 80000acc <__metal_dt_gpio_10012000>
20014810:	00f71963          	bne	a4,a5,20014822 <__metal_driver_sifive_gpio0_interrupt_lines+0x1de>
E:\GitHub\HiFive01-RevB\FS_workspace\004_UART_TXRX\bsp\build\debug/./metal/machine.h:522 (discriminator 1)
20014814:	fe842703          	lw	a4,-24(s0)
20014818:	47c5                	li	a5,17
2001481a:	00f71463          	bne	a4,a5,20014822 <__metal_driver_sifive_gpio0_interrupt_lines+0x1de>
E:\GitHub\HiFive01-RevB\FS_workspace\004_UART_TXRX\bsp\build\debug/./metal/machine.h:523
		return 25;
2001481e:	47e5                	li	a5,25
20014820:	aaad                	j	2001499a <__metal_driver_sifive_gpio0_interrupt_lines+0x356>
E:\GitHub\HiFive01-RevB\FS_workspace\004_UART_TXRX\bsp\build\debug/./metal/machine.h:525
	else if ((((uintptr_t)gpio == (uintptr_t)&__metal_dt_gpio_10012000) && (idx == 18))) {
20014822:	fec42703          	lw	a4,-20(s0)
20014826:	81c18793          	addi	a5,gp,-2020 # 80000acc <__metal_dt_gpio_10012000>
2001482a:	00f71963          	bne	a4,a5,2001483c <__metal_driver_sifive_gpio0_interrupt_lines+0x1f8>
E:\GitHub\HiFive01-RevB\FS_workspace\004_UART_TXRX\bsp\build\debug/./metal/machine.h:525 (discriminator 1)
2001482e:	fe842703          	lw	a4,-24(s0)
20014832:	47c9                	li	a5,18
20014834:	00f71463          	bne	a4,a5,2001483c <__metal_driver_sifive_gpio0_interrupt_lines+0x1f8>
E:\GitHub\HiFive01-RevB\FS_workspace\004_UART_TXRX\bsp\build\debug/./metal/machine.h:526
		return 26;
20014838:	47e9                	li	a5,26
2001483a:	a285                	j	2001499a <__metal_driver_sifive_gpio0_interrupt_lines+0x356>
E:\GitHub\HiFive01-RevB\FS_workspace\004_UART_TXRX\bsp\build\debug/./metal/machine.h:528
	else if ((((uintptr_t)gpio == (uintptr_t)&__metal_dt_gpio_10012000) && (idx == 19))) {
2001483c:	fec42703          	lw	a4,-20(s0)
20014840:	81c18793          	addi	a5,gp,-2020 # 80000acc <__metal_dt_gpio_10012000>
20014844:	00f71963          	bne	a4,a5,20014856 <__metal_driver_sifive_gpio0_interrupt_lines+0x212>
E:\GitHub\HiFive01-RevB\FS_workspace\004_UART_TXRX\bsp\build\debug/./metal/machine.h:528 (discriminator 1)
20014848:	fe842703          	lw	a4,-24(s0)
2001484c:	47cd                	li	a5,19
2001484e:	00f71463          	bne	a4,a5,20014856 <__metal_driver_sifive_gpio0_interrupt_lines+0x212>
E:\GitHub\HiFive01-RevB\FS_workspace\004_UART_TXRX\bsp\build\debug/./metal/machine.h:529
		return 27;
20014852:	47ed                	li	a5,27
20014854:	a299                	j	2001499a <__metal_driver_sifive_gpio0_interrupt_lines+0x356>
E:\GitHub\HiFive01-RevB\FS_workspace\004_UART_TXRX\bsp\build\debug/./metal/machine.h:531
	else if ((((uintptr_t)gpio == (uintptr_t)&__metal_dt_gpio_10012000) && (idx == 20))) {
20014856:	fec42703          	lw	a4,-20(s0)
2001485a:	81c18793          	addi	a5,gp,-2020 # 80000acc <__metal_dt_gpio_10012000>
2001485e:	00f71963          	bne	a4,a5,20014870 <__metal_driver_sifive_gpio0_interrupt_lines+0x22c>
E:\GitHub\HiFive01-RevB\FS_workspace\004_UART_TXRX\bsp\build\debug/./metal/machine.h:531 (discriminator 1)
20014862:	fe842703          	lw	a4,-24(s0)
20014866:	47d1                	li	a5,20
20014868:	00f71463          	bne	a4,a5,20014870 <__metal_driver_sifive_gpio0_interrupt_lines+0x22c>
E:\GitHub\HiFive01-RevB\FS_workspace\004_UART_TXRX\bsp\build\debug/./metal/machine.h:532
		return 28;
2001486c:	47f1                	li	a5,28
2001486e:	a235                	j	2001499a <__metal_driver_sifive_gpio0_interrupt_lines+0x356>
E:\GitHub\HiFive01-RevB\FS_workspace\004_UART_TXRX\bsp\build\debug/./metal/machine.h:534
	else if ((((uintptr_t)gpio == (uintptr_t)&__metal_dt_gpio_10012000) && (idx == 21))) {
20014870:	fec42703          	lw	a4,-20(s0)
20014874:	81c18793          	addi	a5,gp,-2020 # 80000acc <__metal_dt_gpio_10012000>
20014878:	00f71963          	bne	a4,a5,2001488a <__metal_driver_sifive_gpio0_interrupt_lines+0x246>
E:\GitHub\HiFive01-RevB\FS_workspace\004_UART_TXRX\bsp\build\debug/./metal/machine.h:534 (discriminator 1)
2001487c:	fe842703          	lw	a4,-24(s0)
20014880:	47d5                	li	a5,21
20014882:	00f71463          	bne	a4,a5,2001488a <__metal_driver_sifive_gpio0_interrupt_lines+0x246>
E:\GitHub\HiFive01-RevB\FS_workspace\004_UART_TXRX\bsp\build\debug/./metal/machine.h:535
		return 29;
20014886:	47f5                	li	a5,29
20014888:	aa09                	j	2001499a <__metal_driver_sifive_gpio0_interrupt_lines+0x356>
E:\GitHub\HiFive01-RevB\FS_workspace\004_UART_TXRX\bsp\build\debug/./metal/machine.h:537
	else if ((((uintptr_t)gpio == (uintptr_t)&__metal_dt_gpio_10012000) && (idx == 22))) {
2001488a:	fec42703          	lw	a4,-20(s0)
2001488e:	81c18793          	addi	a5,gp,-2020 # 80000acc <__metal_dt_gpio_10012000>
20014892:	00f71963          	bne	a4,a5,200148a4 <__metal_driver_sifive_gpio0_interrupt_lines+0x260>
E:\GitHub\HiFive01-RevB\FS_workspace\004_UART_TXRX\bsp\build\debug/./metal/machine.h:537 (discriminator 1)
20014896:	fe842703          	lw	a4,-24(s0)
2001489a:	47d9                	li	a5,22
2001489c:	00f71463          	bne	a4,a5,200148a4 <__metal_driver_sifive_gpio0_interrupt_lines+0x260>
E:\GitHub\HiFive01-RevB\FS_workspace\004_UART_TXRX\bsp\build\debug/./metal/machine.h:538
		return 30;
200148a0:	47f9                	li	a5,30
200148a2:	a8e5                	j	2001499a <__metal_driver_sifive_gpio0_interrupt_lines+0x356>
E:\GitHub\HiFive01-RevB\FS_workspace\004_UART_TXRX\bsp\build\debug/./metal/machine.h:540
	else if ((((uintptr_t)gpio == (uintptr_t)&__metal_dt_gpio_10012000) && (idx == 23))) {
200148a4:	fec42703          	lw	a4,-20(s0)
200148a8:	81c18793          	addi	a5,gp,-2020 # 80000acc <__metal_dt_gpio_10012000>
200148ac:	00f71963          	bne	a4,a5,200148be <__metal_driver_sifive_gpio0_interrupt_lines+0x27a>
E:\GitHub\HiFive01-RevB\FS_workspace\004_UART_TXRX\bsp\build\debug/./metal/machine.h:540 (discriminator 1)
200148b0:	fe842703          	lw	a4,-24(s0)
200148b4:	47dd                	li	a5,23
200148b6:	00f71463          	bne	a4,a5,200148be <__metal_driver_sifive_gpio0_interrupt_lines+0x27a>
E:\GitHub\HiFive01-RevB\FS_workspace\004_UART_TXRX\bsp\build\debug/./metal/machine.h:541
		return 31;
200148ba:	47fd                	li	a5,31
200148bc:	a8f9                	j	2001499a <__metal_driver_sifive_gpio0_interrupt_lines+0x356>
E:\GitHub\HiFive01-RevB\FS_workspace\004_UART_TXRX\bsp\build\debug/./metal/machine.h:543
	else if ((((uintptr_t)gpio == (uintptr_t)&__metal_dt_gpio_10012000) && (idx == 24))) {
200148be:	fec42703          	lw	a4,-20(s0)
200148c2:	81c18793          	addi	a5,gp,-2020 # 80000acc <__metal_dt_gpio_10012000>
200148c6:	00f71a63          	bne	a4,a5,200148da <__metal_driver_sifive_gpio0_interrupt_lines+0x296>
E:\GitHub\HiFive01-RevB\FS_workspace\004_UART_TXRX\bsp\build\debug/./metal/machine.h:543 (discriminator 1)
200148ca:	fe842703          	lw	a4,-24(s0)
200148ce:	47e1                	li	a5,24
200148d0:	00f71563          	bne	a4,a5,200148da <__metal_driver_sifive_gpio0_interrupt_lines+0x296>
E:\GitHub\HiFive01-RevB\FS_workspace\004_UART_TXRX\bsp\build\debug/./metal/machine.h:544
		return 32;
200148d4:	02000793          	li	a5,32
200148d8:	a0c9                	j	2001499a <__metal_driver_sifive_gpio0_interrupt_lines+0x356>
E:\GitHub\HiFive01-RevB\FS_workspace\004_UART_TXRX\bsp\build\debug/./metal/machine.h:546
	else if ((((uintptr_t)gpio == (uintptr_t)&__metal_dt_gpio_10012000) && (idx == 25))) {
200148da:	fec42703          	lw	a4,-20(s0)
200148de:	81c18793          	addi	a5,gp,-2020 # 80000acc <__metal_dt_gpio_10012000>
200148e2:	00f71a63          	bne	a4,a5,200148f6 <__metal_driver_sifive_gpio0_interrupt_lines+0x2b2>
E:\GitHub\HiFive01-RevB\FS_workspace\004_UART_TXRX\bsp\build\debug/./metal/machine.h:546 (discriminator 1)
200148e6:	fe842703          	lw	a4,-24(s0)
200148ea:	47e5                	li	a5,25
200148ec:	00f71563          	bne	a4,a5,200148f6 <__metal_driver_sifive_gpio0_interrupt_lines+0x2b2>
E:\GitHub\HiFive01-RevB\FS_workspace\004_UART_TXRX\bsp\build\debug/./metal/machine.h:547
		return 33;
200148f0:	02100793          	li	a5,33
200148f4:	a05d                	j	2001499a <__metal_driver_sifive_gpio0_interrupt_lines+0x356>
E:\GitHub\HiFive01-RevB\FS_workspace\004_UART_TXRX\bsp\build\debug/./metal/machine.h:549
	else if ((((uintptr_t)gpio == (uintptr_t)&__metal_dt_gpio_10012000) && (idx == 26))) {
200148f6:	fec42703          	lw	a4,-20(s0)
200148fa:	81c18793          	addi	a5,gp,-2020 # 80000acc <__metal_dt_gpio_10012000>
200148fe:	00f71a63          	bne	a4,a5,20014912 <__metal_driver_sifive_gpio0_interrupt_lines+0x2ce>
E:\GitHub\HiFive01-RevB\FS_workspace\004_UART_TXRX\bsp\build\debug/./metal/machine.h:549 (discriminator 1)
20014902:	fe842703          	lw	a4,-24(s0)
20014906:	47e9                	li	a5,26
20014908:	00f71563          	bne	a4,a5,20014912 <__metal_driver_sifive_gpio0_interrupt_lines+0x2ce>
E:\GitHub\HiFive01-RevB\FS_workspace\004_UART_TXRX\bsp\build\debug/./metal/machine.h:550
		return 34;
2001490c:	02200793          	li	a5,34
20014910:	a069                	j	2001499a <__metal_driver_sifive_gpio0_interrupt_lines+0x356>
E:\GitHub\HiFive01-RevB\FS_workspace\004_UART_TXRX\bsp\build\debug/./metal/machine.h:552
	else if ((((uintptr_t)gpio == (uintptr_t)&__metal_dt_gpio_10012000) && (idx == 27))) {
20014912:	fec42703          	lw	a4,-20(s0)
20014916:	81c18793          	addi	a5,gp,-2020 # 80000acc <__metal_dt_gpio_10012000>
2001491a:	00f71a63          	bne	a4,a5,2001492e <__metal_driver_sifive_gpio0_interrupt_lines+0x2ea>
E:\GitHub\HiFive01-RevB\FS_workspace\004_UART_TXRX\bsp\build\debug/./metal/machine.h:552 (discriminator 1)
2001491e:	fe842703          	lw	a4,-24(s0)
20014922:	47ed                	li	a5,27
20014924:	00f71563          	bne	a4,a5,2001492e <__metal_driver_sifive_gpio0_interrupt_lines+0x2ea>
E:\GitHub\HiFive01-RevB\FS_workspace\004_UART_TXRX\bsp\build\debug/./metal/machine.h:553
		return 35;
20014928:	02300793          	li	a5,35
2001492c:	a0bd                	j	2001499a <__metal_driver_sifive_gpio0_interrupt_lines+0x356>
E:\GitHub\HiFive01-RevB\FS_workspace\004_UART_TXRX\bsp\build\debug/./metal/machine.h:555
	else if ((((uintptr_t)gpio == (uintptr_t)&__metal_dt_gpio_10012000) && (idx == 28))) {
2001492e:	fec42703          	lw	a4,-20(s0)
20014932:	81c18793          	addi	a5,gp,-2020 # 80000acc <__metal_dt_gpio_10012000>
20014936:	00f71a63          	bne	a4,a5,2001494a <__metal_driver_sifive_gpio0_interrupt_lines+0x306>
E:\GitHub\HiFive01-RevB\FS_workspace\004_UART_TXRX\bsp\build\debug/./metal/machine.h:555 (discriminator 1)
2001493a:	fe842703          	lw	a4,-24(s0)
2001493e:	47f1                	li	a5,28
20014940:	00f71563          	bne	a4,a5,2001494a <__metal_driver_sifive_gpio0_interrupt_lines+0x306>
E:\GitHub\HiFive01-RevB\FS_workspace\004_UART_TXRX\bsp\build\debug/./metal/machine.h:556
		return 36;
20014944:	02400793          	li	a5,36
20014948:	a889                	j	2001499a <__metal_driver_sifive_gpio0_interrupt_lines+0x356>
E:\GitHub\HiFive01-RevB\FS_workspace\004_UART_TXRX\bsp\build\debug/./metal/machine.h:558
	else if ((((uintptr_t)gpio == (uintptr_t)&__metal_dt_gpio_10012000) && (idx == 29))) {
2001494a:	fec42703          	lw	a4,-20(s0)
2001494e:	81c18793          	addi	a5,gp,-2020 # 80000acc <__metal_dt_gpio_10012000>
20014952:	00f71963          	bne	a4,a5,20014964 <__metal_driver_sifive_gpio0_interrupt_lines+0x320>
E:\GitHub\HiFive01-RevB\FS_workspace\004_UART_TXRX\bsp\build\debug/./metal/machine.h:558 (discriminator 1)
20014956:	fe842703          	lw	a4,-24(s0)
2001495a:	47f5                	li	a5,29
2001495c:	00f71463          	bne	a4,a5,20014964 <__metal_driver_sifive_gpio0_interrupt_lines+0x320>
E:\GitHub\HiFive01-RevB\FS_workspace\004_UART_TXRX\bsp\build\debug/./metal/machine.h:559
		return 27;
20014960:	47ed                	li	a5,27
20014962:	a825                	j	2001499a <__metal_driver_sifive_gpio0_interrupt_lines+0x356>
E:\GitHub\HiFive01-RevB\FS_workspace\004_UART_TXRX\bsp\build\debug/./metal/machine.h:561
	else if ((((uintptr_t)gpio == (uintptr_t)&__metal_dt_gpio_10012000) && (idx == 30))) {
20014964:	fec42703          	lw	a4,-20(s0)
20014968:	81c18793          	addi	a5,gp,-2020 # 80000acc <__metal_dt_gpio_10012000>
2001496c:	00f71963          	bne	a4,a5,2001497e <__metal_driver_sifive_gpio0_interrupt_lines+0x33a>
E:\GitHub\HiFive01-RevB\FS_workspace\004_UART_TXRX\bsp\build\debug/./metal/machine.h:561 (discriminator 1)
20014970:	fe842703          	lw	a4,-24(s0)
20014974:	47f9                	li	a5,30
20014976:	00f71463          	bne	a4,a5,2001497e <__metal_driver_sifive_gpio0_interrupt_lines+0x33a>
E:\GitHub\HiFive01-RevB\FS_workspace\004_UART_TXRX\bsp\build\debug/./metal/machine.h:562
		return 28;
2001497a:	47f1                	li	a5,28
2001497c:	a839                	j	2001499a <__metal_driver_sifive_gpio0_interrupt_lines+0x356>
E:\GitHub\HiFive01-RevB\FS_workspace\004_UART_TXRX\bsp\build\debug/./metal/machine.h:564
	else if ((((uintptr_t)gpio == (uintptr_t)&__metal_dt_gpio_10012000) && (idx == 31))) {
2001497e:	fec42703          	lw	a4,-20(s0)
20014982:	81c18793          	addi	a5,gp,-2020 # 80000acc <__metal_dt_gpio_10012000>
20014986:	00f71963          	bne	a4,a5,20014998 <__metal_driver_sifive_gpio0_interrupt_lines+0x354>
E:\GitHub\HiFive01-RevB\FS_workspace\004_UART_TXRX\bsp\build\debug/./metal/machine.h:564 (discriminator 1)
2001498a:	fe842703          	lw	a4,-24(s0)
2001498e:	47fd                	li	a5,31
20014990:	00f71463          	bne	a4,a5,20014998 <__metal_driver_sifive_gpio0_interrupt_lines+0x354>
E:\GitHub\HiFive01-RevB\FS_workspace\004_UART_TXRX\bsp\build\debug/./metal/machine.h:565
		return 29;
20014994:	47f5                	li	a5,29
20014996:	a011                	j	2001499a <__metal_driver_sifive_gpio0_interrupt_lines+0x356>
E:\GitHub\HiFive01-RevB\FS_workspace\004_UART_TXRX\bsp\build\debug/./metal/machine.h:568
		return 0;
20014998:	4781                	li	a5,0
E:\GitHub\HiFive01-RevB\FS_workspace\004_UART_TXRX\bsp\build\debug/./metal/machine.h:570
}
2001499a:	853e                	mv	a0,a5
2001499c:	4472                	lw	s0,28(sp)
2001499e:	6105                	addi	sp,sp,32
200149a0:	8082                	ret

200149a2 <__metal_driver_sifive_gpio0_enable_input>:
__metal_driver_sifive_gpio0_enable_input():
E:/GitHub/HiFive01-RevB/FS_workspace/004_UART_TXRX/freedom-metal/src/drivers/sifive_gpio0.c:13
#include <metal/drivers/sifive_gpio0.h>
#include <metal/io.h>
#include <metal/machine.h>

int __metal_driver_sifive_gpio0_enable_input(struct metal_gpio *ggpio,
                                             long source) {
200149a2:	7179                	addi	sp,sp,-48
200149a4:	d606                	sw	ra,44(sp)
200149a6:	d422                	sw	s0,40(sp)
200149a8:	1800                	addi	s0,sp,48
200149aa:	fca42e23          	sw	a0,-36(s0)
200149ae:	fcb42c23          	sw	a1,-40(s0)
E:/GitHub/HiFive01-RevB/FS_workspace/004_UART_TXRX/freedom-metal/src/drivers/sifive_gpio0.c:14
    long base = __metal_driver_sifive_gpio0_base(ggpio);
200149b2:	fdc42503          	lw	a0,-36(s0)
200149b6:	c3fff0ef          	jal	ra,200145f4 <__metal_driver_sifive_gpio0_base>
200149ba:	87aa                	mv	a5,a0
200149bc:	fef42623          	sw	a5,-20(s0)
E:/GitHub/HiFive01-RevB/FS_workspace/004_UART_TXRX/freedom-metal/src/drivers/sifive_gpio0.c:17

    __METAL_ACCESS_ONCE(
        (__metal_io_u32 *)(base + METAL_SIFIVE_GPIO0_INPUT_EN)) |= source;
200149c0:	fec42783          	lw	a5,-20(s0)
200149c4:	0791                	addi	a5,a5,4
200149c6:	4398                	lw	a4,0(a5)
200149c8:	fd842783          	lw	a5,-40(s0)
200149cc:	fec42683          	lw	a3,-20(s0)
200149d0:	0691                	addi	a3,a3,4
200149d2:	8fd9                	or	a5,a5,a4
200149d4:	c29c                	sw	a5,0(a3)
E:/GitHub/HiFive01-RevB/FS_workspace/004_UART_TXRX/freedom-metal/src/drivers/sifive_gpio0.c:19

    return 0;
200149d6:	4781                	li	a5,0
E:/GitHub/HiFive01-RevB/FS_workspace/004_UART_TXRX/freedom-metal/src/drivers/sifive_gpio0.c:20
}
200149d8:	853e                	mv	a0,a5
200149da:	50b2                	lw	ra,44(sp)
200149dc:	5422                	lw	s0,40(sp)
200149de:	6145                	addi	sp,sp,48
200149e0:	8082                	ret

200149e2 <__metal_driver_sifive_gpio0_disable_input>:
__metal_driver_sifive_gpio0_disable_input():
E:/GitHub/HiFive01-RevB/FS_workspace/004_UART_TXRX/freedom-metal/src/drivers/sifive_gpio0.c:23

int __metal_driver_sifive_gpio0_disable_input(struct metal_gpio *ggpio,
                                              long source) {
200149e2:	7179                	addi	sp,sp,-48
200149e4:	d606                	sw	ra,44(sp)
200149e6:	d422                	sw	s0,40(sp)
200149e8:	1800                	addi	s0,sp,48
200149ea:	fca42e23          	sw	a0,-36(s0)
200149ee:	fcb42c23          	sw	a1,-40(s0)
E:/GitHub/HiFive01-RevB/FS_workspace/004_UART_TXRX/freedom-metal/src/drivers/sifive_gpio0.c:24
    long base = __metal_driver_sifive_gpio0_base(ggpio);
200149f2:	fdc42503          	lw	a0,-36(s0)
200149f6:	bffff0ef          	jal	ra,200145f4 <__metal_driver_sifive_gpio0_base>
200149fa:	87aa                	mv	a5,a0
200149fc:	fef42623          	sw	a5,-20(s0)
E:/GitHub/HiFive01-RevB/FS_workspace/004_UART_TXRX/freedom-metal/src/drivers/sifive_gpio0.c:27

    __METAL_ACCESS_ONCE(
        (__metal_io_u32 *)(base + METAL_SIFIVE_GPIO0_INPUT_EN)) &= ~source;
20014a00:	fec42783          	lw	a5,-20(s0)
20014a04:	0791                	addi	a5,a5,4
20014a06:	439c                	lw	a5,0(a5)
20014a08:	fd842703          	lw	a4,-40(s0)
20014a0c:	fff74713          	not	a4,a4
20014a10:	86ba                	mv	a3,a4
20014a12:	fec42703          	lw	a4,-20(s0)
20014a16:	0711                	addi	a4,a4,4
20014a18:	8ff5                	and	a5,a5,a3
20014a1a:	c31c                	sw	a5,0(a4)
E:/GitHub/HiFive01-RevB/FS_workspace/004_UART_TXRX/freedom-metal/src/drivers/sifive_gpio0.c:29

    return 0;
20014a1c:	4781                	li	a5,0
E:/GitHub/HiFive01-RevB/FS_workspace/004_UART_TXRX/freedom-metal/src/drivers/sifive_gpio0.c:30
}
20014a1e:	853e                	mv	a0,a5
20014a20:	50b2                	lw	ra,44(sp)
20014a22:	5422                	lw	s0,40(sp)
20014a24:	6145                	addi	sp,sp,48
20014a26:	8082                	ret

20014a28 <__metal_driver_sifive_gpio0_input>:
__metal_driver_sifive_gpio0_input():
E:/GitHub/HiFive01-RevB/FS_workspace/004_UART_TXRX/freedom-metal/src/drivers/sifive_gpio0.c:32

long __metal_driver_sifive_gpio0_input(struct metal_gpio *ggpio) {
20014a28:	7179                	addi	sp,sp,-48
20014a2a:	d606                	sw	ra,44(sp)
20014a2c:	d422                	sw	s0,40(sp)
20014a2e:	1800                	addi	s0,sp,48
20014a30:	fca42e23          	sw	a0,-36(s0)
E:/GitHub/HiFive01-RevB/FS_workspace/004_UART_TXRX/freedom-metal/src/drivers/sifive_gpio0.c:33
    long base = __metal_driver_sifive_gpio0_base(ggpio);
20014a34:	fdc42503          	lw	a0,-36(s0)
20014a38:	bbdff0ef          	jal	ra,200145f4 <__metal_driver_sifive_gpio0_base>
20014a3c:	87aa                	mv	a5,a0
20014a3e:	fef42623          	sw	a5,-20(s0)
E:/GitHub/HiFive01-RevB/FS_workspace/004_UART_TXRX/freedom-metal/src/drivers/sifive_gpio0.c:35

    return __METAL_ACCESS_ONCE(
20014a42:	fec42783          	lw	a5,-20(s0)
20014a46:	439c                	lw	a5,0(a5)
E:/GitHub/HiFive01-RevB/FS_workspace/004_UART_TXRX/freedom-metal/src/drivers/sifive_gpio0.c:37
        (__metal_io_u32 *)(base + METAL_SIFIVE_GPIO0_VALUE));
}
20014a48:	853e                	mv	a0,a5
20014a4a:	50b2                	lw	ra,44(sp)
20014a4c:	5422                	lw	s0,40(sp)
20014a4e:	6145                	addi	sp,sp,48
20014a50:	8082                	ret

20014a52 <__metal_driver_sifive_gpio0_output>:
__metal_driver_sifive_gpio0_output():
E:/GitHub/HiFive01-RevB/FS_workspace/004_UART_TXRX/freedom-metal/src/drivers/sifive_gpio0.c:39

long __metal_driver_sifive_gpio0_output(struct metal_gpio *ggpio) {
20014a52:	7179                	addi	sp,sp,-48
20014a54:	d606                	sw	ra,44(sp)
20014a56:	d422                	sw	s0,40(sp)
20014a58:	1800                	addi	s0,sp,48
20014a5a:	fca42e23          	sw	a0,-36(s0)
E:/GitHub/HiFive01-RevB/FS_workspace/004_UART_TXRX/freedom-metal/src/drivers/sifive_gpio0.c:40
    long base = __metal_driver_sifive_gpio0_base(ggpio);
20014a5e:	fdc42503          	lw	a0,-36(s0)
20014a62:	b93ff0ef          	jal	ra,200145f4 <__metal_driver_sifive_gpio0_base>
20014a66:	87aa                	mv	a5,a0
20014a68:	fef42623          	sw	a5,-20(s0)
E:/GitHub/HiFive01-RevB/FS_workspace/004_UART_TXRX/freedom-metal/src/drivers/sifive_gpio0.c:42

    return __METAL_ACCESS_ONCE(
20014a6c:	fec42783          	lw	a5,-20(s0)
20014a70:	07b1                	addi	a5,a5,12
20014a72:	439c                	lw	a5,0(a5)
E:/GitHub/HiFive01-RevB/FS_workspace/004_UART_TXRX/freedom-metal/src/drivers/sifive_gpio0.c:44
        (__metal_io_u32 *)(base + METAL_SIFIVE_GPIO0_PORT));
}
20014a74:	853e                	mv	a0,a5
20014a76:	50b2                	lw	ra,44(sp)
20014a78:	5422                	lw	s0,40(sp)
20014a7a:	6145                	addi	sp,sp,48
20014a7c:	8082                	ret

20014a7e <__metal_driver_sifive_gpio0_disable_output>:
__metal_driver_sifive_gpio0_disable_output():
E:/GitHub/HiFive01-RevB/FS_workspace/004_UART_TXRX/freedom-metal/src/drivers/sifive_gpio0.c:47

int __metal_driver_sifive_gpio0_disable_output(struct metal_gpio *ggpio,
                                               long source) {
20014a7e:	7179                	addi	sp,sp,-48
20014a80:	d606                	sw	ra,44(sp)
20014a82:	d422                	sw	s0,40(sp)
20014a84:	1800                	addi	s0,sp,48
20014a86:	fca42e23          	sw	a0,-36(s0)
20014a8a:	fcb42c23          	sw	a1,-40(s0)
E:/GitHub/HiFive01-RevB/FS_workspace/004_UART_TXRX/freedom-metal/src/drivers/sifive_gpio0.c:48
    long base = __metal_driver_sifive_gpio0_base(ggpio);
20014a8e:	fdc42503          	lw	a0,-36(s0)
20014a92:	b63ff0ef          	jal	ra,200145f4 <__metal_driver_sifive_gpio0_base>
20014a96:	87aa                	mv	a5,a0
20014a98:	fef42623          	sw	a5,-20(s0)
E:/GitHub/HiFive01-RevB/FS_workspace/004_UART_TXRX/freedom-metal/src/drivers/sifive_gpio0.c:51

    __METAL_ACCESS_ONCE(
        (__metal_io_u32 *)(base + METAL_SIFIVE_GPIO0_OUTPUT_EN)) &= ~source;
20014a9c:	fec42783          	lw	a5,-20(s0)
20014aa0:	07a1                	addi	a5,a5,8
20014aa2:	439c                	lw	a5,0(a5)
20014aa4:	fd842703          	lw	a4,-40(s0)
20014aa8:	fff74713          	not	a4,a4
20014aac:	86ba                	mv	a3,a4
20014aae:	fec42703          	lw	a4,-20(s0)
20014ab2:	0721                	addi	a4,a4,8
20014ab4:	8ff5                	and	a5,a5,a3
20014ab6:	c31c                	sw	a5,0(a4)
E:/GitHub/HiFive01-RevB/FS_workspace/004_UART_TXRX/freedom-metal/src/drivers/sifive_gpio0.c:53

    return 0;
20014ab8:	4781                	li	a5,0
E:/GitHub/HiFive01-RevB/FS_workspace/004_UART_TXRX/freedom-metal/src/drivers/sifive_gpio0.c:54
}
20014aba:	853e                	mv	a0,a5
20014abc:	50b2                	lw	ra,44(sp)
20014abe:	5422                	lw	s0,40(sp)
20014ac0:	6145                	addi	sp,sp,48
20014ac2:	8082                	ret

20014ac4 <__metal_driver_sifive_gpio0_enable_output>:
__metal_driver_sifive_gpio0_enable_output():
E:/GitHub/HiFive01-RevB/FS_workspace/004_UART_TXRX/freedom-metal/src/drivers/sifive_gpio0.c:57

int __metal_driver_sifive_gpio0_enable_output(struct metal_gpio *ggpio,
                                              long source) {
20014ac4:	7179                	addi	sp,sp,-48
20014ac6:	d606                	sw	ra,44(sp)
20014ac8:	d422                	sw	s0,40(sp)
20014aca:	1800                	addi	s0,sp,48
20014acc:	fca42e23          	sw	a0,-36(s0)
20014ad0:	fcb42c23          	sw	a1,-40(s0)
E:/GitHub/HiFive01-RevB/FS_workspace/004_UART_TXRX/freedom-metal/src/drivers/sifive_gpio0.c:58
    long base = __metal_driver_sifive_gpio0_base(ggpio);
20014ad4:	fdc42503          	lw	a0,-36(s0)
20014ad8:	b1dff0ef          	jal	ra,200145f4 <__metal_driver_sifive_gpio0_base>
20014adc:	87aa                	mv	a5,a0
20014ade:	fef42623          	sw	a5,-20(s0)
E:/GitHub/HiFive01-RevB/FS_workspace/004_UART_TXRX/freedom-metal/src/drivers/sifive_gpio0.c:61

    __METAL_ACCESS_ONCE(
        (__metal_io_u32 *)(base + METAL_SIFIVE_GPIO0_OUTPUT_EN)) |= source;
20014ae2:	fec42783          	lw	a5,-20(s0)
20014ae6:	07a1                	addi	a5,a5,8
20014ae8:	4398                	lw	a4,0(a5)
20014aea:	fd842783          	lw	a5,-40(s0)
20014aee:	fec42683          	lw	a3,-20(s0)
20014af2:	06a1                	addi	a3,a3,8
20014af4:	8fd9                	or	a5,a5,a4
20014af6:	c29c                	sw	a5,0(a3)
E:/GitHub/HiFive01-RevB/FS_workspace/004_UART_TXRX/freedom-metal/src/drivers/sifive_gpio0.c:63

    return 0;
20014af8:	4781                	li	a5,0
E:/GitHub/HiFive01-RevB/FS_workspace/004_UART_TXRX/freedom-metal/src/drivers/sifive_gpio0.c:64
}
20014afa:	853e                	mv	a0,a5
20014afc:	50b2                	lw	ra,44(sp)
20014afe:	5422                	lw	s0,40(sp)
20014b00:	6145                	addi	sp,sp,48
20014b02:	8082                	ret

20014b04 <__metal_driver_sifive_gpio0_output_set>:
__metal_driver_sifive_gpio0_output_set():
E:/GitHub/HiFive01-RevB/FS_workspace/004_UART_TXRX/freedom-metal/src/drivers/sifive_gpio0.c:67

int __metal_driver_sifive_gpio0_output_set(struct metal_gpio *ggpio,
                                           long value) {
20014b04:	7179                	addi	sp,sp,-48
20014b06:	d606                	sw	ra,44(sp)
20014b08:	d422                	sw	s0,40(sp)
20014b0a:	1800                	addi	s0,sp,48
20014b0c:	fca42e23          	sw	a0,-36(s0)
20014b10:	fcb42c23          	sw	a1,-40(s0)
E:/GitHub/HiFive01-RevB/FS_workspace/004_UART_TXRX/freedom-metal/src/drivers/sifive_gpio0.c:68
    long base = __metal_driver_sifive_gpio0_base(ggpio);
20014b14:	fdc42503          	lw	a0,-36(s0)
20014b18:	addff0ef          	jal	ra,200145f4 <__metal_driver_sifive_gpio0_base>
20014b1c:	87aa                	mv	a5,a0
20014b1e:	fef42623          	sw	a5,-20(s0)
E:/GitHub/HiFive01-RevB/FS_workspace/004_UART_TXRX/freedom-metal/src/drivers/sifive_gpio0.c:70

    __METAL_ACCESS_ONCE((__metal_io_u32 *)(base + METAL_SIFIVE_GPIO0_PORT)) |=
20014b22:	fec42783          	lw	a5,-20(s0)
20014b26:	07b1                	addi	a5,a5,12
20014b28:	4398                	lw	a4,0(a5)
20014b2a:	fd842783          	lw	a5,-40(s0)
20014b2e:	fec42683          	lw	a3,-20(s0)
20014b32:	06b1                	addi	a3,a3,12
20014b34:	8fd9                	or	a5,a5,a4
20014b36:	c29c                	sw	a5,0(a3)
E:/GitHub/HiFive01-RevB/FS_workspace/004_UART_TXRX/freedom-metal/src/drivers/sifive_gpio0.c:73
        value;

    return 0;
20014b38:	4781                	li	a5,0
E:/GitHub/HiFive01-RevB/FS_workspace/004_UART_TXRX/freedom-metal/src/drivers/sifive_gpio0.c:74
}
20014b3a:	853e                	mv	a0,a5
20014b3c:	50b2                	lw	ra,44(sp)
20014b3e:	5422                	lw	s0,40(sp)
20014b40:	6145                	addi	sp,sp,48
20014b42:	8082                	ret

20014b44 <__metal_driver_sifive_gpio0_output_clear>:
__metal_driver_sifive_gpio0_output_clear():
E:/GitHub/HiFive01-RevB/FS_workspace/004_UART_TXRX/freedom-metal/src/drivers/sifive_gpio0.c:77

int __metal_driver_sifive_gpio0_output_clear(struct metal_gpio *ggpio,
                                             long value) {
20014b44:	7179                	addi	sp,sp,-48
20014b46:	d606                	sw	ra,44(sp)
20014b48:	d422                	sw	s0,40(sp)
20014b4a:	1800                	addi	s0,sp,48
20014b4c:	fca42e23          	sw	a0,-36(s0)
20014b50:	fcb42c23          	sw	a1,-40(s0)
E:/GitHub/HiFive01-RevB/FS_workspace/004_UART_TXRX/freedom-metal/src/drivers/sifive_gpio0.c:78
    long base = __metal_driver_sifive_gpio0_base(ggpio);
20014b54:	fdc42503          	lw	a0,-36(s0)
20014b58:	a9dff0ef          	jal	ra,200145f4 <__metal_driver_sifive_gpio0_base>
20014b5c:	87aa                	mv	a5,a0
20014b5e:	fef42623          	sw	a5,-20(s0)
E:/GitHub/HiFive01-RevB/FS_workspace/004_UART_TXRX/freedom-metal/src/drivers/sifive_gpio0.c:80

    __METAL_ACCESS_ONCE((__metal_io_u32 *)(base + METAL_SIFIVE_GPIO0_PORT)) &=
20014b62:	fec42783          	lw	a5,-20(s0)
20014b66:	07b1                	addi	a5,a5,12
20014b68:	439c                	lw	a5,0(a5)
E:/GitHub/HiFive01-RevB/FS_workspace/004_UART_TXRX/freedom-metal/src/drivers/sifive_gpio0.c:81
        ~value;
20014b6a:	fd842703          	lw	a4,-40(s0)
20014b6e:	fff74713          	not	a4,a4
20014b72:	86ba                	mv	a3,a4
E:/GitHub/HiFive01-RevB/FS_workspace/004_UART_TXRX/freedom-metal/src/drivers/sifive_gpio0.c:80
    __METAL_ACCESS_ONCE((__metal_io_u32 *)(base + METAL_SIFIVE_GPIO0_PORT)) &=
20014b74:	fec42703          	lw	a4,-20(s0)
20014b78:	0731                	addi	a4,a4,12
20014b7a:	8ff5                	and	a5,a5,a3
20014b7c:	c31c                	sw	a5,0(a4)
E:/GitHub/HiFive01-RevB/FS_workspace/004_UART_TXRX/freedom-metal/src/drivers/sifive_gpio0.c:83

    return 0;
20014b7e:	4781                	li	a5,0
E:/GitHub/HiFive01-RevB/FS_workspace/004_UART_TXRX/freedom-metal/src/drivers/sifive_gpio0.c:84
}
20014b80:	853e                	mv	a0,a5
20014b82:	50b2                	lw	ra,44(sp)
20014b84:	5422                	lw	s0,40(sp)
20014b86:	6145                	addi	sp,sp,48
20014b88:	8082                	ret

20014b8a <__metal_driver_sifive_gpio0_output_toggle>:
__metal_driver_sifive_gpio0_output_toggle():
E:/GitHub/HiFive01-RevB/FS_workspace/004_UART_TXRX/freedom-metal/src/drivers/sifive_gpio0.c:87

int __metal_driver_sifive_gpio0_output_toggle(struct metal_gpio *ggpio,
                                              long value) {
20014b8a:	7179                	addi	sp,sp,-48
20014b8c:	d606                	sw	ra,44(sp)
20014b8e:	d422                	sw	s0,40(sp)
20014b90:	1800                	addi	s0,sp,48
20014b92:	fca42e23          	sw	a0,-36(s0)
20014b96:	fcb42c23          	sw	a1,-40(s0)
E:/GitHub/HiFive01-RevB/FS_workspace/004_UART_TXRX/freedom-metal/src/drivers/sifive_gpio0.c:88
    long base = __metal_driver_sifive_gpio0_base(ggpio);
20014b9a:	fdc42503          	lw	a0,-36(s0)
20014b9e:	a57ff0ef          	jal	ra,200145f4 <__metal_driver_sifive_gpio0_base>
20014ba2:	87aa                	mv	a5,a0
20014ba4:	fef42623          	sw	a5,-20(s0)
E:/GitHub/HiFive01-RevB/FS_workspace/004_UART_TXRX/freedom-metal/src/drivers/sifive_gpio0.c:91

    __METAL_ACCESS_ONCE((__metal_io_u32 *)(base + METAL_SIFIVE_GPIO0_PORT)) =
        __METAL_ACCESS_ONCE(
20014ba8:	fec42783          	lw	a5,-20(s0)
20014bac:	07b1                	addi	a5,a5,12
20014bae:	4398                	lw	a4,0(a5)
E:/GitHub/HiFive01-RevB/FS_workspace/004_UART_TXRX/freedom-metal/src/drivers/sifive_gpio0.c:92
            (__metal_io_u32 *)(base + METAL_SIFIVE_GPIO0_PORT)) ^
20014bb0:	fd842783          	lw	a5,-40(s0)
E:/GitHub/HiFive01-RevB/FS_workspace/004_UART_TXRX/freedom-metal/src/drivers/sifive_gpio0.c:90
    __METAL_ACCESS_ONCE((__metal_io_u32 *)(base + METAL_SIFIVE_GPIO0_PORT)) =
20014bb4:	fec42683          	lw	a3,-20(s0)
20014bb8:	06b1                	addi	a3,a3,12
E:/GitHub/HiFive01-RevB/FS_workspace/004_UART_TXRX/freedom-metal/src/drivers/sifive_gpio0.c:92
            (__metal_io_u32 *)(base + METAL_SIFIVE_GPIO0_PORT)) ^
20014bba:	8fb9                	xor	a5,a5,a4
E:/GitHub/HiFive01-RevB/FS_workspace/004_UART_TXRX/freedom-metal/src/drivers/sifive_gpio0.c:90
    __METAL_ACCESS_ONCE((__metal_io_u32 *)(base + METAL_SIFIVE_GPIO0_PORT)) =
20014bbc:	c29c                	sw	a5,0(a3)
E:/GitHub/HiFive01-RevB/FS_workspace/004_UART_TXRX/freedom-metal/src/drivers/sifive_gpio0.c:95
        value;

    return 0;
20014bbe:	4781                	li	a5,0
E:/GitHub/HiFive01-RevB/FS_workspace/004_UART_TXRX/freedom-metal/src/drivers/sifive_gpio0.c:96
}
20014bc0:	853e                	mv	a0,a5
20014bc2:	50b2                	lw	ra,44(sp)
20014bc4:	5422                	lw	s0,40(sp)
20014bc6:	6145                	addi	sp,sp,48
20014bc8:	8082                	ret

20014bca <__metal_driver_sifive_gpio0_enable_io>:
__metal_driver_sifive_gpio0_enable_io():
E:/GitHub/HiFive01-RevB/FS_workspace/004_UART_TXRX/freedom-metal/src/drivers/sifive_gpio0.c:99

int __metal_driver_sifive_gpio0_enable_io(struct metal_gpio *ggpio, long source,
                                          long dest) {
20014bca:	7179                	addi	sp,sp,-48
20014bcc:	d606                	sw	ra,44(sp)
20014bce:	d422                	sw	s0,40(sp)
20014bd0:	1800                	addi	s0,sp,48
20014bd2:	fca42e23          	sw	a0,-36(s0)
20014bd6:	fcb42c23          	sw	a1,-40(s0)
20014bda:	fcc42a23          	sw	a2,-44(s0)
E:/GitHub/HiFive01-RevB/FS_workspace/004_UART_TXRX/freedom-metal/src/drivers/sifive_gpio0.c:100
    long base = __metal_driver_sifive_gpio0_base(ggpio);
20014bde:	fdc42503          	lw	a0,-36(s0)
20014be2:	a13ff0ef          	jal	ra,200145f4 <__metal_driver_sifive_gpio0_base>
20014be6:	87aa                	mv	a5,a0
20014be8:	fef42623          	sw	a5,-20(s0)
E:/GitHub/HiFive01-RevB/FS_workspace/004_UART_TXRX/freedom-metal/src/drivers/sifive_gpio0.c:103

    __METAL_ACCESS_ONCE(
        (__metal_io_u32 *)(base + METAL_SIFIVE_GPIO0_IOF_SEL)) |= source;
20014bec:	fec42783          	lw	a5,-20(s0)
20014bf0:	03c78793          	addi	a5,a5,60
20014bf4:	4398                	lw	a4,0(a5)
20014bf6:	fd842783          	lw	a5,-40(s0)
20014bfa:	fec42683          	lw	a3,-20(s0)
20014bfe:	03c68693          	addi	a3,a3,60
20014c02:	8fd9                	or	a5,a5,a4
20014c04:	c29c                	sw	a5,0(a3)
E:/GitHub/HiFive01-RevB/FS_workspace/004_UART_TXRX/freedom-metal/src/drivers/sifive_gpio0.c:104
    __METAL_ACCESS_ONCE((__metal_io_u32 *)(base + METAL_SIFIVE_GPIO0_IOF_EN)) |=
20014c06:	fec42783          	lw	a5,-20(s0)
20014c0a:	03878793          	addi	a5,a5,56
20014c0e:	4398                	lw	a4,0(a5)
20014c10:	fd442783          	lw	a5,-44(s0)
20014c14:	fec42683          	lw	a3,-20(s0)
20014c18:	03868693          	addi	a3,a3,56
20014c1c:	8fd9                	or	a5,a5,a4
20014c1e:	c29c                	sw	a5,0(a3)
E:/GitHub/HiFive01-RevB/FS_workspace/004_UART_TXRX/freedom-metal/src/drivers/sifive_gpio0.c:107
        dest;

    return 0;
20014c20:	4781                	li	a5,0
E:/GitHub/HiFive01-RevB/FS_workspace/004_UART_TXRX/freedom-metal/src/drivers/sifive_gpio0.c:108
}
20014c22:	853e                	mv	a0,a5
20014c24:	50b2                	lw	ra,44(sp)
20014c26:	5422                	lw	s0,40(sp)
20014c28:	6145                	addi	sp,sp,48
20014c2a:	8082                	ret

20014c2c <__metal_driver_sifive_gpio0_disable_io>:
__metal_driver_sifive_gpio0_disable_io():
E:/GitHub/HiFive01-RevB/FS_workspace/004_UART_TXRX/freedom-metal/src/drivers/sifive_gpio0.c:111

int __metal_driver_sifive_gpio0_disable_io(struct metal_gpio *ggpio,
                                           long source) {
20014c2c:	7179                	addi	sp,sp,-48
20014c2e:	d606                	sw	ra,44(sp)
20014c30:	d422                	sw	s0,40(sp)
20014c32:	1800                	addi	s0,sp,48
20014c34:	fca42e23          	sw	a0,-36(s0)
20014c38:	fcb42c23          	sw	a1,-40(s0)
E:/GitHub/HiFive01-RevB/FS_workspace/004_UART_TXRX/freedom-metal/src/drivers/sifive_gpio0.c:112
    long base = __metal_driver_sifive_gpio0_base(ggpio);
20014c3c:	fdc42503          	lw	a0,-36(s0)
20014c40:	9b5ff0ef          	jal	ra,200145f4 <__metal_driver_sifive_gpio0_base>
20014c44:	87aa                	mv	a5,a0
20014c46:	fef42623          	sw	a5,-20(s0)
E:/GitHub/HiFive01-RevB/FS_workspace/004_UART_TXRX/freedom-metal/src/drivers/sifive_gpio0.c:114

    __METAL_ACCESS_ONCE((__metal_io_u32 *)(base + METAL_SIFIVE_GPIO0_IOF_EN)) &=
20014c4a:	fec42783          	lw	a5,-20(s0)
20014c4e:	03878793          	addi	a5,a5,56
20014c52:	439c                	lw	a5,0(a5)
E:/GitHub/HiFive01-RevB/FS_workspace/004_UART_TXRX/freedom-metal/src/drivers/sifive_gpio0.c:115
        ~source;
20014c54:	fd842703          	lw	a4,-40(s0)
20014c58:	fff74713          	not	a4,a4
20014c5c:	86ba                	mv	a3,a4
E:/GitHub/HiFive01-RevB/FS_workspace/004_UART_TXRX/freedom-metal/src/drivers/sifive_gpio0.c:114
    __METAL_ACCESS_ONCE((__metal_io_u32 *)(base + METAL_SIFIVE_GPIO0_IOF_EN)) &=
20014c5e:	fec42703          	lw	a4,-20(s0)
20014c62:	03870713          	addi	a4,a4,56
20014c66:	8ff5                	and	a5,a5,a3
20014c68:	c31c                	sw	a5,0(a4)
E:/GitHub/HiFive01-RevB/FS_workspace/004_UART_TXRX/freedom-metal/src/drivers/sifive_gpio0.c:117

    return 0;
20014c6a:	4781                	li	a5,0
E:/GitHub/HiFive01-RevB/FS_workspace/004_UART_TXRX/freedom-metal/src/drivers/sifive_gpio0.c:118
}
20014c6c:	853e                	mv	a0,a5
20014c6e:	50b2                	lw	ra,44(sp)
20014c70:	5422                	lw	s0,40(sp)
20014c72:	6145                	addi	sp,sp,48
20014c74:	8082                	ret

20014c76 <__metal_driver_sifive_gpio0_config_int>:
__metal_driver_sifive_gpio0_config_int():
E:/GitHub/HiFive01-RevB/FS_workspace/004_UART_TXRX/freedom-metal/src/drivers/sifive_gpio0.c:121

int __metal_driver_sifive_gpio0_config_int(struct metal_gpio *ggpio,
                                           long source, int intr_type) {
20014c76:	7179                	addi	sp,sp,-48
20014c78:	d606                	sw	ra,44(sp)
20014c7a:	d422                	sw	s0,40(sp)
20014c7c:	1800                	addi	s0,sp,48
20014c7e:	fca42e23          	sw	a0,-36(s0)
20014c82:	fcb42c23          	sw	a1,-40(s0)
20014c86:	fcc42a23          	sw	a2,-44(s0)
E:/GitHub/HiFive01-RevB/FS_workspace/004_UART_TXRX/freedom-metal/src/drivers/sifive_gpio0.c:122
    long base = __metal_driver_sifive_gpio0_base(ggpio);
20014c8a:	fdc42503          	lw	a0,-36(s0)
20014c8e:	967ff0ef          	jal	ra,200145f4 <__metal_driver_sifive_gpio0_base>
20014c92:	87aa                	mv	a5,a0
20014c94:	fef42623          	sw	a5,-20(s0)
20014c98:	fd442703          	lw	a4,-44(s0)
20014c9c:	479d                	li	a5,7
20014c9e:	1ce7e963          	bltu	a5,a4,20014e70 <__metal_driver_sifive_gpio0_config_int+0x1fa>
20014ca2:	fd442783          	lw	a5,-44(s0)
20014ca6:	00279713          	slli	a4,a5,0x2
20014caa:	200117b7          	lui	a5,0x20011
20014cae:	e2478793          	addi	a5,a5,-476 # 20010e24 <__metal_driver_vtable_sifive_led+0x14>
20014cb2:	97ba                	add	a5,a5,a4
20014cb4:	439c                	lw	a5,0(a5)
20014cb6:	8782                	jr	a5
E:/GitHub/HiFive01-RevB/FS_workspace/004_UART_TXRX/freedom-metal/src/drivers/sifive_gpio0.c:127

    switch (intr_type) {
    case METAL_GPIO_INT_DISABLE:
        __METAL_ACCESS_ONCE(
            (__metal_io_u32 *)(base + METAL_SIFIVE_GPIO0_RISE_IE)) &= ~source;
20014cb8:	fec42783          	lw	a5,-20(s0)
20014cbc:	07e1                	addi	a5,a5,24
20014cbe:	439c                	lw	a5,0(a5)
20014cc0:	fd842703          	lw	a4,-40(s0)
20014cc4:	fff74713          	not	a4,a4
20014cc8:	86ba                	mv	a3,a4
20014cca:	fec42703          	lw	a4,-20(s0)
20014cce:	0761                	addi	a4,a4,24
20014cd0:	8ff5                	and	a5,a5,a3
20014cd2:	c31c                	sw	a5,0(a4)
E:/GitHub/HiFive01-RevB/FS_workspace/004_UART_TXRX/freedom-metal/src/drivers/sifive_gpio0.c:129
        __METAL_ACCESS_ONCE(
            (__metal_io_u32 *)(base + METAL_SIFIVE_GPIO0_FALL_IE)) &= ~source;
20014cd4:	fec42783          	lw	a5,-20(s0)
20014cd8:	02078793          	addi	a5,a5,32
20014cdc:	439c                	lw	a5,0(a5)
20014cde:	fd842703          	lw	a4,-40(s0)
20014ce2:	fff74713          	not	a4,a4
20014ce6:	86ba                	mv	a3,a4
20014ce8:	fec42703          	lw	a4,-20(s0)
20014cec:	02070713          	addi	a4,a4,32
20014cf0:	8ff5                	and	a5,a5,a3
20014cf2:	c31c                	sw	a5,0(a4)
E:/GitHub/HiFive01-RevB/FS_workspace/004_UART_TXRX/freedom-metal/src/drivers/sifive_gpio0.c:131
        __METAL_ACCESS_ONCE(
            (__metal_io_u32 *)(base + METAL_SIFIVE_GPIO0_HIGH_IE)) &= ~source;
20014cf4:	fec42783          	lw	a5,-20(s0)
20014cf8:	02878793          	addi	a5,a5,40
20014cfc:	439c                	lw	a5,0(a5)
20014cfe:	fd842703          	lw	a4,-40(s0)
20014d02:	fff74713          	not	a4,a4
20014d06:	86ba                	mv	a3,a4
20014d08:	fec42703          	lw	a4,-20(s0)
20014d0c:	02870713          	addi	a4,a4,40
20014d10:	8ff5                	and	a5,a5,a3
20014d12:	c31c                	sw	a5,0(a4)
E:/GitHub/HiFive01-RevB/FS_workspace/004_UART_TXRX/freedom-metal/src/drivers/sifive_gpio0.c:133
        __METAL_ACCESS_ONCE(
            (__metal_io_u32 *)(base + METAL_SIFIVE_GPIO0_LOW_IE)) &= ~source;
20014d14:	fec42783          	lw	a5,-20(s0)
20014d18:	03078793          	addi	a5,a5,48
20014d1c:	439c                	lw	a5,0(a5)
20014d1e:	fd842703          	lw	a4,-40(s0)
20014d22:	fff74713          	not	a4,a4
20014d26:	86ba                	mv	a3,a4
20014d28:	fec42703          	lw	a4,-20(s0)
20014d2c:	03070713          	addi	a4,a4,48
20014d30:	8ff5                	and	a5,a5,a3
20014d32:	c31c                	sw	a5,0(a4)
E:/GitHub/HiFive01-RevB/FS_workspace/004_UART_TXRX/freedom-metal/src/drivers/sifive_gpio0.c:134
        break;
20014d34:	aa35                	j	20014e70 <__metal_driver_sifive_gpio0_config_int+0x1fa>
E:/GitHub/HiFive01-RevB/FS_workspace/004_UART_TXRX/freedom-metal/src/drivers/sifive_gpio0.c:137
    case METAL_GPIO_INT_RISING:
        __METAL_ACCESS_ONCE(
            (__metal_io_u32 *)(base + METAL_SIFIVE_GPIO0_RISE_IE)) |= source;
20014d36:	fec42783          	lw	a5,-20(s0)
20014d3a:	07e1                	addi	a5,a5,24
20014d3c:	4398                	lw	a4,0(a5)
20014d3e:	fd842783          	lw	a5,-40(s0)
20014d42:	fec42683          	lw	a3,-20(s0)
20014d46:	06e1                	addi	a3,a3,24
20014d48:	8fd9                	or	a5,a5,a4
20014d4a:	c29c                	sw	a5,0(a3)
E:/GitHub/HiFive01-RevB/FS_workspace/004_UART_TXRX/freedom-metal/src/drivers/sifive_gpio0.c:138
        break;
20014d4c:	a215                	j	20014e70 <__metal_driver_sifive_gpio0_config_int+0x1fa>
E:/GitHub/HiFive01-RevB/FS_workspace/004_UART_TXRX/freedom-metal/src/drivers/sifive_gpio0.c:141
    case METAL_GPIO_INT_FALLING:
        __METAL_ACCESS_ONCE(
            (__metal_io_u32 *)(base + METAL_SIFIVE_GPIO0_FALL_IE)) |= source;
20014d4e:	fec42783          	lw	a5,-20(s0)
20014d52:	02078793          	addi	a5,a5,32
20014d56:	4398                	lw	a4,0(a5)
20014d58:	fd842783          	lw	a5,-40(s0)
20014d5c:	fec42683          	lw	a3,-20(s0)
20014d60:	02068693          	addi	a3,a3,32
20014d64:	8fd9                	or	a5,a5,a4
20014d66:	c29c                	sw	a5,0(a3)
E:/GitHub/HiFive01-RevB/FS_workspace/004_UART_TXRX/freedom-metal/src/drivers/sifive_gpio0.c:142
        break;
20014d68:	a221                	j	20014e70 <__metal_driver_sifive_gpio0_config_int+0x1fa>
E:/GitHub/HiFive01-RevB/FS_workspace/004_UART_TXRX/freedom-metal/src/drivers/sifive_gpio0.c:145
    case METAL_GPIO_INT_BOTH_EDGE:
        __METAL_ACCESS_ONCE(
            (__metal_io_u32 *)(base + METAL_SIFIVE_GPIO0_RISE_IE)) |= source;
20014d6a:	fec42783          	lw	a5,-20(s0)
20014d6e:	07e1                	addi	a5,a5,24
20014d70:	4398                	lw	a4,0(a5)
20014d72:	fd842783          	lw	a5,-40(s0)
20014d76:	fec42683          	lw	a3,-20(s0)
20014d7a:	06e1                	addi	a3,a3,24
20014d7c:	8fd9                	or	a5,a5,a4
20014d7e:	c29c                	sw	a5,0(a3)
E:/GitHub/HiFive01-RevB/FS_workspace/004_UART_TXRX/freedom-metal/src/drivers/sifive_gpio0.c:147
        __METAL_ACCESS_ONCE(
            (__metal_io_u32 *)(base + METAL_SIFIVE_GPIO0_FALL_IE)) |= source;
20014d80:	fec42783          	lw	a5,-20(s0)
20014d84:	02078793          	addi	a5,a5,32
20014d88:	4398                	lw	a4,0(a5)
20014d8a:	fd842783          	lw	a5,-40(s0)
20014d8e:	fec42683          	lw	a3,-20(s0)
20014d92:	02068693          	addi	a3,a3,32
20014d96:	8fd9                	or	a5,a5,a4
20014d98:	c29c                	sw	a5,0(a3)
E:/GitHub/HiFive01-RevB/FS_workspace/004_UART_TXRX/freedom-metal/src/drivers/sifive_gpio0.c:148
        break;
20014d9a:	a8d9                	j	20014e70 <__metal_driver_sifive_gpio0_config_int+0x1fa>
E:/GitHub/HiFive01-RevB/FS_workspace/004_UART_TXRX/freedom-metal/src/drivers/sifive_gpio0.c:151
    case METAL_GPIO_INT_HIGH:
        __METAL_ACCESS_ONCE(
            (__metal_io_u32 *)(base + METAL_SIFIVE_GPIO0_HIGH_IE)) |= source;
20014d9c:	fec42783          	lw	a5,-20(s0)
20014da0:	02878793          	addi	a5,a5,40
20014da4:	4398                	lw	a4,0(a5)
20014da6:	fd842783          	lw	a5,-40(s0)
20014daa:	fec42683          	lw	a3,-20(s0)
20014dae:	02868693          	addi	a3,a3,40
20014db2:	8fd9                	or	a5,a5,a4
20014db4:	c29c                	sw	a5,0(a3)
E:/GitHub/HiFive01-RevB/FS_workspace/004_UART_TXRX/freedom-metal/src/drivers/sifive_gpio0.c:152
        break;
20014db6:	a86d                	j	20014e70 <__metal_driver_sifive_gpio0_config_int+0x1fa>
E:/GitHub/HiFive01-RevB/FS_workspace/004_UART_TXRX/freedom-metal/src/drivers/sifive_gpio0.c:155
    case METAL_GPIO_INT_LOW:
        __METAL_ACCESS_ONCE(
            (__metal_io_u32 *)(base + METAL_SIFIVE_GPIO0_LOW_IE)) |= source;
20014db8:	fec42783          	lw	a5,-20(s0)
20014dbc:	03078793          	addi	a5,a5,48
20014dc0:	4398                	lw	a4,0(a5)
20014dc2:	fd842783          	lw	a5,-40(s0)
20014dc6:	fec42683          	lw	a3,-20(s0)
20014dca:	03068693          	addi	a3,a3,48
20014dce:	8fd9                	or	a5,a5,a4
20014dd0:	c29c                	sw	a5,0(a3)
E:/GitHub/HiFive01-RevB/FS_workspace/004_UART_TXRX/freedom-metal/src/drivers/sifive_gpio0.c:156
        break;
20014dd2:	a879                	j	20014e70 <__metal_driver_sifive_gpio0_config_int+0x1fa>
E:/GitHub/HiFive01-RevB/FS_workspace/004_UART_TXRX/freedom-metal/src/drivers/sifive_gpio0.c:159
    case METAL_GPIO_INT_BOTH_LEVEL:
        __METAL_ACCESS_ONCE(
            (__metal_io_u32 *)(base + METAL_SIFIVE_GPIO0_HIGH_IE)) |= source;
20014dd4:	fec42783          	lw	a5,-20(s0)
20014dd8:	02878793          	addi	a5,a5,40
20014ddc:	4398                	lw	a4,0(a5)
20014dde:	fd842783          	lw	a5,-40(s0)
20014de2:	fec42683          	lw	a3,-20(s0)
20014de6:	02868693          	addi	a3,a3,40
20014dea:	8fd9                	or	a5,a5,a4
20014dec:	c29c                	sw	a5,0(a3)
E:/GitHub/HiFive01-RevB/FS_workspace/004_UART_TXRX/freedom-metal/src/drivers/sifive_gpio0.c:161
        __METAL_ACCESS_ONCE(
            (__metal_io_u32 *)(base + METAL_SIFIVE_GPIO0_LOW_IE)) |= source;
20014dee:	fec42783          	lw	a5,-20(s0)
20014df2:	03078793          	addi	a5,a5,48
20014df6:	4398                	lw	a4,0(a5)
20014df8:	fd842783          	lw	a5,-40(s0)
20014dfc:	fec42683          	lw	a3,-20(s0)
20014e00:	03068693          	addi	a3,a3,48
20014e04:	8fd9                	or	a5,a5,a4
20014e06:	c29c                	sw	a5,0(a3)
E:/GitHub/HiFive01-RevB/FS_workspace/004_UART_TXRX/freedom-metal/src/drivers/sifive_gpio0.c:162
        break;
20014e08:	a0a5                	j	20014e70 <__metal_driver_sifive_gpio0_config_int+0x1fa>
E:/GitHub/HiFive01-RevB/FS_workspace/004_UART_TXRX/freedom-metal/src/drivers/sifive_gpio0.c:165
    case METAL_GPIO_INT_MAX:
        __METAL_ACCESS_ONCE(
            (__metal_io_u32 *)(base + METAL_SIFIVE_GPIO0_RISE_IE)) |= source;
20014e0a:	fec42783          	lw	a5,-20(s0)
20014e0e:	07e1                	addi	a5,a5,24
20014e10:	4398                	lw	a4,0(a5)
20014e12:	fd842783          	lw	a5,-40(s0)
20014e16:	fec42683          	lw	a3,-20(s0)
20014e1a:	06e1                	addi	a3,a3,24
20014e1c:	8fd9                	or	a5,a5,a4
20014e1e:	c29c                	sw	a5,0(a3)
E:/GitHub/HiFive01-RevB/FS_workspace/004_UART_TXRX/freedom-metal/src/drivers/sifive_gpio0.c:167
        __METAL_ACCESS_ONCE(
            (__metal_io_u32 *)(base + METAL_SIFIVE_GPIO0_FALL_IE)) |= source;
20014e20:	fec42783          	lw	a5,-20(s0)
20014e24:	02078793          	addi	a5,a5,32
20014e28:	4398                	lw	a4,0(a5)
20014e2a:	fd842783          	lw	a5,-40(s0)
20014e2e:	fec42683          	lw	a3,-20(s0)
20014e32:	02068693          	addi	a3,a3,32
20014e36:	8fd9                	or	a5,a5,a4
20014e38:	c29c                	sw	a5,0(a3)
E:/GitHub/HiFive01-RevB/FS_workspace/004_UART_TXRX/freedom-metal/src/drivers/sifive_gpio0.c:169
        __METAL_ACCESS_ONCE(
            (__metal_io_u32 *)(base + METAL_SIFIVE_GPIO0_HIGH_IE)) |= source;
20014e3a:	fec42783          	lw	a5,-20(s0)
20014e3e:	02878793          	addi	a5,a5,40
20014e42:	4398                	lw	a4,0(a5)
20014e44:	fd842783          	lw	a5,-40(s0)
20014e48:	fec42683          	lw	a3,-20(s0)
20014e4c:	02868693          	addi	a3,a3,40
20014e50:	8fd9                	or	a5,a5,a4
20014e52:	c29c                	sw	a5,0(a3)
E:/GitHub/HiFive01-RevB/FS_workspace/004_UART_TXRX/freedom-metal/src/drivers/sifive_gpio0.c:171
        __METAL_ACCESS_ONCE(
            (__metal_io_u32 *)(base + METAL_SIFIVE_GPIO0_LOW_IE)) |= source;
20014e54:	fec42783          	lw	a5,-20(s0)
20014e58:	03078793          	addi	a5,a5,48
20014e5c:	4398                	lw	a4,0(a5)
20014e5e:	fd842783          	lw	a5,-40(s0)
20014e62:	fec42683          	lw	a3,-20(s0)
20014e66:	03068693          	addi	a3,a3,48
20014e6a:	8fd9                	or	a5,a5,a4
20014e6c:	c29c                	sw	a5,0(a3)
E:/GitHub/HiFive01-RevB/FS_workspace/004_UART_TXRX/freedom-metal/src/drivers/sifive_gpio0.c:172
        break;
20014e6e:	0001                	nop
E:/GitHub/HiFive01-RevB/FS_workspace/004_UART_TXRX/freedom-metal/src/drivers/sifive_gpio0.c:174
    }
    return 0;
20014e70:	4781                	li	a5,0
E:/GitHub/HiFive01-RevB/FS_workspace/004_UART_TXRX/freedom-metal/src/drivers/sifive_gpio0.c:175
}
20014e72:	853e                	mv	a0,a5
20014e74:	50b2                	lw	ra,44(sp)
20014e76:	5422                	lw	s0,40(sp)
20014e78:	6145                	addi	sp,sp,48
20014e7a:	8082                	ret

20014e7c <__metal_driver_sifive_gpio0_clear_int>:
__metal_driver_sifive_gpio0_clear_int():
E:/GitHub/HiFive01-RevB/FS_workspace/004_UART_TXRX/freedom-metal/src/drivers/sifive_gpio0.c:178

int __metal_driver_sifive_gpio0_clear_int(struct metal_gpio *ggpio, long source,
                                          int intr_type) {
20014e7c:	7179                	addi	sp,sp,-48
20014e7e:	d606                	sw	ra,44(sp)
20014e80:	d422                	sw	s0,40(sp)
20014e82:	1800                	addi	s0,sp,48
20014e84:	fca42e23          	sw	a0,-36(s0)
20014e88:	fcb42c23          	sw	a1,-40(s0)
20014e8c:	fcc42a23          	sw	a2,-44(s0)
E:/GitHub/HiFive01-RevB/FS_workspace/004_UART_TXRX/freedom-metal/src/drivers/sifive_gpio0.c:179
    long base = __metal_driver_sifive_gpio0_base(ggpio);
20014e90:	fdc42503          	lw	a0,-36(s0)
20014e94:	f60ff0ef          	jal	ra,200145f4 <__metal_driver_sifive_gpio0_base>
20014e98:	87aa                	mv	a5,a0
20014e9a:	fef42623          	sw	a5,-20(s0)
20014e9e:	fd442703          	lw	a4,-44(s0)
20014ea2:	479d                	li	a5,7
20014ea4:	14e7ea63          	bltu	a5,a4,20014ff8 <__metal_driver_sifive_gpio0_clear_int+0x17c>
20014ea8:	fd442783          	lw	a5,-44(s0)
20014eac:	00279713          	slli	a4,a5,0x2
20014eb0:	200117b7          	lui	a5,0x20011
20014eb4:	e4478793          	addi	a5,a5,-444 # 20010e44 <__metal_driver_vtable_sifive_led+0x34>
20014eb8:	97ba                	add	a5,a5,a4
20014eba:	439c                	lw	a5,0(a5)
20014ebc:	8782                	jr	a5
E:/GitHub/HiFive01-RevB/FS_workspace/004_UART_TXRX/freedom-metal/src/drivers/sifive_gpio0.c:184

    switch (intr_type) {
    case METAL_GPIO_INT_RISING:
        __METAL_ACCESS_ONCE(
            (__metal_io_u32 *)(base + METAL_SIFIVE_GPIO0_RISE_IP)) |= source;
20014ebe:	fec42783          	lw	a5,-20(s0)
20014ec2:	07f1                	addi	a5,a5,28
20014ec4:	4398                	lw	a4,0(a5)
20014ec6:	fd842783          	lw	a5,-40(s0)
20014eca:	fec42683          	lw	a3,-20(s0)
20014ece:	06f1                	addi	a3,a3,28
20014ed0:	8fd9                	or	a5,a5,a4
20014ed2:	c29c                	sw	a5,0(a3)
E:/GitHub/HiFive01-RevB/FS_workspace/004_UART_TXRX/freedom-metal/src/drivers/sifive_gpio0.c:185
        break;
20014ed4:	a215                	j	20014ff8 <__metal_driver_sifive_gpio0_clear_int+0x17c>
E:/GitHub/HiFive01-RevB/FS_workspace/004_UART_TXRX/freedom-metal/src/drivers/sifive_gpio0.c:188
    case METAL_GPIO_INT_FALLING:
        __METAL_ACCESS_ONCE(
            (__metal_io_u32 *)(base + METAL_SIFIVE_GPIO0_FALL_IP)) |= source;
20014ed6:	fec42783          	lw	a5,-20(s0)
20014eda:	02478793          	addi	a5,a5,36
20014ede:	4398                	lw	a4,0(a5)
20014ee0:	fd842783          	lw	a5,-40(s0)
20014ee4:	fec42683          	lw	a3,-20(s0)
20014ee8:	02468693          	addi	a3,a3,36
20014eec:	8fd9                	or	a5,a5,a4
20014eee:	c29c                	sw	a5,0(a3)
E:/GitHub/HiFive01-RevB/FS_workspace/004_UART_TXRX/freedom-metal/src/drivers/sifive_gpio0.c:189
        break;
20014ef0:	a221                	j	20014ff8 <__metal_driver_sifive_gpio0_clear_int+0x17c>
E:/GitHub/HiFive01-RevB/FS_workspace/004_UART_TXRX/freedom-metal/src/drivers/sifive_gpio0.c:192
    case METAL_GPIO_INT_BOTH_EDGE:
        __METAL_ACCESS_ONCE(
            (__metal_io_u32 *)(base + METAL_SIFIVE_GPIO0_RISE_IP)) |= source;
20014ef2:	fec42783          	lw	a5,-20(s0)
20014ef6:	07f1                	addi	a5,a5,28
20014ef8:	4398                	lw	a4,0(a5)
20014efa:	fd842783          	lw	a5,-40(s0)
20014efe:	fec42683          	lw	a3,-20(s0)
20014f02:	06f1                	addi	a3,a3,28
20014f04:	8fd9                	or	a5,a5,a4
20014f06:	c29c                	sw	a5,0(a3)
E:/GitHub/HiFive01-RevB/FS_workspace/004_UART_TXRX/freedom-metal/src/drivers/sifive_gpio0.c:194
        __METAL_ACCESS_ONCE(
            (__metal_io_u32 *)(base + METAL_SIFIVE_GPIO0_FALL_IP)) |= source;
20014f08:	fec42783          	lw	a5,-20(s0)
20014f0c:	02478793          	addi	a5,a5,36
20014f10:	4398                	lw	a4,0(a5)
20014f12:	fd842783          	lw	a5,-40(s0)
20014f16:	fec42683          	lw	a3,-20(s0)
20014f1a:	02468693          	addi	a3,a3,36
20014f1e:	8fd9                	or	a5,a5,a4
20014f20:	c29c                	sw	a5,0(a3)
E:/GitHub/HiFive01-RevB/FS_workspace/004_UART_TXRX/freedom-metal/src/drivers/sifive_gpio0.c:195
        break;
20014f22:	a8d9                	j	20014ff8 <__metal_driver_sifive_gpio0_clear_int+0x17c>
E:/GitHub/HiFive01-RevB/FS_workspace/004_UART_TXRX/freedom-metal/src/drivers/sifive_gpio0.c:198
    case METAL_GPIO_INT_HIGH:
        __METAL_ACCESS_ONCE(
            (__metal_io_u32 *)(base + METAL_SIFIVE_GPIO0_HIGH_IP)) |= source;
20014f24:	fec42783          	lw	a5,-20(s0)
20014f28:	02c78793          	addi	a5,a5,44
20014f2c:	4398                	lw	a4,0(a5)
20014f2e:	fd842783          	lw	a5,-40(s0)
20014f32:	fec42683          	lw	a3,-20(s0)
20014f36:	02c68693          	addi	a3,a3,44
20014f3a:	8fd9                	or	a5,a5,a4
20014f3c:	c29c                	sw	a5,0(a3)
E:/GitHub/HiFive01-RevB/FS_workspace/004_UART_TXRX/freedom-metal/src/drivers/sifive_gpio0.c:199
        break;
20014f3e:	a86d                	j	20014ff8 <__metal_driver_sifive_gpio0_clear_int+0x17c>
E:/GitHub/HiFive01-RevB/FS_workspace/004_UART_TXRX/freedom-metal/src/drivers/sifive_gpio0.c:202
    case METAL_GPIO_INT_LOW:
        __METAL_ACCESS_ONCE(
            (__metal_io_u32 *)(base + METAL_SIFIVE_GPIO0_LOW_IP)) |= source;
20014f40:	fec42783          	lw	a5,-20(s0)
20014f44:	03478793          	addi	a5,a5,52
20014f48:	4398                	lw	a4,0(a5)
20014f4a:	fd842783          	lw	a5,-40(s0)
20014f4e:	fec42683          	lw	a3,-20(s0)
20014f52:	03468693          	addi	a3,a3,52
20014f56:	8fd9                	or	a5,a5,a4
20014f58:	c29c                	sw	a5,0(a3)
E:/GitHub/HiFive01-RevB/FS_workspace/004_UART_TXRX/freedom-metal/src/drivers/sifive_gpio0.c:203
        break;
20014f5a:	a879                	j	20014ff8 <__metal_driver_sifive_gpio0_clear_int+0x17c>
E:/GitHub/HiFive01-RevB/FS_workspace/004_UART_TXRX/freedom-metal/src/drivers/sifive_gpio0.c:206
    case METAL_GPIO_INT_BOTH_LEVEL:
        __METAL_ACCESS_ONCE(
            (__metal_io_u32 *)(base + METAL_SIFIVE_GPIO0_HIGH_IP)) |= source;
20014f5c:	fec42783          	lw	a5,-20(s0)
20014f60:	02c78793          	addi	a5,a5,44
20014f64:	4398                	lw	a4,0(a5)
20014f66:	fd842783          	lw	a5,-40(s0)
20014f6a:	fec42683          	lw	a3,-20(s0)
20014f6e:	02c68693          	addi	a3,a3,44
20014f72:	8fd9                	or	a5,a5,a4
20014f74:	c29c                	sw	a5,0(a3)
E:/GitHub/HiFive01-RevB/FS_workspace/004_UART_TXRX/freedom-metal/src/drivers/sifive_gpio0.c:208
        __METAL_ACCESS_ONCE(
            (__metal_io_u32 *)(base + METAL_SIFIVE_GPIO0_LOW_IP)) |= source;
20014f76:	fec42783          	lw	a5,-20(s0)
20014f7a:	03478793          	addi	a5,a5,52
20014f7e:	4398                	lw	a4,0(a5)
20014f80:	fd842783          	lw	a5,-40(s0)
20014f84:	fec42683          	lw	a3,-20(s0)
20014f88:	03468693          	addi	a3,a3,52
20014f8c:	8fd9                	or	a5,a5,a4
20014f8e:	c29c                	sw	a5,0(a3)
E:/GitHub/HiFive01-RevB/FS_workspace/004_UART_TXRX/freedom-metal/src/drivers/sifive_gpio0.c:209
        break;
20014f90:	a0a5                	j	20014ff8 <__metal_driver_sifive_gpio0_clear_int+0x17c>
E:/GitHub/HiFive01-RevB/FS_workspace/004_UART_TXRX/freedom-metal/src/drivers/sifive_gpio0.c:212
    case METAL_GPIO_INT_MAX:
        __METAL_ACCESS_ONCE(
            (__metal_io_u32 *)(base + METAL_SIFIVE_GPIO0_RISE_IP)) |= source;
20014f92:	fec42783          	lw	a5,-20(s0)
20014f96:	07f1                	addi	a5,a5,28
20014f98:	4398                	lw	a4,0(a5)
20014f9a:	fd842783          	lw	a5,-40(s0)
20014f9e:	fec42683          	lw	a3,-20(s0)
20014fa2:	06f1                	addi	a3,a3,28
20014fa4:	8fd9                	or	a5,a5,a4
20014fa6:	c29c                	sw	a5,0(a3)
E:/GitHub/HiFive01-RevB/FS_workspace/004_UART_TXRX/freedom-metal/src/drivers/sifive_gpio0.c:214
        __METAL_ACCESS_ONCE(
            (__metal_io_u32 *)(base + METAL_SIFIVE_GPIO0_FALL_IP)) |= source;
20014fa8:	fec42783          	lw	a5,-20(s0)
20014fac:	02478793          	addi	a5,a5,36
20014fb0:	4398                	lw	a4,0(a5)
20014fb2:	fd842783          	lw	a5,-40(s0)
20014fb6:	fec42683          	lw	a3,-20(s0)
20014fba:	02468693          	addi	a3,a3,36
20014fbe:	8fd9                	or	a5,a5,a4
20014fc0:	c29c                	sw	a5,0(a3)
E:/GitHub/HiFive01-RevB/FS_workspace/004_UART_TXRX/freedom-metal/src/drivers/sifive_gpio0.c:216
        __METAL_ACCESS_ONCE(
            (__metal_io_u32 *)(base + METAL_SIFIVE_GPIO0_HIGH_IP)) |= source;
20014fc2:	fec42783          	lw	a5,-20(s0)
20014fc6:	02c78793          	addi	a5,a5,44
20014fca:	4398                	lw	a4,0(a5)
20014fcc:	fd842783          	lw	a5,-40(s0)
20014fd0:	fec42683          	lw	a3,-20(s0)
20014fd4:	02c68693          	addi	a3,a3,44
20014fd8:	8fd9                	or	a5,a5,a4
20014fda:	c29c                	sw	a5,0(a3)
E:/GitHub/HiFive01-RevB/FS_workspace/004_UART_TXRX/freedom-metal/src/drivers/sifive_gpio0.c:218
        __METAL_ACCESS_ONCE(
            (__metal_io_u32 *)(base + METAL_SIFIVE_GPIO0_LOW_IP)) |= source;
20014fdc:	fec42783          	lw	a5,-20(s0)
20014fe0:	03478793          	addi	a5,a5,52
20014fe4:	4398                	lw	a4,0(a5)
20014fe6:	fd842783          	lw	a5,-40(s0)
20014fea:	fec42683          	lw	a3,-20(s0)
20014fee:	03468693          	addi	a3,a3,52
20014ff2:	8fd9                	or	a5,a5,a4
20014ff4:	c29c                	sw	a5,0(a3)
E:/GitHub/HiFive01-RevB/FS_workspace/004_UART_TXRX/freedom-metal/src/drivers/sifive_gpio0.c:219
        break;
20014ff6:	0001                	nop
E:/GitHub/HiFive01-RevB/FS_workspace/004_UART_TXRX/freedom-metal/src/drivers/sifive_gpio0.c:221
    }
    return 0;
20014ff8:	4781                	li	a5,0
E:/GitHub/HiFive01-RevB/FS_workspace/004_UART_TXRX/freedom-metal/src/drivers/sifive_gpio0.c:222
}
20014ffa:	853e                	mv	a0,a5
20014ffc:	50b2                	lw	ra,44(sp)
20014ffe:	5422                	lw	s0,40(sp)
20015000:	6145                	addi	sp,sp,48
20015002:	8082                	ret

20015004 <__metal_driver_gpio_interrupt_controller>:
__metal_driver_gpio_interrupt_controller():
E:/GitHub/HiFive01-RevB/FS_workspace/004_UART_TXRX/freedom-metal/src/drivers/sifive_gpio0.c:225

struct metal_interrupt *
__metal_driver_gpio_interrupt_controller(struct metal_gpio *gpio) {
20015004:	1101                	addi	sp,sp,-32
20015006:	ce06                	sw	ra,28(sp)
20015008:	cc22                	sw	s0,24(sp)
2001500a:	1000                	addi	s0,sp,32
2001500c:	fea42623          	sw	a0,-20(s0)
E:/GitHub/HiFive01-RevB/FS_workspace/004_UART_TXRX/freedom-metal/src/drivers/sifive_gpio0.c:226
    return __metal_driver_sifive_gpio0_interrupt_parent(gpio);
20015010:	fec42503          	lw	a0,-20(s0)
20015014:	e06ff0ef          	jal	ra,2001461a <__metal_driver_sifive_gpio0_interrupt_parent>
20015018:	87aa                	mv	a5,a0
E:/GitHub/HiFive01-RevB/FS_workspace/004_UART_TXRX/freedom-metal/src/drivers/sifive_gpio0.c:227
}
2001501a:	853e                	mv	a0,a5
2001501c:	40f2                	lw	ra,28(sp)
2001501e:	4462                	lw	s0,24(sp)
20015020:	6105                	addi	sp,sp,32
20015022:	8082                	ret

20015024 <__metal_driver_gpio_get_interrupt_id>:
__metal_driver_gpio_get_interrupt_id():
E:/GitHub/HiFive01-RevB/FS_workspace/004_UART_TXRX/freedom-metal/src/drivers/sifive_gpio0.c:229

int __metal_driver_gpio_get_interrupt_id(struct metal_gpio *gpio, int pin) {
20015024:	7179                	addi	sp,sp,-48
20015026:	d606                	sw	ra,44(sp)
20015028:	d422                	sw	s0,40(sp)
2001502a:	1800                	addi	s0,sp,48
2001502c:	fca42e23          	sw	a0,-36(s0)
20015030:	fcb42c23          	sw	a1,-40(s0)
E:/GitHub/HiFive01-RevB/FS_workspace/004_UART_TXRX/freedom-metal/src/drivers/sifive_gpio0.c:231
    int irq;
    irq = __metal_driver_sifive_gpio0_interrupt_lines(gpio, pin);
20015034:	fd842583          	lw	a1,-40(s0)
20015038:	fdc42503          	lw	a0,-36(s0)
2001503c:	e08ff0ef          	jal	ra,20014644 <__metal_driver_sifive_gpio0_interrupt_lines>
20015040:	fea42623          	sw	a0,-20(s0)
E:/GitHub/HiFive01-RevB/FS_workspace/004_UART_TXRX/freedom-metal/src/drivers/sifive_gpio0.c:232
    return irq;
20015044:	fec42783          	lw	a5,-20(s0)
E:/GitHub/HiFive01-RevB/FS_workspace/004_UART_TXRX/freedom-metal/src/drivers/sifive_gpio0.c:233
}
20015048:	853e                	mv	a0,a5
2001504a:	50b2                	lw	ra,44(sp)
2001504c:	5422                	lw	s0,40(sp)
2001504e:	6145                	addi	sp,sp,48
20015050:	8082                	ret

20015052 <__metal_driver_sifive_uart0_control_base>:
__metal_driver_sifive_uart0_control_base():
E:\GitHub\HiFive01-RevB\FS_workspace\004_UART_TXRX\bsp\build\debug/./metal/machine.h:1066
{
20015052:	1101                	addi	sp,sp,-32
20015054:	ce22                	sw	s0,28(sp)
20015056:	1000                	addi	s0,sp,32
20015058:	fea42623          	sw	a0,-20(s0)
E:\GitHub\HiFive01-RevB\FS_workspace\004_UART_TXRX\bsp\build\debug/./metal/machine.h:1067
	if ((uintptr_t)uart == (uintptr_t)&__metal_dt_serial_10013000) {
2001505c:	fec42703          	lw	a4,-20(s0)
20015060:	800017b7          	lui	a5,0x80001
20015064:	9e878793          	addi	a5,a5,-1560 # 800009e8 <__global_pointer$+0xfffff738>
20015068:	00f71563          	bne	a4,a5,20015072 <__metal_driver_sifive_uart0_control_base+0x20>
E:\GitHub\HiFive01-RevB\FS_workspace\004_UART_TXRX\bsp\build\debug/./metal/machine.h:1068
		return METAL_SIFIVE_UART0_10013000_BASE_ADDRESS;
2001506c:	100137b7          	lui	a5,0x10013
20015070:	a829                	j	2001508a <__metal_driver_sifive_uart0_control_base+0x38>
E:\GitHub\HiFive01-RevB\FS_workspace\004_UART_TXRX\bsp\build\debug/./metal/machine.h:1070
	else if ((uintptr_t)uart == (uintptr_t)&__metal_dt_serial_10023000) {
20015072:	fec42703          	lw	a4,-20(s0)
20015076:	800017b7          	lui	a5,0x80001
2001507a:	a0878793          	addi	a5,a5,-1528 # 80000a08 <__global_pointer$+0xfffff758>
2001507e:	00f71563          	bne	a4,a5,20015088 <__metal_driver_sifive_uart0_control_base+0x36>
E:\GitHub\HiFive01-RevB\FS_workspace\004_UART_TXRX\bsp\build\debug/./metal/machine.h:1071
		return METAL_SIFIVE_UART0_10023000_BASE_ADDRESS;
20015082:	100237b7          	lui	a5,0x10023
20015086:	a011                	j	2001508a <__metal_driver_sifive_uart0_control_base+0x38>
E:\GitHub\HiFive01-RevB\FS_workspace\004_UART_TXRX\bsp\build\debug/./metal/machine.h:1074
		return 0;
20015088:	4781                	li	a5,0
E:\GitHub\HiFive01-RevB\FS_workspace\004_UART_TXRX\bsp\build\debug/./metal/machine.h:1076
}
2001508a:	853e                	mv	a0,a5
2001508c:	4472                	lw	s0,28(sp)
2001508e:	6105                	addi	sp,sp,32
20015090:	8082                	ret

20015092 <__metal_driver_sifive_uart0_interrupt_parent>:
__metal_driver_sifive_uart0_interrupt_parent():
E:\GitHub\HiFive01-RevB\FS_workspace\004_UART_TXRX\bsp\build\debug/./metal/machine.h:1105
{
20015092:	1101                	addi	sp,sp,-32
20015094:	ce22                	sw	s0,28(sp)
20015096:	1000                	addi	s0,sp,32
20015098:	fea42623          	sw	a0,-20(s0)
E:\GitHub\HiFive01-RevB\FS_workspace\004_UART_TXRX\bsp\build\debug/./metal/machine.h:1106
	if ((uintptr_t)uart == (uintptr_t)&__metal_dt_serial_10013000) {
2001509c:	fec42703          	lw	a4,-20(s0)
200150a0:	800017b7          	lui	a5,0x80001
200150a4:	9e878793          	addi	a5,a5,-1560 # 800009e8 <__global_pointer$+0xfffff738>
200150a8:	00f71763          	bne	a4,a5,200150b6 <__metal_driver_sifive_uart0_interrupt_parent+0x24>
E:\GitHub\HiFive01-RevB\FS_workspace\004_UART_TXRX\bsp\build\debug/./metal/machine.h:1107
		return (struct metal_interrupt *)&__metal_dt_interrupt_controller_c000000.controller;
200150ac:	800007b7          	lui	a5,0x80000
200150b0:	41078793          	addi	a5,a5,1040 # 80000410 <__global_pointer$+0xfffff160>
200150b4:	a839                	j	200150d2 <__metal_driver_sifive_uart0_interrupt_parent+0x40>
E:\GitHub\HiFive01-RevB\FS_workspace\004_UART_TXRX\bsp\build\debug/./metal/machine.h:1109
	else if ((uintptr_t)uart == (uintptr_t)&__metal_dt_serial_10023000) {
200150b6:	fec42703          	lw	a4,-20(s0)
200150ba:	800017b7          	lui	a5,0x80001
200150be:	a0878793          	addi	a5,a5,-1528 # 80000a08 <__global_pointer$+0xfffff758>
200150c2:	00f71763          	bne	a4,a5,200150d0 <__metal_driver_sifive_uart0_interrupt_parent+0x3e>
E:\GitHub\HiFive01-RevB\FS_workspace\004_UART_TXRX\bsp\build\debug/./metal/machine.h:1110
		return (struct metal_interrupt *)&__metal_dt_interrupt_controller_c000000.controller;
200150c6:	800007b7          	lui	a5,0x80000
200150ca:	41078793          	addi	a5,a5,1040 # 80000410 <__global_pointer$+0xfffff160>
200150ce:	a011                	j	200150d2 <__metal_driver_sifive_uart0_interrupt_parent+0x40>
E:\GitHub\HiFive01-RevB\FS_workspace\004_UART_TXRX\bsp\build\debug/./metal/machine.h:1113
		return 0;
200150d0:	4781                	li	a5,0
E:\GitHub\HiFive01-RevB\FS_workspace\004_UART_TXRX\bsp\build\debug/./metal/machine.h:1115
}
200150d2:	853e                	mv	a0,a5
200150d4:	4472                	lw	s0,28(sp)
200150d6:	6105                	addi	sp,sp,32
200150d8:	8082                	ret

200150da <__metal_driver_sifive_uart0_interrupt_line>:
__metal_driver_sifive_uart0_interrupt_line():
E:\GitHub\HiFive01-RevB\FS_workspace\004_UART_TXRX\bsp\build\debug/./metal/machine.h:1118
{
200150da:	1101                	addi	sp,sp,-32
200150dc:	ce22                	sw	s0,28(sp)
200150de:	1000                	addi	s0,sp,32
200150e0:	fea42623          	sw	a0,-20(s0)
E:\GitHub\HiFive01-RevB\FS_workspace\004_UART_TXRX\bsp\build\debug/./metal/machine.h:1119
	if ((uintptr_t)uart == (uintptr_t)&__metal_dt_serial_10013000) {
200150e4:	fec42703          	lw	a4,-20(s0)
200150e8:	800017b7          	lui	a5,0x80001
200150ec:	9e878793          	addi	a5,a5,-1560 # 800009e8 <__global_pointer$+0xfffff738>
200150f0:	00f71463          	bne	a4,a5,200150f8 <__metal_driver_sifive_uart0_interrupt_line+0x1e>
E:\GitHub\HiFive01-RevB\FS_workspace\004_UART_TXRX\bsp\build\debug/./metal/machine.h:1120
		return 3;
200150f4:	478d                	li	a5,3
200150f6:	a821                	j	2001510e <__metal_driver_sifive_uart0_interrupt_line+0x34>
E:\GitHub\HiFive01-RevB\FS_workspace\004_UART_TXRX\bsp\build\debug/./metal/machine.h:1122
	else if ((uintptr_t)uart == (uintptr_t)&__metal_dt_serial_10023000) {
200150f8:	fec42703          	lw	a4,-20(s0)
200150fc:	800017b7          	lui	a5,0x80001
20015100:	a0878793          	addi	a5,a5,-1528 # 80000a08 <__global_pointer$+0xfffff758>
20015104:	00f71463          	bne	a4,a5,2001510c <__metal_driver_sifive_uart0_interrupt_line+0x32>
E:\GitHub\HiFive01-RevB\FS_workspace\004_UART_TXRX\bsp\build\debug/./metal/machine.h:1123
		return 4;
20015108:	4791                	li	a5,4
2001510a:	a011                	j	2001510e <__metal_driver_sifive_uart0_interrupt_line+0x34>
E:\GitHub\HiFive01-RevB\FS_workspace\004_UART_TXRX\bsp\build\debug/./metal/machine.h:1126
		return 0;
2001510c:	4781                	li	a5,0
E:\GitHub\HiFive01-RevB\FS_workspace\004_UART_TXRX\bsp\build\debug/./metal/machine.h:1128
}
2001510e:	853e                	mv	a0,a5
20015110:	4472                	lw	s0,28(sp)
20015112:	6105                	addi	sp,sp,32
20015114:	8082                	ret

20015116 <__metal_driver_sifive_uart0_clock>:
__metal_driver_sifive_uart0_clock():
E:\GitHub\HiFive01-RevB\FS_workspace\004_UART_TXRX\bsp\build\debug/./metal/machine.h:1131
{
20015116:	1101                	addi	sp,sp,-32
20015118:	ce22                	sw	s0,28(sp)
2001511a:	1000                	addi	s0,sp,32
2001511c:	fea42623          	sw	a0,-20(s0)
E:\GitHub\HiFive01-RevB\FS_workspace\004_UART_TXRX\bsp\build\debug/./metal/machine.h:1132
	if ((uintptr_t)uart == (uintptr_t)&__metal_dt_serial_10013000) {
20015120:	fec42703          	lw	a4,-20(s0)
20015124:	800017b7          	lui	a5,0x80001
20015128:	9e878793          	addi	a5,a5,-1560 # 800009e8 <__global_pointer$+0xfffff738>
2001512c:	00f71763          	bne	a4,a5,2001513a <__metal_driver_sifive_uart0_clock+0x24>
E:\GitHub\HiFive01-RevB\FS_workspace\004_UART_TXRX\bsp\build\debug/./metal/machine.h:1133
		return (struct metal_clock *)&__metal_dt_clock_4.clock;
20015130:	800017b7          	lui	a5,0x80001
20015134:	a4078793          	addi	a5,a5,-1472 # 80000a40 <__global_pointer$+0xfffff790>
20015138:	a839                	j	20015156 <__metal_driver_sifive_uart0_clock+0x40>
E:\GitHub\HiFive01-RevB\FS_workspace\004_UART_TXRX\bsp\build\debug/./metal/machine.h:1135
	else if ((uintptr_t)uart == (uintptr_t)&__metal_dt_serial_10023000) {
2001513a:	fec42703          	lw	a4,-20(s0)
2001513e:	800017b7          	lui	a5,0x80001
20015142:	a0878793          	addi	a5,a5,-1528 # 80000a08 <__global_pointer$+0xfffff758>
20015146:	00f71763          	bne	a4,a5,20015154 <__metal_driver_sifive_uart0_clock+0x3e>
E:\GitHub\HiFive01-RevB\FS_workspace\004_UART_TXRX\bsp\build\debug/./metal/machine.h:1136
		return (struct metal_clock *)&__metal_dt_clock_4.clock;
2001514a:	800017b7          	lui	a5,0x80001
2001514e:	a4078793          	addi	a5,a5,-1472 # 80000a40 <__global_pointer$+0xfffff790>
20015152:	a011                	j	20015156 <__metal_driver_sifive_uart0_clock+0x40>
E:\GitHub\HiFive01-RevB\FS_workspace\004_UART_TXRX\bsp\build\debug/./metal/machine.h:1139
		return 0;
20015154:	4781                	li	a5,0
E:\GitHub\HiFive01-RevB\FS_workspace\004_UART_TXRX\bsp\build\debug/./metal/machine.h:1141
}
20015156:	853e                	mv	a0,a5
20015158:	4472                	lw	s0,28(sp)
2001515a:	6105                	addi	sp,sp,32
2001515c:	8082                	ret

2001515e <__metal_driver_sifive_uart0_pinmux>:
__metal_driver_sifive_uart0_pinmux():
E:\GitHub\HiFive01-RevB\FS_workspace\004_UART_TXRX\bsp\build\debug/./metal/machine.h:1144
{
2001515e:	1101                	addi	sp,sp,-32
20015160:	ce22                	sw	s0,28(sp)
20015162:	1000                	addi	s0,sp,32
20015164:	fea42623          	sw	a0,-20(s0)
E:\GitHub\HiFive01-RevB\FS_workspace\004_UART_TXRX\bsp\build\debug/./metal/machine.h:1145
	if ((uintptr_t)uart == (uintptr_t)&__metal_dt_serial_10013000) {
20015168:	fec42703          	lw	a4,-20(s0)
2001516c:	800017b7          	lui	a5,0x80001
20015170:	9e878793          	addi	a5,a5,-1560 # 800009e8 <__global_pointer$+0xfffff738>
20015174:	00f71563          	bne	a4,a5,2001517e <__metal_driver_sifive_uart0_pinmux+0x20>
E:\GitHub\HiFive01-RevB\FS_workspace\004_UART_TXRX\bsp\build\debug/./metal/machine.h:1146
		return (struct __metal_driver_sifive_gpio0 *)&__metal_dt_gpio_10012000;
20015178:	81c18793          	addi	a5,gp,-2020 # 80000acc <__metal_dt_gpio_10012000>
2001517c:	a829                	j	20015196 <__metal_driver_sifive_uart0_pinmux+0x38>
E:\GitHub\HiFive01-RevB\FS_workspace\004_UART_TXRX\bsp\build\debug/./metal/machine.h:1148
	else if ((uintptr_t)uart == (uintptr_t)&__metal_dt_serial_10023000) {
2001517e:	fec42703          	lw	a4,-20(s0)
20015182:	800017b7          	lui	a5,0x80001
20015186:	a0878793          	addi	a5,a5,-1528 # 80000a08 <__global_pointer$+0xfffff758>
2001518a:	00f71563          	bne	a4,a5,20015194 <__metal_driver_sifive_uart0_pinmux+0x36>
E:\GitHub\HiFive01-RevB\FS_workspace\004_UART_TXRX\bsp\build\debug/./metal/machine.h:1149
		return (struct __metal_driver_sifive_gpio0 *)&__metal_dt_gpio_10012000;
2001518e:	81c18793          	addi	a5,gp,-2020 # 80000acc <__metal_dt_gpio_10012000>
20015192:	a011                	j	20015196 <__metal_driver_sifive_uart0_pinmux+0x38>
E:\GitHub\HiFive01-RevB\FS_workspace\004_UART_TXRX\bsp\build\debug/./metal/machine.h:1152
		return 0;
20015194:	4781                	li	a5,0
E:\GitHub\HiFive01-RevB\FS_workspace\004_UART_TXRX\bsp\build\debug/./metal/machine.h:1154
}
20015196:	853e                	mv	a0,a5
20015198:	4472                	lw	s0,28(sp)
2001519a:	6105                	addi	sp,sp,32
2001519c:	8082                	ret

2001519e <__metal_driver_sifive_uart0_pinmux_output_selector>:
__metal_driver_sifive_uart0_pinmux_output_selector():
E:\GitHub\HiFive01-RevB\FS_workspace\004_UART_TXRX\bsp\build\debug/./metal/machine.h:1157
{
2001519e:	1101                	addi	sp,sp,-32
200151a0:	ce22                	sw	s0,28(sp)
200151a2:	1000                	addi	s0,sp,32
200151a4:	fea42623          	sw	a0,-20(s0)
E:\GitHub\HiFive01-RevB\FS_workspace\004_UART_TXRX\bsp\build\debug/./metal/machine.h:1158
	if ((uintptr_t)uart == (uintptr_t)&__metal_dt_serial_10013000) {
200151a8:	fec42703          	lw	a4,-20(s0)
200151ac:	800017b7          	lui	a5,0x80001
200151b0:	9e878793          	addi	a5,a5,-1560 # 800009e8 <__global_pointer$+0xfffff738>
200151b4:	00f71463          	bne	a4,a5,200151bc <__metal_driver_sifive_uart0_pinmux_output_selector+0x1e>
E:\GitHub\HiFive01-RevB\FS_workspace\004_UART_TXRX\bsp\build\debug/./metal/machine.h:1159
		return 0;
200151b8:	4781                	li	a5,0
200151ba:	a821                	j	200151d2 <__metal_driver_sifive_uart0_pinmux_output_selector+0x34>
E:\GitHub\HiFive01-RevB\FS_workspace\004_UART_TXRX\bsp\build\debug/./metal/machine.h:1161
	else if ((uintptr_t)uart == (uintptr_t)&__metal_dt_serial_10023000) {
200151bc:	fec42703          	lw	a4,-20(s0)
200151c0:	800017b7          	lui	a5,0x80001
200151c4:	a0878793          	addi	a5,a5,-1528 # 80000a08 <__global_pointer$+0xfffff758>
200151c8:	00f71463          	bne	a4,a5,200151d0 <__metal_driver_sifive_uart0_pinmux_output_selector+0x32>
E:\GitHub\HiFive01-RevB\FS_workspace\004_UART_TXRX\bsp\build\debug/./metal/machine.h:1162
		return 0;
200151cc:	4781                	li	a5,0
200151ce:	a011                	j	200151d2 <__metal_driver_sifive_uart0_pinmux_output_selector+0x34>
E:\GitHub\HiFive01-RevB\FS_workspace\004_UART_TXRX\bsp\build\debug/./metal/machine.h:1165
		return 0;
200151d0:	4781                	li	a5,0
E:\GitHub\HiFive01-RevB\FS_workspace\004_UART_TXRX\bsp\build\debug/./metal/machine.h:1167
}
200151d2:	853e                	mv	a0,a5
200151d4:	4472                	lw	s0,28(sp)
200151d6:	6105                	addi	sp,sp,32
200151d8:	8082                	ret

200151da <__metal_driver_sifive_uart0_pinmux_source_selector>:
__metal_driver_sifive_uart0_pinmux_source_selector():
E:\GitHub\HiFive01-RevB\FS_workspace\004_UART_TXRX\bsp\build\debug/./metal/machine.h:1170
{
200151da:	1101                	addi	sp,sp,-32
200151dc:	ce22                	sw	s0,28(sp)
200151de:	1000                	addi	s0,sp,32
200151e0:	fea42623          	sw	a0,-20(s0)
E:\GitHub\HiFive01-RevB\FS_workspace\004_UART_TXRX\bsp\build\debug/./metal/machine.h:1171
	if ((uintptr_t)uart == (uintptr_t)&__metal_dt_serial_10013000) {
200151e4:	fec42703          	lw	a4,-20(s0)
200151e8:	800017b7          	lui	a5,0x80001
200151ec:	9e878793          	addi	a5,a5,-1560 # 800009e8 <__global_pointer$+0xfffff738>
200151f0:	00f71563          	bne	a4,a5,200151fa <__metal_driver_sifive_uart0_pinmux_source_selector+0x20>
E:\GitHub\HiFive01-RevB\FS_workspace\004_UART_TXRX\bsp\build\debug/./metal/machine.h:1172
		return 196608;
200151f4:	000307b7          	lui	a5,0x30
200151f8:	a829                	j	20015212 <__metal_driver_sifive_uart0_pinmux_source_selector+0x38>
E:\GitHub\HiFive01-RevB\FS_workspace\004_UART_TXRX\bsp\build\debug/./metal/machine.h:1174
	else if ((uintptr_t)uart == (uintptr_t)&__metal_dt_serial_10023000) {
200151fa:	fec42703          	lw	a4,-20(s0)
200151fe:	800017b7          	lui	a5,0x80001
20015202:	a0878793          	addi	a5,a5,-1528 # 80000a08 <__global_pointer$+0xfffff758>
20015206:	00f71563          	bne	a4,a5,20015210 <__metal_driver_sifive_uart0_pinmux_source_selector+0x36>
E:\GitHub\HiFive01-RevB\FS_workspace\004_UART_TXRX\bsp\build\debug/./metal/machine.h:1175
		return 8650752;
2001520a:	008407b7          	lui	a5,0x840
2001520e:	a011                	j	20015212 <__metal_driver_sifive_uart0_pinmux_source_selector+0x38>
E:\GitHub\HiFive01-RevB\FS_workspace\004_UART_TXRX\bsp\build\debug/./metal/machine.h:1178
		return 0;
20015210:	4781                	li	a5,0
E:\GitHub\HiFive01-RevB\FS_workspace\004_UART_TXRX\bsp\build\debug/./metal/machine.h:1180
}
20015212:	853e                	mv	a0,a5
20015214:	4472                	lw	s0,28(sp)
20015216:	6105                	addi	sp,sp,32
20015218:	8082                	ret

2001521a <__metal_driver_sifive_uart0_interrupt_controller>:
__metal_driver_sifive_uart0_interrupt_controller():
E:/GitHub/HiFive01-RevB/FS_workspace/004_UART_TXRX/freedom-metal/src/drivers/sifive_uart0.c:37
    (__METAL_ACCESS_ONCE((__metal_io_u8 *)UART_REG(offset)))
#define UART_REGW(offset)                                                      \
    (__METAL_ACCESS_ONCE((__metal_io_u32 *)UART_REG(offset)))

struct metal_interrupt *
__metal_driver_sifive_uart0_interrupt_controller(struct metal_uart *uart) {
2001521a:	1101                	addi	sp,sp,-32
2001521c:	ce06                	sw	ra,28(sp)
2001521e:	cc22                	sw	s0,24(sp)
20015220:	1000                	addi	s0,sp,32
20015222:	fea42623          	sw	a0,-20(s0)
E:/GitHub/HiFive01-RevB/FS_workspace/004_UART_TXRX/freedom-metal/src/drivers/sifive_uart0.c:38
    return __metal_driver_sifive_uart0_interrupt_parent(uart);
20015226:	fec42503          	lw	a0,-20(s0)
2001522a:	35a5                	jal	20015092 <__metal_driver_sifive_uart0_interrupt_parent>
2001522c:	87aa                	mv	a5,a0
E:/GitHub/HiFive01-RevB/FS_workspace/004_UART_TXRX/freedom-metal/src/drivers/sifive_uart0.c:39
}
2001522e:	853e                	mv	a0,a5
20015230:	40f2                	lw	ra,28(sp)
20015232:	4462                	lw	s0,24(sp)
20015234:	6105                	addi	sp,sp,32
20015236:	8082                	ret

20015238 <__metal_driver_sifive_uart0_get_interrupt_id>:
__metal_driver_sifive_uart0_get_interrupt_id():
E:/GitHub/HiFive01-RevB/FS_workspace/004_UART_TXRX/freedom-metal/src/drivers/sifive_uart0.c:41

int __metal_driver_sifive_uart0_get_interrupt_id(struct metal_uart *uart) {
20015238:	1101                	addi	sp,sp,-32
2001523a:	ce06                	sw	ra,28(sp)
2001523c:	cc22                	sw	s0,24(sp)
2001523e:	1000                	addi	s0,sp,32
20015240:	fea42623          	sw	a0,-20(s0)
E:/GitHub/HiFive01-RevB/FS_workspace/004_UART_TXRX/freedom-metal/src/drivers/sifive_uart0.c:42
    return __metal_driver_sifive_uart0_interrupt_line(uart);
20015244:	fec42503          	lw	a0,-20(s0)
20015248:	3d49                	jal	200150da <__metal_driver_sifive_uart0_interrupt_line>
2001524a:	87aa                	mv	a5,a0
E:/GitHub/HiFive01-RevB/FS_workspace/004_UART_TXRX/freedom-metal/src/drivers/sifive_uart0.c:43
}
2001524c:	853e                	mv	a0,a5
2001524e:	40f2                	lw	ra,28(sp)
20015250:	4462                	lw	s0,24(sp)
20015252:	6105                	addi	sp,sp,32
20015254:	8082                	ret

20015256 <__metal_driver_sifive_uart0_tx_interrupt_enable>:
__metal_driver_sifive_uart0_tx_interrupt_enable():
E:/GitHub/HiFive01-RevB/FS_workspace/004_UART_TXRX/freedom-metal/src/drivers/sifive_uart0.c:45

int __metal_driver_sifive_uart0_tx_interrupt_enable(struct metal_uart *uart) {
20015256:	7179                	addi	sp,sp,-48
20015258:	d606                	sw	ra,44(sp)
2001525a:	d422                	sw	s0,40(sp)
2001525c:	1800                	addi	s0,sp,48
2001525e:	fca42e23          	sw	a0,-36(s0)
E:/GitHub/HiFive01-RevB/FS_workspace/004_UART_TXRX/freedom-metal/src/drivers/sifive_uart0.c:46
    long control_base = __metal_driver_sifive_uart0_control_base(uart);
20015262:	fdc42503          	lw	a0,-36(s0)
20015266:	33f5                	jal	20015052 <__metal_driver_sifive_uart0_control_base>
20015268:	87aa                	mv	a5,a0
2001526a:	fef42623          	sw	a5,-20(s0)
E:/GitHub/HiFive01-RevB/FS_workspace/004_UART_TXRX/freedom-metal/src/drivers/sifive_uart0.c:48

    UART_REGW(METAL_SIFIVE_UART0_IE) |= UART_TXWM;
2001526e:	fec42783          	lw	a5,-20(s0)
20015272:	07c1                	addi	a5,a5,16
20015274:	439c                	lw	a5,0(a5)
20015276:	fec42703          	lw	a4,-20(s0)
2001527a:	0741                	addi	a4,a4,16
2001527c:	0017e793          	ori	a5,a5,1
20015280:	c31c                	sw	a5,0(a4)
E:/GitHub/HiFive01-RevB/FS_workspace/004_UART_TXRX/freedom-metal/src/drivers/sifive_uart0.c:49
    return 0;
20015282:	4781                	li	a5,0
E:/GitHub/HiFive01-RevB/FS_workspace/004_UART_TXRX/freedom-metal/src/drivers/sifive_uart0.c:50
}
20015284:	853e                	mv	a0,a5
20015286:	50b2                	lw	ra,44(sp)
20015288:	5422                	lw	s0,40(sp)
2001528a:	6145                	addi	sp,sp,48
2001528c:	8082                	ret

2001528e <__metal_driver_sifive_uart0_tx_interrupt_disable>:
__metal_driver_sifive_uart0_tx_interrupt_disable():
E:/GitHub/HiFive01-RevB/FS_workspace/004_UART_TXRX/freedom-metal/src/drivers/sifive_uart0.c:52

int __metal_driver_sifive_uart0_tx_interrupt_disable(struct metal_uart *uart) {
2001528e:	7179                	addi	sp,sp,-48
20015290:	d606                	sw	ra,44(sp)
20015292:	d422                	sw	s0,40(sp)
20015294:	1800                	addi	s0,sp,48
20015296:	fca42e23          	sw	a0,-36(s0)
E:/GitHub/HiFive01-RevB/FS_workspace/004_UART_TXRX/freedom-metal/src/drivers/sifive_uart0.c:53
    long control_base = __metal_driver_sifive_uart0_control_base(uart);
2001529a:	fdc42503          	lw	a0,-36(s0)
2001529e:	3b55                	jal	20015052 <__metal_driver_sifive_uart0_control_base>
200152a0:	87aa                	mv	a5,a0
200152a2:	fef42623          	sw	a5,-20(s0)
E:/GitHub/HiFive01-RevB/FS_workspace/004_UART_TXRX/freedom-metal/src/drivers/sifive_uart0.c:55

    UART_REGW(METAL_SIFIVE_UART0_IE) &= ~UART_TXWM;
200152a6:	fec42783          	lw	a5,-20(s0)
200152aa:	07c1                	addi	a5,a5,16
200152ac:	439c                	lw	a5,0(a5)
200152ae:	fec42703          	lw	a4,-20(s0)
200152b2:	0741                	addi	a4,a4,16
200152b4:	9bf9                	andi	a5,a5,-2
200152b6:	c31c                	sw	a5,0(a4)
E:/GitHub/HiFive01-RevB/FS_workspace/004_UART_TXRX/freedom-metal/src/drivers/sifive_uart0.c:56
    return 0;
200152b8:	4781                	li	a5,0
E:/GitHub/HiFive01-RevB/FS_workspace/004_UART_TXRX/freedom-metal/src/drivers/sifive_uart0.c:57
}
200152ba:	853e                	mv	a0,a5
200152bc:	50b2                	lw	ra,44(sp)
200152be:	5422                	lw	s0,40(sp)
200152c0:	6145                	addi	sp,sp,48
200152c2:	8082                	ret

200152c4 <__metal_driver_sifive_uart0_rx_interrupt_enable>:
__metal_driver_sifive_uart0_rx_interrupt_enable():
E:/GitHub/HiFive01-RevB/FS_workspace/004_UART_TXRX/freedom-metal/src/drivers/sifive_uart0.c:59

int __metal_driver_sifive_uart0_rx_interrupt_enable(struct metal_uart *uart) {
200152c4:	7179                	addi	sp,sp,-48
200152c6:	d606                	sw	ra,44(sp)
200152c8:	d422                	sw	s0,40(sp)
200152ca:	1800                	addi	s0,sp,48
200152cc:	fca42e23          	sw	a0,-36(s0)
E:/GitHub/HiFive01-RevB/FS_workspace/004_UART_TXRX/freedom-metal/src/drivers/sifive_uart0.c:60
    long control_base = __metal_driver_sifive_uart0_control_base(uart);
200152d0:	fdc42503          	lw	a0,-36(s0)
200152d4:	d7fff0ef          	jal	ra,20015052 <__metal_driver_sifive_uart0_control_base>
200152d8:	87aa                	mv	a5,a0
200152da:	fef42623          	sw	a5,-20(s0)
E:/GitHub/HiFive01-RevB/FS_workspace/004_UART_TXRX/freedom-metal/src/drivers/sifive_uart0.c:62

    UART_REGW(METAL_SIFIVE_UART0_IE) |= UART_RXWM;
200152de:	fec42783          	lw	a5,-20(s0)
200152e2:	07c1                	addi	a5,a5,16
200152e4:	439c                	lw	a5,0(a5)
200152e6:	fec42703          	lw	a4,-20(s0)
200152ea:	0741                	addi	a4,a4,16
200152ec:	0027e793          	ori	a5,a5,2
200152f0:	c31c                	sw	a5,0(a4)
E:/GitHub/HiFive01-RevB/FS_workspace/004_UART_TXRX/freedom-metal/src/drivers/sifive_uart0.c:63
    return 0;
200152f2:	4781                	li	a5,0
E:/GitHub/HiFive01-RevB/FS_workspace/004_UART_TXRX/freedom-metal/src/drivers/sifive_uart0.c:64
}
200152f4:	853e                	mv	a0,a5
200152f6:	50b2                	lw	ra,44(sp)
200152f8:	5422                	lw	s0,40(sp)
200152fa:	6145                	addi	sp,sp,48
200152fc:	8082                	ret

200152fe <__metal_driver_sifive_uart0_rx_interrupt_disable>:
__metal_driver_sifive_uart0_rx_interrupt_disable():
E:/GitHub/HiFive01-RevB/FS_workspace/004_UART_TXRX/freedom-metal/src/drivers/sifive_uart0.c:66

int __metal_driver_sifive_uart0_rx_interrupt_disable(struct metal_uart *uart) {
200152fe:	7179                	addi	sp,sp,-48
20015300:	d606                	sw	ra,44(sp)
20015302:	d422                	sw	s0,40(sp)
20015304:	1800                	addi	s0,sp,48
20015306:	fca42e23          	sw	a0,-36(s0)
E:/GitHub/HiFive01-RevB/FS_workspace/004_UART_TXRX/freedom-metal/src/drivers/sifive_uart0.c:67
    long control_base = __metal_driver_sifive_uart0_control_base(uart);
2001530a:	fdc42503          	lw	a0,-36(s0)
2001530e:	d45ff0ef          	jal	ra,20015052 <__metal_driver_sifive_uart0_control_base>
20015312:	87aa                	mv	a5,a0
20015314:	fef42623          	sw	a5,-20(s0)
E:/GitHub/HiFive01-RevB/FS_workspace/004_UART_TXRX/freedom-metal/src/drivers/sifive_uart0.c:69

    UART_REGW(METAL_SIFIVE_UART0_IE) &= ~UART_RXWM;
20015318:	fec42783          	lw	a5,-20(s0)
2001531c:	07c1                	addi	a5,a5,16
2001531e:	439c                	lw	a5,0(a5)
20015320:	fec42703          	lw	a4,-20(s0)
20015324:	0741                	addi	a4,a4,16
20015326:	9bf5                	andi	a5,a5,-3
20015328:	c31c                	sw	a5,0(a4)
E:/GitHub/HiFive01-RevB/FS_workspace/004_UART_TXRX/freedom-metal/src/drivers/sifive_uart0.c:70
    return 0;
2001532a:	4781                	li	a5,0
E:/GitHub/HiFive01-RevB/FS_workspace/004_UART_TXRX/freedom-metal/src/drivers/sifive_uart0.c:71
}
2001532c:	853e                	mv	a0,a5
2001532e:	50b2                	lw	ra,44(sp)
20015330:	5422                	lw	s0,40(sp)
20015332:	6145                	addi	sp,sp,48
20015334:	8082                	ret

20015336 <__metal_driver_sifive_uart0_txready>:
__metal_driver_sifive_uart0_txready():
E:/GitHub/HiFive01-RevB/FS_workspace/004_UART_TXRX/freedom-metal/src/drivers/sifive_uart0.c:73

int __metal_driver_sifive_uart0_txready(struct metal_uart *uart) {
20015336:	7179                	addi	sp,sp,-48
20015338:	d606                	sw	ra,44(sp)
2001533a:	d422                	sw	s0,40(sp)
2001533c:	1800                	addi	s0,sp,48
2001533e:	fca42e23          	sw	a0,-36(s0)
E:/GitHub/HiFive01-RevB/FS_workspace/004_UART_TXRX/freedom-metal/src/drivers/sifive_uart0.c:74
    long control_base = __metal_driver_sifive_uart0_control_base(uart);
20015342:	fdc42503          	lw	a0,-36(s0)
20015346:	d0dff0ef          	jal	ra,20015052 <__metal_driver_sifive_uart0_control_base>
2001534a:	87aa                	mv	a5,a0
2001534c:	fef42623          	sw	a5,-20(s0)
E:/GitHub/HiFive01-RevB/FS_workspace/004_UART_TXRX/freedom-metal/src/drivers/sifive_uart0.c:76

    return !!((UART_REGW(METAL_SIFIVE_UART0_TXDATA) & UART_TXFULL));
20015350:	fec42783          	lw	a5,-20(s0)
20015354:	439c                	lw	a5,0(a5)
20015356:	83fd                	srli	a5,a5,0x1f
20015358:	0ff7f793          	zext.b	a5,a5
E:/GitHub/HiFive01-RevB/FS_workspace/004_UART_TXRX/freedom-metal/src/drivers/sifive_uart0.c:77
}
2001535c:	853e                	mv	a0,a5
2001535e:	50b2                	lw	ra,44(sp)
20015360:	5422                	lw	s0,40(sp)
20015362:	6145                	addi	sp,sp,48
20015364:	8082                	ret

20015366 <__metal_driver_sifive_uart0_set_tx_watermark>:
__metal_driver_sifive_uart0_set_tx_watermark():
E:/GitHub/HiFive01-RevB/FS_workspace/004_UART_TXRX/freedom-metal/src/drivers/sifive_uart0.c:80

int __metal_driver_sifive_uart0_set_tx_watermark(struct metal_uart *uart,
                                                 size_t level) {
20015366:	7179                	addi	sp,sp,-48
20015368:	d606                	sw	ra,44(sp)
2001536a:	d422                	sw	s0,40(sp)
2001536c:	1800                	addi	s0,sp,48
2001536e:	fca42e23          	sw	a0,-36(s0)
20015372:	fcb42c23          	sw	a1,-40(s0)
E:/GitHub/HiFive01-RevB/FS_workspace/004_UART_TXRX/freedom-metal/src/drivers/sifive_uart0.c:81
    long control_base = __metal_driver_sifive_uart0_control_base(uart);
20015376:	fdc42503          	lw	a0,-36(s0)
2001537a:	cd9ff0ef          	jal	ra,20015052 <__metal_driver_sifive_uart0_control_base>
2001537e:	87aa                	mv	a5,a0
20015380:	fef42623          	sw	a5,-20(s0)
E:/GitHub/HiFive01-RevB/FS_workspace/004_UART_TXRX/freedom-metal/src/drivers/sifive_uart0.c:83

    UART_REGW(METAL_SIFIVE_UART0_TXCTRL) |= UART_TXCNT(level);
20015384:	fec42783          	lw	a5,-20(s0)
20015388:	07a1                	addi	a5,a5,8
2001538a:	4398                	lw	a4,0(a5)
2001538c:	fd842783          	lw	a5,-40(s0)
20015390:	01079693          	slli	a3,a5,0x10
20015394:	000707b7          	lui	a5,0x70
20015398:	8ff5                	and	a5,a5,a3
2001539a:	fec42683          	lw	a3,-20(s0)
2001539e:	06a1                	addi	a3,a3,8
200153a0:	8fd9                	or	a5,a5,a4
200153a2:	c29c                	sw	a5,0(a3)
E:/GitHub/HiFive01-RevB/FS_workspace/004_UART_TXRX/freedom-metal/src/drivers/sifive_uart0.c:84
    return 0;
200153a4:	4781                	li	a5,0
E:/GitHub/HiFive01-RevB/FS_workspace/004_UART_TXRX/freedom-metal/src/drivers/sifive_uart0.c:85
}
200153a6:	853e                	mv	a0,a5
200153a8:	50b2                	lw	ra,44(sp)
200153aa:	5422                	lw	s0,40(sp)
200153ac:	6145                	addi	sp,sp,48
200153ae:	8082                	ret

200153b0 <__metal_driver_sifive_uart0_get_tx_watermark>:
__metal_driver_sifive_uart0_get_tx_watermark():
E:/GitHub/HiFive01-RevB/FS_workspace/004_UART_TXRX/freedom-metal/src/drivers/sifive_uart0.c:87

size_t __metal_driver_sifive_uart0_get_tx_watermark(struct metal_uart *uart) {
200153b0:	7179                	addi	sp,sp,-48
200153b2:	d606                	sw	ra,44(sp)
200153b4:	d422                	sw	s0,40(sp)
200153b6:	1800                	addi	s0,sp,48
200153b8:	fca42e23          	sw	a0,-36(s0)
E:/GitHub/HiFive01-RevB/FS_workspace/004_UART_TXRX/freedom-metal/src/drivers/sifive_uart0.c:88
    long control_base = __metal_driver_sifive_uart0_control_base(uart);
200153bc:	fdc42503          	lw	a0,-36(s0)
200153c0:	c93ff0ef          	jal	ra,20015052 <__metal_driver_sifive_uart0_control_base>
200153c4:	87aa                	mv	a5,a0
200153c6:	fef42623          	sw	a5,-20(s0)
E:/GitHub/HiFive01-RevB/FS_workspace/004_UART_TXRX/freedom-metal/src/drivers/sifive_uart0.c:90

    return ((UART_REGW(METAL_SIFIVE_UART0_TXCTRL) >> 16) & 0x7);
200153ca:	fec42783          	lw	a5,-20(s0)
200153ce:	07a1                	addi	a5,a5,8
200153d0:	439c                	lw	a5,0(a5)
200153d2:	83c1                	srli	a5,a5,0x10
200153d4:	8b9d                	andi	a5,a5,7
E:/GitHub/HiFive01-RevB/FS_workspace/004_UART_TXRX/freedom-metal/src/drivers/sifive_uart0.c:91
}
200153d6:	853e                	mv	a0,a5
200153d8:	50b2                	lw	ra,44(sp)
200153da:	5422                	lw	s0,40(sp)
200153dc:	6145                	addi	sp,sp,48
200153de:	8082                	ret

200153e0 <__metal_driver_sifive_uart0_set_rx_watermark>:
__metal_driver_sifive_uart0_set_rx_watermark():
E:/GitHub/HiFive01-RevB/FS_workspace/004_UART_TXRX/freedom-metal/src/drivers/sifive_uart0.c:94

int __metal_driver_sifive_uart0_set_rx_watermark(struct metal_uart *uart,
                                                 size_t level) {
200153e0:	7179                	addi	sp,sp,-48
200153e2:	d606                	sw	ra,44(sp)
200153e4:	d422                	sw	s0,40(sp)
200153e6:	1800                	addi	s0,sp,48
200153e8:	fca42e23          	sw	a0,-36(s0)
200153ec:	fcb42c23          	sw	a1,-40(s0)
E:/GitHub/HiFive01-RevB/FS_workspace/004_UART_TXRX/freedom-metal/src/drivers/sifive_uart0.c:95
    long control_base = __metal_driver_sifive_uart0_control_base(uart);
200153f0:	fdc42503          	lw	a0,-36(s0)
200153f4:	c5fff0ef          	jal	ra,20015052 <__metal_driver_sifive_uart0_control_base>
200153f8:	87aa                	mv	a5,a0
200153fa:	fef42623          	sw	a5,-20(s0)
E:/GitHub/HiFive01-RevB/FS_workspace/004_UART_TXRX/freedom-metal/src/drivers/sifive_uart0.c:97

    UART_REGW(METAL_SIFIVE_UART0_RXCTRL) |= UART_RXCNT(level);
200153fe:	fec42783          	lw	a5,-20(s0)
20015402:	07b1                	addi	a5,a5,12
20015404:	4398                	lw	a4,0(a5)
20015406:	fd842783          	lw	a5,-40(s0)
2001540a:	01079693          	slli	a3,a5,0x10
2001540e:	000707b7          	lui	a5,0x70
20015412:	8ff5                	and	a5,a5,a3
20015414:	fec42683          	lw	a3,-20(s0)
20015418:	06b1                	addi	a3,a3,12
2001541a:	8fd9                	or	a5,a5,a4
2001541c:	c29c                	sw	a5,0(a3)
E:/GitHub/HiFive01-RevB/FS_workspace/004_UART_TXRX/freedom-metal/src/drivers/sifive_uart0.c:98
    return 0;
2001541e:	4781                	li	a5,0
E:/GitHub/HiFive01-RevB/FS_workspace/004_UART_TXRX/freedom-metal/src/drivers/sifive_uart0.c:99
}
20015420:	853e                	mv	a0,a5
20015422:	50b2                	lw	ra,44(sp)
20015424:	5422                	lw	s0,40(sp)
20015426:	6145                	addi	sp,sp,48
20015428:	8082                	ret

2001542a <__metal_driver_sifive_uart0_get_rx_watermark>:
__metal_driver_sifive_uart0_get_rx_watermark():
E:/GitHub/HiFive01-RevB/FS_workspace/004_UART_TXRX/freedom-metal/src/drivers/sifive_uart0.c:101

size_t __metal_driver_sifive_uart0_get_rx_watermark(struct metal_uart *uart) {
2001542a:	7179                	addi	sp,sp,-48
2001542c:	d606                	sw	ra,44(sp)
2001542e:	d422                	sw	s0,40(sp)
20015430:	1800                	addi	s0,sp,48
20015432:	fca42e23          	sw	a0,-36(s0)
E:/GitHub/HiFive01-RevB/FS_workspace/004_UART_TXRX/freedom-metal/src/drivers/sifive_uart0.c:102
    long control_base = __metal_driver_sifive_uart0_control_base(uart);
20015436:	fdc42503          	lw	a0,-36(s0)
2001543a:	c19ff0ef          	jal	ra,20015052 <__metal_driver_sifive_uart0_control_base>
2001543e:	87aa                	mv	a5,a0
20015440:	fef42623          	sw	a5,-20(s0)
E:/GitHub/HiFive01-RevB/FS_workspace/004_UART_TXRX/freedom-metal/src/drivers/sifive_uart0.c:104

    return ((UART_REGW(METAL_SIFIVE_UART0_RXCTRL) >> 16) & 0x7);
20015444:	fec42783          	lw	a5,-20(s0)
20015448:	07b1                	addi	a5,a5,12
2001544a:	439c                	lw	a5,0(a5)
2001544c:	83c1                	srli	a5,a5,0x10
2001544e:	8b9d                	andi	a5,a5,7
E:/GitHub/HiFive01-RevB/FS_workspace/004_UART_TXRX/freedom-metal/src/drivers/sifive_uart0.c:105
}
20015450:	853e                	mv	a0,a5
20015452:	50b2                	lw	ra,44(sp)
20015454:	5422                	lw	s0,40(sp)
20015456:	6145                	addi	sp,sp,48
20015458:	8082                	ret

2001545a <__metal_driver_sifive_uart0_putc>:
__metal_driver_sifive_uart0_putc():
E:/GitHub/HiFive01-RevB/FS_workspace/004_UART_TXRX/freedom-metal/src/drivers/sifive_uart0.c:107

int __metal_driver_sifive_uart0_putc(struct metal_uart *uart, int c) {
2001545a:	7179                	addi	sp,sp,-48
2001545c:	d606                	sw	ra,44(sp)
2001545e:	d422                	sw	s0,40(sp)
20015460:	1800                	addi	s0,sp,48
20015462:	fca42e23          	sw	a0,-36(s0)
20015466:	fcb42c23          	sw	a1,-40(s0)
E:/GitHub/HiFive01-RevB/FS_workspace/004_UART_TXRX/freedom-metal/src/drivers/sifive_uart0.c:108
    long control_base = __metal_driver_sifive_uart0_control_base(uart);
2001546a:	fdc42503          	lw	a0,-36(s0)
2001546e:	be5ff0ef          	jal	ra,20015052 <__metal_driver_sifive_uart0_control_base>
20015472:	87aa                	mv	a5,a0
20015474:	fef42623          	sw	a5,-20(s0)
E:/GitHub/HiFive01-RevB/FS_workspace/004_UART_TXRX/freedom-metal/src/drivers/sifive_uart0.c:110

    while (__metal_driver_sifive_uart0_txready(uart) != 0) {
20015478:	0001                	nop
E:/GitHub/HiFive01-RevB/FS_workspace/004_UART_TXRX/freedom-metal/src/drivers/sifive_uart0.c:110 (discriminator 1)
2001547a:	fdc42503          	lw	a0,-36(s0)
2001547e:	3d65                	jal	20015336 <__metal_driver_sifive_uart0_txready>
20015480:	87aa                	mv	a5,a0
20015482:	ffe5                	bnez	a5,2001547a <__metal_driver_sifive_uart0_putc+0x20>
E:/GitHub/HiFive01-RevB/FS_workspace/004_UART_TXRX/freedom-metal/src/drivers/sifive_uart0.c:113
        /* wait */
    }
    UART_REGW(METAL_SIFIVE_UART0_TXDATA) = c;
20015484:	fec42783          	lw	a5,-20(s0)
20015488:	fd842703          	lw	a4,-40(s0)
2001548c:	c398                	sw	a4,0(a5)
E:/GitHub/HiFive01-RevB/FS_workspace/004_UART_TXRX/freedom-metal/src/drivers/sifive_uart0.c:114
    return 0;
2001548e:	4781                	li	a5,0
E:/GitHub/HiFive01-RevB/FS_workspace/004_UART_TXRX/freedom-metal/src/drivers/sifive_uart0.c:115
}
20015490:	853e                	mv	a0,a5
20015492:	50b2                	lw	ra,44(sp)
20015494:	5422                	lw	s0,40(sp)
20015496:	6145                	addi	sp,sp,48
20015498:	8082                	ret

2001549a <__metal_driver_sifive_uart0_getc>:
__metal_driver_sifive_uart0_getc():
E:/GitHub/HiFive01-RevB/FS_workspace/004_UART_TXRX/freedom-metal/src/drivers/sifive_uart0.c:117

int __metal_driver_sifive_uart0_getc(struct metal_uart *uart, int *c) {
2001549a:	7179                	addi	sp,sp,-48
2001549c:	d606                	sw	ra,44(sp)
2001549e:	d422                	sw	s0,40(sp)
200154a0:	1800                	addi	s0,sp,48
200154a2:	fca42e23          	sw	a0,-36(s0)
200154a6:	fcb42c23          	sw	a1,-40(s0)
E:/GitHub/HiFive01-RevB/FS_workspace/004_UART_TXRX/freedom-metal/src/drivers/sifive_uart0.c:119
    uint32_t ch;
    long control_base = __metal_driver_sifive_uart0_control_base(uart);
200154aa:	fdc42503          	lw	a0,-36(s0)
200154ae:	ba5ff0ef          	jal	ra,20015052 <__metal_driver_sifive_uart0_control_base>
200154b2:	87aa                	mv	a5,a0
200154b4:	fef42623          	sw	a5,-20(s0)
E:/GitHub/HiFive01-RevB/FS_workspace/004_UART_TXRX/freedom-metal/src/drivers/sifive_uart0.c:121
    /* No seperate status register, we get status and the byte at same time */
    ch = UART_REGW(METAL_SIFIVE_UART0_RXDATA);
200154b8:	fec42783          	lw	a5,-20(s0)
200154bc:	0791                	addi	a5,a5,4
200154be:	439c                	lw	a5,0(a5)
200154c0:	fef42423          	sw	a5,-24(s0)
E:/GitHub/HiFive01-RevB/FS_workspace/004_UART_TXRX/freedom-metal/src/drivers/sifive_uart0.c:123
    ;
    if (ch & UART_RXEMPTY) {
200154c4:	fe842783          	lw	a5,-24(s0)
200154c8:	0007d763          	bgez	a5,200154d6 <__metal_driver_sifive_uart0_getc+0x3c>
E:/GitHub/HiFive01-RevB/FS_workspace/004_UART_TXRX/freedom-metal/src/drivers/sifive_uart0.c:124
        *c = -1; /* aka: EOF in most of the world */
200154cc:	fd842783          	lw	a5,-40(s0)
200154d0:	577d                	li	a4,-1
200154d2:	c398                	sw	a4,0(a5)
200154d4:	a801                	j	200154e4 <__metal_driver_sifive_uart0_getc+0x4a>
E:/GitHub/HiFive01-RevB/FS_workspace/004_UART_TXRX/freedom-metal/src/drivers/sifive_uart0.c:126
    } else {
        *c = ch & 0x0ff;
200154d6:	fe842783          	lw	a5,-24(s0)
200154da:	0ff7f713          	zext.b	a4,a5
200154de:	fd842783          	lw	a5,-40(s0)
200154e2:	c398                	sw	a4,0(a5)
E:/GitHub/HiFive01-RevB/FS_workspace/004_UART_TXRX/freedom-metal/src/drivers/sifive_uart0.c:128
    }
    return 0;
200154e4:	4781                	li	a5,0
E:/GitHub/HiFive01-RevB/FS_workspace/004_UART_TXRX/freedom-metal/src/drivers/sifive_uart0.c:129
}
200154e6:	853e                	mv	a0,a5
200154e8:	50b2                	lw	ra,44(sp)
200154ea:	5422                	lw	s0,40(sp)
200154ec:	6145                	addi	sp,sp,48
200154ee:	8082                	ret

200154f0 <__metal_driver_sifive_uart0_get_baud_rate>:
__metal_driver_sifive_uart0_get_baud_rate():
E:/GitHub/HiFive01-RevB/FS_workspace/004_UART_TXRX/freedom-metal/src/drivers/sifive_uart0.c:131

int __metal_driver_sifive_uart0_get_baud_rate(struct metal_uart *guart) {
200154f0:	7179                	addi	sp,sp,-48
200154f2:	d622                	sw	s0,44(sp)
200154f4:	1800                	addi	s0,sp,48
200154f6:	fca42e23          	sw	a0,-36(s0)
E:/GitHub/HiFive01-RevB/FS_workspace/004_UART_TXRX/freedom-metal/src/drivers/sifive_uart0.c:132
    struct __metal_driver_sifive_uart0 *uart = (void *)guart;
200154fa:	fdc42783          	lw	a5,-36(s0)
200154fe:	fef42623          	sw	a5,-20(s0)
E:/GitHub/HiFive01-RevB/FS_workspace/004_UART_TXRX/freedom-metal/src/drivers/sifive_uart0.c:133
    return uart->baud_rate;
20015502:	fec42783          	lw	a5,-20(s0)
20015506:	43dc                	lw	a5,4(a5)
E:/GitHub/HiFive01-RevB/FS_workspace/004_UART_TXRX/freedom-metal/src/drivers/sifive_uart0.c:134
}
20015508:	853e                	mv	a0,a5
2001550a:	5432                	lw	s0,44(sp)
2001550c:	6145                	addi	sp,sp,48
2001550e:	8082                	ret

20015510 <__metal_driver_sifive_uart0_set_baud_rate>:
__metal_driver_sifive_uart0_set_baud_rate():
E:/GitHub/HiFive01-RevB/FS_workspace/004_UART_TXRX/freedom-metal/src/drivers/sifive_uart0.c:137

int __metal_driver_sifive_uart0_set_baud_rate(struct metal_uart *guart,
                                              int baud_rate) {
20015510:	7179                	addi	sp,sp,-48
20015512:	d606                	sw	ra,44(sp)
20015514:	d422                	sw	s0,40(sp)
20015516:	1800                	addi	s0,sp,48
20015518:	fca42e23          	sw	a0,-36(s0)
2001551c:	fcb42c23          	sw	a1,-40(s0)
E:/GitHub/HiFive01-RevB/FS_workspace/004_UART_TXRX/freedom-metal/src/drivers/sifive_uart0.c:138
    struct __metal_driver_sifive_uart0 *uart = (void *)guart;
20015520:	fdc42783          	lw	a5,-36(s0)
20015524:	fef42623          	sw	a5,-20(s0)
E:/GitHub/HiFive01-RevB/FS_workspace/004_UART_TXRX/freedom-metal/src/drivers/sifive_uart0.c:139
    long control_base = __metal_driver_sifive_uart0_control_base(guart);
20015528:	fdc42503          	lw	a0,-36(s0)
2001552c:	b27ff0ef          	jal	ra,20015052 <__metal_driver_sifive_uart0_control_base>
20015530:	87aa                	mv	a5,a0
20015532:	fef42423          	sw	a5,-24(s0)
E:/GitHub/HiFive01-RevB/FS_workspace/004_UART_TXRX/freedom-metal/src/drivers/sifive_uart0.c:140
    struct metal_clock *clock = __metal_driver_sifive_uart0_clock(guart);
20015536:	fdc42503          	lw	a0,-36(s0)
2001553a:	bddff0ef          	jal	ra,20015116 <__metal_driver_sifive_uart0_clock>
2001553e:	fea42223          	sw	a0,-28(s0)
E:/GitHub/HiFive01-RevB/FS_workspace/004_UART_TXRX/freedom-metal/src/drivers/sifive_uart0.c:142

    uart->baud_rate = baud_rate;
20015542:	fd842703          	lw	a4,-40(s0)
20015546:	fec42783          	lw	a5,-20(s0)
2001554a:	c3d8                	sw	a4,4(a5)
E:/GitHub/HiFive01-RevB/FS_workspace/004_UART_TXRX/freedom-metal/src/drivers/sifive_uart0.c:144

    if (clock != NULL) {
2001554c:	fe442783          	lw	a5,-28(s0)
20015550:	cbb1                	beqz	a5,200155a4 <__metal_driver_sifive_uart0_set_baud_rate+0x94>
E:/GitHub/HiFive01-RevB/FS_workspace/004_UART_TXRX/freedom-metal/src/drivers/sifive_uart0.c:145
        long clock_rate = clock->vtable->get_rate_hz(clock);
20015552:	fe442783          	lw	a5,-28(s0)
20015556:	439c                	lw	a5,0(a5)
20015558:	439c                	lw	a5,0(a5)
2001555a:	fe442503          	lw	a0,-28(s0)
2001555e:	9782                	jalr	a5
20015560:	fea42023          	sw	a0,-32(s0)
E:/GitHub/HiFive01-RevB/FS_workspace/004_UART_TXRX/freedom-metal/src/drivers/sifive_uart0.c:146
        UART_REGW(METAL_SIFIVE_UART0_DIV) = clock_rate / baud_rate - 1;
20015564:	fe042703          	lw	a4,-32(s0)
20015568:	fd842783          	lw	a5,-40(s0)
2001556c:	02f747b3          	div	a5,a4,a5
20015570:	fff78713          	addi	a4,a5,-1 # 6ffff <__heap_size+0x6f7ff>
20015574:	fe842783          	lw	a5,-24(s0)
20015578:	07e1                	addi	a5,a5,24
2001557a:	c398                	sw	a4,0(a5)
E:/GitHub/HiFive01-RevB/FS_workspace/004_UART_TXRX/freedom-metal/src/drivers/sifive_uart0.c:147
        UART_REGW(METAL_SIFIVE_UART0_TXCTRL) |= UART_TXEN;
2001557c:	fe842783          	lw	a5,-24(s0)
20015580:	07a1                	addi	a5,a5,8
20015582:	439c                	lw	a5,0(a5)
20015584:	fe842703          	lw	a4,-24(s0)
20015588:	0721                	addi	a4,a4,8
2001558a:	0017e793          	ori	a5,a5,1
2001558e:	c31c                	sw	a5,0(a4)
E:/GitHub/HiFive01-RevB/FS_workspace/004_UART_TXRX/freedom-metal/src/drivers/sifive_uart0.c:148
        UART_REGW(METAL_SIFIVE_UART0_RXCTRL) |= UART_RXEN;
20015590:	fe842783          	lw	a5,-24(s0)
20015594:	07b1                	addi	a5,a5,12
20015596:	439c                	lw	a5,0(a5)
20015598:	fe842703          	lw	a4,-24(s0)
2001559c:	0731                	addi	a4,a4,12
2001559e:	0017e793          	ori	a5,a5,1
200155a2:	c31c                	sw	a5,0(a4)
E:/GitHub/HiFive01-RevB/FS_workspace/004_UART_TXRX/freedom-metal/src/drivers/sifive_uart0.c:150
    }
    return 0;
200155a4:	4781                	li	a5,0
E:/GitHub/HiFive01-RevB/FS_workspace/004_UART_TXRX/freedom-metal/src/drivers/sifive_uart0.c:151
}
200155a6:	853e                	mv	a0,a5
200155a8:	50b2                	lw	ra,44(sp)
200155aa:	5422                	lw	s0,40(sp)
200155ac:	6145                	addi	sp,sp,48
200155ae:	8082                	ret

200155b0 <pre_rate_change_callback_func>:
pre_rate_change_callback_func():
E:/GitHub/HiFive01-RevB/FS_workspace/004_UART_TXRX/freedom-metal/src/drivers/sifive_uart0.c:153

static void pre_rate_change_callback_func(void *priv) {
200155b0:	7139                	addi	sp,sp,-64
200155b2:	de06                	sw	ra,60(sp)
200155b4:	dc22                	sw	s0,56(sp)
200155b6:	0080                	addi	s0,sp,64
200155b8:	fca42623          	sw	a0,-52(s0)
E:/GitHub/HiFive01-RevB/FS_workspace/004_UART_TXRX/freedom-metal/src/drivers/sifive_uart0.c:154
    struct __metal_driver_sifive_uart0 *uart = priv;
200155bc:	fcc42783          	lw	a5,-52(s0)
200155c0:	fef42623          	sw	a5,-20(s0)
E:/GitHub/HiFive01-RevB/FS_workspace/004_UART_TXRX/freedom-metal/src/drivers/sifive_uart0.c:156
    long control_base =
        __metal_driver_sifive_uart0_control_base((struct metal_uart *)priv);
200155c4:	fcc42503          	lw	a0,-52(s0)
200155c8:	a8bff0ef          	jal	ra,20015052 <__metal_driver_sifive_uart0_control_base>
200155cc:	87aa                	mv	a5,a0
E:/GitHub/HiFive01-RevB/FS_workspace/004_UART_TXRX/freedom-metal/src/drivers/sifive_uart0.c:155
    long control_base =
200155ce:	fef42423          	sw	a5,-24(s0)
E:/GitHub/HiFive01-RevB/FS_workspace/004_UART_TXRX/freedom-metal/src/drivers/sifive_uart0.c:158
    struct metal_clock *clock =
        __metal_driver_sifive_uart0_clock((struct metal_uart *)priv);
200155d2:	fcc42503          	lw	a0,-52(s0)
200155d6:	b41ff0ef          	jal	ra,20015116 <__metal_driver_sifive_uart0_clock>
200155da:	fea42223          	sw	a0,-28(s0)
E:/GitHub/HiFive01-RevB/FS_workspace/004_UART_TXRX/freedom-metal/src/drivers/sifive_uart0.c:163

    /* Detect when the TXDATA is empty by setting the transmit watermark count
     * to one and waiting until an interrupt is pending */

    UART_REGW(METAL_SIFIVE_UART0_TXCTRL) &= ~(UART_TXCNT(0x7));
200155de:	fe842783          	lw	a5,-24(s0)
200155e2:	07a1                	addi	a5,a5,8
200155e4:	4398                	lw	a4,0(a5)
200155e6:	fe842783          	lw	a5,-24(s0)
200155ea:	07a1                	addi	a5,a5,8
200155ec:	86be                	mv	a3,a5
200155ee:	fff907b7          	lui	a5,0xfff90
200155f2:	17fd                	addi	a5,a5,-1
200155f4:	8ff9                	and	a5,a5,a4
200155f6:	c29c                	sw	a5,0(a3)
E:/GitHub/HiFive01-RevB/FS_workspace/004_UART_TXRX/freedom-metal/src/drivers/sifive_uart0.c:164
    UART_REGW(METAL_SIFIVE_UART0_TXCTRL) |= UART_TXCNT(1);
200155f8:	fe842783          	lw	a5,-24(s0)
200155fc:	07a1                	addi	a5,a5,8
200155fe:	4398                	lw	a4,0(a5)
20015600:	fe842783          	lw	a5,-24(s0)
20015604:	07a1                	addi	a5,a5,8
20015606:	86be                	mv	a3,a5
20015608:	67c1                	lui	a5,0x10
2001560a:	8fd9                	or	a5,a5,a4
2001560c:	c29c                	sw	a5,0(a3)
E:/GitHub/HiFive01-RevB/FS_workspace/004_UART_TXRX/freedom-metal/src/drivers/sifive_uart0.c:166

    while ((UART_REGW(METAL_SIFIVE_UART0_IP) & UART_TXWM) == 0)
2001560e:	0001                	nop
E:/GitHub/HiFive01-RevB/FS_workspace/004_UART_TXRX/freedom-metal/src/drivers/sifive_uart0.c:166 (discriminator 1)
20015610:	fe842783          	lw	a5,-24(s0)
20015614:	07d1                	addi	a5,a5,20
20015616:	439c                	lw	a5,0(a5)
20015618:	8b85                	andi	a5,a5,1
2001561a:	dbfd                	beqz	a5,20015610 <pre_rate_change_callback_func+0x60>
E:/GitHub/HiFive01-RevB/FS_workspace/004_UART_TXRX/freedom-metal/src/drivers/sifive_uart0.c:174
    /* When the TXDATA clears, the UART is still shifting out the last byte.
     * Calculate the time we must drain to finish transmitting and then wait
     * that long. */

    long bits_per_symbol =
        (UART_REGW(METAL_SIFIVE_UART0_TXCTRL) & (1 << 1)) ? 9 : 10;
2001561c:	fe842783          	lw	a5,-24(s0)
20015620:	07a1                	addi	a5,a5,8
20015622:	439c                	lw	a5,0(a5)
20015624:	8b89                	andi	a5,a5,2
20015626:	c399                	beqz	a5,2001562c <pre_rate_change_callback_func+0x7c>
E:/GitHub/HiFive01-RevB/FS_workspace/004_UART_TXRX/freedom-metal/src/drivers/sifive_uart0.c:174 (discriminator 1)
20015628:	47a5                	li	a5,9
2001562a:	a011                	j	2001562e <pre_rate_change_callback_func+0x7e>
E:/GitHub/HiFive01-RevB/FS_workspace/004_UART_TXRX/freedom-metal/src/drivers/sifive_uart0.c:174 (discriminator 2)
2001562c:	47a9                	li	a5,10
E:/GitHub/HiFive01-RevB/FS_workspace/004_UART_TXRX/freedom-metal/src/drivers/sifive_uart0.c:173
    long bits_per_symbol =
2001562e:	fef42023          	sw	a5,-32(s0)
E:/GitHub/HiFive01-RevB/FS_workspace/004_UART_TXRX/freedom-metal/src/drivers/sifive_uart0.c:175
    long clk_freq = clock->vtable->get_rate_hz(clock);
20015632:	fe442783          	lw	a5,-28(s0)
20015636:	439c                	lw	a5,0(a5)
20015638:	439c                	lw	a5,0(a5)
2001563a:	fe442503          	lw	a0,-28(s0)
2001563e:	9782                	jalr	a5
20015640:	fca42e23          	sw	a0,-36(s0)
E:/GitHub/HiFive01-RevB/FS_workspace/004_UART_TXRX/freedom-metal/src/drivers/sifive_uart0.c:176
    long cycles_to_wait = bits_per_symbol * clk_freq / uart->baud_rate;
20015644:	fe042703          	lw	a4,-32(s0)
20015648:	fdc42783          	lw	a5,-36(s0)
2001564c:	02f707b3          	mul	a5,a4,a5
20015650:	873e                	mv	a4,a5
20015652:	fec42783          	lw	a5,-20(s0)
20015656:	43dc                	lw	a5,4(a5)
20015658:	02f757b3          	divu	a5,a4,a5
2001565c:	fcf42c23          	sw	a5,-40(s0)
E:/GitHub/HiFive01-RevB/FS_workspace/004_UART_TXRX/freedom-metal/src/drivers/sifive_uart0.c:178

    for (volatile long x = 0; x < cycles_to_wait; x++)
20015660:	fc042a23          	sw	zero,-44(s0)
20015664:	a039                	j	20015672 <pre_rate_change_callback_func+0xc2>
E:/GitHub/HiFive01-RevB/FS_workspace/004_UART_TXRX/freedom-metal/src/drivers/sifive_uart0.c:179 (discriminator 3)
        __asm__("nop");
20015666:	0001                	nop
E:/GitHub/HiFive01-RevB/FS_workspace/004_UART_TXRX/freedom-metal/src/drivers/sifive_uart0.c:178 (discriminator 3)
    for (volatile long x = 0; x < cycles_to_wait; x++)
20015668:	fd442783          	lw	a5,-44(s0)
2001566c:	0785                	addi	a5,a5,1
2001566e:	fcf42a23          	sw	a5,-44(s0)
E:/GitHub/HiFive01-RevB/FS_workspace/004_UART_TXRX/freedom-metal/src/drivers/sifive_uart0.c:178 (discriminator 1)
20015672:	fd442783          	lw	a5,-44(s0)
20015676:	fd842703          	lw	a4,-40(s0)
2001567a:	fee7c6e3          	blt	a5,a4,20015666 <pre_rate_change_callback_func+0xb6>
E:/GitHub/HiFive01-RevB/FS_workspace/004_UART_TXRX/freedom-metal/src/drivers/sifive_uart0.c:180
}
2001567e:	0001                	nop
20015680:	0001                	nop
20015682:	50f2                	lw	ra,60(sp)
20015684:	5462                	lw	s0,56(sp)
20015686:	6121                	addi	sp,sp,64
20015688:	8082                	ret

2001568a <post_rate_change_callback_func>:
post_rate_change_callback_func():
E:/GitHub/HiFive01-RevB/FS_workspace/004_UART_TXRX/freedom-metal/src/drivers/sifive_uart0.c:182

static void post_rate_change_callback_func(void *priv) {
2001568a:	7179                	addi	sp,sp,-48
2001568c:	d606                	sw	ra,44(sp)
2001568e:	d422                	sw	s0,40(sp)
20015690:	1800                	addi	s0,sp,48
20015692:	fca42e23          	sw	a0,-36(s0)
E:/GitHub/HiFive01-RevB/FS_workspace/004_UART_TXRX/freedom-metal/src/drivers/sifive_uart0.c:183
    struct __metal_driver_sifive_uart0 *uart = priv;
20015696:	fdc42783          	lw	a5,-36(s0)
2001569a:	fef42623          	sw	a5,-20(s0)
E:/GitHub/HiFive01-RevB/FS_workspace/004_UART_TXRX/freedom-metal/src/drivers/sifive_uart0.c:184
    metal_uart_set_baud_rate(&uart->uart, uart->baud_rate);
2001569e:	fec42703          	lw	a4,-20(s0)
200156a2:	fec42783          	lw	a5,-20(s0)
200156a6:	43dc                	lw	a5,4(a5)
200156a8:	85be                	mv	a1,a5
200156aa:	853a                	mv	a0,a4
200156ac:	2b41                	jal	20015c3c <metal_uart_set_baud_rate>
E:/GitHub/HiFive01-RevB/FS_workspace/004_UART_TXRX/freedom-metal/src/drivers/sifive_uart0.c:185
}
200156ae:	0001                	nop
200156b0:	50b2                	lw	ra,44(sp)
200156b2:	5422                	lw	s0,40(sp)
200156b4:	6145                	addi	sp,sp,48
200156b6:	8082                	ret

200156b8 <__metal_driver_sifive_uart0_init>:
__metal_driver_sifive_uart0_init():
E:/GitHub/HiFive01-RevB/FS_workspace/004_UART_TXRX/freedom-metal/src/drivers/sifive_uart0.c:187

void __metal_driver_sifive_uart0_init(struct metal_uart *guart, int baud_rate) {
200156b8:	7139                	addi	sp,sp,-64
200156ba:	de06                	sw	ra,60(sp)
200156bc:	dc22                	sw	s0,56(sp)
200156be:	0080                	addi	s0,sp,64
200156c0:	fca42623          	sw	a0,-52(s0)
200156c4:	fcb42423          	sw	a1,-56(s0)
E:/GitHub/HiFive01-RevB/FS_workspace/004_UART_TXRX/freedom-metal/src/drivers/sifive_uart0.c:188
    struct __metal_driver_sifive_uart0 *uart = (void *)(guart);
200156c8:	fcc42783          	lw	a5,-52(s0)
200156cc:	fef42623          	sw	a5,-20(s0)
E:/GitHub/HiFive01-RevB/FS_workspace/004_UART_TXRX/freedom-metal/src/drivers/sifive_uart0.c:189
    struct metal_clock *clock = __metal_driver_sifive_uart0_clock(guart);
200156d0:	fcc42503          	lw	a0,-52(s0)
200156d4:	a43ff0ef          	jal	ra,20015116 <__metal_driver_sifive_uart0_clock>
200156d8:	fea42423          	sw	a0,-24(s0)
E:/GitHub/HiFive01-RevB/FS_workspace/004_UART_TXRX/freedom-metal/src/drivers/sifive_uart0.c:191
    struct __metal_driver_sifive_gpio0 *pinmux =
        __metal_driver_sifive_uart0_pinmux(guart);
200156dc:	fcc42503          	lw	a0,-52(s0)
200156e0:	a7fff0ef          	jal	ra,2001515e <__metal_driver_sifive_uart0_pinmux>
200156e4:	fea42223          	sw	a0,-28(s0)
E:/GitHub/HiFive01-RevB/FS_workspace/004_UART_TXRX/freedom-metal/src/drivers/sifive_uart0.c:193

    if (clock != NULL) {
200156e8:	fe842783          	lw	a5,-24(s0)
200156ec:	c7b9                	beqz	a5,2001573a <__metal_driver_sifive_uart0_init+0x82>
E:/GitHub/HiFive01-RevB/FS_workspace/004_UART_TXRX/freedom-metal/src/drivers/sifive_uart0.c:194
        uart->pre_rate_change_callback.callback =
200156ee:	fec42783          	lw	a5,-20(s0)
200156f2:	20015737          	lui	a4,0x20015
200156f6:	5b070713          	addi	a4,a4,1456 # 200155b0 <pre_rate_change_callback_func>
200156fa:	c798                	sw	a4,8(a5)
E:/GitHub/HiFive01-RevB/FS_workspace/004_UART_TXRX/freedom-metal/src/drivers/sifive_uart0.c:196
            &pre_rate_change_callback_func;
        uart->pre_rate_change_callback.priv = guart;
200156fc:	fec42783          	lw	a5,-20(s0)
20015700:	fcc42703          	lw	a4,-52(s0)
20015704:	c7d8                	sw	a4,12(a5)
E:/GitHub/HiFive01-RevB/FS_workspace/004_UART_TXRX/freedom-metal/src/drivers/sifive_uart0.c:197
        metal_clock_register_pre_rate_change_callback(
20015706:	fec42783          	lw	a5,-20(s0)
2001570a:	07a1                	addi	a5,a5,8
2001570c:	85be                	mv	a1,a5
2001570e:	fe842503          	lw	a0,-24(s0)
20015712:	2aad                	jal	2001588c <metal_clock_register_pre_rate_change_callback>
E:/GitHub/HiFive01-RevB/FS_workspace/004_UART_TXRX/freedom-metal/src/drivers/sifive_uart0.c:200
            clock, &(uart->pre_rate_change_callback));

        uart->post_rate_change_callback.callback =
20015714:	fec42783          	lw	a5,-20(s0)
20015718:	20015737          	lui	a4,0x20015
2001571c:	68a70713          	addi	a4,a4,1674 # 2001568a <post_rate_change_callback_func>
20015720:	cbd8                	sw	a4,20(a5)
E:/GitHub/HiFive01-RevB/FS_workspace/004_UART_TXRX/freedom-metal/src/drivers/sifive_uart0.c:202
            &post_rate_change_callback_func;
        uart->post_rate_change_callback.priv = guart;
20015722:	fec42783          	lw	a5,-20(s0)
20015726:	fcc42703          	lw	a4,-52(s0)
2001572a:	cf98                	sw	a4,24(a5)
E:/GitHub/HiFive01-RevB/FS_workspace/004_UART_TXRX/freedom-metal/src/drivers/sifive_uart0.c:203
        metal_clock_register_post_rate_change_callback(
2001572c:	fec42783          	lw	a5,-20(s0)
20015730:	07d1                	addi	a5,a5,20
20015732:	85be                	mv	a1,a5
20015734:	fe842503          	lw	a0,-24(s0)
20015738:	2251                	jal	200158bc <metal_clock_register_post_rate_change_callback>
E:/GitHub/HiFive01-RevB/FS_workspace/004_UART_TXRX/freedom-metal/src/drivers/sifive_uart0.c:207
            clock, &(uart->post_rate_change_callback));
    }

    metal_uart_set_baud_rate(&(uart->uart), baud_rate);
2001573a:	fec42783          	lw	a5,-20(s0)
2001573e:	fc842583          	lw	a1,-56(s0)
20015742:	853e                	mv	a0,a5
20015744:	29e5                	jal	20015c3c <metal_uart_set_baud_rate>
E:/GitHub/HiFive01-RevB/FS_workspace/004_UART_TXRX/freedom-metal/src/drivers/sifive_uart0.c:209

    if (pinmux != NULL) {
20015746:	fe442783          	lw	a5,-28(s0)
2001574a:	cb95                	beqz	a5,2001577e <__metal_driver_sifive_uart0_init+0xc6>
E:/GitHub/HiFive01-RevB/FS_workspace/004_UART_TXRX/freedom-metal/src/drivers/sifive_uart0.c:211
        long pinmux_output_selector =
            __metal_driver_sifive_uart0_pinmux_output_selector(guart);
2001574c:	fcc42503          	lw	a0,-52(s0)
20015750:	a4fff0ef          	jal	ra,2001519e <__metal_driver_sifive_uart0_pinmux_output_selector>
20015754:	87aa                	mv	a5,a0
E:/GitHub/HiFive01-RevB/FS_workspace/004_UART_TXRX/freedom-metal/src/drivers/sifive_uart0.c:210
        long pinmux_output_selector =
20015756:	fef42023          	sw	a5,-32(s0)
E:/GitHub/HiFive01-RevB/FS_workspace/004_UART_TXRX/freedom-metal/src/drivers/sifive_uart0.c:213
        long pinmux_source_selector =
            __metal_driver_sifive_uart0_pinmux_source_selector(guart);
2001575a:	fcc42503          	lw	a0,-52(s0)
2001575e:	a7dff0ef          	jal	ra,200151da <__metal_driver_sifive_uart0_pinmux_source_selector>
20015762:	87aa                	mv	a5,a0
E:/GitHub/HiFive01-RevB/FS_workspace/004_UART_TXRX/freedom-metal/src/drivers/sifive_uart0.c:212
        long pinmux_source_selector =
20015764:	fcf42e23          	sw	a5,-36(s0)
E:/GitHub/HiFive01-RevB/FS_workspace/004_UART_TXRX/freedom-metal/src/drivers/sifive_uart0.c:214
        pinmux->gpio.vtable->enable_io((struct metal_gpio *)pinmux,
20015768:	fe442783          	lw	a5,-28(s0)
2001576c:	439c                	lw	a5,0(a5)
2001576e:	53dc                	lw	a5,36(a5)
20015770:	fdc42603          	lw	a2,-36(s0)
20015774:	fe042583          	lw	a1,-32(s0)
20015778:	fe442503          	lw	a0,-28(s0)
2001577c:	9782                	jalr	a5
E:/GitHub/HiFive01-RevB/FS_workspace/004_UART_TXRX/freedom-metal/src/drivers/sifive_uart0.c:218
                                       pinmux_output_selector,
                                       pinmux_source_selector);
    }
}
2001577e:	0001                	nop
20015780:	50f2                	lw	ra,60(sp)
20015782:	5462                	lw	s0,56(sp)
20015784:	6121                	addi	sp,sp,64
20015786:	8082                	ret

20015788 <_metal_clock_call_all_callbacks>:
_metal_clock_call_all_callbacks():
E:/GitHub/HiFive01-RevB/FS_workspace/004_UART_TXRX/freedom-metal/metal/clock.h:50

/*!
 * @brief Call all callbacks in the linked list, if any are registered
 */
__inline__ void
_metal_clock_call_all_callbacks(const metal_clock_callback *const list) {
20015788:	7179                	addi	sp,sp,-48
2001578a:	d606                	sw	ra,44(sp)
2001578c:	d422                	sw	s0,40(sp)
2001578e:	1800                	addi	s0,sp,48
20015790:	fca42e23          	sw	a0,-36(s0)
E:/GitHub/HiFive01-RevB/FS_workspace/004_UART_TXRX/freedom-metal/metal/clock.h:51
    const metal_clock_callback *current = list;
20015794:	fdc42783          	lw	a5,-36(s0)
20015798:	fef42623          	sw	a5,-20(s0)
E:/GitHub/HiFive01-RevB/FS_workspace/004_UART_TXRX/freedom-metal/metal/clock.h:52
    while (current) {
2001579c:	a831                	j	200157b8 <_metal_clock_call_all_callbacks+0x30>
E:/GitHub/HiFive01-RevB/FS_workspace/004_UART_TXRX/freedom-metal/metal/clock.h:53
        current->callback(current->priv);
2001579e:	fec42783          	lw	a5,-20(s0)
200157a2:	4398                	lw	a4,0(a5)
200157a4:	fec42783          	lw	a5,-20(s0)
200157a8:	43dc                	lw	a5,4(a5)
200157aa:	853e                	mv	a0,a5
200157ac:	9702                	jalr	a4
E:/GitHub/HiFive01-RevB/FS_workspace/004_UART_TXRX/freedom-metal/metal/clock.h:54
        current = current->_next;
200157ae:	fec42783          	lw	a5,-20(s0)
200157b2:	479c                	lw	a5,8(a5)
200157b4:	fef42623          	sw	a5,-20(s0)
E:/GitHub/HiFive01-RevB/FS_workspace/004_UART_TXRX/freedom-metal/metal/clock.h:52
    while (current) {
200157b8:	fec42783          	lw	a5,-20(s0)
200157bc:	f3ed                	bnez	a5,2001579e <_metal_clock_call_all_callbacks+0x16>
E:/GitHub/HiFive01-RevB/FS_workspace/004_UART_TXRX/freedom-metal/metal/clock.h:56
    }
}
200157be:	0001                	nop
200157c0:	0001                	nop
200157c2:	50b2                	lw	ra,44(sp)
200157c4:	5422                	lw	s0,40(sp)
200157c6:	6145                	addi	sp,sp,48
200157c8:	8082                	ret

200157ca <_metal_clock_append_to_callbacks>:
_metal_clock_append_to_callbacks():
E:/GitHub/HiFive01-RevB/FS_workspace/004_UART_TXRX/freedom-metal/metal/clock.h:63
/*!
 * @brief Append a callback to the linked list and return the head of the list
 */
__inline__ metal_clock_callback *
_metal_clock_append_to_callbacks(metal_clock_callback *list,
                                 metal_clock_callback *const cb) {
200157ca:	7179                	addi	sp,sp,-48
200157cc:	d622                	sw	s0,44(sp)
200157ce:	1800                	addi	s0,sp,48
200157d0:	fca42e23          	sw	a0,-36(s0)
200157d4:	fcb42c23          	sw	a1,-40(s0)
E:/GitHub/HiFive01-RevB/FS_workspace/004_UART_TXRX/freedom-metal/metal/clock.h:64
    cb->_next = NULL;
200157d8:	fd842783          	lw	a5,-40(s0)
200157dc:	0007a423          	sw	zero,8(a5) # 10008 <__heap_size+0xf808>
E:/GitHub/HiFive01-RevB/FS_workspace/004_UART_TXRX/freedom-metal/metal/clock.h:66

    if (!list) {
200157e0:	fdc42783          	lw	a5,-36(s0)
200157e4:	e781                	bnez	a5,200157ec <_metal_clock_append_to_callbacks+0x22>
E:/GitHub/HiFive01-RevB/FS_workspace/004_UART_TXRX/freedom-metal/metal/clock.h:67
        return cb;
200157e6:	fd842783          	lw	a5,-40(s0)
200157ea:	a035                	j	20015816 <_metal_clock_append_to_callbacks+0x4c>
E:/GitHub/HiFive01-RevB/FS_workspace/004_UART_TXRX/freedom-metal/metal/clock.h:70
    }

    metal_clock_callback *current = list;
200157ec:	fdc42783          	lw	a5,-36(s0)
200157f0:	fef42623          	sw	a5,-20(s0)
E:/GitHub/HiFive01-RevB/FS_workspace/004_UART_TXRX/freedom-metal/metal/clock.h:72

    while ((current->_next) != NULL) {
200157f4:	a031                	j	20015800 <_metal_clock_append_to_callbacks+0x36>
E:/GitHub/HiFive01-RevB/FS_workspace/004_UART_TXRX/freedom-metal/metal/clock.h:73
        current = current->_next;
200157f6:	fec42783          	lw	a5,-20(s0)
200157fa:	479c                	lw	a5,8(a5)
200157fc:	fef42623          	sw	a5,-20(s0)
E:/GitHub/HiFive01-RevB/FS_workspace/004_UART_TXRX/freedom-metal/metal/clock.h:72
    while ((current->_next) != NULL) {
20015800:	fec42783          	lw	a5,-20(s0)
20015804:	479c                	lw	a5,8(a5)
20015806:	fbe5                	bnez	a5,200157f6 <_metal_clock_append_to_callbacks+0x2c>
E:/GitHub/HiFive01-RevB/FS_workspace/004_UART_TXRX/freedom-metal/metal/clock.h:76
    }

    current->_next = cb;
20015808:	fec42783          	lw	a5,-20(s0)
2001580c:	fd842703          	lw	a4,-40(s0)
20015810:	c798                	sw	a4,8(a5)
E:/GitHub/HiFive01-RevB/FS_workspace/004_UART_TXRX/freedom-metal/metal/clock.h:78

    return list;
20015812:	fdc42783          	lw	a5,-36(s0)
E:/GitHub/HiFive01-RevB/FS_workspace/004_UART_TXRX/freedom-metal/metal/clock.h:79
}
20015816:	853e                	mv	a0,a5
20015818:	5432                	lw	s0,44(sp)
2001581a:	6145                	addi	sp,sp,48
2001581c:	8082                	ret

2001581e <metal_clock_get_rate_hz>:
metal_clock_get_rate_hz():
E:/GitHub/HiFive01-RevB/FS_workspace/004_UART_TXRX/freedom-metal/metal/clock.h:110
 * @brief Returns the current rate of the given clock
 *
 * @param clk The handle for the clock
 * @return The current rate of the clock in Hz
 */
__inline__ long metal_clock_get_rate_hz(const struct metal_clock *clk) {
2001581e:	1101                	addi	sp,sp,-32
20015820:	ce06                	sw	ra,28(sp)
20015822:	cc22                	sw	s0,24(sp)
20015824:	1000                	addi	s0,sp,32
20015826:	fea42623          	sw	a0,-20(s0)
E:/GitHub/HiFive01-RevB/FS_workspace/004_UART_TXRX/freedom-metal/metal/clock.h:111
    return clk->vtable->get_rate_hz(clk);
2001582a:	fec42783          	lw	a5,-20(s0)
2001582e:	439c                	lw	a5,0(a5)
20015830:	439c                	lw	a5,0(a5)
20015832:	fec42503          	lw	a0,-20(s0)
20015836:	9782                	jalr	a5
20015838:	87aa                	mv	a5,a0
E:/GitHub/HiFive01-RevB/FS_workspace/004_UART_TXRX/freedom-metal/metal/clock.h:112
}
2001583a:	853e                	mv	a0,a5
2001583c:	40f2                	lw	ra,28(sp)
2001583e:	4462                	lw	s0,24(sp)
20015840:	6105                	addi	sp,sp,32
20015842:	8082                	ret

20015844 <metal_clock_set_rate_hz>:
metal_clock_set_rate_hz():
E:/GitHub/HiFive01-RevB/FS_workspace/004_UART_TXRX/freedom-metal/metal/clock.h:128
 * could be anything!
 *
 * Prior to and after the rate change of the clock, this will call the
 * registered pre- and post-rate change callbacks.
 */
__inline__ long metal_clock_set_rate_hz(struct metal_clock *clk, long hz) {
20015844:	7179                	addi	sp,sp,-48
20015846:	d606                	sw	ra,44(sp)
20015848:	d422                	sw	s0,40(sp)
2001584a:	1800                	addi	s0,sp,48
2001584c:	fca42e23          	sw	a0,-36(s0)
20015850:	fcb42c23          	sw	a1,-40(s0)
E:/GitHub/HiFive01-RevB/FS_workspace/004_UART_TXRX/freedom-metal/metal/clock.h:129
    _metal_clock_call_all_callbacks(clk->_pre_rate_change_callback);
20015854:	fdc42783          	lw	a5,-36(s0)
20015858:	43dc                	lw	a5,4(a5)
2001585a:	853e                	mv	a0,a5
2001585c:	3735                	jal	20015788 <_metal_clock_call_all_callbacks>
E:/GitHub/HiFive01-RevB/FS_workspace/004_UART_TXRX/freedom-metal/metal/clock.h:131

    long out = clk->vtable->set_rate_hz(clk, hz);
2001585e:	fdc42783          	lw	a5,-36(s0)
20015862:	439c                	lw	a5,0(a5)
20015864:	43dc                	lw	a5,4(a5)
20015866:	fd842583          	lw	a1,-40(s0)
2001586a:	fdc42503          	lw	a0,-36(s0)
2001586e:	9782                	jalr	a5
20015870:	fea42623          	sw	a0,-20(s0)
E:/GitHub/HiFive01-RevB/FS_workspace/004_UART_TXRX/freedom-metal/metal/clock.h:133

    _metal_clock_call_all_callbacks(clk->_post_rate_change_callback);
20015874:	fdc42783          	lw	a5,-36(s0)
20015878:	479c                	lw	a5,8(a5)
2001587a:	853e                	mv	a0,a5
2001587c:	3731                	jal	20015788 <_metal_clock_call_all_callbacks>
E:/GitHub/HiFive01-RevB/FS_workspace/004_UART_TXRX/freedom-metal/metal/clock.h:135

    return out;
2001587e:	fec42783          	lw	a5,-20(s0)
E:/GitHub/HiFive01-RevB/FS_workspace/004_UART_TXRX/freedom-metal/metal/clock.h:136
}
20015882:	853e                	mv	a0,a5
20015884:	50b2                	lw	ra,44(sp)
20015886:	5422                	lw	s0,40(sp)
20015888:	6145                	addi	sp,sp,48
2001588a:	8082                	ret

2001588c <metal_clock_register_pre_rate_change_callback>:
metal_clock_register_pre_rate_change_callback():
E:/GitHub/HiFive01-RevB/FS_workspace/004_UART_TXRX/freedom-metal/metal/clock.h:146
 * @param clk The handle for the clock
 * @param cb The callback to be registered
 */
__inline__ void
metal_clock_register_pre_rate_change_callback(struct metal_clock *clk,
                                              metal_clock_callback *cb) {
2001588c:	1101                	addi	sp,sp,-32
2001588e:	ce06                	sw	ra,28(sp)
20015890:	cc22                	sw	s0,24(sp)
20015892:	1000                	addi	s0,sp,32
20015894:	fea42623          	sw	a0,-20(s0)
20015898:	feb42423          	sw	a1,-24(s0)
E:/GitHub/HiFive01-RevB/FS_workspace/004_UART_TXRX/freedom-metal/metal/clock.h:148
    clk->_pre_rate_change_callback =
        _metal_clock_append_to_callbacks(clk->_pre_rate_change_callback, cb);
2001589c:	fec42783          	lw	a5,-20(s0)
200158a0:	43dc                	lw	a5,4(a5)
200158a2:	fe842583          	lw	a1,-24(s0)
200158a6:	853e                	mv	a0,a5
200158a8:	370d                	jal	200157ca <_metal_clock_append_to_callbacks>
200158aa:	872a                	mv	a4,a0
E:/GitHub/HiFive01-RevB/FS_workspace/004_UART_TXRX/freedom-metal/metal/clock.h:147
    clk->_pre_rate_change_callback =
200158ac:	fec42783          	lw	a5,-20(s0)
200158b0:	c3d8                	sw	a4,4(a5)
E:/GitHub/HiFive01-RevB/FS_workspace/004_UART_TXRX/freedom-metal/metal/clock.h:149
}
200158b2:	0001                	nop
200158b4:	40f2                	lw	ra,28(sp)
200158b6:	4462                	lw	s0,24(sp)
200158b8:	6105                	addi	sp,sp,32
200158ba:	8082                	ret

200158bc <metal_clock_register_post_rate_change_callback>:
metal_clock_register_post_rate_change_callback():
E:/GitHub/HiFive01-RevB/FS_workspace/004_UART_TXRX/freedom-metal/metal/clock.h:159
 * @param clk The handle for the clock
 * @param cb The callback to be registered
 */
__inline__ void
metal_clock_register_post_rate_change_callback(struct metal_clock *clk,
                                               metal_clock_callback *cb) {
200158bc:	1101                	addi	sp,sp,-32
200158be:	ce06                	sw	ra,28(sp)
200158c0:	cc22                	sw	s0,24(sp)
200158c2:	1000                	addi	s0,sp,32
200158c4:	fea42623          	sw	a0,-20(s0)
200158c8:	feb42423          	sw	a1,-24(s0)
E:/GitHub/HiFive01-RevB/FS_workspace/004_UART_TXRX/freedom-metal/metal/clock.h:161
    clk->_post_rate_change_callback =
        _metal_clock_append_to_callbacks(clk->_post_rate_change_callback, cb);
200158cc:	fec42783          	lw	a5,-20(s0)
200158d0:	479c                	lw	a5,8(a5)
200158d2:	fe842583          	lw	a1,-24(s0)
200158d6:	853e                	mv	a0,a5
200158d8:	3dcd                	jal	200157ca <_metal_clock_append_to_callbacks>
200158da:	872a                	mv	a4,a0
E:/GitHub/HiFive01-RevB/FS_workspace/004_UART_TXRX/freedom-metal/metal/clock.h:160
    clk->_post_rate_change_callback =
200158dc:	fec42783          	lw	a5,-20(s0)
200158e0:	c798                	sw	a4,8(a5)
E:/GitHub/HiFive01-RevB/FS_workspace/004_UART_TXRX/freedom-metal/metal/clock.h:162
}
200158e2:	0001                	nop
200158e4:	40f2                	lw	ra,28(sp)
200158e6:	4462                	lw	s0,24(sp)
200158e8:	6105                	addi	sp,sp,32
200158ea:	8082                	ret

200158ec <metal_cpu_interrupt_controller>:
metal_cpu_interrupt_controller():
E:/GitHub/HiFive01-RevB/FS_workspace/004_UART_TXRX/freedom-metal/metal/cpu.h:224
 *
 * @param cpu The CPU device handle
 * @return The handle for the CPU interrupt controller
 */
__inline__ struct metal_interrupt *
metal_cpu_interrupt_controller(struct metal_cpu *cpu) {
200158ec:	1101                	addi	sp,sp,-32
200158ee:	ce06                	sw	ra,28(sp)
200158f0:	cc22                	sw	s0,24(sp)
200158f2:	1000                	addi	s0,sp,32
200158f4:	fea42623          	sw	a0,-20(s0)
E:/GitHub/HiFive01-RevB/FS_workspace/004_UART_TXRX/freedom-metal/metal/cpu.h:225
    return cpu->vtable->controller_interrupt(cpu);
200158f8:	fec42783          	lw	a5,-20(s0)
200158fc:	439c                	lw	a5,0(a5)
200158fe:	57dc                	lw	a5,44(a5)
20015900:	fec42503          	lw	a0,-20(s0)
20015904:	9782                	jalr	a5
20015906:	87aa                	mv	a5,a0
E:/GitHub/HiFive01-RevB/FS_workspace/004_UART_TXRX/freedom-metal/metal/cpu.h:226
}
20015908:	853e                	mv	a0,a5
2001590a:	40f2                	lw	ra,28(sp)
2001590c:	4462                	lw	s0,24(sp)
2001590e:	6105                	addi	sp,sp,32
20015910:	8082                	ret

20015912 <metal_cpu_get>:
metal_cpu_get():
E:/GitHub/HiFive01-RevB/FS_workspace/004_UART_TXRX/freedom-metal/src/cpu.c:7
/* SPDX-License-Identifier: Apache-2.0 */

#include <metal/cpu.h>
#include <metal/machine.h>

struct metal_cpu *metal_cpu_get(unsigned int hartid) {
20015912:	1101                	addi	sp,sp,-32
20015914:	ce22                	sw	s0,28(sp)
20015916:	1000                	addi	s0,sp,32
20015918:	fea42623          	sw	a0,-20(s0)
E:/GitHub/HiFive01-RevB/FS_workspace/004_UART_TXRX/freedom-metal/src/cpu.c:8
    if (hartid < __METAL_DT_MAX_HARTS) {
2001591c:	fec42783          	lw	a5,-20(s0)
20015920:	eb99                	bnez	a5,20015936 <metal_cpu_get+0x24>
E:/GitHub/HiFive01-RevB/FS_workspace/004_UART_TXRX/freedom-metal/src/cpu.c:9
        return (struct metal_cpu *)__metal_cpu_table[hartid];
20015922:	800017b7          	lui	a5,0x80001
20015926:	fec42703          	lw	a4,-20(s0)
2001592a:	070a                	slli	a4,a4,0x2
2001592c:	ab078793          	addi	a5,a5,-1360 # 80000ab0 <__global_pointer$+0xfffff800>
20015930:	97ba                	add	a5,a5,a4
20015932:	439c                	lw	a5,0(a5)
20015934:	a011                	j	20015938 <metal_cpu_get+0x26>
E:/GitHub/HiFive01-RevB/FS_workspace/004_UART_TXRX/freedom-metal/src/cpu.c:11
    }
    return NULL;
20015936:	4781                	li	a5,0
E:/GitHub/HiFive01-RevB/FS_workspace/004_UART_TXRX/freedom-metal/src/cpu.c:12
}
20015938:	853e                	mv	a0,a5
2001593a:	4472                	lw	s0,28(sp)
2001593c:	6105                	addi	sp,sp,32
2001593e:	8082                	ret

20015940 <metal_cpu_get_current_hartid>:
metal_cpu_get_current_hartid():
E:/GitHub/HiFive01-RevB/FS_workspace/004_UART_TXRX/freedom-metal/src/cpu.c:14

int metal_cpu_get_current_hartid() {
20015940:	1101                	addi	sp,sp,-32
20015942:	ce22                	sw	s0,28(sp)
20015944:	1000                	addi	s0,sp,32
E:/GitHub/HiFive01-RevB/FS_workspace/004_UART_TXRX/freedom-metal/src/cpu.c:17
#ifdef __riscv
    int mhartid;
    __asm__ volatile("csrr %0, mhartid" : "=r"(mhartid));
20015946:	f14027f3          	csrr	a5,mhartid
2001594a:	fef42623          	sw	a5,-20(s0)
E:/GitHub/HiFive01-RevB/FS_workspace/004_UART_TXRX/freedom-metal/src/cpu.c:18
    return mhartid;
2001594e:	fec42783          	lw	a5,-20(s0)
E:/GitHub/HiFive01-RevB/FS_workspace/004_UART_TXRX/freedom-metal/src/cpu.c:20
#endif
}
20015952:	853e                	mv	a0,a5
20015954:	4472                	lw	s0,28(sp)
20015956:	6105                	addi	sp,sp,32
20015958:	8082                	ret

2001595a <metal_gpio_disable_input>:
metal_gpio_disable_input():
E:/GitHub/HiFive01-RevB/FS_workspace/004_UART_TXRX/freedom-metal/metal/gpio.h:79
 * @brief Disable input on a pin
 * @param gpio The handle for the GPIO interface
 * @param pin The pin number indexed from 0
 * @return 0 if the input is successfully disabled
 */
__inline__ int metal_gpio_disable_input(struct metal_gpio *gpio, int pin) {
2001595a:	1101                	addi	sp,sp,-32
2001595c:	ce06                	sw	ra,28(sp)
2001595e:	cc22                	sw	s0,24(sp)
20015960:	1000                	addi	s0,sp,32
20015962:	fea42623          	sw	a0,-20(s0)
20015966:	feb42423          	sw	a1,-24(s0)
E:/GitHub/HiFive01-RevB/FS_workspace/004_UART_TXRX/freedom-metal/metal/gpio.h:80
    if (!gpio) {
2001596a:	fec42783          	lw	a5,-20(s0)
2001596e:	e399                	bnez	a5,20015974 <metal_gpio_disable_input+0x1a>
E:/GitHub/HiFive01-RevB/FS_workspace/004_UART_TXRX/freedom-metal/metal/gpio.h:81
        return 1;
20015970:	4785                	li	a5,1
20015972:	a839                	j	20015990 <metal_gpio_disable_input+0x36>
E:/GitHub/HiFive01-RevB/FS_workspace/004_UART_TXRX/freedom-metal/metal/gpio.h:84
    }

    return gpio->vtable->disable_input(gpio, (1 << pin));
20015974:	fec42783          	lw	a5,-20(s0)
20015978:	439c                	lw	a5,0(a5)
2001597a:	4394                	lw	a3,0(a5)
2001597c:	fe842783          	lw	a5,-24(s0)
20015980:	4705                	li	a4,1
20015982:	00f717b3          	sll	a5,a4,a5
20015986:	85be                	mv	a1,a5
20015988:	fec42503          	lw	a0,-20(s0)
2001598c:	9682                	jalr	a3
2001598e:	87aa                	mv	a5,a0
E:/GitHub/HiFive01-RevB/FS_workspace/004_UART_TXRX/freedom-metal/metal/gpio.h:85
}
20015990:	853e                	mv	a0,a5
20015992:	40f2                	lw	ra,28(sp)
20015994:	4462                	lw	s0,24(sp)
20015996:	6105                	addi	sp,sp,32
20015998:	8082                	ret

2001599a <metal_gpio_enable_output>:
metal_gpio_enable_output():
E:/GitHub/HiFive01-RevB/FS_workspace/004_UART_TXRX/freedom-metal/metal/gpio.h:93
 * @brief Enable output on a pin
 * @param gpio The handle for the GPIO interface
 * @param pin The pin number indexed from 0
 * @return 0 if the output is successfully enabled
 */
__inline__ int metal_gpio_enable_output(struct metal_gpio *gpio, int pin) {
2001599a:	1101                	addi	sp,sp,-32
2001599c:	ce06                	sw	ra,28(sp)
2001599e:	cc22                	sw	s0,24(sp)
200159a0:	1000                	addi	s0,sp,32
200159a2:	fea42623          	sw	a0,-20(s0)
200159a6:	feb42423          	sw	a1,-24(s0)
E:/GitHub/HiFive01-RevB/FS_workspace/004_UART_TXRX/freedom-metal/metal/gpio.h:94
    if (!gpio) {
200159aa:	fec42783          	lw	a5,-20(s0)
200159ae:	e399                	bnez	a5,200159b4 <metal_gpio_enable_output+0x1a>
E:/GitHub/HiFive01-RevB/FS_workspace/004_UART_TXRX/freedom-metal/metal/gpio.h:95
        return 1;
200159b0:	4785                	li	a5,1
200159b2:	a839                	j	200159d0 <metal_gpio_enable_output+0x36>
E:/GitHub/HiFive01-RevB/FS_workspace/004_UART_TXRX/freedom-metal/metal/gpio.h:98
    }

    return gpio->vtable->enable_output(gpio, (1 << pin));
200159b4:	fec42783          	lw	a5,-20(s0)
200159b8:	439c                	lw	a5,0(a5)
200159ba:	4bd4                	lw	a3,20(a5)
200159bc:	fe842783          	lw	a5,-24(s0)
200159c0:	4705                	li	a4,1
200159c2:	00f717b3          	sll	a5,a4,a5
200159c6:	85be                	mv	a1,a5
200159c8:	fec42503          	lw	a0,-20(s0)
200159cc:	9682                	jalr	a3
200159ce:	87aa                	mv	a5,a0
E:/GitHub/HiFive01-RevB/FS_workspace/004_UART_TXRX/freedom-metal/metal/gpio.h:99
}
200159d0:	853e                	mv	a0,a5
200159d2:	40f2                	lw	ra,28(sp)
200159d4:	4462                	lw	s0,24(sp)
200159d6:	6105                	addi	sp,sp,32
200159d8:	8082                	ret

200159da <metal_gpio_set_pin>:
metal_gpio_set_pin():
E:/GitHub/HiFive01-RevB/FS_workspace/004_UART_TXRX/freedom-metal/metal/gpio.h:122
 * @param gpio The handle for the GPIO interface
 * @param pin The pin number indexed from 0
 * @param value The value to set the pin to
 * @return 0 if the output is successfully set
 */
__inline__ int metal_gpio_set_pin(struct metal_gpio *gpio, int pin, int value) {
200159da:	1101                	addi	sp,sp,-32
200159dc:	ce06                	sw	ra,28(sp)
200159de:	cc22                	sw	s0,24(sp)
200159e0:	1000                	addi	s0,sp,32
200159e2:	fea42623          	sw	a0,-20(s0)
200159e6:	feb42423          	sw	a1,-24(s0)
200159ea:	fec42223          	sw	a2,-28(s0)
E:/GitHub/HiFive01-RevB/FS_workspace/004_UART_TXRX/freedom-metal/metal/gpio.h:123
    if (!gpio) {
200159ee:	fec42783          	lw	a5,-20(s0)
200159f2:	e399                	bnez	a5,200159f8 <metal_gpio_set_pin+0x1e>
E:/GitHub/HiFive01-RevB/FS_workspace/004_UART_TXRX/freedom-metal/metal/gpio.h:124
        return 1;
200159f4:	4785                	li	a5,1
200159f6:	a089                	j	20015a38 <metal_gpio_set_pin+0x5e>
E:/GitHub/HiFive01-RevB/FS_workspace/004_UART_TXRX/freedom-metal/metal/gpio.h:127
    }

    if (value == 0) {
200159f8:	fe442783          	lw	a5,-28(s0)
200159fc:	e385                	bnez	a5,20015a1c <metal_gpio_set_pin+0x42>
E:/GitHub/HiFive01-RevB/FS_workspace/004_UART_TXRX/freedom-metal/metal/gpio.h:128
        return gpio->vtable->output_clear(gpio, (1 << pin));
200159fe:	fec42783          	lw	a5,-20(s0)
20015a02:	439c                	lw	a5,0(a5)
20015a04:	4fd4                	lw	a3,28(a5)
20015a06:	fe842783          	lw	a5,-24(s0)
20015a0a:	4705                	li	a4,1
20015a0c:	00f717b3          	sll	a5,a4,a5
20015a10:	85be                	mv	a1,a5
20015a12:	fec42503          	lw	a0,-20(s0)
20015a16:	9682                	jalr	a3
20015a18:	87aa                	mv	a5,a0
20015a1a:	a839                	j	20015a38 <metal_gpio_set_pin+0x5e>
E:/GitHub/HiFive01-RevB/FS_workspace/004_UART_TXRX/freedom-metal/metal/gpio.h:130
    } else {
        return gpio->vtable->output_set(gpio, (1 << pin));
20015a1c:	fec42783          	lw	a5,-20(s0)
20015a20:	439c                	lw	a5,0(a5)
20015a22:	4f94                	lw	a3,24(a5)
20015a24:	fe842783          	lw	a5,-24(s0)
20015a28:	4705                	li	a4,1
20015a2a:	00f717b3          	sll	a5,a4,a5
20015a2e:	85be                	mv	a1,a5
20015a30:	fec42503          	lw	a0,-20(s0)
20015a34:	9682                	jalr	a3
20015a36:	87aa                	mv	a5,a0
E:/GitHub/HiFive01-RevB/FS_workspace/004_UART_TXRX/freedom-metal/metal/gpio.h:132
    }
}
20015a38:	853e                	mv	a0,a5
20015a3a:	40f2                	lw	ra,28(sp)
20015a3c:	4462                	lw	s0,24(sp)
20015a3e:	6105                	addi	sp,sp,32
20015a40:	8082                	ret

20015a42 <metal_gpio_toggle_pin>:
metal_gpio_toggle_pin():
E:/GitHub/HiFive01-RevB/FS_workspace/004_UART_TXRX/freedom-metal/metal/gpio.h:194
 * @brief Toggles the value of the GPIO pin
 * @param gpio The handle for the GPIO interface
 * @param pin The pin number indexed from 0
 * @return 0 if the pin is successfully toggled
 */
__inline__ int metal_gpio_toggle_pin(struct metal_gpio *gpio, int pin) {
20015a42:	1101                	addi	sp,sp,-32
20015a44:	ce06                	sw	ra,28(sp)
20015a46:	cc22                	sw	s0,24(sp)
20015a48:	1000                	addi	s0,sp,32
20015a4a:	fea42623          	sw	a0,-20(s0)
20015a4e:	feb42423          	sw	a1,-24(s0)
E:/GitHub/HiFive01-RevB/FS_workspace/004_UART_TXRX/freedom-metal/metal/gpio.h:195
    if (!gpio) {
20015a52:	fec42783          	lw	a5,-20(s0)
20015a56:	e399                	bnez	a5,20015a5c <metal_gpio_toggle_pin+0x1a>
E:/GitHub/HiFive01-RevB/FS_workspace/004_UART_TXRX/freedom-metal/metal/gpio.h:196
        return 1;
20015a58:	4785                	li	a5,1
20015a5a:	a839                	j	20015a78 <metal_gpio_toggle_pin+0x36>
E:/GitHub/HiFive01-RevB/FS_workspace/004_UART_TXRX/freedom-metal/metal/gpio.h:199
    }

    return gpio->vtable->output_toggle(gpio, (1 << pin));
20015a5c:	fec42783          	lw	a5,-20(s0)
20015a60:	439c                	lw	a5,0(a5)
20015a62:	5394                	lw	a3,32(a5)
20015a64:	fe842783          	lw	a5,-24(s0)
20015a68:	4705                	li	a4,1
20015a6a:	00f717b3          	sll	a5,a4,a5
20015a6e:	85be                	mv	a1,a5
20015a70:	fec42503          	lw	a0,-20(s0)
20015a74:	9682                	jalr	a3
20015a76:	87aa                	mv	a5,a0
E:/GitHub/HiFive01-RevB/FS_workspace/004_UART_TXRX/freedom-metal/metal/gpio.h:200
}
20015a78:	853e                	mv	a0,a5
20015a7a:	40f2                	lw	ra,28(sp)
20015a7c:	4462                	lw	s0,24(sp)
20015a7e:	6105                	addi	sp,sp,32
20015a80:	8082                	ret

20015a82 <metal_led_enable>:
metal_led_enable():
E:/GitHub/HiFive01-RevB/FS_workspace/004_UART_TXRX/freedom-metal/metal/led.h:49

/*!
 * @brief Enable an LED
 * @param led The handle for the LED
 */
__inline__ void metal_led_enable(struct metal_led *led) {
20015a82:	1101                	addi	sp,sp,-32
20015a84:	ce06                	sw	ra,28(sp)
20015a86:	cc22                	sw	s0,24(sp)
20015a88:	1000                	addi	s0,sp,32
20015a8a:	fea42623          	sw	a0,-20(s0)
E:/GitHub/HiFive01-RevB/FS_workspace/004_UART_TXRX/freedom-metal/metal/led.h:50
    led->vtable->led_enable(led);
20015a8e:	fec42783          	lw	a5,-20(s0)
20015a92:	439c                	lw	a5,0(a5)
20015a94:	43dc                	lw	a5,4(a5)
20015a96:	fec42503          	lw	a0,-20(s0)
20015a9a:	9782                	jalr	a5
E:/GitHub/HiFive01-RevB/FS_workspace/004_UART_TXRX/freedom-metal/metal/led.h:51
}
20015a9c:	0001                	nop
20015a9e:	40f2                	lw	ra,28(sp)
20015aa0:	4462                	lw	s0,24(sp)
20015aa2:	6105                	addi	sp,sp,32
20015aa4:	8082                	ret

20015aa6 <metal_led_on>:
metal_led_on():
E:/GitHub/HiFive01-RevB/FS_workspace/004_UART_TXRX/freedom-metal/metal/led.h:57

/*!
 * @brief Turn an LED on
 * @param led The handle for the LED
 */
__inline__ void metal_led_on(struct metal_led *led) {
20015aa6:	1101                	addi	sp,sp,-32
20015aa8:	ce06                	sw	ra,28(sp)
20015aaa:	cc22                	sw	s0,24(sp)
20015aac:	1000                	addi	s0,sp,32
20015aae:	fea42623          	sw	a0,-20(s0)
E:/GitHub/HiFive01-RevB/FS_workspace/004_UART_TXRX/freedom-metal/metal/led.h:58
    led->vtable->led_on(led);
20015ab2:	fec42783          	lw	a5,-20(s0)
20015ab6:	439c                	lw	a5,0(a5)
20015ab8:	479c                	lw	a5,8(a5)
20015aba:	fec42503          	lw	a0,-20(s0)
20015abe:	9782                	jalr	a5
E:/GitHub/HiFive01-RevB/FS_workspace/004_UART_TXRX/freedom-metal/metal/led.h:59
}
20015ac0:	0001                	nop
20015ac2:	40f2                	lw	ra,28(sp)
20015ac4:	4462                	lw	s0,24(sp)
20015ac6:	6105                	addi	sp,sp,32
20015ac8:	8082                	ret

20015aca <metal_led_off>:
metal_led_off():
E:/GitHub/HiFive01-RevB/FS_workspace/004_UART_TXRX/freedom-metal/metal/led.h:65

/*!
 * @brief Turn an LED off
 * @param led The handle for the LED
 */
__inline__ void metal_led_off(struct metal_led *led) {
20015aca:	1101                	addi	sp,sp,-32
20015acc:	ce06                	sw	ra,28(sp)
20015ace:	cc22                	sw	s0,24(sp)
20015ad0:	1000                	addi	s0,sp,32
20015ad2:	fea42623          	sw	a0,-20(s0)
E:/GitHub/HiFive01-RevB/FS_workspace/004_UART_TXRX/freedom-metal/metal/led.h:66
    led->vtable->led_off(led);
20015ad6:	fec42783          	lw	a5,-20(s0)
20015ada:	439c                	lw	a5,0(a5)
20015adc:	47dc                	lw	a5,12(a5)
20015ade:	fec42503          	lw	a0,-20(s0)
20015ae2:	9782                	jalr	a5
E:/GitHub/HiFive01-RevB/FS_workspace/004_UART_TXRX/freedom-metal/metal/led.h:67
}
20015ae4:	0001                	nop
20015ae6:	40f2                	lw	ra,28(sp)
20015ae8:	4462                	lw	s0,24(sp)
20015aea:	6105                	addi	sp,sp,32
20015aec:	8082                	ret

20015aee <metal_led_get_rgb>:
metal_led_get_rgb():
E:/GitHub/HiFive01-RevB/FS_workspace/004_UART_TXRX/freedom-metal/src/led.c:8

#include <metal/led.h>
#include <metal/machine.h>
#include <string.h>

struct metal_led *metal_led_get_rgb(char *label, char *color) {
20015aee:	7175                	addi	sp,sp,-144
20015af0:	c706                	sw	ra,140(sp)
20015af2:	c522                	sw	s0,136(sp)
20015af4:	0900                	addi	s0,sp,144
20015af6:	f6a42e23          	sw	a0,-132(s0)
20015afa:	f6b42c23          	sw	a1,-136(s0)
E:/GitHub/HiFive01-RevB/FS_workspace/004_UART_TXRX/freedom-metal/src/led.c:13
    int i;
    struct metal_led *led;
    char led_label[100];

    if ((__METAL_DT_MAX_LEDS == 0) || (label == NULL) || (color == NULL)) {
20015afe:	f7c42783          	lw	a5,-132(s0)
20015b02:	c781                	beqz	a5,20015b0a <metal_led_get_rgb+0x1c>
E:/GitHub/HiFive01-RevB/FS_workspace/004_UART_TXRX/freedom-metal/src/led.c:13 (discriminator 1)
20015b04:	f7842783          	lw	a5,-136(s0)
20015b08:	e399                	bnez	a5,20015b0e <metal_led_get_rgb+0x20>
E:/GitHub/HiFive01-RevB/FS_workspace/004_UART_TXRX/freedom-metal/src/led.c:14
        return NULL;
20015b0a:	4781                	li	a5,0
20015b0c:	a0ad                	j	20015b76 <metal_led_get_rgb+0x88>
E:/GitHub/HiFive01-RevB/FS_workspace/004_UART_TXRX/freedom-metal/src/led.c:17
    }

    strcpy(led_label, label);
20015b0e:	f8440793          	addi	a5,s0,-124
20015b12:	f7c42583          	lw	a1,-132(s0)
20015b16:	853e                	mv	a0,a5
20015b18:	2b21                	jal	20016030 <strcpy>
E:/GitHub/HiFive01-RevB/FS_workspace/004_UART_TXRX/freedom-metal/src/led.c:18
    strcat(led_label, color);
20015b1a:	f8440793          	addi	a5,s0,-124
20015b1e:	f7842583          	lw	a1,-136(s0)
20015b22:	853e                	mv	a0,a5
20015b24:	2ec9                	jal	20015ef6 <strcat>
E:/GitHub/HiFive01-RevB/FS_workspace/004_UART_TXRX/freedom-metal/src/led.c:19
    for (i = 0; i < __METAL_DT_MAX_LEDS; i++) {
20015b26:	fe042623          	sw	zero,-20(s0)
20015b2a:	a081                	j	20015b6a <metal_led_get_rgb+0x7c>
E:/GitHub/HiFive01-RevB/FS_workspace/004_UART_TXRX/freedom-metal/src/led.c:20
        led = (struct metal_led *)__metal_led_table[i];
20015b2c:	800007b7          	lui	a5,0x80000
20015b30:	00078713          	mv	a4,a5
20015b34:	fec42783          	lw	a5,-20(s0)
20015b38:	078a                	slli	a5,a5,0x2
20015b3a:	97ba                	add	a5,a5,a4
20015b3c:	439c                	lw	a5,0(a5)
20015b3e:	fef42423          	sw	a5,-24(s0)
E:/GitHub/HiFive01-RevB/FS_workspace/004_UART_TXRX/freedom-metal/src/led.c:21
        if (led->vtable->led_exist(led, led_label)) {
20015b42:	fe842783          	lw	a5,-24(s0)
20015b46:	439c                	lw	a5,0(a5)
20015b48:	4398                	lw	a4,0(a5)
20015b4a:	f8440793          	addi	a5,s0,-124
20015b4e:	85be                	mv	a1,a5
20015b50:	fe842503          	lw	a0,-24(s0)
20015b54:	9702                	jalr	a4
20015b56:	87aa                	mv	a5,a0
20015b58:	c781                	beqz	a5,20015b60 <metal_led_get_rgb+0x72>
E:/GitHub/HiFive01-RevB/FS_workspace/004_UART_TXRX/freedom-metal/src/led.c:22
            return led;
20015b5a:	fe842783          	lw	a5,-24(s0)
20015b5e:	a821                	j	20015b76 <metal_led_get_rgb+0x88>
E:/GitHub/HiFive01-RevB/FS_workspace/004_UART_TXRX/freedom-metal/src/led.c:19 (discriminator 2)
    for (i = 0; i < __METAL_DT_MAX_LEDS; i++) {
20015b60:	fec42783          	lw	a5,-20(s0)
20015b64:	0785                	addi	a5,a5,1
20015b66:	fef42623          	sw	a5,-20(s0)
E:/GitHub/HiFive01-RevB/FS_workspace/004_UART_TXRX/freedom-metal/src/led.c:19 (discriminator 1)
20015b6a:	fec42703          	lw	a4,-20(s0)
20015b6e:	4789                	li	a5,2
20015b70:	fae7dee3          	bge	a5,a4,20015b2c <metal_led_get_rgb+0x3e>
E:/GitHub/HiFive01-RevB/FS_workspace/004_UART_TXRX/freedom-metal/src/led.c:25
        }
    }
    return NULL;
20015b74:	4781                	li	a5,0
E:/GitHub/HiFive01-RevB/FS_workspace/004_UART_TXRX/freedom-metal/src/led.c:26 (discriminator 1)
}
20015b76:	853e                	mv	a0,a5
20015b78:	40ba                	lw	ra,140(sp)
20015b7a:	442a                	lw	s0,136(sp)
20015b7c:	6149                	addi	sp,sp,144
20015b7e:	8082                	ret

20015b80 <metal_shutdown>:
metal_shutdown():
E:/GitHub/HiFive01-RevB/FS_workspace/004_UART_TXRX/freedom-metal/src/shutdown.c:17
    __metal_shutdown_exit(__METAL_DT_SHUTDOWN_HANDLE, code);
}
#else
#pragma message(                                                               \
    "There is no defined shutdown mechanism, metal_shutdown() will spin.")
void metal_shutdown(int code) {
20015b80:	1101                	addi	sp,sp,-32
20015b82:	ce22                	sw	s0,28(sp)
20015b84:	1000                	addi	s0,sp,32
20015b86:	fea42623          	sw	a0,-20(s0)
E:/GitHub/HiFive01-RevB/FS_workspace/004_UART_TXRX/freedom-metal/src/shutdown.c:19 (discriminator 1)
    while (1) {
        __asm__ volatile("nop");
20015b8a:	0001                	nop
20015b8c:	bffd                	j	20015b8a <metal_shutdown+0xa>

20015b8e <metal_uart_init>:
metal_uart_init():
E:/GitHub/HiFive01-RevB/FS_workspace/004_UART_TXRX/freedom-metal/metal/uart.h:59
 more than once.
 *
 * @param uart The UART device handle
 * @param baud_rate the baud rate to set the UART to
 */
__inline__ void metal_uart_init(struct metal_uart *uart, int baud_rate) {
20015b8e:	1101                	addi	sp,sp,-32
20015b90:	ce06                	sw	ra,28(sp)
20015b92:	cc22                	sw	s0,24(sp)
20015b94:	1000                	addi	s0,sp,32
20015b96:	fea42623          	sw	a0,-20(s0)
20015b9a:	feb42423          	sw	a1,-24(s0)
E:/GitHub/HiFive01-RevB/FS_workspace/004_UART_TXRX/freedom-metal/metal/uart.h:60
    uart->vtable->init(uart, baud_rate);
20015b9e:	fec42783          	lw	a5,-20(s0)
20015ba2:	439c                	lw	a5,0(a5)
20015ba4:	439c                	lw	a5,0(a5)
20015ba6:	fe842583          	lw	a1,-24(s0)
20015baa:	fec42503          	lw	a0,-20(s0)
20015bae:	9782                	jalr	a5
E:/GitHub/HiFive01-RevB/FS_workspace/004_UART_TXRX/freedom-metal/metal/uart.h:61
}
20015bb0:	0001                	nop
20015bb2:	40f2                	lw	ra,28(sp)
20015bb4:	4462                	lw	s0,24(sp)
20015bb6:	6105                	addi	sp,sp,32
20015bb8:	8082                	ret

20015bba <metal_uart_putc>:
metal_uart_putc():
E:/GitHub/HiFive01-RevB/FS_workspace/004_UART_TXRX/freedom-metal/metal/uart.h:69
 * @brief Output a character over the UART
 * @param uart The UART device handle
 * @param c The character to send over the UART
 * @return 0 upon success
 */
__inline__ int metal_uart_putc(struct metal_uart *uart, int c) {
20015bba:	1101                	addi	sp,sp,-32
20015bbc:	ce06                	sw	ra,28(sp)
20015bbe:	cc22                	sw	s0,24(sp)
20015bc0:	1000                	addi	s0,sp,32
20015bc2:	fea42623          	sw	a0,-20(s0)
20015bc6:	feb42423          	sw	a1,-24(s0)
E:/GitHub/HiFive01-RevB/FS_workspace/004_UART_TXRX/freedom-metal/metal/uart.h:70
    return uart->vtable->putc(uart, c);
20015bca:	fec42783          	lw	a5,-20(s0)
20015bce:	439c                	lw	a5,0(a5)
20015bd0:	43dc                	lw	a5,4(a5)
20015bd2:	fe842583          	lw	a1,-24(s0)
20015bd6:	fec42503          	lw	a0,-20(s0)
20015bda:	9782                	jalr	a5
20015bdc:	87aa                	mv	a5,a0
E:/GitHub/HiFive01-RevB/FS_workspace/004_UART_TXRX/freedom-metal/metal/uart.h:71
}
20015bde:	853e                	mv	a0,a5
20015be0:	40f2                	lw	ra,28(sp)
20015be2:	4462                	lw	s0,24(sp)
20015be4:	6105                	addi	sp,sp,32
20015be6:	8082                	ret

20015be8 <metal_uart_txready>:
metal_uart_txready():
E:/GitHub/HiFive01-RevB/FS_workspace/004_UART_TXRX/freedom-metal/metal/uart.h:78
/*!
 * @brief Test, determine if tx output is blocked(full/busy)
 * @param uart The UART device handle
 * @return 0 not blocked
 */
__inline__ int metal_uart_txready(struct metal_uart *uart) {
20015be8:	1101                	addi	sp,sp,-32
20015bea:	ce06                	sw	ra,28(sp)
20015bec:	cc22                	sw	s0,24(sp)
20015bee:	1000                	addi	s0,sp,32
20015bf0:	fea42623          	sw	a0,-20(s0)
E:/GitHub/HiFive01-RevB/FS_workspace/004_UART_TXRX/freedom-metal/metal/uart.h:79
    return uart->vtable->txready(uart);
20015bf4:	fec42783          	lw	a5,-20(s0)
20015bf8:	439c                	lw	a5,0(a5)
20015bfa:	479c                	lw	a5,8(a5)
20015bfc:	fec42503          	lw	a0,-20(s0)
20015c00:	9782                	jalr	a5
20015c02:	87aa                	mv	a5,a0
E:/GitHub/HiFive01-RevB/FS_workspace/004_UART_TXRX/freedom-metal/metal/uart.h:80
}
20015c04:	853e                	mv	a0,a5
20015c06:	40f2                	lw	ra,28(sp)
20015c08:	4462                	lw	s0,24(sp)
20015c0a:	6105                	addi	sp,sp,32
20015c0c:	8082                	ret

20015c0e <metal_uart_getc>:
metal_uart_getc():
E:/GitHub/HiFive01-RevB/FS_workspace/004_UART_TXRX/freedom-metal/metal/uart.h:91
 * @return 0 upon success
 *
 * If "c == -1" no char was ready.
 * If "c != -1" then C == byte value (0x00 to 0xff)
 */
__inline__ int metal_uart_getc(struct metal_uart *uart, int *c) {
20015c0e:	1101                	addi	sp,sp,-32
20015c10:	ce06                	sw	ra,28(sp)
20015c12:	cc22                	sw	s0,24(sp)
20015c14:	1000                	addi	s0,sp,32
20015c16:	fea42623          	sw	a0,-20(s0)
20015c1a:	feb42423          	sw	a1,-24(s0)
E:/GitHub/HiFive01-RevB/FS_workspace/004_UART_TXRX/freedom-metal/metal/uart.h:92
    return uart->vtable->getc(uart, c);
20015c1e:	fec42783          	lw	a5,-20(s0)
20015c22:	439c                	lw	a5,0(a5)
20015c24:	47dc                	lw	a5,12(a5)
20015c26:	fe842583          	lw	a1,-24(s0)
20015c2a:	fec42503          	lw	a0,-20(s0)
20015c2e:	9782                	jalr	a5
20015c30:	87aa                	mv	a5,a0
E:/GitHub/HiFive01-RevB/FS_workspace/004_UART_TXRX/freedom-metal/metal/uart.h:93
}
20015c32:	853e                	mv	a0,a5
20015c34:	40f2                	lw	ra,28(sp)
20015c36:	4462                	lw	s0,24(sp)
20015c38:	6105                	addi	sp,sp,32
20015c3a:	8082                	ret

20015c3c <metal_uart_set_baud_rate>:
metal_uart_set_baud_rate():
E:/GitHub/HiFive01-RevB/FS_workspace/004_UART_TXRX/freedom-metal/metal/uart.h:111
 * @param uart The UART device handle
 * @param baud_rate The baud rate to configure
 * @return the new baud rate of the UART
 */
__inline__ int metal_uart_set_baud_rate(struct metal_uart *uart,
                                        int baud_rate) {
20015c3c:	1101                	addi	sp,sp,-32
20015c3e:	ce06                	sw	ra,28(sp)
20015c40:	cc22                	sw	s0,24(sp)
20015c42:	1000                	addi	s0,sp,32
20015c44:	fea42623          	sw	a0,-20(s0)
20015c48:	feb42423          	sw	a1,-24(s0)
E:/GitHub/HiFive01-RevB/FS_workspace/004_UART_TXRX/freedom-metal/metal/uart.h:112
    return uart->vtable->set_baud_rate(uart, baud_rate);
20015c4c:	fec42783          	lw	a5,-20(s0)
20015c50:	439c                	lw	a5,0(a5)
20015c52:	4bdc                	lw	a5,20(a5)
20015c54:	fe842583          	lw	a1,-24(s0)
20015c58:	fec42503          	lw	a0,-20(s0)
20015c5c:	9782                	jalr	a5
20015c5e:	87aa                	mv	a5,a0
E:/GitHub/HiFive01-RevB/FS_workspace/004_UART_TXRX/freedom-metal/metal/uart.h:113
}
20015c60:	853e                	mv	a0,a5
20015c62:	40f2                	lw	ra,28(sp)
20015c64:	4462                	lw	s0,24(sp)
20015c66:	6105                	addi	sp,sp,32
20015c68:	8082                	ret

20015c6a <metal_uart_get_device>:
metal_uart_get_device():
E:/GitHub/HiFive01-RevB/FS_workspace/004_UART_TXRX/freedom-metal/src/uart.c:34
extern __inline__ int metal_uart_set_receive_watermark(struct metal_uart *uart,
                                                       size_t level);
extern __inline__ size_t
metal_uart_get_receive_watermark(struct metal_uart *uart);

struct metal_uart *metal_uart_get_device(unsigned int device_num) {
20015c6a:	1101                	addi	sp,sp,-32
20015c6c:	ce22                	sw	s0,28(sp)
20015c6e:	1000                	addi	s0,sp,32
20015c70:	fea42623          	sw	a0,-20(s0)
E:/GitHub/HiFive01-RevB/FS_workspace/004_UART_TXRX/freedom-metal/src/uart.c:36
#if __METAL_DT_MAX_UARTS > 0
    if (device_num < __METAL_DT_MAX_UARTS) {
20015c74:	fec42703          	lw	a4,-20(s0)
20015c78:	4785                	li	a5,1
20015c7a:	00e7ec63          	bltu	a5,a4,20015c92 <metal_uart_get_device+0x28>
E:/GitHub/HiFive01-RevB/FS_workspace/004_UART_TXRX/freedom-metal/src/uart.c:37
        return (struct metal_uart *)__metal_uart_table[device_num];
20015c7e:	800017b7          	lui	a5,0x80001
20015c82:	ab478713          	addi	a4,a5,-1356 # 80000ab4 <__global_pointer$+0xfffff804>
20015c86:	fec42783          	lw	a5,-20(s0)
20015c8a:	078a                	slli	a5,a5,0x2
20015c8c:	97ba                	add	a5,a5,a4
20015c8e:	439c                	lw	a5,0(a5)
20015c90:	a011                	j	20015c94 <metal_uart_get_device+0x2a>
E:/GitHub/HiFive01-RevB/FS_workspace/004_UART_TXRX/freedom-metal/src/uart.c:41
    }
#endif

    return NULL;
20015c92:	4781                	li	a5,0
E:/GitHub/HiFive01-RevB/FS_workspace/004_UART_TXRX/freedom-metal/src/uart.c:42
}
20015c94:	853e                	mv	a0,a5
20015c96:	4472                	lw	s0,28(sp)
20015c98:	6105                	addi	sp,sp,32
20015c9a:	8082                	ret
	...

20015d00 <__metal_vector_table>:
IRQ_0():
E:/GitHub/HiFive01-RevB/FS_workspace/004_UART_TXRX/freedom-metal/src/vector.S:96
#endif
.option norvc
.global __metal_vector_table
__metal_vector_table:
IRQ_0:
        j metal_interrupt_vector_handler
20015d00:	d11fb06f          	j	20011a10 <metal_interrupt_vector_handler>

20015d04 <IRQ_1>:
IRQ_1():
E:/GitHub/HiFive01-RevB/FS_workspace/004_UART_TXRX/freedom-metal/src/vector.S:98
IRQ_1:
        j metal_interrupt_vector_handler
20015d04:	d0dfb06f          	j	20011a10 <metal_interrupt_vector_handler>

20015d08 <IRQ_2>:
IRQ_2():
E:/GitHub/HiFive01-RevB/FS_workspace/004_UART_TXRX/freedom-metal/src/vector.S:100
IRQ_2:
        j metal_interrupt_vector_handler
20015d08:	d09fb06f          	j	20011a10 <metal_interrupt_vector_handler>

20015d0c <IRQ_3>:
IRQ_3():
E:/GitHub/HiFive01-RevB/FS_workspace/004_UART_TXRX/freedom-metal/src/vector.S:102
IRQ_3:
        j metal_software_interrupt_vector_handler
20015d0c:	d33fb06f          	j	20011a3e <metal_software_interrupt_vector_handler>

20015d10 <IRQ_4>:
IRQ_4():
E:/GitHub/HiFive01-RevB/FS_workspace/004_UART_TXRX/freedom-metal/src/vector.S:104
IRQ_4:
        j metal_interrupt_vector_handler
20015d10:	d01fb06f          	j	20011a10 <metal_interrupt_vector_handler>

20015d14 <IRQ_5>:
IRQ_5():
E:/GitHub/HiFive01-RevB/FS_workspace/004_UART_TXRX/freedom-metal/src/vector.S:106
IRQ_5:
        j metal_interrupt_vector_handler
20015d14:	cfdfb06f          	j	20011a10 <metal_interrupt_vector_handler>

20015d18 <IRQ_6>:
IRQ_6():
E:/GitHub/HiFive01-RevB/FS_workspace/004_UART_TXRX/freedom-metal/src/vector.S:108
IRQ_6:
        j metal_interrupt_vector_handler
20015d18:	cf9fb06f          	j	20011a10 <metal_interrupt_vector_handler>

20015d1c <IRQ_7>:
IRQ_7():
E:/GitHub/HiFive01-RevB/FS_workspace/004_UART_TXRX/freedom-metal/src/vector.S:110
IRQ_7:
        j metal_timer_interrupt_vector_handler
20015d1c:	e1dfb06f          	j	20011b38 <metal_timer_interrupt_vector_handler>

20015d20 <IRQ_8>:
IRQ_8():
E:/GitHub/HiFive01-RevB/FS_workspace/004_UART_TXRX/freedom-metal/src/vector.S:112
IRQ_8:
        j metal_interrupt_vector_handler
20015d20:	cf1fb06f          	j	20011a10 <metal_interrupt_vector_handler>

20015d24 <IRQ_9>:
IRQ_9():
E:/GitHub/HiFive01-RevB/FS_workspace/004_UART_TXRX/freedom-metal/src/vector.S:114
IRQ_9:
        j metal_interrupt_vector_handler
20015d24:	cedfb06f          	j	20011a10 <metal_interrupt_vector_handler>

20015d28 <IRQ_10>:
IRQ_10():
E:/GitHub/HiFive01-RevB/FS_workspace/004_UART_TXRX/freedom-metal/src/vector.S:116
IRQ_10:
        j metal_interrupt_vector_handler
20015d28:	ce9fb06f          	j	20011a10 <metal_interrupt_vector_handler>

20015d2c <IRQ_11>:
IRQ_11():
E:/GitHub/HiFive01-RevB/FS_workspace/004_UART_TXRX/freedom-metal/src/vector.S:118
IRQ_11:
        j metal_interrupt_vector_handler
20015d2c:	ce5fb06f          	j	20011a10 <metal_interrupt_vector_handler>

20015d30 <IRQ_12>:
IRQ_12():
E:/GitHub/HiFive01-RevB/FS_workspace/004_UART_TXRX/freedom-metal/src/vector.S:120
IRQ_12:
        j metal_interrupt_vector_handler
20015d30:	ce1fb06f          	j	20011a10 <metal_interrupt_vector_handler>

20015d34 <IRQ_13>:
IRQ_13():
E:/GitHub/HiFive01-RevB/FS_workspace/004_UART_TXRX/freedom-metal/src/vector.S:122
IRQ_13:
        j metal_interrupt_vector_handler
20015d34:	cddfb06f          	j	20011a10 <metal_interrupt_vector_handler>

20015d38 <IRQ_14>:
IRQ_14():
E:/GitHub/HiFive01-RevB/FS_workspace/004_UART_TXRX/freedom-metal/src/vector.S:124
IRQ_14:
        j metal_interrupt_vector_handler
20015d38:	cd9fb06f          	j	20011a10 <metal_interrupt_vector_handler>

20015d3c <IRQ_15>:
IRQ_15():
E:/GitHub/HiFive01-RevB/FS_workspace/004_UART_TXRX/freedom-metal/src/vector.S:126
IRQ_15:
        j metal_interrupt_vector_handler
20015d3c:	cd5fb06f          	j	20011a10 <metal_interrupt_vector_handler>

20015d40 <IRQ_LC0>:
IRQ_LC0():
E:/GitHub/HiFive01-RevB/FS_workspace/004_UART_TXRX/freedom-metal/src/vector.S:128
IRQ_LC0:
        j metal_lc0_interrupt_vector_handler
20015d40:	936fc06f          	j	20011e76 <metal_lc0_interrupt_vector_handler>

20015d44 <IRQ_LC1>:
IRQ_LC1():
E:/GitHub/HiFive01-RevB/FS_workspace/004_UART_TXRX/freedom-metal/src/vector.S:130
IRQ_LC1:
        j metal_lc1_interrupt_vector_handler
20015d44:	9c8fc06f          	j	20011f0c <metal_lc1_interrupt_vector_handler>

20015d48 <IRQ_LC2>:
IRQ_LC2():
E:/GitHub/HiFive01-RevB/FS_workspace/004_UART_TXRX/freedom-metal/src/vector.S:132
IRQ_LC2:
        j metal_lc2_interrupt_vector_handler
20015d48:	a5afc06f          	j	20011fa2 <metal_lc2_interrupt_vector_handler>

20015d4c <IRQ_LC3>:
IRQ_LC3():
E:/GitHub/HiFive01-RevB/FS_workspace/004_UART_TXRX/freedom-metal/src/vector.S:134
IRQ_LC3:
        j metal_lc3_interrupt_vector_handler
20015d4c:	aecfc06f          	j	20012038 <metal_lc3_interrupt_vector_handler>

20015d50 <IRQ_LC4>:
IRQ_LC4():
E:/GitHub/HiFive01-RevB/FS_workspace/004_UART_TXRX/freedom-metal/src/vector.S:136
IRQ_LC4:
        j metal_lc4_interrupt_vector_handler
20015d50:	b7efc06f          	j	200120ce <metal_lc4_interrupt_vector_handler>

20015d54 <IRQ_LC5>:
IRQ_LC5():
E:/GitHub/HiFive01-RevB/FS_workspace/004_UART_TXRX/freedom-metal/src/vector.S:138
IRQ_LC5:
        j metal_lc5_interrupt_vector_handler
20015d54:	c10fc06f          	j	20012164 <metal_lc5_interrupt_vector_handler>

20015d58 <IRQ_LC6>:
IRQ_LC6():
E:/GitHub/HiFive01-RevB/FS_workspace/004_UART_TXRX/freedom-metal/src/vector.S:140
IRQ_LC6:
        j metal_lc6_interrupt_vector_handler
20015d58:	ca2fc06f          	j	200121fa <metal_lc6_interrupt_vector_handler>

20015d5c <IRQ_LC7>:
IRQ_LC7():
E:/GitHub/HiFive01-RevB/FS_workspace/004_UART_TXRX/freedom-metal/src/vector.S:142
IRQ_LC7:
        j metal_lc7_interrupt_vector_handler
20015d5c:	d34fc06f          	j	20012290 <metal_lc7_interrupt_vector_handler>

20015d60 <IRQ_LC8>:
IRQ_LC8():
E:/GitHub/HiFive01-RevB/FS_workspace/004_UART_TXRX/freedom-metal/src/vector.S:144
IRQ_LC8:
        j metal_lc8_interrupt_vector_handler
20015d60:	dc6fc06f          	j	20012326 <metal_lc8_interrupt_vector_handler>

20015d64 <IRQ_LC9>:
IRQ_LC9():
E:/GitHub/HiFive01-RevB/FS_workspace/004_UART_TXRX/freedom-metal/src/vector.S:146
IRQ_LC9:
        j metal_lc9_interrupt_vector_handler
20015d64:	e58fc06f          	j	200123bc <metal_lc9_interrupt_vector_handler>

20015d68 <IRQ_LC10>:
IRQ_LC10():
E:/GitHub/HiFive01-RevB/FS_workspace/004_UART_TXRX/freedom-metal/src/vector.S:148
IRQ_LC10:
        j metal_lc10_interrupt_vector_handler
20015d68:	eeafc06f          	j	20012452 <metal_lc10_interrupt_vector_handler>

20015d6c <IRQ_LC11>:
IRQ_LC11():
E:/GitHub/HiFive01-RevB/FS_workspace/004_UART_TXRX/freedom-metal/src/vector.S:150
IRQ_LC11:
        j metal_lc11_interrupt_vector_handler
20015d6c:	f7cfc06f          	j	200124e8 <metal_lc11_interrupt_vector_handler>

20015d70 <IRQ_LC12>:
IRQ_LC12():
E:/GitHub/HiFive01-RevB/FS_workspace/004_UART_TXRX/freedom-metal/src/vector.S:152
IRQ_LC12:
        j metal_lc12_interrupt_vector_handler
20015d70:	80ffc06f          	j	2001257e <metal_lc12_interrupt_vector_handler>

20015d74 <IRQ_LC13>:
IRQ_LC13():
E:/GitHub/HiFive01-RevB/FS_workspace/004_UART_TXRX/freedom-metal/src/vector.S:154
IRQ_LC13:
        j metal_lc13_interrupt_vector_handler
20015d74:	8a1fc06f          	j	20012614 <metal_lc13_interrupt_vector_handler>

20015d78 <IRQ_LC14>:
IRQ_LC14():
E:/GitHub/HiFive01-RevB/FS_workspace/004_UART_TXRX/freedom-metal/src/vector.S:156
IRQ_LC14:
        j metal_lc14_interrupt_vector_handler
20015d78:	933fc06f          	j	200126aa <metal_lc14_interrupt_vector_handler>

20015d7c <IRQ_LC15>:
IRQ_LC15():
E:/GitHub/HiFive01-RevB/FS_workspace/004_UART_TXRX/freedom-metal/src/vector.S:158
IRQ_LC15:
        j metal_lc15_interrupt_vector_handler
20015d7c:	9c5fc06f          	j	20012740 <metal_lc15_interrupt_vector_handler>

20015d80 <__metal_driver_fixed_clock_rate>:
__metal_driver_fixed_clock_rate():
E:\GitHub\HiFive01-RevB\FS_workspace\004_UART_TXRX\bsp\build\debug/./metal/machine.h:208
{
20015d80:	1101                	addi	sp,sp,-32
20015d82:	ce22                	sw	s0,28(sp)
20015d84:	1000                	addi	s0,sp,32
20015d86:	fea42623          	sw	a0,-20(s0)
E:\GitHub\HiFive01-RevB\FS_workspace\004_UART_TXRX\bsp\build\debug/./metal/machine.h:209
	if ((uintptr_t)clock == (uintptr_t)&__metal_dt_clock_0) {
20015d8a:	fec42703          	lw	a4,-20(s0)
20015d8e:	800007b7          	lui	a5,0x80000
20015d92:	00c78793          	addi	a5,a5,12 # 8000000c <__global_pointer$+0xffffed5c>
20015d96:	00f71763          	bne	a4,a5,20015da4 <__metal_driver_fixed_clock_rate+0x24>
E:\GitHub\HiFive01-RevB\FS_workspace\004_UART_TXRX\bsp\build\debug/./metal/machine.h:210
		return METAL_FIXED_CLOCK_0_CLOCK_FREQUENCY;
20015d9a:	00f427b7          	lui	a5,0xf42
20015d9e:	40078793          	addi	a5,a5,1024 # f42400 <__heap_size+0xf41c00>
20015da2:	a099                	j	20015de8 <__metal_driver_fixed_clock_rate+0x68>
E:\GitHub\HiFive01-RevB\FS_workspace\004_UART_TXRX\bsp\build\debug/./metal/machine.h:212
	else if ((uintptr_t)clock == (uintptr_t)&__metal_dt_clock_2) {
20015da4:	fec42703          	lw	a4,-20(s0)
20015da8:	800007b7          	lui	a5,0x80000
20015dac:	01878793          	addi	a5,a5,24 # 80000018 <__global_pointer$+0xffffed68>
20015db0:	00f71763          	bne	a4,a5,20015dbe <__metal_driver_fixed_clock_rate+0x3e>
E:\GitHub\HiFive01-RevB\FS_workspace\004_UART_TXRX\bsp\build\debug/./metal/machine.h:213
		return METAL_FIXED_CLOCK_2_CLOCK_FREQUENCY;
20015db4:	044aa7b7          	lui	a5,0x44aa
20015db8:	20078793          	addi	a5,a5,512 # 44aa200 <__heap_size+0x44a9a00>
20015dbc:	a035                	j	20015de8 <__metal_driver_fixed_clock_rate+0x68>
E:\GitHub\HiFive01-RevB\FS_workspace\004_UART_TXRX\bsp\build\debug/./metal/machine.h:215
	else if ((uintptr_t)clock == (uintptr_t)&__metal_dt_clock_5) {
20015dbe:	fec42703          	lw	a4,-20(s0)
20015dc2:	800007b7          	lui	a5,0x80000
20015dc6:	02478793          	addi	a5,a5,36 # 80000024 <__global_pointer$+0xffffed74>
20015dca:	00f71463          	bne	a4,a5,20015dd2 <__metal_driver_fixed_clock_rate+0x52>
E:\GitHub\HiFive01-RevB\FS_workspace\004_UART_TXRX\bsp\build\debug/./metal/machine.h:216
		return METAL_FIXED_CLOCK_5_CLOCK_FREQUENCY;
20015dce:	67a1                	lui	a5,0x8
20015dd0:	a821                	j	20015de8 <__metal_driver_fixed_clock_rate+0x68>
E:\GitHub\HiFive01-RevB\FS_workspace\004_UART_TXRX\bsp\build\debug/./metal/machine.h:218
	else if ((uintptr_t)clock == (uintptr_t)&__metal_dt_clock_6) {
20015dd2:	fec42703          	lw	a4,-20(s0)
20015dd6:	800007b7          	lui	a5,0x80000
20015dda:	03078793          	addi	a5,a5,48 # 80000030 <__global_pointer$+0xffffed80>
20015dde:	00f71463          	bne	a4,a5,20015de6 <__metal_driver_fixed_clock_rate+0x66>
E:\GitHub\HiFive01-RevB\FS_workspace\004_UART_TXRX\bsp\build\debug/./metal/machine.h:219
		return METAL_FIXED_CLOCK_6_CLOCK_FREQUENCY;
20015de2:	67a1                	lui	a5,0x8
20015de4:	a011                	j	20015de8 <__metal_driver_fixed_clock_rate+0x68>
E:\GitHub\HiFive01-RevB\FS_workspace\004_UART_TXRX\bsp\build\debug/./metal/machine.h:222
		return 0;
20015de6:	4781                	li	a5,0
E:\GitHub\HiFive01-RevB\FS_workspace\004_UART_TXRX\bsp\build\debug/./metal/machine.h:224
}
20015de8:	853e                	mv	a0,a5
20015dea:	4472                	lw	s0,28(sp)
20015dec:	6105                	addi	sp,sp,32
20015dee:	8082                	ret

20015df0 <__metal_driver_fixed_clock_get_rate_hz>:
__metal_driver_fixed_clock_get_rate_hz():
E:/GitHub/HiFive01-RevB/FS_workspace/004_UART_TXRX/freedom-metal/src/drivers/fixed-clock.c:12

#include <metal/drivers/fixed-clock.h>
#include <metal/machine.h>
#include <stddef.h>

long __metal_driver_fixed_clock_get_rate_hz(const struct metal_clock *gclk) {
20015df0:	1101                	addi	sp,sp,-32
20015df2:	ce06                	sw	ra,28(sp)
20015df4:	cc22                	sw	s0,24(sp)
20015df6:	1000                	addi	s0,sp,32
20015df8:	fea42623          	sw	a0,-20(s0)
E:/GitHub/HiFive01-RevB/FS_workspace/004_UART_TXRX/freedom-metal/src/drivers/fixed-clock.c:13
    return __metal_driver_fixed_clock_rate(gclk);
20015dfc:	fec42503          	lw	a0,-20(s0)
20015e00:	3741                	jal	20015d80 <__metal_driver_fixed_clock_rate>
20015e02:	87aa                	mv	a5,a0
E:/GitHub/HiFive01-RevB/FS_workspace/004_UART_TXRX/freedom-metal/src/drivers/fixed-clock.c:14
}
20015e04:	853e                	mv	a0,a5
20015e06:	40f2                	lw	ra,28(sp)
20015e08:	4462                	lw	s0,24(sp)
20015e0a:	6105                	addi	sp,sp,32
20015e0c:	8082                	ret

20015e0e <__metal_driver_fixed_clock_set_rate_hz>:
__metal_driver_fixed_clock_set_rate_hz():
E:/GitHub/HiFive01-RevB/FS_workspace/004_UART_TXRX/freedom-metal/src/drivers/fixed-clock.c:17

long __metal_driver_fixed_clock_set_rate_hz(struct metal_clock *gclk,
                                            long target_hz) {
20015e0e:	1101                	addi	sp,sp,-32
20015e10:	ce06                	sw	ra,28(sp)
20015e12:	cc22                	sw	s0,24(sp)
20015e14:	1000                	addi	s0,sp,32
20015e16:	fea42623          	sw	a0,-20(s0)
20015e1a:	feb42423          	sw	a1,-24(s0)
E:/GitHub/HiFive01-RevB/FS_workspace/004_UART_TXRX/freedom-metal/src/drivers/fixed-clock.c:18
    return __metal_driver_fixed_clock_get_rate_hz(gclk);
20015e1e:	fec42503          	lw	a0,-20(s0)
20015e22:	37f9                	jal	20015df0 <__metal_driver_fixed_clock_get_rate_hz>
20015e24:	87aa                	mv	a5,a0
E:/GitHub/HiFive01-RevB/FS_workspace/004_UART_TXRX/freedom-metal/src/drivers/fixed-clock.c:19
}
20015e26:	853e                	mv	a0,a5
20015e28:	40f2                	lw	ra,28(sp)
20015e2a:	4462                	lw	s0,24(sp)
20015e2c:	6105                	addi	sp,sp,32
20015e2e:	8082                	ret

20015e30 <atexit>:
atexit():
20015e30:	85aa                	mv	a1,a0
20015e32:	4681                	li	a3,0
20015e34:	4601                	li	a2,0
20015e36:	4501                	li	a0,0
20015e38:	a429                	j	20016042 <__register_exitproc>

20015e3a <exit>:
exit():
20015e3a:	1141                	addi	sp,sp,-16
20015e3c:	c422                	sw	s0,8(sp)
20015e3e:	c606                	sw	ra,12(sp)
20015e40:	00000797          	auipc	a5,0x0
20015e44:	27e78793          	addi	a5,a5,638 # 200160be <__call_exitprocs>
20015e48:	842a                	mv	s0,a0
20015e4a:	c399                	beqz	a5,20015e50 <exit+0x16>
20015e4c:	4581                	li	a1,0
20015e4e:	2c85                	jal	200160be <__call_exitprocs>
20015e50:	ffffb517          	auipc	a0,0xffffb
20015e54:	0c852503          	lw	a0,200(a0) # 20010f18 <_global_impure_ptr>
20015e58:	551c                	lw	a5,40(a0)
20015e5a:	c391                	beqz	a5,20015e5e <exit+0x24>
20015e5c:	9782                	jalr	a5
20015e5e:	8522                	mv	a0,s0
20015e60:	293d                	jal	2001629e <_exit>

20015e62 <__libc_fini_array>:
__libc_fini_array():
20015e62:	1141                	addi	sp,sp,-16
20015e64:	c422                	sw	s0,8(sp)
20015e66:	c226                	sw	s1,4(sp)
20015e68:	ffffa417          	auipc	s0,0xffffa
20015e6c:	48040413          	addi	s0,s0,1152 # 200102e8 <metal_sifive_fe310_g000_pll_init>
20015e70:	ffffa497          	auipc	s1,0xffffa
20015e74:	47848493          	addi	s1,s1,1144 # 200102e8 <metal_sifive_fe310_g000_pll_init>
20015e78:	8c05                	sub	s0,s0,s1
20015e7a:	c606                	sw	ra,12(sp)
20015e7c:	8409                	srai	s0,s0,0x2
20015e7e:	e411                	bnez	s0,20015e8a <__libc_fini_array+0x28>
20015e80:	40b2                	lw	ra,12(sp)
20015e82:	4422                	lw	s0,8(sp)
20015e84:	4492                	lw	s1,4(sp)
20015e86:	0141                	addi	sp,sp,16
20015e88:	8082                	ret
20015e8a:	147d                	addi	s0,s0,-1
20015e8c:	00241793          	slli	a5,s0,0x2
20015e90:	97a6                	add	a5,a5,s1
20015e92:	439c                	lw	a5,0(a5)
20015e94:	9782                	jalr	a5
20015e96:	b7e5                	j	20015e7e <__libc_fini_array+0x1c>

20015e98 <__libc_init_array>:
__libc_init_array():
20015e98:	1141                	addi	sp,sp,-16
20015e9a:	c422                	sw	s0,8(sp)
20015e9c:	c226                	sw	s1,4(sp)
20015e9e:	ffffa417          	auipc	s0,0xffffa
20015ea2:	44240413          	addi	s0,s0,1090 # 200102e0 <_metal_sifive_fe310_g000_pll_init_ptr>
20015ea6:	ffffa497          	auipc	s1,0xffffa
20015eaa:	43a48493          	addi	s1,s1,1082 # 200102e0 <_metal_sifive_fe310_g000_pll_init_ptr>
20015eae:	8c81                	sub	s1,s1,s0
20015eb0:	c04a                	sw	s2,0(sp)
20015eb2:	c606                	sw	ra,12(sp)
20015eb4:	8489                	srai	s1,s1,0x2
20015eb6:	4901                	li	s2,0
20015eb8:	02991563          	bne	s2,s1,20015ee2 <__libc_init_array+0x4a>
20015ebc:	ffffa417          	auipc	s0,0xffffa
20015ec0:	42440413          	addi	s0,s0,1060 # 200102e0 <_metal_sifive_fe310_g000_pll_init_ptr>
20015ec4:	ffffa497          	auipc	s1,0xffffa
20015ec8:	41c48493          	addi	s1,s1,1052 # 200102e0 <_metal_sifive_fe310_g000_pll_init_ptr>
20015ecc:	8c81                	sub	s1,s1,s0
20015ece:	8489                	srai	s1,s1,0x2
20015ed0:	4901                	li	s2,0
20015ed2:	00991d63          	bne	s2,s1,20015eec <__libc_init_array+0x54>
20015ed6:	40b2                	lw	ra,12(sp)
20015ed8:	4422                	lw	s0,8(sp)
20015eda:	4492                	lw	s1,4(sp)
20015edc:	4902                	lw	s2,0(sp)
20015ede:	0141                	addi	sp,sp,16
20015ee0:	8082                	ret
20015ee2:	401c                	lw	a5,0(s0)
20015ee4:	0905                	addi	s2,s2,1
20015ee6:	0411                	addi	s0,s0,4
20015ee8:	9782                	jalr	a5
20015eea:	b7f9                	j	20015eb8 <__libc_init_array+0x20>
20015eec:	401c                	lw	a5,0(s0)
20015eee:	0905                	addi	s2,s2,1
20015ef0:	0411                	addi	s0,s0,4
20015ef2:	9782                	jalr	a5
20015ef4:	bff9                	j	20015ed2 <__libc_init_array+0x3a>

20015ef6 <strcat>:
strcat():
20015ef6:	87aa                	mv	a5,a0
20015ef8:	0007c683          	lbu	a3,0(a5)
20015efc:	873e                	mv	a4,a5
20015efe:	0785                	addi	a5,a5,1
20015f00:	fee5                	bnez	a3,20015ef8 <strcat+0x2>
20015f02:	0005c783          	lbu	a5,0(a1)
20015f06:	0585                	addi	a1,a1,1
20015f08:	0705                	addi	a4,a4,1
20015f0a:	fef70fa3          	sb	a5,-1(a4)
20015f0e:	fbf5                	bnez	a5,20015f02 <strcat+0xc>
20015f10:	8082                	ret

20015f12 <strcmp>:
strcmp():
20015f12:	00b56733          	or	a4,a0,a1
20015f16:	53fd                	li	t2,-1
20015f18:	8b0d                	andi	a4,a4,3
20015f1a:	e779                	bnez	a4,20015fe8 <strcmp+0xd6>
20015f1c:	7f7f87b7          	lui	a5,0x7f7f8
20015f20:	f7f78793          	addi	a5,a5,-129 # 7f7f7f7f <metal_segment_data_source_start+0x5f7e1cc7>
20015f24:	4110                	lw	a2,0(a0)
20015f26:	4194                	lw	a3,0(a1)
20015f28:	00f672b3          	and	t0,a2,a5
20015f2c:	00f66333          	or	t1,a2,a5
20015f30:	92be                	add	t0,t0,a5
20015f32:	0062e2b3          	or	t0,t0,t1
20015f36:	0c729763          	bne	t0,t2,20016004 <strcmp+0xf2>
20015f3a:	06d61863          	bne	a2,a3,20015faa <strcmp+0x98>
20015f3e:	4150                	lw	a2,4(a0)
20015f40:	41d4                	lw	a3,4(a1)
20015f42:	00f672b3          	and	t0,a2,a5
20015f46:	00f66333          	or	t1,a2,a5
20015f4a:	92be                	add	t0,t0,a5
20015f4c:	0062e2b3          	or	t0,t0,t1
20015f50:	0a729863          	bne	t0,t2,20016000 <strcmp+0xee>
20015f54:	04d61b63          	bne	a2,a3,20015faa <strcmp+0x98>
20015f58:	4510                	lw	a2,8(a0)
20015f5a:	4594                	lw	a3,8(a1)
20015f5c:	00f672b3          	and	t0,a2,a5
20015f60:	00f66333          	or	t1,a2,a5
20015f64:	92be                	add	t0,t0,a5
20015f66:	0062e2b3          	or	t0,t0,t1
20015f6a:	0a729163          	bne	t0,t2,2001600c <strcmp+0xfa>
20015f6e:	02d61e63          	bne	a2,a3,20015faa <strcmp+0x98>
20015f72:	4550                	lw	a2,12(a0)
20015f74:	45d4                	lw	a3,12(a1)
20015f76:	00f672b3          	and	t0,a2,a5
20015f7a:	00f66333          	or	t1,a2,a5
20015f7e:	92be                	add	t0,t0,a5
20015f80:	0062e2b3          	or	t0,t0,t1
20015f84:	08729a63          	bne	t0,t2,20016018 <strcmp+0x106>
20015f88:	02d61163          	bne	a2,a3,20015faa <strcmp+0x98>
20015f8c:	4910                	lw	a2,16(a0)
20015f8e:	4994                	lw	a3,16(a1)
20015f90:	00f672b3          	and	t0,a2,a5
20015f94:	00f66333          	or	t1,a2,a5
20015f98:	92be                	add	t0,t0,a5
20015f9a:	0062e2b3          	or	t0,t0,t1
20015f9e:	08729363          	bne	t0,t2,20016024 <strcmp+0x112>
20015fa2:	0551                	addi	a0,a0,20
20015fa4:	05d1                	addi	a1,a1,20
20015fa6:	f6d60fe3          	beq	a2,a3,20015f24 <strcmp+0x12>
20015faa:	01061713          	slli	a4,a2,0x10
20015fae:	01069793          	slli	a5,a3,0x10
20015fb2:	00f71c63          	bne	a4,a5,20015fca <strcmp+0xb8>
20015fb6:	01065713          	srli	a4,a2,0x10
20015fba:	0106d793          	srli	a5,a3,0x10
20015fbe:	40f70533          	sub	a0,a4,a5
20015fc2:	0ff57593          	zext.b	a1,a0
20015fc6:	e991                	bnez	a1,20015fda <strcmp+0xc8>
20015fc8:	8082                	ret
20015fca:	8341                	srli	a4,a4,0x10
20015fcc:	83c1                	srli	a5,a5,0x10
20015fce:	40f70533          	sub	a0,a4,a5
20015fd2:	0ff57593          	zext.b	a1,a0
20015fd6:	e191                	bnez	a1,20015fda <strcmp+0xc8>
20015fd8:	8082                	ret
20015fda:	0ff77713          	zext.b	a4,a4
20015fde:	0ff7f793          	zext.b	a5,a5
20015fe2:	40f70533          	sub	a0,a4,a5
20015fe6:	8082                	ret
20015fe8:	00054603          	lbu	a2,0(a0)
20015fec:	0005c683          	lbu	a3,0(a1)
20015ff0:	0505                	addi	a0,a0,1
20015ff2:	0585                	addi	a1,a1,1
20015ff4:	00d61363          	bne	a2,a3,20015ffa <strcmp+0xe8>
20015ff8:	fa65                	bnez	a2,20015fe8 <strcmp+0xd6>
20015ffa:	40d60533          	sub	a0,a2,a3
20015ffe:	8082                	ret
20016000:	0511                	addi	a0,a0,4
20016002:	0591                	addi	a1,a1,4
20016004:	fed612e3          	bne	a2,a3,20015fe8 <strcmp+0xd6>
20016008:	4501                	li	a0,0
2001600a:	8082                	ret
2001600c:	0521                	addi	a0,a0,8
2001600e:	05a1                	addi	a1,a1,8
20016010:	fcd61ce3          	bne	a2,a3,20015fe8 <strcmp+0xd6>
20016014:	4501                	li	a0,0
20016016:	8082                	ret
20016018:	0531                	addi	a0,a0,12
2001601a:	05b1                	addi	a1,a1,12
2001601c:	fcd616e3          	bne	a2,a3,20015fe8 <strcmp+0xd6>
20016020:	4501                	li	a0,0
20016022:	8082                	ret
20016024:	0541                	addi	a0,a0,16
20016026:	05c1                	addi	a1,a1,16
20016028:	fcd610e3          	bne	a2,a3,20015fe8 <strcmp+0xd6>
2001602c:	4501                	li	a0,0
2001602e:	8082                	ret

20016030 <strcpy>:
strcpy():
20016030:	87aa                	mv	a5,a0
20016032:	0005c703          	lbu	a4,0(a1)
20016036:	0785                	addi	a5,a5,1
20016038:	0585                	addi	a1,a1,1
2001603a:	fee78fa3          	sb	a4,-1(a5)
2001603e:	fb75                	bnez	a4,20016032 <strcpy+0x2>
20016040:	8082                	ret

20016042 <__register_exitproc>:
__register_exitproc():
20016042:	88aa                	mv	a7,a0
20016044:	5ffeb517          	auipc	a0,0x5ffeb
20016048:	a9c50513          	addi	a0,a0,-1380 # 80000ae0 <_global_atexit>
2001604c:	411c                	lw	a5,0(a0)
2001604e:	ef91                	bnez	a5,2001606a <__register_exitproc+0x28>
20016050:	5ffeb717          	auipc	a4,0x5ffeb
20016054:	a9c70713          	addi	a4,a4,-1380 # 80000aec <_global_atexit0>
20016058:	c118                	sw	a4,0(a0)
2001605a:	00000513          	li	a0,0
2001605e:	87ba                	mv	a5,a4
20016060:	c509                	beqz	a0,2001606a <__register_exitproc+0x28>
20016062:	411c                	lw	a5,0(a0)
20016064:	08f72423          	sw	a5,136(a4)
20016068:	87ba                	mv	a5,a4
2001606a:	43d8                	lw	a4,4(a5)
2001606c:	487d                	li	a6,31
2001606e:	557d                	li	a0,-1
20016070:	04e84663          	blt	a6,a4,200160bc <__register_exitproc+0x7a>
20016074:	02088d63          	beqz	a7,200160ae <__register_exitproc+0x6c>
20016078:	0887a803          	lw	a6,136(a5)
2001607c:	04080063          	beqz	a6,200160bc <__register_exitproc+0x7a>
20016080:	00271513          	slli	a0,a4,0x2
20016084:	9542                	add	a0,a0,a6
20016086:	c110                	sw	a2,0(a0)
20016088:	10082303          	lw	t1,256(a6)
2001608c:	4605                	li	a2,1
2001608e:	00e61633          	sll	a2,a2,a4
20016092:	00c36333          	or	t1,t1,a2
20016096:	10682023          	sw	t1,256(a6)
2001609a:	08d52023          	sw	a3,128(a0)
2001609e:	4689                	li	a3,2
200160a0:	00d89763          	bne	a7,a3,200160ae <__register_exitproc+0x6c>
200160a4:	10482683          	lw	a3,260(a6)
200160a8:	8e55                	or	a2,a2,a3
200160aa:	10c82223          	sw	a2,260(a6)
200160ae:	00170693          	addi	a3,a4,1
200160b2:	070a                	slli	a4,a4,0x2
200160b4:	c3d4                	sw	a3,4(a5)
200160b6:	97ba                	add	a5,a5,a4
200160b8:	c78c                	sw	a1,8(a5)
200160ba:	4501                	li	a0,0
200160bc:	8082                	ret

200160be <__call_exitprocs>:
__call_exitprocs():
200160be:	7179                	addi	sp,sp,-48
200160c0:	ca56                	sw	s5,20(sp)
200160c2:	c85a                	sw	s6,16(sp)
200160c4:	c65e                	sw	s7,12(sp)
200160c6:	c462                	sw	s8,8(sp)
200160c8:	d606                	sw	ra,44(sp)
200160ca:	d422                	sw	s0,40(sp)
200160cc:	d226                	sw	s1,36(sp)
200160ce:	d04a                	sw	s2,32(sp)
200160d0:	ce4e                	sw	s3,28(sp)
200160d2:	cc52                	sw	s4,24(sp)
200160d4:	c266                	sw	s9,4(sp)
200160d6:	8b2a                	mv	s6,a0
200160d8:	8aae                	mv	s5,a1
200160da:	5ffebb97          	auipc	s7,0x5ffeb
200160de:	a06b8b93          	addi	s7,s7,-1530 # 80000ae0 <_global_atexit>
200160e2:	4c05                	li	s8,1
200160e4:	000ba483          	lw	s1,0(s7)
200160e8:	cc81                	beqz	s1,20016100 <__call_exitprocs+0x42>
200160ea:	40c0                	lw	s0,4(s1)
200160ec:	0884a983          	lw	s3,136(s1)
200160f0:	fff40913          	addi	s2,s0,-1
200160f4:	040a                	slli	s0,s0,0x2
200160f6:	00898a33          	add	s4,s3,s0
200160fa:	9426                	add	s0,s0,s1
200160fc:	00095f63          	bgez	s2,2001611a <__call_exitprocs+0x5c>
20016100:	50b2                	lw	ra,44(sp)
20016102:	5422                	lw	s0,40(sp)
20016104:	5492                	lw	s1,36(sp)
20016106:	5902                	lw	s2,32(sp)
20016108:	49f2                	lw	s3,28(sp)
2001610a:	4a62                	lw	s4,24(sp)
2001610c:	4ad2                	lw	s5,20(sp)
2001610e:	4b42                	lw	s6,16(sp)
20016110:	4bb2                	lw	s7,12(sp)
20016112:	4c22                	lw	s8,8(sp)
20016114:	4c92                	lw	s9,4(sp)
20016116:	6145                	addi	sp,sp,48
20016118:	8082                	ret
2001611a:	000a8c63          	beqz	s5,20016132 <__call_exitprocs+0x74>
2001611e:	00099663          	bnez	s3,2001612a <__call_exitprocs+0x6c>
20016122:	197d                	addi	s2,s2,-1
20016124:	1a71                	addi	s4,s4,-4
20016126:	1471                	addi	s0,s0,-4
20016128:	bfd1                	j	200160fc <__call_exitprocs+0x3e>
2001612a:	07ca2783          	lw	a5,124(s4)
2001612e:	ff579ae3          	bne	a5,s5,20016122 <__call_exitprocs+0x64>
20016132:	40d8                	lw	a4,4(s1)
20016134:	405c                	lw	a5,4(s0)
20016136:	177d                	addi	a4,a4,-1
20016138:	03271863          	bne	a4,s2,20016168 <__call_exitprocs+0xaa>
2001613c:	0124a223          	sw	s2,4(s1)
20016140:	d3ed                	beqz	a5,20016122 <__call_exitprocs+0x64>
20016142:	0044ac83          	lw	s9,4(s1)
20016146:	00098863          	beqz	s3,20016156 <__call_exitprocs+0x98>
2001614a:	1009a683          	lw	a3,256(s3)
2001614e:	012c1733          	sll	a4,s8,s2
20016152:	8ef9                	and	a3,a3,a4
20016154:	ee89                	bnez	a3,2001616e <__call_exitprocs+0xb0>
20016156:	9782                	jalr	a5
20016158:	40d8                	lw	a4,4(s1)
2001615a:	000ba783          	lw	a5,0(s7)
2001615e:	f99713e3          	bne	a4,s9,200160e4 <__call_exitprocs+0x26>
20016162:	fcf480e3          	beq	s1,a5,20016122 <__call_exitprocs+0x64>
20016166:	bfbd                	j	200160e4 <__call_exitprocs+0x26>
20016168:	00042223          	sw	zero,4(s0)
2001616c:	bfd1                	j	20016140 <__call_exitprocs+0x82>
2001616e:	1049a683          	lw	a3,260(s3)
20016172:	ffca2583          	lw	a1,-4(s4)
20016176:	8f75                	and	a4,a4,a3
20016178:	e701                	bnez	a4,20016180 <__call_exitprocs+0xc2>
2001617a:	855a                	mv	a0,s6
2001617c:	9782                	jalr	a5
2001617e:	bfe9                	j	20016158 <__call_exitprocs+0x9a>
20016180:	852e                	mv	a0,a1
20016182:	9782                	jalr	a5
20016184:	bfd1                	j	20016158 <__call_exitprocs+0x9a>

20016186 <metal_init>:
metal_init():
E:/GitHub/HiFive01-RevB/FS_workspace/004_UART_TXRX/freedom-metal/src/init.c:17
extern metal_constructor_t metal_constructors_start;
extern metal_constructor_t metal_constructors_end;
extern metal_destructor_t metal_destructors_start;
extern metal_destructor_t metal_destructors_end;

void metal_init(void) {
20016186:	1101                	addi	sp,sp,-32
20016188:	ce06                	sw	ra,28(sp)
2001618a:	cc22                	sw	s0,24(sp)
2001618c:	1000                	addi	s0,sp,32
E:/GitHub/HiFive01-RevB/FS_workspace/004_UART_TXRX/freedom-metal/src/init.c:20
    /* Make sure the constructors only run once */
    static int init_done = 0;
    if (init_done) {
2001618e:	800017b7          	lui	a5,0x80001
20016192:	ae47a783          	lw	a5,-1308(a5) # 80000ae4 <__global_pointer$+0xfffff834>
20016196:	efa9                	bnez	a5,200161f0 <metal_init+0x6a>
E:/GitHub/HiFive01-RevB/FS_workspace/004_UART_TXRX/freedom-metal/src/init.c:23
        return;
    }
    init_done = 1;
20016198:	800017b7          	lui	a5,0x80001
2001619c:	4705                	li	a4,1
2001619e:	aee7a223          	sw	a4,-1308(a5) # 80000ae4 <__global_pointer$+0xfffff834>
E:/GitHub/HiFive01-RevB/FS_workspace/004_UART_TXRX/freedom-metal/src/init.c:25

    if (&metal_constructors_end <= &metal_constructors_start) {
200161a2:	200107b7          	lui	a5,0x20010
200161a6:	2e878713          	addi	a4,a5,744 # 200102e8 <metal_sifive_fe310_g000_pll_init>
200161aa:	200107b7          	lui	a5,0x20010
200161ae:	2e078793          	addi	a5,a5,736 # 200102e0 <_metal_sifive_fe310_g000_pll_init_ptr>
200161b2:	04e7f163          	bgeu	a5,a4,200161f4 <metal_init+0x6e>
E:/GitHub/HiFive01-RevB/FS_workspace/004_UART_TXRX/freedom-metal/src/init.c:29
        return;
    }

    metal_constructor_t *funcptr = &metal_constructors_start;
200161b6:	200107b7          	lui	a5,0x20010
200161ba:	2e078793          	addi	a5,a5,736 # 200102e0 <_metal_sifive_fe310_g000_pll_init_ptr>
200161be:	fef42623          	sw	a5,-20(s0)
E:/GitHub/HiFive01-RevB/FS_workspace/004_UART_TXRX/freedom-metal/src/init.c:30
    while (funcptr != &metal_constructors_end) {
200161c2:	a831                	j	200161de <metal_init+0x58>
E:/GitHub/HiFive01-RevB/FS_workspace/004_UART_TXRX/freedom-metal/src/init.c:31
        metal_constructor_t func = *funcptr;
200161c4:	fec42783          	lw	a5,-20(s0)
200161c8:	439c                	lw	a5,0(a5)
200161ca:	fef42423          	sw	a5,-24(s0)
E:/GitHub/HiFive01-RevB/FS_workspace/004_UART_TXRX/freedom-metal/src/init.c:33

        func();
200161ce:	fe842783          	lw	a5,-24(s0)
200161d2:	9782                	jalr	a5
E:/GitHub/HiFive01-RevB/FS_workspace/004_UART_TXRX/freedom-metal/src/init.c:35

        funcptr += 1;
200161d4:	fec42783          	lw	a5,-20(s0)
200161d8:	0791                	addi	a5,a5,4
200161da:	fef42623          	sw	a5,-20(s0)
E:/GitHub/HiFive01-RevB/FS_workspace/004_UART_TXRX/freedom-metal/src/init.c:30
    while (funcptr != &metal_constructors_end) {
200161de:	fec42703          	lw	a4,-20(s0)
200161e2:	200107b7          	lui	a5,0x20010
200161e6:	2e878793          	addi	a5,a5,744 # 200102e8 <metal_sifive_fe310_g000_pll_init>
200161ea:	fcf71de3          	bne	a4,a5,200161c4 <metal_init+0x3e>
200161ee:	a021                	j	200161f6 <metal_init+0x70>
E:/GitHub/HiFive01-RevB/FS_workspace/004_UART_TXRX/freedom-metal/src/init.c:21
        return;
200161f0:	0001                	nop
200161f2:	a011                	j	200161f6 <metal_init+0x70>
E:/GitHub/HiFive01-RevB/FS_workspace/004_UART_TXRX/freedom-metal/src/init.c:26
        return;
200161f4:	0001                	nop
E:/GitHub/HiFive01-RevB/FS_workspace/004_UART_TXRX/freedom-metal/src/init.c:37
    }
}
200161f6:	40f2                	lw	ra,28(sp)
200161f8:	4462                	lw	s0,24(sp)
200161fa:	6105                	addi	sp,sp,32
200161fc:	8082                	ret

200161fe <metal_fini>:
metal_fini():
E:/GitHub/HiFive01-RevB/FS_workspace/004_UART_TXRX/freedom-metal/src/init.c:39

void metal_fini(void) {
200161fe:	1101                	addi	sp,sp,-32
20016200:	ce06                	sw	ra,28(sp)
20016202:	cc22                	sw	s0,24(sp)
20016204:	1000                	addi	s0,sp,32
E:/GitHub/HiFive01-RevB/FS_workspace/004_UART_TXRX/freedom-metal/src/init.c:42
    /* Make sure the destructors only run once */
    static int fini_done = 0;
    if (fini_done) {
20016206:	800017b7          	lui	a5,0x80001
2001620a:	ae87a783          	lw	a5,-1304(a5) # 80000ae8 <__global_pointer$+0xfffff838>
2001620e:	efa9                	bnez	a5,20016268 <metal_fini+0x6a>
E:/GitHub/HiFive01-RevB/FS_workspace/004_UART_TXRX/freedom-metal/src/init.c:45
        return;
    }
    fini_done = 1;
20016210:	800017b7          	lui	a5,0x80001
20016214:	4705                	li	a4,1
20016216:	aee7a423          	sw	a4,-1304(a5) # 80000ae8 <__global_pointer$+0xfffff838>
E:/GitHub/HiFive01-RevB/FS_workspace/004_UART_TXRX/freedom-metal/src/init.c:47

    if (&metal_destructors_end <= &metal_destructors_start) {
2001621a:	200107b7          	lui	a5,0x20010
2001621e:	2e878713          	addi	a4,a5,744 # 200102e8 <metal_sifive_fe310_g000_pll_init>
20016222:	200107b7          	lui	a5,0x20010
20016226:	2e878793          	addi	a5,a5,744 # 200102e8 <metal_sifive_fe310_g000_pll_init>
2001622a:	04e7f163          	bgeu	a5,a4,2001626c <metal_fini+0x6e>
E:/GitHub/HiFive01-RevB/FS_workspace/004_UART_TXRX/freedom-metal/src/init.c:51
        return;
    }

    metal_destructor_t *funcptr = &metal_destructors_start;
2001622e:	200107b7          	lui	a5,0x20010
20016232:	2e878793          	addi	a5,a5,744 # 200102e8 <metal_sifive_fe310_g000_pll_init>
20016236:	fef42623          	sw	a5,-20(s0)
E:/GitHub/HiFive01-RevB/FS_workspace/004_UART_TXRX/freedom-metal/src/init.c:52
    while (funcptr != &metal_destructors_end) {
2001623a:	a831                	j	20016256 <metal_fini+0x58>
E:/GitHub/HiFive01-RevB/FS_workspace/004_UART_TXRX/freedom-metal/src/init.c:53
        metal_destructor_t func = *funcptr;
2001623c:	fec42783          	lw	a5,-20(s0)
20016240:	439c                	lw	a5,0(a5)
20016242:	fef42423          	sw	a5,-24(s0)
E:/GitHub/HiFive01-RevB/FS_workspace/004_UART_TXRX/freedom-metal/src/init.c:55

        func();
20016246:	fe842783          	lw	a5,-24(s0)
2001624a:	9782                	jalr	a5
E:/GitHub/HiFive01-RevB/FS_workspace/004_UART_TXRX/freedom-metal/src/init.c:57

        funcptr += 1;
2001624c:	fec42783          	lw	a5,-20(s0)
20016250:	0791                	addi	a5,a5,4
20016252:	fef42623          	sw	a5,-20(s0)
E:/GitHub/HiFive01-RevB/FS_workspace/004_UART_TXRX/freedom-metal/src/init.c:52
    while (funcptr != &metal_destructors_end) {
20016256:	fec42703          	lw	a4,-20(s0)
2001625a:	200107b7          	lui	a5,0x20010
2001625e:	2e878793          	addi	a5,a5,744 # 200102e8 <metal_sifive_fe310_g000_pll_init>
20016262:	fcf71de3          	bne	a4,a5,2001623c <metal_fini+0x3e>
20016266:	a021                	j	2001626e <metal_fini+0x70>
E:/GitHub/HiFive01-RevB/FS_workspace/004_UART_TXRX/freedom-metal/src/init.c:43
        return;
20016268:	0001                	nop
2001626a:	a011                	j	2001626e <metal_fini+0x70>
E:/GitHub/HiFive01-RevB/FS_workspace/004_UART_TXRX/freedom-metal/src/init.c:48
        return;
2001626c:	0001                	nop
E:/GitHub/HiFive01-RevB/FS_workspace/004_UART_TXRX/freedom-metal/src/init.c:59
    }
}
2001626e:	40f2                	lw	ra,28(sp)
20016270:	4462                	lw	s0,24(sp)
20016272:	6105                	addi	sp,sp,32
20016274:	8082                	ret

20016276 <metal_init_run>:
metal_init_run():
E:/GitHub/HiFive01-RevB/FS_workspace/004_UART_TXRX/freedom-metal/src/init.c:69
 * in the case that users don't want the metal constructors or
 * destructors to run.
 */

void metal_init_run(void) __attribute__((weak));
void metal_init_run(void) { metal_init(); }
20016276:	1141                	addi	sp,sp,-16
20016278:	c606                	sw	ra,12(sp)
2001627a:	c422                	sw	s0,8(sp)
2001627c:	0800                	addi	s0,sp,16
2001627e:	3721                	jal	20016186 <metal_init>
20016280:	0001                	nop
20016282:	40b2                	lw	ra,12(sp)
20016284:	4422                	lw	s0,8(sp)
20016286:	0141                	addi	sp,sp,16
20016288:	8082                	ret

2001628a <metal_fini_run>:
metal_fini_run():
E:/GitHub/HiFive01-RevB/FS_workspace/004_UART_TXRX/freedom-metal/src/init.c:72

void metal_fini_run(void) __attribute__((weak));
void metal_fini_run(void) { metal_fini(); }
2001628a:	1141                	addi	sp,sp,-16
2001628c:	c606                	sw	ra,12(sp)
2001628e:	c422                	sw	s0,8(sp)
20016290:	0800                	addi	s0,sp,16
20016292:	37b5                	jal	200161fe <metal_fini>
20016294:	0001                	nop
20016296:	40b2                	lw	ra,12(sp)
20016298:	4422                	lw	s0,8(sp)
2001629a:	0141                	addi	sp,sp,16
2001629c:	8082                	ret

2001629e <_exit>:
_exit():
E:/GitHub/HiFive01-RevB/FS_workspace/004_UART_TXRX/freedom-metal/gloss/sys_exit.c:3
#include <metal/shutdown.h>

void _exit(int exit_status) {
2001629e:	1101                	addi	sp,sp,-32
200162a0:	ce06                	sw	ra,28(sp)
200162a2:	cc22                	sw	s0,24(sp)
200162a4:	1000                	addi	s0,sp,32
200162a6:	fea42623          	sw	a0,-20(s0)
E:/GitHub/HiFive01-RevB/FS_workspace/004_UART_TXRX/freedom-metal/gloss/sys_exit.c:4
    metal_shutdown(exit_status);
200162aa:	fec42503          	lw	a0,-20(s0)
200162ae:	8d3ff0ef          	jal	ra,20015b80 <metal_shutdown>
